; ModuleID = '/media/maaz/Data/Repos/rake/Halide-master-d48fbde/src/runtime/cuda.cpp'
source_filename = "/media/maaz/Data/Repos/rake/Halide-master-d48fbde/src/runtime/cuda.cpp"
target datalayout = "e-p:32:32-i64:64"
target triple = "le32-unknown-nacl-unknown"

%"struct.Halide::Runtime::Internal::Cuda::CUctx_st" = type opaque
%"struct.Halide::Runtime::Internal::Cuda::CUmod_st" = type opaque
%"struct.Halide::Runtime::Internal::Cuda::CUfunc_st" = type opaque
%"struct.Halide::Runtime::Internal::Cuda::CUDA_MEMCPY3D_st" = type { i32, i32, i32, i32, i32, i8*, i32, %"struct.Halide::Runtime::Internal::Cuda::CUarray_st"*, i8*, i32, i32, i32, i32, i32, i32, i32, i8*, i32, %"struct.Halide::Runtime::Internal::Cuda::CUarray_st"*, i8*, i32, i32, i32, i32, i32 }
%"struct.Halide::Runtime::Internal::Cuda::CUarray_st" = type opaque
%"struct.Halide::Runtime::Internal::Cuda::CUstream_st" = type opaque
%struct.halide_mutex = type { [1 x i32] }
%"struct.Halide::Runtime::Internal::Cuda::FreeListItem" = type { i32, %"struct.Halide::Runtime::Internal::Cuda::CUctx_st"*, %"struct.Halide::Runtime::Internal::Cuda::CUstream_st"*, i32, %"struct.Halide::Runtime::Internal::Cuda::FreeListItem"* }
%"class.Halide::Internal::GPUCompilationCache" = type { %struct.halide_mutex, i32, %"struct.Halide::Internal::GPUCompilationCache<Halide::Runtime::Internal::Cuda::CUctx_st *, Halide::Runtime::Internal::Cuda::CUmod_st *>::CachedCompilation"*, i32, i32 }
%"struct.Halide::Internal::GPUCompilationCache<Halide::Runtime::Internal::Cuda::CUctx_st *, Halide::Runtime::Internal::Cuda::CUmod_st *>::CachedCompilation" = type { %"struct.Halide::Runtime::Internal::Cuda::CUctx_st"*, %"struct.Halide::Runtime::Internal::Cuda::CUmod_st"*, i32, i32 }
%struct.halide_device_allocation_pool = type { i32 (i8*)*, %struct.halide_device_allocation_pool* }
%struct.halide_device_interface_t = type { i32 (i8*, %struct.halide_buffer_t*, %struct.halide_device_interface_t*)*, i32 (i8*, %struct.halide_buffer_t*)*, i32 (i8*, %struct.halide_buffer_t*)*, void (i8*, %struct.halide_device_interface_t*)*, i32 (i8*, %struct.halide_buffer_t*)*, i32 (i8*, %struct.halide_buffer_t*, %struct.halide_device_interface_t*)*, i32 (i8*, %struct.halide_buffer_t*, %struct.halide_device_interface_t*)*, i32 (i8*, %struct.halide_buffer_t*)*, i32 (i8*, %struct.halide_buffer_t*, %struct.halide_device_interface_t*, %struct.halide_buffer_t*)*, i32 (i8*, %struct.halide_buffer_t*, %struct.halide_buffer_t*)*, i32 (i8*, %struct.halide_buffer_t*, i32, i32, %struct.halide_buffer_t*)*, i32 (i8*, %struct.halide_buffer_t*)*, i32 (i8*, %struct.halide_buffer_t*, i64, %struct.halide_device_interface_t*)*, i32 (i8*, %struct.halide_buffer_t*)*, i32 (i8*, i32*, i32*)*, %struct.halide_device_interface_impl_t* }
%struct.halide_buffer_t = type { i64, %struct.halide_device_interface_t*, i8*, i64, %struct.halide_type_t, i32, %struct.halide_dimension_t*, i8* }
%struct.halide_type_t = type { i8, i8, i16 }
%struct.halide_dimension_t = type { i32, i32, i32, i32 }
%struct.halide_device_interface_impl_t = type { void ()*, void ()*, i32 (i8*, %struct.halide_buffer_t*)*, i32 (i8*, %struct.halide_buffer_t*)*, i32 (i8*, %struct.halide_buffer_t*)*, i32 (i8*)*, i32 (i8*, %struct.halide_buffer_t*)*, i32 (i8*, %struct.halide_buffer_t*)*, i32 (i8*, %struct.halide_buffer_t*)*, i32 (i8*, %struct.halide_buffer_t*)*, i32 (i8*, %struct.halide_buffer_t*, %struct.halide_device_interface_t*, %struct.halide_buffer_t*)*, i32 (i8*, %struct.halide_buffer_t*, %struct.halide_buffer_t*)*, i32 (i8*, %struct.halide_buffer_t*, i32, i32, %struct.halide_buffer_t*)*, i32 (i8*, %struct.halide_buffer_t*)*, i32 (i8*, %struct.halide_buffer_t*, i64)*, i32 (i8*, %struct.halide_buffer_t*)* }
%"struct.Halide::Runtime::Internal::device_copy" = type { i64, i64, i64, [16 x i64], [16 x i64], [16 x i64], i64 }
%"class.Halide::Runtime::Internal::(anonymous namespace)::Printer" = type <{ i8*, i8*, i8*, i8*, i8, [1 x i8], [2 x i8] }>
%"class.Halide::Runtime::Internal::(anonymous namespace)::Printer.0" = type <{ i8*, i8*, i8*, i8*, i8, [1 x i8], [2 x i8] }>
%"struct.Halide::Runtime::Internal::ScopedSpinLock" = type { i8* }
%"struct.Halide::Runtime::Internal::ScopedMutexLock" = type { %struct.halide_mutex* }
%struct.anon = type { i32*, i32 }
%"class.Halide::Runtime::Internal::Cuda::Context" = type { i8*, %"struct.Halide::Runtime::Internal::Cuda::CUctx_st"*, i32 }

$_ZN6Halide8Internal19GPUCompilationCacheIPNS_7Runtime8Internal4Cuda8CUctx_stEPNS4_8CUmod_stEE18kernel_state_setupIPFS8_PvPKciEJSB_SD_iEEEbSB_PSB_S6_RS8_T_DpT0_ = comdat any

$_ZN6Halide8Internal19GPUCompilationCacheIPNS_7Runtime8Internal4Cuda8CUctx_stEPNS4_8CUmod_stEE6insertERKNS9_17CachedCompilationE = comdat any

$_ZN6Halide8Internal19GPUCompilationCacheIPNS_7Runtime8Internal4Cuda8CUctx_stEPNS4_8CUmod_stEE12resize_tableEi = comdat any

$_ZN6Halide8Internal19GPUCompilationCacheIPNS_7Runtime8Internal4Cuda8CUctx_stEPNS4_8CUmod_stEE15release_contextIPFNS4_8CUresultES8_EEEvPvbS6_RT_ = comdat any

$_ZGVN6Halide7Runtime8Internal4Cuda17compilation_cacheE = comdat any

@.str = private unnamed_addr constant [55 x i8] c"copy_memory: no copy needed as pointers are the same.\0A\00", align 1
@_ZN6Halide7Runtime8Internal4Cuda6cuInitE = weak dso_local local_unnamed_addr global i32 (i32)* null, align 4, !dbg !0
@_ZN6Halide7Runtime8Internal4Cuda16cuDeviceGetCountE = weak dso_local local_unnamed_addr global i32 (i32*)* null, align 4, !dbg !70
@_ZN6Halide7Runtime8Internal4Cuda11cuDeviceGetE = weak dso_local local_unnamed_addr global i32 (i32*, i32)* null, align 4, !dbg !77
@_ZN6Halide7Runtime8Internal4Cuda20cuDeviceGetAttributeE = weak dso_local local_unnamed_addr global i32 (i32*, i32, i32)* null, align 4, !dbg !84
@_ZN6Halide7Runtime8Internal4Cuda15cuDeviceGetNameE = weak dso_local local_unnamed_addr global i32 (i8*, i32, i32)* null, align 4, !dbg !183
@_ZN6Halide7Runtime8Internal4Cuda16cuDeviceTotalMemE = weak dso_local local_unnamed_addr global i32 (i32*, i32)* null, align 4, !dbg !190
@_ZN6Halide7Runtime8Internal4Cuda11cuCtxCreateE = weak dso_local local_unnamed_addr global i32 (%"struct.Halide::Runtime::Internal::Cuda::CUctx_st"**, i32, i32)* null, align 4, !dbg !198
@_ZN6Halide7Runtime8Internal4Cuda12cuCtxDestroyE = weak dso_local local_unnamed_addr global i32 (%"struct.Halide::Runtime::Internal::Cuda::CUctx_st"*)* null, align 4, !dbg !207
@_ZN6Halide7Runtime8Internal4Cuda14cuProfilerStopE = weak dso_local local_unnamed_addr global i32 ()* null, align 4, !dbg !212
@_ZN6Halide7Runtime8Internal4Cuda18cuCtxGetApiVersionE = weak dso_local local_unnamed_addr global i32 (%"struct.Halide::Runtime::Internal::Cuda::CUctx_st"*, i32*)* null, align 4, !dbg !217
@_ZN6Halide7Runtime8Internal4Cuda14cuCtxGetDeviceE = weak dso_local local_unnamed_addr global i32 (i32*)* null, align 4, !dbg !223
@_ZN6Halide7Runtime8Internal4Cuda16cuModuleLoadDataE = weak dso_local local_unnamed_addr global i32 (%"struct.Halide::Runtime::Internal::Cuda::CUmod_st"**, i8*)* null, align 4, !dbg !228
@_ZN6Halide7Runtime8Internal4Cuda18cuModuleLoadDataExE = weak dso_local local_unnamed_addr global i32 (%"struct.Halide::Runtime::Internal::Cuda::CUmod_st"**, i8*, i32, i32*, i8**)* null, align 4, !dbg !239
@_ZN6Halide7Runtime8Internal4Cuda14cuModuleUnloadE = weak dso_local global i32 (%"struct.Halide::Runtime::Internal::Cuda::CUmod_st"*)* null, align 4, !dbg !261
@_ZN6Halide7Runtime8Internal4Cuda19cuModuleGetFunctionE = weak dso_local local_unnamed_addr global i32 (%"struct.Halide::Runtime::Internal::Cuda::CUfunc_st"**, %"struct.Halide::Runtime::Internal::Cuda::CUmod_st"*, i8*)* null, align 4, !dbg !266
@_ZN6Halide7Runtime8Internal4Cuda10cuMemAllocE = weak dso_local local_unnamed_addr global i32 (i32*, i32)* null, align 4, !dbg !277
@_ZN6Halide7Runtime8Internal4Cuda9cuMemFreeE = weak dso_local local_unnamed_addr global i32 (i32)* null, align 4, !dbg !284
@_ZN6Halide7Runtime8Internal4Cuda12cuMemcpyHtoDE = weak dso_local local_unnamed_addr global i32 (i32, i8*, i32)* null, align 4, !dbg !289
@_ZN6Halide7Runtime8Internal4Cuda12cuMemcpyDtoHE = weak dso_local local_unnamed_addr global i32 (i8*, i32, i32)* null, align 4, !dbg !294
@_ZN6Halide7Runtime8Internal4Cuda12cuMemcpyDtoDE = weak dso_local local_unnamed_addr global i32 (i32, i32, i32)* null, align 4, !dbg !299
@_ZN6Halide7Runtime8Internal4Cuda10cuMemcpy3DE = weak dso_local local_unnamed_addr global i32 (%"struct.Halide::Runtime::Internal::Cuda::CUDA_MEMCPY3D_st"*)* null, align 4, !dbg !304
@_ZN6Halide7Runtime8Internal4Cuda14cuLaunchKernelE = weak dso_local local_unnamed_addr global i32 (%"struct.Halide::Runtime::Internal::Cuda::CUfunc_st"*, i32, i32, i32, i32, i32, i32, i32, %"struct.Halide::Runtime::Internal::Cuda::CUstream_st"*, i8**, i8**)* null, align 4, !dbg !313
@_ZN6Halide7Runtime8Internal4Cuda16cuCtxSynchronizeE = weak dso_local local_unnamed_addr global i32 ()* null, align 4, !dbg !321
@_ZN6Halide7Runtime8Internal4Cuda16cuCtxPushCurrentE = weak dso_local local_unnamed_addr global i32 (%"struct.Halide::Runtime::Internal::Cuda::CUctx_st"*)* null, align 4, !dbg !323
@_ZN6Halide7Runtime8Internal4Cuda15cuCtxPopCurrentE = weak dso_local local_unnamed_addr global i32 (%"struct.Halide::Runtime::Internal::Cuda::CUctx_st"**)* null, align 4, !dbg !325
@_ZN6Halide7Runtime8Internal4Cuda21cuPointerGetAttributeE = weak dso_local local_unnamed_addr global i32 (i8*, i32, i32)* null, align 4, !dbg !330
@_ZN6Halide7Runtime8Internal4Cuda19cuStreamSynchronizeE = weak dso_local local_unnamed_addr global i32 (%"struct.Halide::Runtime::Internal::Cuda::CUstream_st"*)* null, align 4, !dbg !335
@_ZN6Halide7Runtime8Internal4Cuda8lib_cudaE = weak dso_local local_unnamed_addr global i8* null, align 4, !dbg !340
@_ZN6Halide7Runtime8Internal4Cuda13lib_cuda_lockE = weak dso_local global i8 0, align 1, !dbg !343
@.str.1 = private unnamed_addr constant [11 x i8] c"libcuda.so\00", align 1
@.str.2 = private unnamed_addr constant [14 x i8] c"libcuda.dylib\00", align 1
@.str.3 = private unnamed_addr constant [40 x i8] c"/Library/Frameworks/CUDA.framework/CUDA\00", align 1
@.str.4 = private unnamed_addr constant [34 x i8] c"    Loaded CUDA runtime library: \00", align 1
@.str.5 = private unnamed_addr constant [2 x i8] c"\0A\00", align 1
@.str.6 = private unnamed_addr constant [33 x i8] c"    load_libcuda (user_context: \00", align 1
@.str.7 = private unnamed_addr constant [3 x i8] c")\0A\00", align 1
@.str.8 = private unnamed_addr constant [108 x i8] c"/media/maaz/Data/Repos/rake/Halide-master-d48fbde/src/runtime/cuda.cpp:75 Assert failed: cuInit == nullptr\0A\00", align 1
@.str.9 = private unnamed_addr constant [7 x i8] c"cuInit\00", align 1
@.str.10 = private unnamed_addr constant [17 x i8] c"cuDeviceGetCount\00", align 1
@.str.11 = private unnamed_addr constant [12 x i8] c"cuDeviceGet\00", align 1
@.str.12 = private unnamed_addr constant [21 x i8] c"cuDeviceGetAttribute\00", align 1
@.str.13 = private unnamed_addr constant [16 x i8] c"cuDeviceGetName\00", align 1
@.str.14 = private unnamed_addr constant [17 x i8] c"cuDeviceTotalMem\00", align 1
@.str.15 = private unnamed_addr constant [15 x i8] c"cuCtxCreate_v2\00", align 1
@.str.16 = private unnamed_addr constant [16 x i8] c"cuCtxDestroy_v2\00", align 1
@.str.17 = private unnamed_addr constant [15 x i8] c"cuProfilerStop\00", align 1
@.str.18 = private unnamed_addr constant [19 x i8] c"cuCtxGetApiVersion\00", align 1
@.str.19 = private unnamed_addr constant [15 x i8] c"cuCtxGetDevice\00", align 1
@.str.20 = private unnamed_addr constant [17 x i8] c"cuModuleLoadData\00", align 1
@.str.21 = private unnamed_addr constant [19 x i8] c"cuModuleLoadDataEx\00", align 1
@.str.22 = private unnamed_addr constant [15 x i8] c"cuModuleUnload\00", align 1
@.str.23 = private unnamed_addr constant [20 x i8] c"cuModuleGetFunction\00", align 1
@.str.24 = private unnamed_addr constant [14 x i8] c"cuMemAlloc_v2\00", align 1
@.str.25 = private unnamed_addr constant [13 x i8] c"cuMemFree_v2\00", align 1
@.str.26 = private unnamed_addr constant [16 x i8] c"cuMemcpyHtoD_v2\00", align 1
@.str.27 = private unnamed_addr constant [16 x i8] c"cuMemcpyDtoH_v2\00", align 1
@.str.28 = private unnamed_addr constant [16 x i8] c"cuMemcpyDtoD_v2\00", align 1
@.str.29 = private unnamed_addr constant [14 x i8] c"cuMemcpy3D_v2\00", align 1
@.str.30 = private unnamed_addr constant [15 x i8] c"cuLaunchKernel\00", align 1
@.str.31 = private unnamed_addr constant [17 x i8] c"cuCtxSynchronize\00", align 1
@.str.32 = private unnamed_addr constant [20 x i8] c"cuCtxPushCurrent_v2\00", align 1
@.str.33 = private unnamed_addr constant [19 x i8] c"cuCtxPopCurrent_v2\00", align 1
@.str.34 = private unnamed_addr constant [22 x i8] c"cuPointerGetAttribute\00", align 1
@.str.35 = private unnamed_addr constant [20 x i8] c"cuStreamSynchronize\00", align 1
@_ZN6Halide7Runtime8Internal4Cuda7contextE = weak dso_local local_unnamed_addr global %"struct.Halide::Runtime::Internal::Cuda::CUctx_st"* null, align 4, !dbg !360
@_ZN6Halide7Runtime8Internal4Cuda12context_lockE = weak dso_local global %struct.halide_mutex zeroinitializer, align 4, !dbg !362
@_ZN6Halide7Runtime8Internal4Cuda9free_listE = weak dso_local local_unnamed_addr global %"struct.Halide::Runtime::Internal::Cuda::FreeListItem"* null, align 4, !dbg !373
@_ZN6Halide7Runtime8Internal4Cuda14free_list_lockE = weak dso_local global %struct.halide_mutex zeroinitializer, align 4, !dbg !383
@.str.36 = private unnamed_addr constant [106 x i8] c"/media/maaz/Data/Repos/rake/Halide-master-d48fbde/src/runtime/cuda.cpp:142 Assert failed: ctx != nullptr\0A\00", align 1
@_ZN6Halide7Runtime8Internal4Cuda17compilation_cacheE = weak dso_local global %"class.Halide::Internal::GPUCompilationCache" zeroinitializer, align 4, !dbg !385
@_ZGVN6Halide7Runtime8Internal4Cuda17compilation_cacheE = weak dso_local local_unnamed_addr global i64 0, comdat, align 8
@.str.38 = private unnamed_addr constant [37 x i8] c"Could not find cuda system libraries\00", align 1
@.str.39 = private unnamed_addr constant [22 x i8] c"CUDA: cuInit failed: \00", align 1
@.str.40 = private unnamed_addr constant [32 x i8] c"CUDA: cuGetDeviceCount failed: \00", align 1
@.str.41 = private unnamed_addr constant [27 x i8] c"CUDA: No devices available\00", align 1
@.str.42 = private unnamed_addr constant [78 x i8] c"CUDA: Multiple CUDA devices detected. Selecting the one with the most cores.\0A\00", align 1
@.str.43 = private unnamed_addr constant [28 x i8] c"      Failed to get device \00", align 1
@.str.44 = private unnamed_addr constant [14 x i8] c"      Device \00", align 1
@.str.45 = private unnamed_addr constant [6 x i8] c" has \00", align 1
@.str.46 = private unnamed_addr constant [8 x i8] c" cores\0A\00", align 1
@.str.47 = private unnamed_addr constant [28 x i8] c"CUDA: Failed to get device\0A\00", align 1
@.str.48 = private unnamed_addr constant [16 x i8] c"    Got device \00", align 1
@.str.49 = private unnamed_addr constant [7 x i8] c"      \00", align 1
@.str.50 = private unnamed_addr constant [31 x i8] c"CUDA: cuDeviceGetName failed: \00", align 1
@.str.51 = private unnamed_addr constant [21 x i8] c"      total memory: \00", align 1
@.str.52 = private unnamed_addr constant [5 x i8] c" MB\0A\00", align 1
@.str.53 = private unnamed_addr constant [32 x i8] c"CUDA: cuDeviceTotalMem failed: \00", align 1
@.str.54 = private unnamed_addr constant [36 x i8] c"CUDA: cuDeviceGetAttribute failed (\00", align 1
@.str.55 = private unnamed_addr constant [17 x i8] c") for attribute \00", align 1
@.str.56 = private unnamed_addr constant [30 x i8] c"      max threads per block: \00", align 1
@.str.57 = private unnamed_addr constant [18 x i8] c"      warp size: \00", align 1
@.str.58 = private unnamed_addr constant [23 x i8] c"      max block size: \00", align 1
@.str.59 = private unnamed_addr constant [2 x i8] c" \00", align 1
@.str.60 = private unnamed_addr constant [22 x i8] c"      max grid size: \00", align 1
@.str.61 = private unnamed_addr constant [36 x i8] c"      max shared memory per block: \00", align 1
@.str.62 = private unnamed_addr constant [38 x i8] c"      max constant memory per block: \00", align 1
@.str.63 = private unnamed_addr constant [26 x i8] c"      compute capability \00", align 1
@.str.64 = private unnamed_addr constant [2 x i8] c".\00", align 1
@.str.65 = private unnamed_addr constant [19 x i8] c"      cuda cores: \00", align 1
@.str.66 = private unnamed_addr constant [4 x i8] c" x \00", align 1
@.str.67 = private unnamed_addr constant [4 x i8] c" = \00", align 1
@.str.68 = private unnamed_addr constant [17 x i8] c"    cuCtxCreate \00", align 1
@.str.69 = private unnamed_addr constant [5 x i8] c" -> \00", align 1
@.str.70 = private unnamed_addr constant [27 x i8] c"CUDA: cuCtxCreate failed: \00", align 1
@.str.71 = private unnamed_addr constant [2 x i8] c"(\00", align 1
@.str.72 = private unnamed_addr constant [31 x i8] c"CUDA: cuCtxPopCurrent failed: \00", align 1
@.str.73 = private unnamed_addr constant [39 x i8] c"CUDA: compile_kernel cuModuleLoadData \00", align 1
@.str.74 = private unnamed_addr constant [3 x i8] c", \00", align 1
@.str.75 = private unnamed_addr constant [26 x i8] c"HL_CUDA_JIT_MAX_REGISTERS\00", align 1
@.str.76 = private unnamed_addr constant [32 x i8] c"CUDA: cuModuleLoadData failed: \00", align 1
@.str.77 = private unnamed_addr constant [53 x i8] c"CUDA: halide_cuda_initialize_kernels (user_context: \00", align 1
@.str.78 = private unnamed_addr constant [14 x i8] c", state_ptr: \00", align 1
@.str.79 = private unnamed_addr constant [12 x i8] c", ptx_src: \00", align 1
@.str.80 = private unnamed_addr constant [9 x i8] c", size: \00", align 1
@.str.81 = private unnamed_addr constant [116 x i8] c"/media/maaz/Data/Repos/rake/Halide-master-d48fbde/src/runtime/cuda.cpp:531 Assert failed: loaded_module != nullptr\0A\00", align 1
@.str.82 = private unnamed_addr constant [11 x i8] c"    Time: \00", align 1
@.str.83 = private unnamed_addr constant [5 x i8] c" ms\0A\00", align 1
@.str.84 = private unnamed_addr constant [15 x i8] c"    cuMemFree \00", align 1
@cuda_allocation_pool = weak dso_local global %struct.halide_device_allocation_pool zeroinitializer, align 4, !dbg !443
@.str.85 = private unnamed_addr constant [46 x i8] c"CUDA: halide_cuda_device_free (user_context: \00", align 1
@.str.86 = private unnamed_addr constant [8 x i8] c", buf: \00", align 1
@.str.87 = private unnamed_addr constant [134 x i8] c"/media/maaz/Data/Repos/rake/Halide-master-d48fbde/src/runtime/cuda.cpp:614 Assert failed: validate_device_pointer(user_context, buf)\0A\00", align 1
@.str.88 = private unnamed_addr constant [39 x i8] c"    caching allocation for later use: \00", align 1
@.str.89 = private unnamed_addr constant [67 x i8] c"CUDA: In halide_cuda_device_free, halide_cuda_get_stream returned \00", align 1
@.str.90 = private unnamed_addr constant [49 x i8] c"CUDA: halide_cuda_device_release (user_context: \00", align 1
@.str.91 = private unnamed_addr constant [146 x i8] c"/media/maaz/Data/Repos/rake/Halide-master-d48fbde/src/runtime/cuda.cpp:688 Assert failed: err == CUDA_SUCCESS || err == CUDA_ERROR_DEINITIALIZED\0A\00", align 1
@.str.92 = private unnamed_addr constant [18 x i8] c"    cuCtxDestroy \00", align 1
@.str.93 = private unnamed_addr constant [146 x i8] c"/media/maaz/Data/Repos/rake/Halide-master-d48fbde/src/runtime/cuda.cpp:707 Assert failed: err == CUDA_SUCCESS || err == CUDA_ERROR_DEINITIALIZED\0A\00", align 1
@.str.94 = private unnamed_addr constant [48 x i8] c"CUDA: halide_cuda_device_malloc (user_context: \00", align 1
@.str.95 = private unnamed_addr constant [101 x i8] c"/media/maaz/Data/Repos/rake/Halide-master-d48fbde/src/runtime/cuda.cpp:732 Assert failed: size != 0\0A\00", align 1
@.str.96 = private unnamed_addr constant [140 x i8] c"/media/maaz/Data/Repos/rake/Halide-master-d48fbde/src/runtime/cuda.cpp:735 Assert failed: validate_device_pointer(user_context, buf, size)\0A\00", align 1
@.str.97 = private unnamed_addr constant [115 x i8] c"/media/maaz/Data/Repos/rake/Halide-master-d48fbde/src/runtime/cuda.cpp:741 Assert failed: buf->dim[i].stride >= 0\0A\00", align 1
@.str.98 = private unnamed_addr constant [16 x i8] c"    allocating \00", align 1
@.str.99 = private unnamed_addr constant [69 x i8] c"CUDA: In halide_cuda_device_malloc, halide_cuda_get_stream returned \00", align 1
@.str.100 = private unnamed_addr constant [16 x i8] c"    cuMemAlloc \00", align 1
@.str.101 = private unnamed_addr constant [26 x i8] c"CUDA: cuMemAlloc failed: \00", align 1
@.str.102 = private unnamed_addr constant [93 x i8] c"/media/maaz/Data/Repos/rake/Halide-master-d48fbde/src/runtime/cuda.cpp:830 Assert failed: p\0A\00", align 1
@_ZN6Halide7Runtime8Internal4Cuda21cuda_device_interfaceE = weak dso_local global %struct.halide_device_interface_t { i32 (i8*, %struct.halide_buffer_t*, %struct.halide_device_interface_t*)* @halide_device_malloc, i32 (i8*, %struct.halide_buffer_t*)* @halide_device_free, i32 (i8*, %struct.halide_buffer_t*)* @halide_device_sync, void (i8*, %struct.halide_device_interface_t*)* @halide_device_release, i32 (i8*, %struct.halide_buffer_t*)* @halide_copy_to_host, i32 (i8*, %struct.halide_buffer_t*, %struct.halide_device_interface_t*)* @halide_copy_to_device, i32 (i8*, %struct.halide_buffer_t*, %struct.halide_device_interface_t*)* @halide_device_and_host_malloc, i32 (i8*, %struct.halide_buffer_t*)* @halide_device_and_host_free, i32 (i8*, %struct.halide_buffer_t*, %struct.halide_device_interface_t*, %struct.halide_buffer_t*)* @halide_buffer_copy, i32 (i8*, %struct.halide_buffer_t*, %struct.halide_buffer_t*)* @halide_device_crop, i32 (i8*, %struct.halide_buffer_t*, i32, i32, %struct.halide_buffer_t*)* @halide_device_slice, i32 (i8*, %struct.halide_buffer_t*)* @halide_device_release_crop, i32 (i8*, %struct.halide_buffer_t*, i64, %struct.halide_device_interface_t*)* @halide_device_wrap_native, i32 (i8*, %struct.halide_buffer_t*)* @halide_device_detach_native, i32 (i8*, i32*, i32*)* @halide_cuda_compute_capability, %struct.halide_device_interface_impl_t* @_ZN6Halide7Runtime8Internal4Cuda26cuda_device_interface_implE }, align 4, !dbg !453
@.str.103 = private unnamed_addr constant [52 x i8] c"Buffer has too many dimensions to copy to/from GPU\0A\00", align 1
@.str.104 = private unnamed_addr constant [10 x i8] c"    from \00", align 1
@.str.105 = private unnamed_addr constant [5 x i8] c"host\00", align 1
@.str.106 = private unnamed_addr constant [7 x i8] c"device\00", align 1
@.str.107 = private unnamed_addr constant [5 x i8] c" to \00", align 1
@.str.108 = private unnamed_addr constant [8 x i8] c" bytes\0A\00", align 1
@.str.109 = private unnamed_addr constant [14 x i8] c"cuMemcpyDtoH(\00", align 1
@.str.110 = private unnamed_addr constant [13 x i8] c"cuMemcpyDtoH\00", align 1
@.str.111 = private unnamed_addr constant [14 x i8] c"cuMemcpyHtoD(\00", align 1
@.str.112 = private unnamed_addr constant [13 x i8] c"cuMemcpyHtoD\00", align 1
@.str.113 = private unnamed_addr constant [14 x i8] c"cuMemcpyDtoD(\00", align 1
@.str.114 = private unnamed_addr constant [13 x i8] c"cuMemcpyDtoD\00", align 1
@.str.115 = private unnamed_addr constant [8 x i8] c"memcpy(\00", align 1
@.str.116 = private unnamed_addr constant [7 x i8] c"CUDA: \00", align 1
@.str.117 = private unnamed_addr constant [10 x i8] c" failed: \00", align 1
@.str.118 = private unnamed_addr constant [173 x i8] c"/media/maaz/Data/Repos/rake/Halide-master-d48fbde/src/runtime/cuda.cpp:898 Assert failed: dst_device_interface == nullptr || dst_device_interface == &cuda_device_interface\0A\00", align 1
@.str.119 = private unnamed_addr constant [138 x i8] c"/media/maaz/Data/Repos/rake/Halide-master-d48fbde/src/runtime/cuda.cpp:902 Assert failed: dst_device_interface == &cuda_device_interface\0A\00", align 1
@.str.121 = private unnamed_addr constant [114 x i8] c"/media/maaz/Data/Repos/rake/Halide-master-d48fbde/src/runtime/cuda.cpp:913 Assert failed: to_host || dst->device\0A\00", align 1
@.str.122 = private unnamed_addr constant [46 x i8] c"CUDA: halide_cuda_buffer_copy (user_context: \00", align 1
@.str.123 = private unnamed_addr constant [8 x i8] c", src: \00", align 1
@.str.124 = private unnamed_addr constant [8 x i8] c", dst: \00", align 1
@.str.125 = private unnamed_addr constant [134 x i8] c"/media/maaz/Data/Repos/rake/Halide-master-d48fbde/src/runtime/cuda.cpp:931 Assert failed: validate_device_pointer(user_context, src)\0A\00", align 1
@.str.126 = private unnamed_addr constant [134 x i8] c"/media/maaz/Data/Repos/rake/Halide-master-d48fbde/src/runtime/cuda.cpp:934 Assert failed: validate_device_pointer(user_context, dst)\0A\00", align 1
@.str.127 = private unnamed_addr constant [46 x i8] c"CUDA: halide_cuda_device_crop (user_context: \00", align 1
@.str.128 = private unnamed_addr constant [47 x i8] c"CUDA: halide_cuda_device_slice (user_context: \00", align 1
@.str.129 = private unnamed_addr constant [13 x i8] c", slice_dim \00", align 1
@.str.130 = private unnamed_addr constant [13 x i8] c", slice_pos \00", align 1
@.str.131 = private unnamed_addr constant [47 x i8] c"CUDA: halide_cuda_release_crop (user_context: \00", align 1
@.str.132 = private unnamed_addr constant [46 x i8] c"CUDA: halide_cuda_device_sync (user_context: \00", align 1
@.str.133 = private unnamed_addr constant [67 x i8] c"CUDA: In halide_cuda_device_sync, halide_cuda_get_stream returned \00", align 1
@.str.134 = private unnamed_addr constant [32 x i8] c"CUDA: cuCtxSynchronize failed: \00", align 1
@.str.135 = private unnamed_addr constant [24 x i8] c"CUDA: halide_cuda_run (\00", align 1
@.str.136 = private unnamed_addr constant [15 x i8] c"user_context: \00", align 1
@.str.137 = private unnamed_addr constant [8 x i8] c"entry: \00", align 1
@.str.138 = private unnamed_addr constant [9 x i8] c"blocks: \00", align 1
@.str.139 = private unnamed_addr constant [2 x i8] c"x\00", align 1
@.str.140 = private unnamed_addr constant [10 x i8] c"threads: \00", align 1
@.str.141 = private unnamed_addr constant [8 x i8] c"shmem: \00", align 1
@.str.142 = private unnamed_addr constant [14 x i8] c"Got context.\0A\00", align 1
@.str.143 = private unnamed_addr constant [116 x i8] c"/media/maaz/Data/Repos/rake/Halide-master-d48fbde/src/runtime/cuda.cpp:1075 Assert failed: found && mod != nullptr\0A\00", align 1
@.str.144 = private unnamed_addr constant [12 x i8] c"Got module \00", align 1
@.str.145 = private unnamed_addr constant [14 x i8] c"Got function \00", align 1
@.str.146 = private unnamed_addr constant [35 x i8] c"CUDA: cuModuleGetFunction failed: \00", align 1
@.str.147 = private unnamed_addr constant [21 x i8] c"    halide_cuda_run \00", align 1
@.str.148 = private unnamed_addr constant [3 x i8] c" [\00", align 1
@.str.149 = private unnamed_addr constant [7 x i8] c" ...] \00", align 1
@.str.150 = private unnamed_addr constant [125 x i8] c"/media/maaz/Data/Repos/rake/Halide-master-d48fbde/src/runtime/cuda.cpp:1102 Assert failed: arg_sizes[i] == sizeof(uint64_t)\0A\00", align 1
@.str.151 = private unnamed_addr constant [35 x i8] c"    halide_cuda_run translated arg\00", align 1
@.str.152 = private unnamed_addr constant [7 x i8] c" ...]\0A\00", align 1
@.str.153 = private unnamed_addr constant [59 x i8] c"CUDA: In halide_cuda_run, halide_cuda_get_stream returned \00", align 1
@.str.154 = private unnamed_addr constant [30 x i8] c"CUDA: cuLaunchKernel failed: \00", align 1
@.str.155 = private unnamed_addr constant [109 x i8] c"/media/maaz/Data/Repos/rake/Halide-master-d48fbde/src/runtime/cuda.cpp:1162 Assert failed: buf->device == 0\0A\00", align 1
@.str.156 = private unnamed_addr constant [140 x i8] c"/media/maaz/Data/Repos/rake/Halide-master-d48fbde/src/runtime/cuda.cpp:1184 Assert failed: buf->device_interface == &cuda_device_interface\0A\00", align 1
@.str.157 = private unnamed_addr constant [140 x i8] c"/media/maaz/Data/Repos/rake/Halide-master-d48fbde/src/runtime/cuda.cpp:1195 Assert failed: buf->device_interface == &cuda_device_interface\0A\00", align 1
@.str.158 = private unnamed_addr constant [30 x i8] c"CUDA: cuCtxGetDevice failed (\00", align 1
@.str.159 = private unnamed_addr constant [2 x i8] c")\00", align 1
@.str.160 = private unnamed_addr constant [13 x i8] c"CUDA_SUCCESS\00", align 1
@.str.161 = private unnamed_addr constant [25 x i8] c"CUDA_ERROR_INVALID_VALUE\00", align 1
@.str.162 = private unnamed_addr constant [25 x i8] c"CUDA_ERROR_OUT_OF_MEMORY\00", align 1
@.str.163 = private unnamed_addr constant [27 x i8] c"CUDA_ERROR_NOT_INITIALIZED\00", align 1
@.str.164 = private unnamed_addr constant [25 x i8] c"CUDA_ERROR_DEINITIALIZED\00", align 1
@.str.165 = private unnamed_addr constant [29 x i8] c"CUDA_ERROR_PROFILER_DISABLED\00", align 1
@.str.166 = private unnamed_addr constant [36 x i8] c"CUDA_ERROR_PROFILER_NOT_INITIALIZED\00", align 1
@.str.167 = private unnamed_addr constant [36 x i8] c"CUDA_ERROR_PROFILER_ALREADY_STARTED\00", align 1
@.str.168 = private unnamed_addr constant [36 x i8] c"CUDA_ERROR_PROFILER_ALREADY_STOPPED\00", align 1
@.str.169 = private unnamed_addr constant [21 x i8] c"CUDA_ERROR_NO_DEVICE\00", align 1
@.str.170 = private unnamed_addr constant [26 x i8] c"CUDA_ERROR_INVALID_DEVICE\00", align 1
@.str.171 = private unnamed_addr constant [25 x i8] c"CUDA_ERROR_INVALID_IMAGE\00", align 1
@.str.172 = private unnamed_addr constant [27 x i8] c"CUDA_ERROR_INVALID_CONTEXT\00", align 1
@.str.173 = private unnamed_addr constant [35 x i8] c"CUDA_ERROR_CONTEXT_ALREADY_CURRENT\00", align 1
@.str.174 = private unnamed_addr constant [22 x i8] c"CUDA_ERROR_MAP_FAILED\00", align 1
@.str.175 = private unnamed_addr constant [24 x i8] c"CUDA_ERROR_UNMAP_FAILED\00", align 1
@.str.176 = private unnamed_addr constant [27 x i8] c"CUDA_ERROR_ARRAY_IS_MAPPED\00", align 1
@.str.177 = private unnamed_addr constant [26 x i8] c"CUDA_ERROR_ALREADY_MAPPED\00", align 1
@.str.178 = private unnamed_addr constant [29 x i8] c"CUDA_ERROR_NO_BINARY_FOR_GPU\00", align 1
@.str.179 = private unnamed_addr constant [28 x i8] c"CUDA_ERROR_ALREADY_ACQUIRED\00", align 1
@.str.180 = private unnamed_addr constant [22 x i8] c"CUDA_ERROR_NOT_MAPPED\00", align 1
@.str.181 = private unnamed_addr constant [31 x i8] c"CUDA_ERROR_NOT_MAPPED_AS_ARRAY\00", align 1
@.str.182 = private unnamed_addr constant [33 x i8] c"CUDA_ERROR_NOT_MAPPED_AS_POINTER\00", align 1
@.str.183 = private unnamed_addr constant [29 x i8] c"CUDA_ERROR_ECC_UNCORRECTABLE\00", align 1
@.str.184 = private unnamed_addr constant [29 x i8] c"CUDA_ERROR_UNSUPPORTED_LIMIT\00", align 1
@.str.185 = private unnamed_addr constant [34 x i8] c"CUDA_ERROR_CONTEXT_ALREADY_IN_USE\00", align 1
@.str.186 = private unnamed_addr constant [35 x i8] c"CUDA_ERROR_PEER_ACCESS_UNSUPPORTED\00", align 1
@.str.187 = private unnamed_addr constant [23 x i8] c"CUDA_ERROR_INVALID_PTX\00", align 1
@.str.188 = private unnamed_addr constant [36 x i8] c"CUDA_ERROR_INVALID_GRAPHICS_CONTEXT\00", align 1
@.str.189 = private unnamed_addr constant [32 x i8] c"CUDA_ERROR_NVLINK_UNCORRECTABLE\00", align 1
@.str.190 = private unnamed_addr constant [34 x i8] c"CUDA_ERROR_JIT_COMPILER_NOT_FOUND\00", align 1
@.str.191 = private unnamed_addr constant [26 x i8] c"CUDA_ERROR_INVALID_SOURCE\00", align 1
@.str.192 = private unnamed_addr constant [26 x i8] c"CUDA_ERROR_FILE_NOT_FOUND\00", align 1
@.str.193 = private unnamed_addr constant [42 x i8] c"CUDA_ERROR_SHARED_OBJECT_SYMBOL_NOT_FOUND\00", align 1
@.str.194 = private unnamed_addr constant [37 x i8] c"CUDA_ERROR_SHARED_OBJECT_INIT_FAILED\00", align 1
@.str.195 = private unnamed_addr constant [28 x i8] c"CUDA_ERROR_OPERATING_SYSTEM\00", align 1
@.str.196 = private unnamed_addr constant [26 x i8] c"CUDA_ERROR_INVALID_HANDLE\00", align 1
@.str.197 = private unnamed_addr constant [21 x i8] c"CUDA_ERROR_NOT_FOUND\00", align 1
@.str.198 = private unnamed_addr constant [21 x i8] c"CUDA_ERROR_NOT_READY\00", align 1
@.str.199 = private unnamed_addr constant [27 x i8] c"CUDA_ERROR_ILLEGAL_ADDRESS\00", align 1
@.str.200 = private unnamed_addr constant [35 x i8] c"CUDA_ERROR_LAUNCH_OUT_OF_RESOURCES\00", align 1
@.str.201 = private unnamed_addr constant [26 x i8] c"CUDA_ERROR_LAUNCH_TIMEOUT\00", align 1
@.str.202 = private unnamed_addr constant [41 x i8] c"CUDA_ERROR_LAUNCH_INCOMPATIBLE_TEXTURING\00", align 1
@.str.203 = private unnamed_addr constant [39 x i8] c"CUDA_ERROR_PEER_ACCESS_ALREADY_ENABLED\00", align 1
@.str.204 = private unnamed_addr constant [35 x i8] c"CUDA_ERROR_PEER_ACCESS_NOT_ENABLED\00", align 1
@.str.205 = private unnamed_addr constant [34 x i8] c"CUDA_ERROR_PRIMARY_CONTEXT_ACTIVE\00", align 1
@.str.206 = private unnamed_addr constant [32 x i8] c"CUDA_ERROR_CONTEXT_IS_DESTROYED\00", align 1
@.str.207 = private unnamed_addr constant [62 x i8] c"Illegal instruction or Halide assertion failure inside kernel\00", align 1
@.str.208 = private unnamed_addr constant [30 x i8] c"CUDA_ERROR_MISALIGNED_ADDRESS\00", align 1
@.str.209 = private unnamed_addr constant [33 x i8] c"CUDA_ERROR_INVALID_ADDRESS_SPACE\00", align 1
@.str.210 = private unnamed_addr constant [22 x i8] c"CUDA_ERROR_INVALID_PC\00", align 1
@.str.211 = private unnamed_addr constant [25 x i8] c"CUDA_ERROR_LAUNCH_FAILED\00", align 1
@.str.212 = private unnamed_addr constant [25 x i8] c"CUDA_ERROR_NOT_PERMITTED\00", align 1
@.str.213 = private unnamed_addr constant [25 x i8] c"CUDA_ERROR_NOT_SUPPORTED\00", align 1
@.str.214 = private unnamed_addr constant [19 x i8] c"CUDA_ERROR_UNKNOWN\00", align 1
@.str.215 = private unnamed_addr constant [20 x i8] c"Unknown cuda error \00", align 1
@.str.216 = private unnamed_addr constant [16 x i8] c"<Unknown error>\00", align 1
@_ZN6Halide7Runtime8Internal4Cuda26cuda_device_interface_implE = weak dso_local global %struct.halide_device_interface_impl_t { void ()* @halide_use_jit_module, void ()* @halide_release_jit_module, i32 (i8*, %struct.halide_buffer_t*)* @halide_cuda_device_malloc, i32 (i8*, %struct.halide_buffer_t*)* @halide_cuda_device_free, i32 (i8*, %struct.halide_buffer_t*)* @halide_cuda_device_sync, i32 (i8*)* @halide_cuda_device_release, i32 (i8*, %struct.halide_buffer_t*)* @halide_cuda_copy_to_host, i32 (i8*, %struct.halide_buffer_t*)* @halide_cuda_copy_to_device, i32 (i8*, %struct.halide_buffer_t*)* @halide_cuda_device_and_host_malloc, i32 (i8*, %struct.halide_buffer_t*)* @halide_cuda_device_and_host_free, i32 (i8*, %struct.halide_buffer_t*, %struct.halide_device_interface_t*, %struct.halide_buffer_t*)* @halide_cuda_buffer_copy, i32 (i8*, %struct.halide_buffer_t*, %struct.halide_buffer_t*)* @halide_cuda_device_crop, i32 (i8*, %struct.halide_buffer_t*, i32, i32, %struct.halide_buffer_t*)* @halide_cuda_device_slice, i32 (i8*, %struct.halide_buffer_t*)* @halide_cuda_device_release_crop, i32 (i8*, %struct.halide_buffer_t*, i64)* @halide_cuda_wrap_device_ptr, i32 (i8*, %struct.halide_buffer_t*)* @halide_cuda_detach_device_ptr }, align 4, !dbg !643
@.str.217 = private unnamed_addr constant [110 x i8] c"/media/maaz/Data/Repos/rake/Halide-master-d48fbde/src/runtime/cuda.cpp:232 Assert failed: context != nullptr\0A\00", align 1
@.str.218 = private unnamed_addr constant [109 x i8] c"/media/maaz/Data/Repos/rake/Halide-master-d48fbde/src/runtime/cuda.cpp:233 Assert failed: cuInit != nullptr\0A\00", align 1
@.str.219 = private unnamed_addr constant [35 x i8] c"Printer buffer allocation failed.\0A\00", align 1
@.str.220 = private unnamed_addr constant [10 x i8] c"<nullptr>\00", align 1
@.str.221 = private unnamed_addr constant [21 x i8] c"CUDA API not found: \00", align 1
@.str.222 = private unnamed_addr constant [26 x i8] c"Caching compiled kernel: \00", align 1
@.str.223 = private unnamed_addr constant [5 x i8] c" id \00", align 1
@.str.224 = private unnamed_addr constant [10 x i8] c" context \00", align 1
@.str.225 = private unnamed_addr constant [108 x i8] c"/media/maaz/Data/Repos/rake/Halide-master-d48fbde/src/runtime/gpu_context_common.h:69 Assert failed: false\0A\00", align 1
@.str.226 = private unnamed_addr constant [110 x i8] c"/media/maaz/Data/Repos/rake/Halide-master-d48fbde/src/runtime/gpu_context_common.h:127 Assert failed: result\0A\00", align 1
@.str.227 = private unnamed_addr constant [110 x i8] c"/media/maaz/Data/Repos/rake/Halide-master-d48fbde/src/runtime/gpu_context_common.h:215 Assert failed: result\0A\00", align 1
@.str.228 = private unnamed_addr constant [31 x i8] c"Releasing cached compilation: \00", align 1
@llvm.global_ctors = appending global [2 x { i32, void ()*, i8* }] [{ i32, void ()*, i8* } { i32 65535, void ()* @register_cuda_allocation_pool, i8* null }, { i32, void ()*, i8* } { i32 65535, void ()* @_GLOBAL__sub_I_cuda.cpp, i8* null }]
@llvm.global_dtors = appending global [1 x { i32, void ()*, i8* }] [{ i32, void ()*, i8* } { i32 65535, void ()* @halide_cuda_cleanup, i8* null }]

; Function Attrs: nounwind mustprogress
define weak dso_local void @_ZN6Halide7Runtime8Internal18copy_memory_helperERKNS1_11device_copyEixx(%"struct.Halide::Runtime::Internal::device_copy"* nonnull align 8 dereferenceable(416) %0, i32 %1, i64 %2, i64 %3) local_unnamed_addr #0 !dbg !928 {
  call void @llvm.dbg.value(metadata %"struct.Halide::Runtime::Internal::device_copy"* %0, metadata !947, metadata !DIExpression()), !dbg !958
  call void @llvm.dbg.value(metadata i32 %1, metadata !948, metadata !DIExpression()), !dbg !958
  call void @llvm.dbg.value(metadata i64 %2, metadata !949, metadata !DIExpression()), !dbg !958
  call void @llvm.dbg.value(metadata i64 %3, metadata !950, metadata !DIExpression()), !dbg !958
  %5 = icmp sgt i32 %1, -1, !dbg !959
  br i1 %5, label %6, label %14, !dbg !960

6:                                                ; preds = %4, %11
  %7 = phi i32 [ %12, %11 ], [ %1, %4 ]
  call void @llvm.dbg.value(metadata i32 %7, metadata !948, metadata !DIExpression()), !dbg !958
  %8 = getelementptr inbounds %"struct.Halide::Runtime::Internal::device_copy", %"struct.Halide::Runtime::Internal::device_copy"* %0, i32 0, i32 3, i32 %7, !dbg !961
  %9 = load i64, i64* %8, align 8, !dbg !961, !tbaa !962
  %10 = icmp eq i64 %9, 1, !dbg !966
  br i1 %10, label %11, label %14, !dbg !967

11:                                               ; preds = %6
  %12 = add nsw i32 %7, -1, !dbg !968
  call void @llvm.dbg.value(metadata i32 %12, metadata !948, metadata !DIExpression()), !dbg !958
  %13 = icmp sgt i32 %7, 0, !dbg !959
  br i1 %13, label %6, label %25, !dbg !960, !llvm.loop !970

14:                                               ; preds = %6, %4
  %15 = phi i32 [ %1, %4 ], [ %7, %6 ]
  %16 = icmp eq i32 %15, -1, !dbg !973
  br i1 %16, label %25, label %17, !dbg !974

17:                                               ; preds = %14
  call void @llvm.dbg.value(metadata i64 0, metadata !955, metadata !DIExpression()), !dbg !975
  call void @llvm.dbg.value(metadata i64 %2, metadata !949, metadata !DIExpression()), !dbg !958
  call void @llvm.dbg.value(metadata i64 %3, metadata !950, metadata !DIExpression()), !dbg !958
  %18 = getelementptr inbounds %"struct.Halide::Runtime::Internal::device_copy", %"struct.Halide::Runtime::Internal::device_copy"* %0, i32 0, i32 3, i32 %15, !dbg !976
  %19 = load i64, i64* %18, align 8, !dbg !976, !tbaa !962
  %20 = icmp eq i64 %19, 0, !dbg !978
  br i1 %20, label %51, label %21, !dbg !979

21:                                               ; preds = %17
  %22 = add nsw i32 %15, -1
  %23 = getelementptr inbounds %"struct.Halide::Runtime::Internal::device_copy", %"struct.Halide::Runtime::Internal::device_copy"* %0, i32 0, i32 4, i32 %15
  %24 = getelementptr inbounds %"struct.Halide::Runtime::Internal::device_copy", %"struct.Halide::Runtime::Internal::device_copy"* %0, i32 0, i32 5, i32 %15
  br label %40, !dbg !979

25:                                               ; preds = %11, %14
  %26 = getelementptr inbounds %"struct.Halide::Runtime::Internal::device_copy", %"struct.Halide::Runtime::Internal::device_copy"* %0, i32 0, i32 0, !dbg !980
  %27 = load i64, i64* %26, align 8, !dbg !980, !tbaa !981
  %28 = add i64 %27, %2, !dbg !983
  %29 = trunc i64 %28 to i32, !dbg !984
  %30 = inttoptr i32 %29 to i8*, !dbg !984
  call void @llvm.dbg.value(metadata i8* %30, metadata !951, metadata !DIExpression()), !dbg !985
  %31 = getelementptr inbounds %"struct.Halide::Runtime::Internal::device_copy", %"struct.Halide::Runtime::Internal::device_copy"* %0, i32 0, i32 1, !dbg !986
  %32 = load i64, i64* %31, align 8, !dbg !986, !tbaa !987
  %33 = add i64 %32, %3, !dbg !988
  %34 = trunc i64 %33 to i32, !dbg !989
  %35 = inttoptr i32 %34 to i8*, !dbg !989
  call void @llvm.dbg.value(metadata i8* %35, metadata !954, metadata !DIExpression()), !dbg !985
  %36 = getelementptr inbounds %"struct.Halide::Runtime::Internal::device_copy", %"struct.Halide::Runtime::Internal::device_copy"* %0, i32 0, i32 6, !dbg !990
  %37 = load i64, i64* %36, align 8, !dbg !990, !tbaa !991
  %38 = trunc i64 %37 to i32, !dbg !992
  %39 = tail call i8* @memcpy(i8* %35, i8* %30, i32 %38) #8, !dbg !993
  br label %51, !dbg !994

40:                                               ; preds = %21, %40
  %41 = phi i64 [ 0, %21 ], [ %48, %40 ]
  %42 = phi i64 [ %2, %21 ], [ %45, %40 ]
  %43 = phi i64 [ %3, %21 ], [ %47, %40 ]
  call void @llvm.dbg.value(metadata i64 %41, metadata !955, metadata !DIExpression()), !dbg !975
  call void @llvm.dbg.value(metadata i64 %42, metadata !949, metadata !DIExpression()), !dbg !958
  call void @llvm.dbg.value(metadata i64 %43, metadata !950, metadata !DIExpression()), !dbg !958
  tail call void @_ZN6Halide7Runtime8Internal18copy_memory_helperERKNS1_11device_copyEixx(%"struct.Halide::Runtime::Internal::device_copy"* nonnull align 8 dereferenceable(416) %0, i32 %22, i64 %42, i64 %43) #9, !dbg !995
  %44 = load i64, i64* %23, align 8, !dbg !997, !tbaa !962
  %45 = add i64 %44, %42, !dbg !998
  call void @llvm.dbg.value(metadata i64 %45, metadata !949, metadata !DIExpression()), !dbg !958
  %46 = load i64, i64* %24, align 8, !dbg !999, !tbaa !962
  %47 = add i64 %46, %43, !dbg !1000
  call void @llvm.dbg.value(metadata i64 %47, metadata !950, metadata !DIExpression()), !dbg !958
  %48 = add nuw i64 %41, 1, !dbg !1001
  call void @llvm.dbg.value(metadata i64 %48, metadata !955, metadata !DIExpression()), !dbg !975
  %49 = load i64, i64* %18, align 8, !dbg !976, !tbaa !962
  %50 = icmp ult i64 %48, %49, !dbg !978
  br i1 %50, label %40, label %51, !dbg !979, !llvm.loop !1002

51:                                               ; preds = %40, %17, %25
  ret void, !dbg !1004
}

; Function Attrs: nofree nosync nounwind readnone speculatable willreturn
declare void @llvm.dbg.declare(metadata, metadata, metadata) #1

; Function Attrs: argmemonly nofree nosync nounwind willreturn
declare void @llvm.lifetime.start.p0i8(i64 immarg, i8* nocapture) #2

declare !dbg !1005 dso_local i8* @memcpy(i8*, i8*, i32) local_unnamed_addr #3

; Function Attrs: argmemonly nofree nosync nounwind willreturn
declare void @llvm.lifetime.end.p0i8(i64 immarg, i8* nocapture) #2

; Function Attrs: nounwind
define weak dso_local void @_ZN6Halide7Runtime8Internal11copy_memoryERKNS1_11device_copyEPv(%"struct.Halide::Runtime::Internal::device_copy"* nonnull align 8 dereferenceable(416) %0, i8* %1) local_unnamed_addr #4 !dbg !1009 {
  call void @llvm.dbg.value(metadata %"struct.Halide::Runtime::Internal::device_copy"* %0, metadata !1013, metadata !DIExpression()), !dbg !1015
  call void @llvm.dbg.value(metadata i8* %1, metadata !1014, metadata !DIExpression()), !dbg !1015
  %3 = getelementptr inbounds %"struct.Halide::Runtime::Internal::device_copy", %"struct.Halide::Runtime::Internal::device_copy"* %0, i32 0, i32 0, !dbg !1016
  %4 = load i64, i64* %3, align 8, !dbg !1016, !tbaa !981
  %5 = getelementptr inbounds %"struct.Halide::Runtime::Internal::device_copy", %"struct.Halide::Runtime::Internal::device_copy"* %0, i32 0, i32 1, !dbg !1018
  %6 = load i64, i64* %5, align 8, !dbg !1018, !tbaa !987
  %7 = icmp eq i64 %4, %6, !dbg !1019
  br i1 %7, label %11, label %8, !dbg !1020

8:                                                ; preds = %2
  %9 = getelementptr inbounds %"struct.Halide::Runtime::Internal::device_copy", %"struct.Halide::Runtime::Internal::device_copy"* %0, i32 0, i32 2, !dbg !1021
  %10 = load i64, i64* %9, align 8, !dbg !1021, !tbaa !1023
  tail call void @_ZN6Halide7Runtime8Internal18copy_memory_helperERKNS1_11device_copyEixx(%"struct.Halide::Runtime::Internal::device_copy"* nonnull align 8 dereferenceable(416) %0, i32 15, i64 %10, i64 0) #9, !dbg !1024
  br label %26, !dbg !1025

11:                                               ; preds = %2
  call void @llvm.dbg.value(metadata %"class.Halide::Runtime::Internal::(anonymous namespace)::Printer"* undef, metadata !1026, metadata !DIExpression()) #10, !dbg !1032
  call void @llvm.dbg.value(metadata i8* %1, metadata !1029, metadata !DIExpression()) #10, !dbg !1032
  call void @llvm.dbg.value(metadata i8* null, metadata !1030, metadata !DIExpression()) #10, !dbg !1032
  %12 = tail call i8* @malloc(i32 1024) #8, !dbg !1035
  %13 = icmp eq i8* %12, null, !dbg !1040
  br i1 %13, label %14, label %16, !dbg !1042

14:                                               ; preds = %11
  call void @llvm.dbg.value(metadata %"class.Halide::Runtime::Internal::(anonymous namespace)::Printer"* undef, metadata !1043, metadata !DIExpression()) #10, !dbg !1047
  call void @llvm.dbg.value(metadata i8* getelementptr inbounds ([55 x i8], [55 x i8]* @.str, i32 0, i32 0), metadata !1046, metadata !DIExpression()) #10, !dbg !1047
  %15 = tail call i8* @halide_string_to_string(i8* %12, i8* null, i8* nonnull getelementptr inbounds ([55 x i8], [55 x i8]* @.str, i32 0, i32 0)) #8, !dbg !1049
  call void @llvm.dbg.value(metadata %"class.Halide::Runtime::Internal::(anonymous namespace)::Printer"* undef, metadata !1052, metadata !DIExpression()) #10, !dbg !1055
  tail call void @halide_error(i8* %1, i8* getelementptr inbounds ([35 x i8], [35 x i8]* @.str.219, i32 0, i32 0)) #8, !dbg !1057
  br label %25, !dbg !1061

16:                                               ; preds = %11
  %17 = getelementptr inbounds i8, i8* %12, i32 1023, !dbg !1062
  store i8 0, i8* %17, align 1, !dbg !1064, !tbaa !1065
  call void @llvm.dbg.value(metadata %"class.Halide::Runtime::Internal::(anonymous namespace)::Printer"* undef, metadata !1043, metadata !DIExpression()) #10, !dbg !1047
  call void @llvm.dbg.value(metadata i8* getelementptr inbounds ([55 x i8], [55 x i8]* @.str, i32 0, i32 0), metadata !1046, metadata !DIExpression()) #10, !dbg !1047
  %18 = tail call i8* @halide_string_to_string(i8* nonnull %12, i8* nonnull %17, i8* nonnull getelementptr inbounds ([55 x i8], [55 x i8]* @.str, i32 0, i32 0)) #8, !dbg !1049
  call void @llvm.dbg.value(metadata %"class.Halide::Runtime::Internal::(anonymous namespace)::Printer"* undef, metadata !1052, metadata !DIExpression()) #10, !dbg !1055
  call void @llvm.dbg.value(metadata %"class.Halide::Runtime::Internal::(anonymous namespace)::Printer"* undef, metadata !1066, metadata !DIExpression()) #10, !dbg !1069
  %19 = ptrtoint i8* %18 to i32, !dbg !1072
  %20 = ptrtoint i8* %12 to i32, !dbg !1072
  %21 = add i32 %19, 1, !dbg !1072
  %22 = sub i32 %21, %20, !dbg !1073
  %23 = sext i32 %22 to i64, !dbg !1074
  %24 = tail call i32 @halide_msan_annotate_memory_is_initialized(i8* %1, i8* nonnull %12, i64 %23) #8, !dbg !1075
  tail call void @halide_print(i8* %1, i8* nonnull %12) #8, !dbg !1076
  br label %25

25:                                               ; preds = %16, %14
  tail call void @free(i8* %12) #8, !dbg !1080
  br label %26

26:                                               ; preds = %25, %8
  ret void, !dbg !1083
}

; Function Attrs: nounwind mustprogress
define weak dso_local void @_ZN6Halide7Runtime8Internal16make_buffer_copyEPK15halide_buffer_tbS4_b(%"struct.Halide::Runtime::Internal::device_copy"* noalias sret(%"struct.Halide::Runtime::Internal::device_copy") align 8 %0, %struct.halide_buffer_t* %1, i1 zeroext %2, %struct.halide_buffer_t* %3, i1 zeroext %4) local_unnamed_addr #0 !dbg !1084 {
  %6 = alloca %"struct.Halide::Runtime::Internal::device_copy", align 8
  call void @llvm.dbg.value(metadata %struct.halide_buffer_t* %1, metadata !1089, metadata !DIExpression()), !dbg !1116
  call void @llvm.dbg.value(metadata i1 %2, metadata !1090, metadata !DIExpression(DW_OP_LLVM_convert, 1, DW_ATE_unsigned, DW_OP_LLVM_convert, 8, DW_ATE_unsigned, DW_OP_stack_value)), !dbg !1116
  call void @llvm.dbg.value(metadata %struct.halide_buffer_t* %3, metadata !1091, metadata !DIExpression()), !dbg !1116
  call void @llvm.dbg.value(metadata i1 %4, metadata !1092, metadata !DIExpression(DW_OP_LLVM_convert, 1, DW_ATE_unsigned, DW_OP_LLVM_convert, 8, DW_ATE_unsigned, DW_OP_stack_value)), !dbg !1116
  %7 = bitcast %"struct.Halide::Runtime::Internal::device_copy"* %6 to i8*, !dbg !1117
  call void @llvm.lifetime.start.p0i8(i64 416, i8* nonnull %7) #10, !dbg !1117
  call void @llvm.dbg.declare(metadata %"struct.Halide::Runtime::Internal::device_copy"* %6, metadata !1093, metadata !DIExpression()), !dbg !1118
  br i1 %2, label %8, label %13, !dbg !1119

8:                                                ; preds = %5
  %9 = getelementptr inbounds %struct.halide_buffer_t, %struct.halide_buffer_t* %1, i32 0, i32 2, !dbg !1120
  %10 = load i8*, i8** %9, align 4, !dbg !1120, !tbaa !1121
  %11 = ptrtoint i8* %10 to i32, !dbg !1128
  %12 = zext i32 %11 to i64, !dbg !1128
  br label %16, !dbg !1119

13:                                               ; preds = %5
  %14 = getelementptr inbounds %struct.halide_buffer_t, %struct.halide_buffer_t* %1, i32 0, i32 0, !dbg !1129
  %15 = load i64, i64* %14, align 8, !dbg !1129, !tbaa !1130
  br label %16, !dbg !1119

16:                                               ; preds = %13, %8
  %17 = phi i64 [ %12, %8 ], [ %15, %13 ], !dbg !1119
  %18 = getelementptr inbounds %"struct.Halide::Runtime::Internal::device_copy", %"struct.Halide::Runtime::Internal::device_copy"* %6, i32 0, i32 0, !dbg !1131
  store i64 %17, i64* %18, align 8, !dbg !1132, !tbaa !981
  br i1 %4, label %19, label %24, !dbg !1133

19:                                               ; preds = %16
  %20 = getelementptr inbounds %struct.halide_buffer_t, %struct.halide_buffer_t* %3, i32 0, i32 2, !dbg !1134
  %21 = load i8*, i8** %20, align 4, !dbg !1134, !tbaa !1121
  %22 = ptrtoint i8* %21 to i32, !dbg !1135
  %23 = zext i32 %22 to i64, !dbg !1135
  br label %27, !dbg !1133

24:                                               ; preds = %16
  %25 = getelementptr inbounds %struct.halide_buffer_t, %struct.halide_buffer_t* %3, i32 0, i32 0, !dbg !1136
  %26 = load i64, i64* %25, align 8, !dbg !1136, !tbaa !1130
  br label %27, !dbg !1133

27:                                               ; preds = %24, %19
  %28 = phi i64 [ %23, %19 ], [ %26, %24 ], !dbg !1133
  %29 = getelementptr inbounds %"struct.Halide::Runtime::Internal::device_copy", %"struct.Halide::Runtime::Internal::device_copy"* %6, i32 0, i32 1, !dbg !1137
  store i64 %28, i64* %29, align 8, !dbg !1138, !tbaa !987
  call void @llvm.dbg.value(metadata %struct.halide_buffer_t* %1, metadata !1139, metadata !DIExpression(DW_OP_plus_uconst, 24, DW_OP_stack_value)), !dbg !1143
  %30 = getelementptr inbounds %struct.halide_buffer_t, %struct.halide_buffer_t* %1, i32 0, i32 4, i32 1, !dbg !1145
  %31 = load i8, i8* %30, align 1, !dbg !1145, !tbaa !1146
  %32 = zext i8 %31 to i32, !dbg !1145
  %33 = add nuw nsw i32 %32, 7, !dbg !1147
  %34 = lshr i32 %33, 3, !dbg !1148
  %35 = zext i32 %34 to i64, !dbg !1149
  %36 = getelementptr inbounds %"struct.Halide::Runtime::Internal::device_copy", %"struct.Halide::Runtime::Internal::device_copy"* %6, i32 0, i32 6, !dbg !1150
  store i64 %35, i64* %36, align 8, !dbg !1151, !tbaa !991
  call void @llvm.dbg.value(metadata i32 0, metadata !1094, metadata !DIExpression()), !dbg !1152
  call void @llvm.dbg.value(metadata i32 0, metadata !1094, metadata !DIExpression()), !dbg !1152
  %37 = getelementptr inbounds %"struct.Halide::Runtime::Internal::device_copy", %"struct.Halide::Runtime::Internal::device_copy"* %6, i32 0, i32 3, i32 0, !dbg !1153
  store i64 1, i64* %37, align 8, !dbg !1156, !tbaa !962
  %38 = getelementptr inbounds %"struct.Halide::Runtime::Internal::device_copy", %"struct.Halide::Runtime::Internal::device_copy"* %6, i32 0, i32 4, i32 0, !dbg !1157
  store i64 0, i64* %38, align 8, !dbg !1158, !tbaa !962
  %39 = getelementptr inbounds %"struct.Halide::Runtime::Internal::device_copy", %"struct.Halide::Runtime::Internal::device_copy"* %6, i32 0, i32 5, i32 0, !dbg !1159
  store i64 0, i64* %39, align 8, !dbg !1160, !tbaa !962
  call void @llvm.dbg.value(metadata i32 1, metadata !1094, metadata !DIExpression()), !dbg !1152
  call void @llvm.dbg.value(metadata i32 1, metadata !1094, metadata !DIExpression()), !dbg !1152
  %40 = getelementptr inbounds %"struct.Halide::Runtime::Internal::device_copy", %"struct.Halide::Runtime::Internal::device_copy"* %6, i32 0, i32 3, i32 1, !dbg !1153
  store i64 1, i64* %40, align 8, !dbg !1156, !tbaa !962
  %41 = getelementptr inbounds %"struct.Halide::Runtime::Internal::device_copy", %"struct.Halide::Runtime::Internal::device_copy"* %6, i32 0, i32 4, i32 1, !dbg !1157
  store i64 0, i64* %41, align 8, !dbg !1158, !tbaa !962
  %42 = getelementptr inbounds %"struct.Halide::Runtime::Internal::device_copy", %"struct.Halide::Runtime::Internal::device_copy"* %6, i32 0, i32 5, i32 1, !dbg !1159
  store i64 0, i64* %42, align 8, !dbg !1160, !tbaa !962
  call void @llvm.dbg.value(metadata i32 2, metadata !1094, metadata !DIExpression()), !dbg !1152
  call void @llvm.dbg.value(metadata i32 2, metadata !1094, metadata !DIExpression()), !dbg !1152
  %43 = getelementptr inbounds %"struct.Halide::Runtime::Internal::device_copy", %"struct.Halide::Runtime::Internal::device_copy"* %6, i32 0, i32 3, i32 2, !dbg !1153
  store i64 1, i64* %43, align 8, !dbg !1156, !tbaa !962
  %44 = getelementptr inbounds %"struct.Halide::Runtime::Internal::device_copy", %"struct.Halide::Runtime::Internal::device_copy"* %6, i32 0, i32 4, i32 2, !dbg !1157
  store i64 0, i64* %44, align 8, !dbg !1158, !tbaa !962
  %45 = getelementptr inbounds %"struct.Halide::Runtime::Internal::device_copy", %"struct.Halide::Runtime::Internal::device_copy"* %6, i32 0, i32 5, i32 2, !dbg !1159
  store i64 0, i64* %45, align 8, !dbg !1160, !tbaa !962
  call void @llvm.dbg.value(metadata i32 3, metadata !1094, metadata !DIExpression()), !dbg !1152
  call void @llvm.dbg.value(metadata i32 3, metadata !1094, metadata !DIExpression()), !dbg !1152
  %46 = getelementptr inbounds %"struct.Halide::Runtime::Internal::device_copy", %"struct.Halide::Runtime::Internal::device_copy"* %6, i32 0, i32 3, i32 3, !dbg !1153
  store i64 1, i64* %46, align 8, !dbg !1156, !tbaa !962
  %47 = getelementptr inbounds %"struct.Halide::Runtime::Internal::device_copy", %"struct.Halide::Runtime::Internal::device_copy"* %6, i32 0, i32 4, i32 3, !dbg !1157
  store i64 0, i64* %47, align 8, !dbg !1158, !tbaa !962
  %48 = getelementptr inbounds %"struct.Halide::Runtime::Internal::device_copy", %"struct.Halide::Runtime::Internal::device_copy"* %6, i32 0, i32 5, i32 3, !dbg !1159
  store i64 0, i64* %48, align 8, !dbg !1160, !tbaa !962
  call void @llvm.dbg.value(metadata i32 4, metadata !1094, metadata !DIExpression()), !dbg !1152
  call void @llvm.dbg.value(metadata i32 4, metadata !1094, metadata !DIExpression()), !dbg !1152
  %49 = getelementptr inbounds %"struct.Halide::Runtime::Internal::device_copy", %"struct.Halide::Runtime::Internal::device_copy"* %6, i32 0, i32 3, i32 4, !dbg !1153
  store i64 1, i64* %49, align 8, !dbg !1156, !tbaa !962
  %50 = getelementptr inbounds %"struct.Halide::Runtime::Internal::device_copy", %"struct.Halide::Runtime::Internal::device_copy"* %6, i32 0, i32 4, i32 4, !dbg !1157
  store i64 0, i64* %50, align 8, !dbg !1158, !tbaa !962
  %51 = getelementptr inbounds %"struct.Halide::Runtime::Internal::device_copy", %"struct.Halide::Runtime::Internal::device_copy"* %6, i32 0, i32 5, i32 4, !dbg !1159
  store i64 0, i64* %51, align 8, !dbg !1160, !tbaa !962
  call void @llvm.dbg.value(metadata i32 5, metadata !1094, metadata !DIExpression()), !dbg !1152
  call void @llvm.dbg.value(metadata i32 5, metadata !1094, metadata !DIExpression()), !dbg !1152
  %52 = getelementptr inbounds %"struct.Halide::Runtime::Internal::device_copy", %"struct.Halide::Runtime::Internal::device_copy"* %6, i32 0, i32 3, i32 5, !dbg !1153
  store i64 1, i64* %52, align 8, !dbg !1156, !tbaa !962
  %53 = getelementptr inbounds %"struct.Halide::Runtime::Internal::device_copy", %"struct.Halide::Runtime::Internal::device_copy"* %6, i32 0, i32 4, i32 5, !dbg !1157
  store i64 0, i64* %53, align 8, !dbg !1158, !tbaa !962
  %54 = getelementptr inbounds %"struct.Halide::Runtime::Internal::device_copy", %"struct.Halide::Runtime::Internal::device_copy"* %6, i32 0, i32 5, i32 5, !dbg !1159
  store i64 0, i64* %54, align 8, !dbg !1160, !tbaa !962
  call void @llvm.dbg.value(metadata i32 6, metadata !1094, metadata !DIExpression()), !dbg !1152
  call void @llvm.dbg.value(metadata i32 6, metadata !1094, metadata !DIExpression()), !dbg !1152
  %55 = getelementptr inbounds %"struct.Halide::Runtime::Internal::device_copy", %"struct.Halide::Runtime::Internal::device_copy"* %6, i32 0, i32 3, i32 6, !dbg !1153
  store i64 1, i64* %55, align 8, !dbg !1156, !tbaa !962
  %56 = getelementptr inbounds %"struct.Halide::Runtime::Internal::device_copy", %"struct.Halide::Runtime::Internal::device_copy"* %6, i32 0, i32 4, i32 6, !dbg !1157
  store i64 0, i64* %56, align 8, !dbg !1158, !tbaa !962
  %57 = getelementptr inbounds %"struct.Halide::Runtime::Internal::device_copy", %"struct.Halide::Runtime::Internal::device_copy"* %6, i32 0, i32 5, i32 6, !dbg !1159
  store i64 0, i64* %57, align 8, !dbg !1160, !tbaa !962
  call void @llvm.dbg.value(metadata i32 7, metadata !1094, metadata !DIExpression()), !dbg !1152
  call void @llvm.dbg.value(metadata i32 7, metadata !1094, metadata !DIExpression()), !dbg !1152
  %58 = getelementptr inbounds %"struct.Halide::Runtime::Internal::device_copy", %"struct.Halide::Runtime::Internal::device_copy"* %6, i32 0, i32 3, i32 7, !dbg !1153
  store i64 1, i64* %58, align 8, !dbg !1156, !tbaa !962
  %59 = getelementptr inbounds %"struct.Halide::Runtime::Internal::device_copy", %"struct.Halide::Runtime::Internal::device_copy"* %6, i32 0, i32 4, i32 7, !dbg !1157
  store i64 0, i64* %59, align 8, !dbg !1158, !tbaa !962
  %60 = getelementptr inbounds %"struct.Halide::Runtime::Internal::device_copy", %"struct.Halide::Runtime::Internal::device_copy"* %6, i32 0, i32 5, i32 7, !dbg !1159
  store i64 0, i64* %60, align 8, !dbg !1160, !tbaa !962
  call void @llvm.dbg.value(metadata i32 8, metadata !1094, metadata !DIExpression()), !dbg !1152
  call void @llvm.dbg.value(metadata i32 8, metadata !1094, metadata !DIExpression()), !dbg !1152
  %61 = getelementptr inbounds %"struct.Halide::Runtime::Internal::device_copy", %"struct.Halide::Runtime::Internal::device_copy"* %6, i32 0, i32 3, i32 8, !dbg !1153
  store i64 1, i64* %61, align 8, !dbg !1156, !tbaa !962
  %62 = getelementptr inbounds %"struct.Halide::Runtime::Internal::device_copy", %"struct.Halide::Runtime::Internal::device_copy"* %6, i32 0, i32 4, i32 8, !dbg !1157
  store i64 0, i64* %62, align 8, !dbg !1158, !tbaa !962
  %63 = getelementptr inbounds %"struct.Halide::Runtime::Internal::device_copy", %"struct.Halide::Runtime::Internal::device_copy"* %6, i32 0, i32 5, i32 8, !dbg !1159
  store i64 0, i64* %63, align 8, !dbg !1160, !tbaa !962
  call void @llvm.dbg.value(metadata i32 9, metadata !1094, metadata !DIExpression()), !dbg !1152
  call void @llvm.dbg.value(metadata i32 9, metadata !1094, metadata !DIExpression()), !dbg !1152
  %64 = getelementptr inbounds %"struct.Halide::Runtime::Internal::device_copy", %"struct.Halide::Runtime::Internal::device_copy"* %6, i32 0, i32 3, i32 9, !dbg !1153
  store i64 1, i64* %64, align 8, !dbg !1156, !tbaa !962
  %65 = getelementptr inbounds %"struct.Halide::Runtime::Internal::device_copy", %"struct.Halide::Runtime::Internal::device_copy"* %6, i32 0, i32 4, i32 9, !dbg !1157
  store i64 0, i64* %65, align 8, !dbg !1158, !tbaa !962
  %66 = getelementptr inbounds %"struct.Halide::Runtime::Internal::device_copy", %"struct.Halide::Runtime::Internal::device_copy"* %6, i32 0, i32 5, i32 9, !dbg !1159
  store i64 0, i64* %66, align 8, !dbg !1160, !tbaa !962
  call void @llvm.dbg.value(metadata i32 10, metadata !1094, metadata !DIExpression()), !dbg !1152
  call void @llvm.dbg.value(metadata i32 10, metadata !1094, metadata !DIExpression()), !dbg !1152
  %67 = getelementptr inbounds %"struct.Halide::Runtime::Internal::device_copy", %"struct.Halide::Runtime::Internal::device_copy"* %6, i32 0, i32 3, i32 10, !dbg !1153
  store i64 1, i64* %67, align 8, !dbg !1156, !tbaa !962
  %68 = getelementptr inbounds %"struct.Halide::Runtime::Internal::device_copy", %"struct.Halide::Runtime::Internal::device_copy"* %6, i32 0, i32 4, i32 10, !dbg !1157
  store i64 0, i64* %68, align 8, !dbg !1158, !tbaa !962
  %69 = getelementptr inbounds %"struct.Halide::Runtime::Internal::device_copy", %"struct.Halide::Runtime::Internal::device_copy"* %6, i32 0, i32 5, i32 10, !dbg !1159
  store i64 0, i64* %69, align 8, !dbg !1160, !tbaa !962
  call void @llvm.dbg.value(metadata i32 11, metadata !1094, metadata !DIExpression()), !dbg !1152
  call void @llvm.dbg.value(metadata i32 11, metadata !1094, metadata !DIExpression()), !dbg !1152
  %70 = getelementptr inbounds %"struct.Halide::Runtime::Internal::device_copy", %"struct.Halide::Runtime::Internal::device_copy"* %6, i32 0, i32 3, i32 11, !dbg !1153
  store i64 1, i64* %70, align 8, !dbg !1156, !tbaa !962
  %71 = getelementptr inbounds %"struct.Halide::Runtime::Internal::device_copy", %"struct.Halide::Runtime::Internal::device_copy"* %6, i32 0, i32 4, i32 11, !dbg !1157
  store i64 0, i64* %71, align 8, !dbg !1158, !tbaa !962
  %72 = getelementptr inbounds %"struct.Halide::Runtime::Internal::device_copy", %"struct.Halide::Runtime::Internal::device_copy"* %6, i32 0, i32 5, i32 11, !dbg !1159
  store i64 0, i64* %72, align 8, !dbg !1160, !tbaa !962
  call void @llvm.dbg.value(metadata i32 12, metadata !1094, metadata !DIExpression()), !dbg !1152
  call void @llvm.dbg.value(metadata i32 12, metadata !1094, metadata !DIExpression()), !dbg !1152
  %73 = getelementptr inbounds %"struct.Halide::Runtime::Internal::device_copy", %"struct.Halide::Runtime::Internal::device_copy"* %6, i32 0, i32 3, i32 12, !dbg !1153
  store i64 1, i64* %73, align 8, !dbg !1156, !tbaa !962
  %74 = getelementptr inbounds %"struct.Halide::Runtime::Internal::device_copy", %"struct.Halide::Runtime::Internal::device_copy"* %6, i32 0, i32 4, i32 12, !dbg !1157
  store i64 0, i64* %74, align 8, !dbg !1158, !tbaa !962
  %75 = getelementptr inbounds %"struct.Halide::Runtime::Internal::device_copy", %"struct.Halide::Runtime::Internal::device_copy"* %6, i32 0, i32 5, i32 12, !dbg !1159
  store i64 0, i64* %75, align 8, !dbg !1160, !tbaa !962
  call void @llvm.dbg.value(metadata i32 13, metadata !1094, metadata !DIExpression()), !dbg !1152
  call void @llvm.dbg.value(metadata i32 13, metadata !1094, metadata !DIExpression()), !dbg !1152
  %76 = getelementptr inbounds %"struct.Halide::Runtime::Internal::device_copy", %"struct.Halide::Runtime::Internal::device_copy"* %6, i32 0, i32 3, i32 13, !dbg !1153
  store i64 1, i64* %76, align 8, !dbg !1156, !tbaa !962
  %77 = getelementptr inbounds %"struct.Halide::Runtime::Internal::device_copy", %"struct.Halide::Runtime::Internal::device_copy"* %6, i32 0, i32 4, i32 13, !dbg !1157
  store i64 0, i64* %77, align 8, !dbg !1158, !tbaa !962
  %78 = getelementptr inbounds %"struct.Halide::Runtime::Internal::device_copy", %"struct.Halide::Runtime::Internal::device_copy"* %6, i32 0, i32 5, i32 13, !dbg !1159
  store i64 0, i64* %78, align 8, !dbg !1160, !tbaa !962
  call void @llvm.dbg.value(metadata i32 14, metadata !1094, metadata !DIExpression()), !dbg !1152
  call void @llvm.dbg.value(metadata i32 14, metadata !1094, metadata !DIExpression()), !dbg !1152
  %79 = getelementptr inbounds %"struct.Halide::Runtime::Internal::device_copy", %"struct.Halide::Runtime::Internal::device_copy"* %6, i32 0, i32 3, i32 14, !dbg !1153
  store i64 1, i64* %79, align 8, !dbg !1156, !tbaa !962
  %80 = getelementptr inbounds %"struct.Halide::Runtime::Internal::device_copy", %"struct.Halide::Runtime::Internal::device_copy"* %6, i32 0, i32 4, i32 14, !dbg !1157
  store i64 0, i64* %80, align 8, !dbg !1158, !tbaa !962
  %81 = getelementptr inbounds %"struct.Halide::Runtime::Internal::device_copy", %"struct.Halide::Runtime::Internal::device_copy"* %6, i32 0, i32 5, i32 14, !dbg !1159
  store i64 0, i64* %81, align 8, !dbg !1160, !tbaa !962
  call void @llvm.dbg.value(metadata i32 15, metadata !1094, metadata !DIExpression()), !dbg !1152
  call void @llvm.dbg.value(metadata i32 15, metadata !1094, metadata !DIExpression()), !dbg !1152
  %82 = getelementptr inbounds %"struct.Halide::Runtime::Internal::device_copy", %"struct.Halide::Runtime::Internal::device_copy"* %6, i32 0, i32 3, i32 15, !dbg !1153
  store i64 1, i64* %82, align 8, !dbg !1156, !tbaa !962
  %83 = getelementptr inbounds %"struct.Halide::Runtime::Internal::device_copy", %"struct.Halide::Runtime::Internal::device_copy"* %6, i32 0, i32 4, i32 15, !dbg !1157
  store i64 0, i64* %83, align 8, !dbg !1158, !tbaa !962
  %84 = getelementptr inbounds %"struct.Halide::Runtime::Internal::device_copy", %"struct.Halide::Runtime::Internal::device_copy"* %6, i32 0, i32 5, i32 15, !dbg !1159
  store i64 0, i64* %84, align 8, !dbg !1160, !tbaa !962
  call void @llvm.dbg.value(metadata i32 16, metadata !1094, metadata !DIExpression()), !dbg !1152
  %85 = getelementptr inbounds %"struct.Halide::Runtime::Internal::device_copy", %"struct.Halide::Runtime::Internal::device_copy"* %6, i32 0, i32 2, !dbg !1161
  call void @llvm.dbg.value(metadata i32 0, metadata !1096, metadata !DIExpression()), !dbg !1162
  %86 = getelementptr inbounds %struct.halide_buffer_t, %struct.halide_buffer_t* %1, i32 0, i32 5, !dbg !1163
  %87 = load i32, i32* %86, align 4, !dbg !1163, !tbaa !1165
  %88 = icmp sgt i32 %87, 0, !dbg !1166
  br i1 %88, label %89, label %94, !dbg !1167

89:                                               ; preds = %27
  %90 = getelementptr inbounds %struct.halide_buffer_t, %struct.halide_buffer_t* %1, i32 0, i32 6
  %91 = load %struct.halide_dimension_t*, %struct.halide_dimension_t** %90, align 8, !tbaa !1168
  %92 = getelementptr inbounds %struct.halide_buffer_t, %struct.halide_buffer_t* %3, i32 0, i32 6
  %93 = load %struct.halide_dimension_t*, %struct.halide_dimension_t** %92, align 8, !tbaa !1168
  br label %101, !dbg !1167

94:                                               ; preds = %101, %27
  %95 = phi i64 [ 0, %27 ], [ %114, %101 ], !dbg !1169
  %96 = load i64, i64* %36, align 8, !dbg !1170, !tbaa !991
  %97 = mul i64 %95, %96, !dbg !1169
  store i64 %97, i64* %85, align 8, !dbg !1169, !tbaa !1023
  %98 = getelementptr inbounds %struct.halide_buffer_t, %struct.halide_buffer_t* %3, i32 0, i32 5, !dbg !1171
  %99 = load i32, i32* %98, align 4, !dbg !1171, !tbaa !1165
  %100 = icmp eq i32 %87, %99, !dbg !1172
  br i1 %100, label %117, label %126, !dbg !1173

101:                                              ; preds = %89, %101
  %102 = phi i64 [ 0, %89 ], [ %114, %101 ], !dbg !1162
  %103 = phi i32 [ 0, %89 ], [ %115, %101 ]
  call void @llvm.dbg.value(metadata i32 %103, metadata !1096, metadata !DIExpression()), !dbg !1162
  %104 = getelementptr inbounds %struct.halide_dimension_t, %struct.halide_dimension_t* %91, i32 %103, i32 2, !dbg !1174
  %105 = load i32, i32* %104, align 4, !dbg !1174, !tbaa !1176
  %106 = sext i32 %105 to i64, !dbg !1178
  %107 = getelementptr inbounds %struct.halide_dimension_t, %struct.halide_dimension_t* %93, i32 %103, i32 0, !dbg !1179
  %108 = load i32, i32* %107, align 4, !dbg !1179, !tbaa !1180
  %109 = getelementptr inbounds %struct.halide_dimension_t, %struct.halide_dimension_t* %91, i32 %103, i32 0, !dbg !1181
  %110 = load i32, i32* %109, align 4, !dbg !1181, !tbaa !1180
  %111 = sub nsw i32 %108, %110, !dbg !1182
  %112 = sext i32 %111 to i64, !dbg !1183
  %113 = mul nsw i64 %112, %106, !dbg !1184
  %114 = add i64 %113, %102, !dbg !1185
  %115 = add nuw nsw i32 %103, 1, !dbg !1186
  call void @llvm.dbg.value(metadata i32 %115, metadata !1096, metadata !DIExpression()), !dbg !1162
  %116 = icmp slt i32 %115, %87, !dbg !1166
  br i1 %116, label %101, label %94, !dbg !1167, !llvm.loop !1187

117:                                              ; preds = %94
  call void @llvm.dbg.value(metadata %struct.halide_buffer_t* %1, metadata !1139, metadata !DIExpression(DW_OP_plus_uconst, 24, DW_OP_stack_value)), !dbg !1189
  call void @llvm.dbg.value(metadata %struct.halide_buffer_t* %3, metadata !1139, metadata !DIExpression(DW_OP_plus_uconst, 24, DW_OP_stack_value)), !dbg !1191
  %118 = getelementptr inbounds %struct.halide_buffer_t, %struct.halide_buffer_t* %3, i32 0, i32 4, i32 1, !dbg !1193
  %119 = load i8, i8* %118, align 1, !dbg !1193, !tbaa !1146
  %120 = zext i8 %119 to i32, !dbg !1193
  %121 = add nuw nsw i32 %120, 7, !dbg !1194
  %122 = lshr i32 %121, 3, !dbg !1195
  %123 = icmp ne i32 %34, %122, !dbg !1196
  %124 = icmp sgt i32 %87, 16
  %125 = or i1 %124, %123, !dbg !1197
  br i1 %125, label %126, label %128, !dbg !1197

126:                                              ; preds = %117, %94
  call void @llvm.dbg.declare(metadata %"struct.Halide::Runtime::Internal::device_copy"* %0, metadata !1098, metadata !DIExpression()), !dbg !1198
  %127 = bitcast %"struct.Halide::Runtime::Internal::device_copy"* %0 to i8*, !dbg !1198
  tail call void @llvm.memset.p0i8.i32(i8* nonnull align 8 dereferenceable(416) %127, i8 0, i32 416, i1 false), !dbg !1198
  br label %245, !dbg !1199

128:                                              ; preds = %117
  %129 = icmp eq i64 %96, 0, !dbg !1200
  br i1 %129, label %136, label %130, !dbg !1201

130:                                              ; preds = %128
  call void @llvm.dbg.value(metadata i32 0, metadata !1104, metadata !DIExpression()), !dbg !1202
  br i1 %88, label %131, label %243, !dbg !1203

131:                                              ; preds = %130
  %132 = getelementptr inbounds %struct.halide_buffer_t, %struct.halide_buffer_t* %3, i32 0, i32 6
  %133 = load %struct.halide_dimension_t*, %struct.halide_dimension_t** %132, align 8, !tbaa !1168
  %134 = getelementptr inbounds %struct.halide_buffer_t, %struct.halide_buffer_t* %1, i32 0, i32 6
  %135 = load %struct.halide_dimension_t*, %struct.halide_dimension_t** %134, align 8, !tbaa !1168
  br label %144, !dbg !1203

136:                                              ; preds = %128
  call void @llvm.dbg.declare(metadata %"struct.Halide::Runtime::Internal::device_copy"* %0, metadata !1101, metadata !DIExpression()), !dbg !1204
  %137 = bitcast %"struct.Halide::Runtime::Internal::device_copy"* %0 to i8*, !dbg !1204
  tail call void @llvm.memset.p0i8.i32(i8* nonnull align 8 dereferenceable(416) %137, i8 0, i32 416, i1 false), !dbg !1204
  br label %245, !dbg !1205

138:                                              ; preds = %168
  %139 = load i64, i64* %36, align 8, !dbg !1206, !tbaa !991
  %140 = load i64, i64* %38, align 8, !dbg !1207, !tbaa !962
  %141 = icmp eq i64 %139, %140, !dbg !1208
  br i1 %141, label %142, label %243, !dbg !1209

142:                                              ; preds = %138
  %143 = load i64, i64* %39, align 8, !dbg !1210, !tbaa !962
  br label %190, !dbg !1209

144:                                              ; preds = %131, %168
  %145 = phi i32 [ 0, %131 ], [ %175, %168 ]
  call void @llvm.dbg.value(metadata i32 %145, metadata !1104, metadata !DIExpression()), !dbg !1202
  %146 = getelementptr inbounds %struct.halide_dimension_t, %struct.halide_dimension_t* %133, i32 %145, i32 2, !dbg !1211
  %147 = load i32, i32* %146, align 4, !dbg !1211, !tbaa !1176
  %148 = sext i32 %147 to i64, !dbg !1212
  call void @llvm.dbg.value(metadata %struct.halide_buffer_t* %3, metadata !1139, metadata !DIExpression(DW_OP_plus_uconst, 24, DW_OP_stack_value)), !dbg !1213
  %149 = mul nsw i64 %148, %35, !dbg !1215
  call void @llvm.dbg.value(metadata i64 %149, metadata !1106, metadata !DIExpression()), !dbg !1216
  %150 = getelementptr inbounds %struct.halide_dimension_t, %struct.halide_dimension_t* %135, i32 %145, i32 2, !dbg !1217
  %151 = load i32, i32* %150, align 4, !dbg !1217, !tbaa !1176
  %152 = sext i32 %151 to i64, !dbg !1218
  call void @llvm.dbg.value(metadata %struct.halide_buffer_t* %1, metadata !1139, metadata !DIExpression(DW_OP_plus_uconst, 24, DW_OP_stack_value)), !dbg !1219
  %153 = mul nsw i64 %152, %35, !dbg !1221
  call void @llvm.dbg.value(metadata i64 %153, metadata !1109, metadata !DIExpression()), !dbg !1216
  call void @llvm.dbg.value(metadata i32 0, metadata !1110, metadata !DIExpression()), !dbg !1216
  %154 = icmp eq i32 %145, 0, !dbg !1222
  br i1 %154, label %165, label %155, !dbg !1225

155:                                              ; preds = %144
  %156 = icmp eq i64 %149, 0
  br i1 %156, label %165, label %157, !dbg !1225

157:                                              ; preds = %155, %162
  %158 = phi i32 [ %163, %162 ], [ 0, %155 ]
  call void @llvm.dbg.value(metadata i32 %158, metadata !1110, metadata !DIExpression()), !dbg !1216
  %159 = getelementptr inbounds %"struct.Halide::Runtime::Internal::device_copy", %"struct.Halide::Runtime::Internal::device_copy"* %6, i32 0, i32 5, i32 %158, !dbg !1226
  %160 = load i64, i64* %159, align 8, !dbg !1226, !tbaa !962
  %161 = icmp ult i64 %149, %160, !dbg !1229
  br i1 %161, label %165, label %162, !dbg !1230

162:                                              ; preds = %157
  %163 = add nuw nsw i32 %158, 1, !dbg !1231
  call void @llvm.dbg.value(metadata i32 %163, metadata !1110, metadata !DIExpression()), !dbg !1216
  %164 = icmp ult i32 %163, %145, !dbg !1222
  br i1 %164, label %157, label %165, !dbg !1225, !llvm.loop !1232

165:                                              ; preds = %162, %157, %155, %144
  %166 = phi i32 [ 0, %144 ], [ %145, %155 ], [ %158, %157 ], [ %145, %162 ], !dbg !1234
  call void @llvm.dbg.value(metadata i32 %145, metadata !1111, metadata !DIExpression()), !dbg !1235
  %167 = icmp ugt i32 %145, %166, !dbg !1236
  br i1 %167, label %177, label %168, !dbg !1238

168:                                              ; preds = %177, %165
  %169 = getelementptr inbounds %struct.halide_dimension_t, %struct.halide_dimension_t* %133, i32 %145, i32 1, !dbg !1239
  %170 = load i32, i32* %169, align 4, !dbg !1239, !tbaa !1240
  %171 = sext i32 %170 to i64, !dbg !1241
  %172 = getelementptr inbounds %"struct.Halide::Runtime::Internal::device_copy", %"struct.Halide::Runtime::Internal::device_copy"* %6, i32 0, i32 3, i32 %166, !dbg !1242
  store i64 %171, i64* %172, align 8, !dbg !1243, !tbaa !962
  %173 = getelementptr inbounds %"struct.Halide::Runtime::Internal::device_copy", %"struct.Halide::Runtime::Internal::device_copy"* %6, i32 0, i32 5, i32 %166, !dbg !1244
  store i64 %149, i64* %173, align 8, !dbg !1245, !tbaa !962
  %174 = getelementptr inbounds %"struct.Halide::Runtime::Internal::device_copy", %"struct.Halide::Runtime::Internal::device_copy"* %6, i32 0, i32 4, i32 %166, !dbg !1246
  store i64 %153, i64* %174, align 8, !dbg !1247, !tbaa !962
  %175 = add nuw nsw i32 %145, 1, !dbg !1248
  call void @llvm.dbg.value(metadata i32 %175, metadata !1104, metadata !DIExpression()), !dbg !1202
  %176 = icmp slt i32 %175, %87, !dbg !1249
  br i1 %176, label %144, label %138, !dbg !1203, !llvm.loop !1250

177:                                              ; preds = %165, %177
  %178 = phi i32 [ %179, %177 ], [ %145, %165 ]
  call void @llvm.dbg.value(metadata i32 %178, metadata !1111, metadata !DIExpression()), !dbg !1235
  %179 = add nsw i32 %178, -1, !dbg !1252
  %180 = getelementptr inbounds %"struct.Halide::Runtime::Internal::device_copy", %"struct.Halide::Runtime::Internal::device_copy"* %6, i32 0, i32 3, i32 %179, !dbg !1254
  %181 = load i64, i64* %180, align 8, !dbg !1254, !tbaa !962
  %182 = getelementptr inbounds %"struct.Halide::Runtime::Internal::device_copy", %"struct.Halide::Runtime::Internal::device_copy"* %6, i32 0, i32 3, i32 %178, !dbg !1255
  store i64 %181, i64* %182, align 8, !dbg !1256, !tbaa !962
  %183 = getelementptr inbounds %"struct.Halide::Runtime::Internal::device_copy", %"struct.Halide::Runtime::Internal::device_copy"* %6, i32 0, i32 5, i32 %179, !dbg !1257
  %184 = load i64, i64* %183, align 8, !dbg !1257, !tbaa !962
  %185 = getelementptr inbounds %"struct.Halide::Runtime::Internal::device_copy", %"struct.Halide::Runtime::Internal::device_copy"* %6, i32 0, i32 5, i32 %178, !dbg !1258
  store i64 %184, i64* %185, align 8, !dbg !1259, !tbaa !962
  %186 = getelementptr inbounds %"struct.Halide::Runtime::Internal::device_copy", %"struct.Halide::Runtime::Internal::device_copy"* %6, i32 0, i32 4, i32 %179, !dbg !1260
  %187 = load i64, i64* %186, align 8, !dbg !1260, !tbaa !962
  %188 = getelementptr inbounds %"struct.Halide::Runtime::Internal::device_copy", %"struct.Halide::Runtime::Internal::device_copy"* %6, i32 0, i32 4, i32 %178, !dbg !1261
  store i64 %187, i64* %188, align 8, !dbg !1262, !tbaa !962
  call void @llvm.dbg.value(metadata i32 %179, metadata !1111, metadata !DIExpression()), !dbg !1235
  %189 = icmp sgt i32 %179, %166, !dbg !1236
  br i1 %189, label %177, label %168, !dbg !1238, !llvm.loop !1263

190:                                              ; preds = %142, %194
  %191 = phi i64 [ %143, %142 ], [ %199, %194 ], !dbg !1210
  %192 = phi i64 [ %140, %142 ], [ %196, %194 ]
  %193 = icmp eq i64 %192, %191, !dbg !1265
  br i1 %193, label %194, label %243, !dbg !1266

194:                                              ; preds = %190
  %195 = load i64, i64* %37, align 8, !dbg !1267, !tbaa !962
  %196 = mul i64 %195, %191, !dbg !1268
  store i64 %196, i64* %36, align 8, !dbg !1268, !tbaa !991
  call void @llvm.dbg.value(metadata i32 1, metadata !1113, metadata !DIExpression()), !dbg !1269
  %197 = load i64, i64* %40, align 8, !dbg !1270, !tbaa !962
  store i64 %197, i64* %37, align 8, !dbg !1273, !tbaa !962
  %198 = load i64, i64* %41, align 8, !dbg !1274, !tbaa !962
  store i64 %198, i64* %38, align 8, !dbg !1275, !tbaa !962
  %199 = load i64, i64* %42, align 8, !dbg !1276, !tbaa !962
  store i64 %199, i64* %39, align 8, !dbg !1277, !tbaa !962
  call void @llvm.dbg.value(metadata i32 2, metadata !1113, metadata !DIExpression()), !dbg !1269
  %200 = load i64, i64* %43, align 8, !dbg !1270, !tbaa !962
  store i64 %200, i64* %40, align 8, !dbg !1273, !tbaa !962
  %201 = load i64, i64* %44, align 8, !dbg !1274, !tbaa !962
  store i64 %201, i64* %41, align 8, !dbg !1275, !tbaa !962
  %202 = load i64, i64* %45, align 8, !dbg !1276, !tbaa !962
  store i64 %202, i64* %42, align 8, !dbg !1277, !tbaa !962
  call void @llvm.dbg.value(metadata i32 3, metadata !1113, metadata !DIExpression()), !dbg !1269
  %203 = load i64, i64* %46, align 8, !dbg !1270, !tbaa !962
  store i64 %203, i64* %43, align 8, !dbg !1273, !tbaa !962
  %204 = load i64, i64* %47, align 8, !dbg !1274, !tbaa !962
  store i64 %204, i64* %44, align 8, !dbg !1275, !tbaa !962
  %205 = load i64, i64* %48, align 8, !dbg !1276, !tbaa !962
  store i64 %205, i64* %45, align 8, !dbg !1277, !tbaa !962
  call void @llvm.dbg.value(metadata i32 4, metadata !1113, metadata !DIExpression()), !dbg !1269
  %206 = load i64, i64* %49, align 8, !dbg !1270, !tbaa !962
  store i64 %206, i64* %46, align 8, !dbg !1273, !tbaa !962
  %207 = load i64, i64* %50, align 8, !dbg !1274, !tbaa !962
  store i64 %207, i64* %47, align 8, !dbg !1275, !tbaa !962
  %208 = load i64, i64* %51, align 8, !dbg !1276, !tbaa !962
  store i64 %208, i64* %48, align 8, !dbg !1277, !tbaa !962
  call void @llvm.dbg.value(metadata i32 5, metadata !1113, metadata !DIExpression()), !dbg !1269
  %209 = load i64, i64* %52, align 8, !dbg !1270, !tbaa !962
  store i64 %209, i64* %49, align 8, !dbg !1273, !tbaa !962
  %210 = load i64, i64* %53, align 8, !dbg !1274, !tbaa !962
  store i64 %210, i64* %50, align 8, !dbg !1275, !tbaa !962
  %211 = load i64, i64* %54, align 8, !dbg !1276, !tbaa !962
  store i64 %211, i64* %51, align 8, !dbg !1277, !tbaa !962
  call void @llvm.dbg.value(metadata i32 6, metadata !1113, metadata !DIExpression()), !dbg !1269
  %212 = load i64, i64* %55, align 8, !dbg !1270, !tbaa !962
  store i64 %212, i64* %52, align 8, !dbg !1273, !tbaa !962
  %213 = load i64, i64* %56, align 8, !dbg !1274, !tbaa !962
  store i64 %213, i64* %53, align 8, !dbg !1275, !tbaa !962
  %214 = load i64, i64* %57, align 8, !dbg !1276, !tbaa !962
  store i64 %214, i64* %54, align 8, !dbg !1277, !tbaa !962
  call void @llvm.dbg.value(metadata i32 7, metadata !1113, metadata !DIExpression()), !dbg !1269
  %215 = load i64, i64* %58, align 8, !dbg !1270, !tbaa !962
  store i64 %215, i64* %55, align 8, !dbg !1273, !tbaa !962
  %216 = load i64, i64* %59, align 8, !dbg !1274, !tbaa !962
  store i64 %216, i64* %56, align 8, !dbg !1275, !tbaa !962
  %217 = load i64, i64* %60, align 8, !dbg !1276, !tbaa !962
  store i64 %217, i64* %57, align 8, !dbg !1277, !tbaa !962
  call void @llvm.dbg.value(metadata i32 8, metadata !1113, metadata !DIExpression()), !dbg !1269
  %218 = load i64, i64* %61, align 8, !dbg !1270, !tbaa !962
  store i64 %218, i64* %58, align 8, !dbg !1273, !tbaa !962
  %219 = load i64, i64* %62, align 8, !dbg !1274, !tbaa !962
  store i64 %219, i64* %59, align 8, !dbg !1275, !tbaa !962
  %220 = load i64, i64* %63, align 8, !dbg !1276, !tbaa !962
  store i64 %220, i64* %60, align 8, !dbg !1277, !tbaa !962
  call void @llvm.dbg.value(metadata i32 9, metadata !1113, metadata !DIExpression()), !dbg !1269
  %221 = load i64, i64* %64, align 8, !dbg !1270, !tbaa !962
  store i64 %221, i64* %61, align 8, !dbg !1273, !tbaa !962
  %222 = load i64, i64* %65, align 8, !dbg !1274, !tbaa !962
  store i64 %222, i64* %62, align 8, !dbg !1275, !tbaa !962
  %223 = load i64, i64* %66, align 8, !dbg !1276, !tbaa !962
  store i64 %223, i64* %63, align 8, !dbg !1277, !tbaa !962
  call void @llvm.dbg.value(metadata i32 10, metadata !1113, metadata !DIExpression()), !dbg !1269
  %224 = load i64, i64* %67, align 8, !dbg !1270, !tbaa !962
  store i64 %224, i64* %64, align 8, !dbg !1273, !tbaa !962
  %225 = load i64, i64* %68, align 8, !dbg !1274, !tbaa !962
  store i64 %225, i64* %65, align 8, !dbg !1275, !tbaa !962
  %226 = load i64, i64* %69, align 8, !dbg !1276, !tbaa !962
  store i64 %226, i64* %66, align 8, !dbg !1277, !tbaa !962
  call void @llvm.dbg.value(metadata i32 11, metadata !1113, metadata !DIExpression()), !dbg !1269
  %227 = load i64, i64* %70, align 8, !dbg !1270, !tbaa !962
  store i64 %227, i64* %67, align 8, !dbg !1273, !tbaa !962
  %228 = load i64, i64* %71, align 8, !dbg !1274, !tbaa !962
  store i64 %228, i64* %68, align 8, !dbg !1275, !tbaa !962
  %229 = load i64, i64* %72, align 8, !dbg !1276, !tbaa !962
  store i64 %229, i64* %69, align 8, !dbg !1277, !tbaa !962
  call void @llvm.dbg.value(metadata i32 12, metadata !1113, metadata !DIExpression()), !dbg !1269
  %230 = load i64, i64* %73, align 8, !dbg !1270, !tbaa !962
  store i64 %230, i64* %70, align 8, !dbg !1273, !tbaa !962
  %231 = load i64, i64* %74, align 8, !dbg !1274, !tbaa !962
  store i64 %231, i64* %71, align 8, !dbg !1275, !tbaa !962
  %232 = load i64, i64* %75, align 8, !dbg !1276, !tbaa !962
  store i64 %232, i64* %72, align 8, !dbg !1277, !tbaa !962
  call void @llvm.dbg.value(metadata i32 13, metadata !1113, metadata !DIExpression()), !dbg !1269
  %233 = load i64, i64* %76, align 8, !dbg !1270, !tbaa !962
  store i64 %233, i64* %73, align 8, !dbg !1273, !tbaa !962
  %234 = load i64, i64* %77, align 8, !dbg !1274, !tbaa !962
  store i64 %234, i64* %74, align 8, !dbg !1275, !tbaa !962
  %235 = load i64, i64* %78, align 8, !dbg !1276, !tbaa !962
  store i64 %235, i64* %75, align 8, !dbg !1277, !tbaa !962
  call void @llvm.dbg.value(metadata i32 14, metadata !1113, metadata !DIExpression()), !dbg !1269
  %236 = load i64, i64* %79, align 8, !dbg !1270, !tbaa !962
  store i64 %236, i64* %76, align 8, !dbg !1273, !tbaa !962
  %237 = load i64, i64* %80, align 8, !dbg !1274, !tbaa !962
  store i64 %237, i64* %77, align 8, !dbg !1275, !tbaa !962
  %238 = load i64, i64* %81, align 8, !dbg !1276, !tbaa !962
  store i64 %238, i64* %78, align 8, !dbg !1277, !tbaa !962
  call void @llvm.dbg.value(metadata i32 15, metadata !1113, metadata !DIExpression()), !dbg !1269
  %239 = load i64, i64* %82, align 8, !dbg !1270, !tbaa !962
  store i64 %239, i64* %79, align 8, !dbg !1273, !tbaa !962
  %240 = load i64, i64* %83, align 8, !dbg !1274, !tbaa !962
  store i64 %240, i64* %80, align 8, !dbg !1275, !tbaa !962
  %241 = load i64, i64* %84, align 8, !dbg !1276, !tbaa !962
  store i64 %241, i64* %81, align 8, !dbg !1277, !tbaa !962
  call void @llvm.dbg.value(metadata i32 16, metadata !1113, metadata !DIExpression()), !dbg !1269
  store i64 1, i64* %82, align 8, !dbg !1278, !tbaa !962
  store i64 0, i64* %83, align 8, !dbg !1279, !tbaa !962
  store i64 0, i64* %84, align 8, !dbg !1280, !tbaa !962
  %242 = icmp eq i64 %196, %198, !dbg !1208
  br i1 %242, label %190, label %243, !dbg !1209, !llvm.loop !1281

243:                                              ; preds = %190, %194, %130, %138
  %244 = bitcast %"struct.Halide::Runtime::Internal::device_copy"* %0 to i8*, !dbg !1283
  call void @llvm.memcpy.p0i8.p0i8.i32(i8* nonnull align 8 dereferenceable(416) %244, i8* nonnull align 8 dereferenceable(416) %7, i32 416, i1 false), !dbg !1283, !tbaa.struct !1284
  br label %245, !dbg !1285

245:                                              ; preds = %243, %136, %126
  call void @llvm.lifetime.end.p0i8(i64 416, i8* nonnull %7) #10, !dbg !1286
  ret void, !dbg !1286
}

; Function Attrs: argmemonly nofree nosync nounwind willreturn writeonly
declare void @llvm.memset.p0i8.i32(i8* nocapture writeonly, i8, i32, i1 immarg) #5

; Function Attrs: argmemonly nofree nosync nounwind willreturn
declare void @llvm.memcpy.p0i8.p0i8.i32(i8* noalias nocapture writeonly, i8* noalias nocapture readonly, i32, i1 immarg) #2

; Function Attrs: nounwind mustprogress
define weak dso_local void @_ZN6Halide7Runtime8Internal24make_host_to_device_copyEPK15halide_buffer_t(%"struct.Halide::Runtime::Internal::device_copy"* noalias sret(%"struct.Halide::Runtime::Internal::device_copy") align 8 %0, %struct.halide_buffer_t* %1) local_unnamed_addr #0 !dbg !1287 {
  call void @llvm.dbg.value(metadata %struct.halide_buffer_t* %1, metadata !1291, metadata !DIExpression()), !dbg !1292
  tail call void @_ZN6Halide7Runtime8Internal16make_buffer_copyEPK15halide_buffer_tbS4_b(%"struct.Halide::Runtime::Internal::device_copy"* sret(%"struct.Halide::Runtime::Internal::device_copy") align 8 %0, %struct.halide_buffer_t* %1, i1 zeroext true, %struct.halide_buffer_t* %1, i1 zeroext false) #9, !dbg !1293
  ret void, !dbg !1294
}

; Function Attrs: nounwind mustprogress
define weak dso_local void @_ZN6Halide7Runtime8Internal24make_device_to_host_copyEPK15halide_buffer_t(%"struct.Halide::Runtime::Internal::device_copy"* noalias sret(%"struct.Halide::Runtime::Internal::device_copy") align 8 %0, %struct.halide_buffer_t* %1) local_unnamed_addr #0 !dbg !1295 {
  call void @llvm.dbg.value(metadata %struct.halide_buffer_t* %1, metadata !1297, metadata !DIExpression()), !dbg !1298
  tail call void @_ZN6Halide7Runtime8Internal16make_buffer_copyEPK15halide_buffer_tbS4_b(%"struct.Halide::Runtime::Internal::device_copy"* sret(%"struct.Halide::Runtime::Internal::device_copy") align 8 %0, %struct.halide_buffer_t* %1, i1 zeroext false, %struct.halide_buffer_t* %1, i1 zeroext true) #9, !dbg !1299
  ret void, !dbg !1300
}

; Function Attrs: nounwind
define weak dso_local i8* @halide_cuda_get_symbol(i8* %0, i8* %1) local_unnamed_addr #4 !dbg !1301 {
  call void @llvm.dbg.value(metadata i8* %0, metadata !1305, metadata !DIExpression()), !dbg !1314
  call void @llvm.dbg.value(metadata i8* %1, metadata !1306, metadata !DIExpression()), !dbg !1314
  %3 = load i8*, i8** @_ZN6Halide7Runtime8Internal4Cuda8lib_cudaE, align 4, !dbg !1315, !tbaa !1316
  %4 = tail call i8* @halide_get_library_symbol(i8* %3, i8* %1) #8, !dbg !1317
  call void @llvm.dbg.value(metadata i8* %4, metadata !1307, metadata !DIExpression()), !dbg !1314
  %5 = icmp eq i8* %4, null, !dbg !1318
  br i1 %5, label %6, label %36, !dbg !1320

6:                                                ; preds = %2
  call void @llvm.dbg.value(metadata i32 0, metadata !1312, metadata !DIExpression()), !dbg !1321
  %7 = tail call i8* @halide_load_library(i8* getelementptr inbounds ([11 x i8], [11 x i8]* @.str.1, i32 0, i32 0)) #8, !dbg !1322
  store i8* %7, i8** @_ZN6Halide7Runtime8Internal4Cuda8lib_cudaE, align 4, !dbg !1325, !tbaa !1316
  %8 = icmp eq i8* %7, null, !dbg !1326
  call void @llvm.dbg.value(metadata i32 0, metadata !1312, metadata !DIExpression(DW_OP_plus_uconst, 1, DW_OP_stack_value)), !dbg !1321
  br i1 %8, label %9, label %12, !dbg !1328

9:                                                ; preds = %6
  call void @llvm.dbg.value(metadata i32 1, metadata !1312, metadata !DIExpression()), !dbg !1321
  call void @llvm.dbg.value(metadata i32 0, metadata !1312, metadata !DIExpression(DW_OP_plus_uconst, 1, DW_OP_stack_value)), !dbg !1321
  call void @llvm.dbg.value(metadata i32 1, metadata !1312, metadata !DIExpression()), !dbg !1321
  %10 = tail call i8* @halide_load_library(i8* getelementptr inbounds ([14 x i8], [14 x i8]* @.str.2, i32 0, i32 0)) #8, !dbg !1322
  store i8* %10, i8** @_ZN6Halide7Runtime8Internal4Cuda8lib_cudaE, align 4, !dbg !1325, !tbaa !1316
  %11 = icmp eq i8* %10, null, !dbg !1326
  call void @llvm.dbg.value(metadata i32 1, metadata !1312, metadata !DIExpression(DW_OP_plus_uconst, 1, DW_OP_stack_value)), !dbg !1321
  br i1 %11, label %38, label %12, !dbg !1328

12:                                               ; preds = %38, %9, %6
  %13 = phi i8* [ getelementptr inbounds ([11 x i8], [11 x i8]* @.str.1, i32 0, i32 0), %6 ], [ getelementptr inbounds ([14 x i8], [14 x i8]* @.str.2, i32 0, i32 0), %9 ], [ getelementptr inbounds ([40 x i8], [40 x i8]* @.str.3, i32 0, i32 0), %38 ], !dbg !1329
  call void @llvm.dbg.value(metadata %"class.Halide::Runtime::Internal::(anonymous namespace)::Printer"* undef, metadata !1026, metadata !DIExpression()) #10, !dbg !1330
  call void @llvm.dbg.value(metadata i8* %0, metadata !1029, metadata !DIExpression()) #10, !dbg !1330
  call void @llvm.dbg.value(metadata i8* null, metadata !1030, metadata !DIExpression()) #10, !dbg !1330
  %14 = tail call i8* @malloc(i32 1024) #8, !dbg !1333
  %15 = icmp eq i8* %14, null, !dbg !1334
  br i1 %15, label %18, label %16, !dbg !1335

16:                                               ; preds = %12
  %17 = getelementptr inbounds i8, i8* %14, i32 1023, !dbg !1336
  store i8 0, i8* %17, align 1, !dbg !1337, !tbaa !1065
  br label %18, !dbg !1338

18:                                               ; preds = %12, %16
  %19 = phi i8* [ %17, %16 ], [ null, %12 ], !dbg !1339
  call void @llvm.dbg.value(metadata %"class.Halide::Runtime::Internal::(anonymous namespace)::Printer"* undef, metadata !1043, metadata !DIExpression()) #10, !dbg !1340
  call void @llvm.dbg.value(metadata i8* getelementptr inbounds ([34 x i8], [34 x i8]* @.str.4, i32 0, i32 0), metadata !1046, metadata !DIExpression()) #10, !dbg !1340
  %20 = tail call i8* @halide_string_to_string(i8* %14, i8* %19, i8* nonnull getelementptr inbounds ([34 x i8], [34 x i8]* @.str.4, i32 0, i32 0)) #8, !dbg !1342
  call void @llvm.dbg.value(metadata %"class.Halide::Runtime::Internal::(anonymous namespace)::Printer"* undef, metadata !1043, metadata !DIExpression()) #10, !dbg !1343
  call void @llvm.dbg.value(metadata i8* %13, metadata !1046, metadata !DIExpression()) #10, !dbg !1343
  %21 = tail call i8* @halide_string_to_string(i8* %20, i8* %19, i8* nonnull %13) #8, !dbg !1345
  call void @llvm.dbg.value(metadata %"class.Halide::Runtime::Internal::(anonymous namespace)::Printer"* undef, metadata !1043, metadata !DIExpression()) #10, !dbg !1346
  call void @llvm.dbg.value(metadata i8* getelementptr inbounds ([2 x i8], [2 x i8]* @.str.5, i32 0, i32 0), metadata !1046, metadata !DIExpression()) #10, !dbg !1346
  %22 = tail call i8* @halide_string_to_string(i8* %21, i8* %19, i8* nonnull getelementptr inbounds ([2 x i8], [2 x i8]* @.str.5, i32 0, i32 0)) #8, !dbg !1348
  call void @llvm.dbg.value(metadata %"class.Halide::Runtime::Internal::(anonymous namespace)::Printer"* undef, metadata !1052, metadata !DIExpression()) #10, !dbg !1349
  br i1 %15, label %23, label %24, !dbg !1351

23:                                               ; preds = %18
  tail call void @halide_error(i8* %0, i8* getelementptr inbounds ([35 x i8], [35 x i8]* @.str.219, i32 0, i32 0)) #8, !dbg !1352
  br label %31, !dbg !1353

24:                                               ; preds = %18
  call void @llvm.dbg.value(metadata %"class.Halide::Runtime::Internal::(anonymous namespace)::Printer"* undef, metadata !1066, metadata !DIExpression()) #10, !dbg !1354
  %25 = ptrtoint i8* %22 to i32, !dbg !1356
  %26 = ptrtoint i8* %14 to i32, !dbg !1356
  %27 = add i32 %25, 1, !dbg !1356
  %28 = sub i32 %27, %26, !dbg !1357
  %29 = sext i32 %28 to i64, !dbg !1358
  %30 = tail call i32 @halide_msan_annotate_memory_is_initialized(i8* %0, i8* nonnull %14, i64 %29) #8, !dbg !1359
  tail call void @halide_print(i8* %0, i8* nonnull %14) #8, !dbg !1360
  br label %31

31:                                               ; preds = %24, %23
  tail call void @free(i8* %14) #8, !dbg !1361
  %32 = load i8*, i8** @_ZN6Halide7Runtime8Internal4Cuda8lib_cudaE, align 4, !dbg !1362, !tbaa !1316
  br label %33, !dbg !1363

33:                                               ; preds = %38, %31
  %34 = phi i8* [ %32, %31 ], [ null, %38 ], !dbg !1362
  %35 = tail call i8* @halide_get_library_symbol(i8* %34, i8* %1) #8, !dbg !1364
  br label %36

36:                                               ; preds = %2, %33
  %37 = phi i8* [ %35, %33 ], [ %4, %2 ], !dbg !1314
  ret i8* %37, !dbg !1365

38:                                               ; preds = %9
  call void @llvm.dbg.value(metadata i32 2, metadata !1312, metadata !DIExpression()), !dbg !1321
  %39 = tail call i8* @halide_load_library(i8* getelementptr inbounds ([40 x i8], [40 x i8]* @.str.3, i32 0, i32 0)) #8, !dbg !1322
  store i8* %39, i8** @_ZN6Halide7Runtime8Internal4Cuda8lib_cudaE, align 4, !dbg !1325, !tbaa !1316
  %40 = icmp eq i8* %39, null, !dbg !1326
  call void @llvm.dbg.value(metadata i32 2, metadata !1312, metadata !DIExpression(DW_OP_plus_uconst, 1, DW_OP_stack_value)), !dbg !1321
  br i1 %40, label %33, label %12, !dbg !1328
}

declare !dbg !1366 extern_weak dso_local i8* @halide_get_library_symbol(i8*, i8*) local_unnamed_addr #3

declare !dbg !1367 extern_weak dso_local i8* @halide_load_library(i8*) local_unnamed_addr #3

; Function Attrs: nounwind
define weak dso_local void @_ZN6Halide7Runtime8Internal4Cuda12load_libcudaEPv(i8* %0) local_unnamed_addr #4 !dbg !1370 {
  call void @llvm.dbg.value(metadata i8* %0, metadata !1374, metadata !DIExpression()), !dbg !1375
  call void @llvm.dbg.value(metadata %"class.Halide::Runtime::Internal::(anonymous namespace)::Printer"* undef, metadata !1026, metadata !DIExpression()) #10, !dbg !1376
  call void @llvm.dbg.value(metadata i8* %0, metadata !1029, metadata !DIExpression()) #10, !dbg !1376
  call void @llvm.dbg.value(metadata i8* null, metadata !1030, metadata !DIExpression()) #10, !dbg !1376
  %2 = tail call i8* @malloc(i32 1024) #8, !dbg !1378
  %3 = icmp eq i8* %2, null, !dbg !1379
  br i1 %3, label %6, label %4, !dbg !1380

4:                                                ; preds = %1
  %5 = getelementptr inbounds i8, i8* %2, i32 1023, !dbg !1381
  store i8 0, i8* %5, align 1, !dbg !1382, !tbaa !1065
  br label %6, !dbg !1383

6:                                                ; preds = %1, %4
  %7 = phi i8* [ %5, %4 ], [ null, %1 ], !dbg !1384
  call void @llvm.dbg.value(metadata %"class.Halide::Runtime::Internal::(anonymous namespace)::Printer"* undef, metadata !1043, metadata !DIExpression()) #10, !dbg !1385
  call void @llvm.dbg.value(metadata i8* getelementptr inbounds ([33 x i8], [33 x i8]* @.str.6, i32 0, i32 0), metadata !1046, metadata !DIExpression()) #10, !dbg !1385
  %8 = tail call i8* @halide_string_to_string(i8* %2, i8* %7, i8* nonnull getelementptr inbounds ([33 x i8], [33 x i8]* @.str.6, i32 0, i32 0)) #8, !dbg !1387
  call void @llvm.dbg.value(metadata %"class.Halide::Runtime::Internal::(anonymous namespace)::Printer"* undef, metadata !1388, metadata !DIExpression()) #10, !dbg !1392
  call void @llvm.dbg.value(metadata i8* %0, metadata !1391, metadata !DIExpression()) #10, !dbg !1392
  %9 = tail call i8* @halide_pointer_to_string(i8* %8, i8* %7, i8* %0) #8, !dbg !1394
  call void @llvm.dbg.value(metadata %"class.Halide::Runtime::Internal::(anonymous namespace)::Printer"* undef, metadata !1043, metadata !DIExpression()) #10, !dbg !1395
  call void @llvm.dbg.value(metadata i8* getelementptr inbounds ([3 x i8], [3 x i8]* @.str.7, i32 0, i32 0), metadata !1046, metadata !DIExpression()) #10, !dbg !1395
  %10 = tail call i8* @halide_string_to_string(i8* %9, i8* %7, i8* nonnull getelementptr inbounds ([3 x i8], [3 x i8]* @.str.7, i32 0, i32 0)) #8, !dbg !1397
  call void @llvm.dbg.value(metadata %"class.Halide::Runtime::Internal::(anonymous namespace)::Printer"* undef, metadata !1052, metadata !DIExpression()) #10, !dbg !1398
  br i1 %3, label %11, label %12, !dbg !1400

11:                                               ; preds = %6
  tail call void @halide_error(i8* %0, i8* getelementptr inbounds ([35 x i8], [35 x i8]* @.str.219, i32 0, i32 0)) #8, !dbg !1401
  br label %19, !dbg !1402

12:                                               ; preds = %6
  call void @llvm.dbg.value(metadata %"class.Halide::Runtime::Internal::(anonymous namespace)::Printer"* undef, metadata !1066, metadata !DIExpression()) #10, !dbg !1403
  %13 = ptrtoint i8* %10 to i32, !dbg !1405
  %14 = ptrtoint i8* %2 to i32, !dbg !1405
  %15 = add i32 %13, 1, !dbg !1405
  %16 = sub i32 %15, %14, !dbg !1406
  %17 = sext i32 %16 to i64, !dbg !1407
  %18 = tail call i32 @halide_msan_annotate_memory_is_initialized(i8* %0, i8* nonnull %2, i64 %17) #8, !dbg !1408
  tail call void @halide_print(i8* %0, i8* nonnull %2) #8, !dbg !1409
  br label %19

19:                                               ; preds = %12, %11
  tail call void @free(i8* %2) #8, !dbg !1410
  %20 = load i32 (i32)*, i32 (i32)** @_ZN6Halide7Runtime8Internal4Cuda6cuInitE, align 4, !dbg !1411, !tbaa !1316
  %21 = icmp eq i32 (i32)* %20, null, !dbg !1411
  br i1 %21, label %23, label %22, !dbg !1414

22:                                               ; preds = %19
  tail call void @halide_print(i8* %0, i8* getelementptr inbounds ([108 x i8], [108 x i8]* @.str.8, i32 0, i32 0)) #8, !dbg !1415
  tail call void @abort() #8, !dbg !1415
  br label %23, !dbg !1415

23:                                               ; preds = %19, %22
  call void @llvm.dbg.value(metadata i8* %0, metadata !1417, metadata !DIExpression()) #10, !dbg !1427
  call void @llvm.dbg.value(metadata i8* getelementptr inbounds ([7 x i8], [7 x i8]* @.str.9, i32 0, i32 0), metadata !1422, metadata !DIExpression()) #10, !dbg !1427
  call void @llvm.dbg.value(metadata i1 false, metadata !1423, metadata !DIExpression(DW_OP_LLVM_convert, 1, DW_ATE_unsigned, DW_OP_LLVM_convert, 8, DW_ATE_unsigned, DW_OP_stack_value)) #10, !dbg !1427
  %24 = tail call i8* @halide_cuda_get_symbol(i8* %0, i8* getelementptr inbounds ([7 x i8], [7 x i8]* @.str.9, i32 0, i32 0)) #8, !dbg !1430
  call void @llvm.dbg.value(metadata i8* %24, metadata !1424, metadata !DIExpression()) #10, !dbg !1427
  %25 = icmp eq i8* %24, null
  br i1 %25, label %26, label %45, !dbg !1431

26:                                               ; preds = %23
  call void @llvm.dbg.value(metadata %"class.Halide::Runtime::Internal::(anonymous namespace)::Printer.0"* undef, metadata !1433, metadata !DIExpression()) #10, !dbg !1439
  call void @llvm.dbg.value(metadata i8* %0, metadata !1436, metadata !DIExpression()) #10, !dbg !1439
  call void @llvm.dbg.value(metadata i8* null, metadata !1437, metadata !DIExpression()) #10, !dbg !1439
  %27 = tail call i8* @malloc(i32 1024) #8, !dbg !1442
  %28 = icmp eq i8* %27, null, !dbg !1447
  br i1 %28, label %31, label %29, !dbg !1449

29:                                               ; preds = %26
  %30 = getelementptr inbounds i8, i8* %27, i32 1023, !dbg !1450
  store i8 0, i8* %30, align 1, !dbg !1452, !tbaa !1065
  br label %31, !dbg !1453

31:                                               ; preds = %29, %26
  %32 = phi i8* [ %30, %29 ], [ null, %26 ], !dbg !1454
  call void @llvm.dbg.value(metadata %"class.Halide::Runtime::Internal::(anonymous namespace)::Printer.0"* undef, metadata !1455, metadata !DIExpression()) #10, !dbg !1459
  call void @llvm.dbg.value(metadata i8* getelementptr inbounds ([21 x i8], [21 x i8]* @.str.221, i32 0, i32 0), metadata !1458, metadata !DIExpression()) #10, !dbg !1459
  %33 = tail call i8* @halide_string_to_string(i8* %27, i8* %32, i8* nonnull getelementptr inbounds ([21 x i8], [21 x i8]* @.str.221, i32 0, i32 0)) #8, !dbg !1461
  call void @llvm.dbg.value(metadata %"class.Halide::Runtime::Internal::(anonymous namespace)::Printer.0"* undef, metadata !1455, metadata !DIExpression()) #10, !dbg !1464
  call void @llvm.dbg.value(metadata i8* getelementptr inbounds ([7 x i8], [7 x i8]* @.str.9, i32 0, i32 0), metadata !1458, metadata !DIExpression()) #10, !dbg !1464
  %34 = tail call i8* @halide_string_to_string(i8* %33, i8* %32, i8* nonnull getelementptr inbounds ([7 x i8], [7 x i8]* @.str.9, i32 0, i32 0)) #8, !dbg !1466
  call void @llvm.dbg.value(metadata %"class.Halide::Runtime::Internal::(anonymous namespace)::Printer.0"* undef, metadata !1455, metadata !DIExpression()) #10, !dbg !1467
  call void @llvm.dbg.value(metadata i8* getelementptr inbounds ([2 x i8], [2 x i8]* @.str.5, i32 0, i32 0), metadata !1458, metadata !DIExpression()) #10, !dbg !1467
  %35 = tail call i8* @halide_string_to_string(i8* %34, i8* %32, i8* nonnull getelementptr inbounds ([2 x i8], [2 x i8]* @.str.5, i32 0, i32 0)) #8, !dbg !1469
  call void @llvm.dbg.value(metadata %"class.Halide::Runtime::Internal::(anonymous namespace)::Printer.0"* undef, metadata !1470, metadata !DIExpression()) #10, !dbg !1473
  br i1 %28, label %36, label %37, !dbg !1475

36:                                               ; preds = %31
  tail call void @halide_error(i8* %0, i8* getelementptr inbounds ([35 x i8], [35 x i8]* @.str.219, i32 0, i32 0)) #8, !dbg !1477
  br label %44, !dbg !1480

37:                                               ; preds = %31
  call void @llvm.dbg.value(metadata %"class.Halide::Runtime::Internal::(anonymous namespace)::Printer.0"* undef, metadata !1481, metadata !DIExpression()) #10, !dbg !1484
  %38 = ptrtoint i8* %35 to i32, !dbg !1487
  %39 = ptrtoint i8* %27 to i32, !dbg !1487
  %40 = sub i32 1, %39, !dbg !1487
  %41 = add i32 %40, %38, !dbg !1488
  %42 = sext i32 %41 to i64, !dbg !1489
  %43 = tail call i32 @halide_msan_annotate_memory_is_initialized(i8* %0, i8* nonnull %27, i64 %42) #8, !dbg !1490
  tail call void @halide_error(i8* %0, i8* nonnull %27) #8, !dbg !1491
  br label %44

44:                                               ; preds = %37, %36
  tail call void @free(i8* %27) #8, !dbg !1494
  br label %45, !dbg !1497

45:                                               ; preds = %23, %44
  call void @llvm.dbg.value(metadata i8* %24, metadata !1424, metadata !DIExpression()) #10, !dbg !1427
  store i8* %24, i8** bitcast (i32 (i32)** @_ZN6Halide7Runtime8Internal4Cuda6cuInitE to i8**), align 4, !dbg !1498, !tbaa !1316
  call void @llvm.dbg.value(metadata i8* %0, metadata !1499, metadata !DIExpression()) #10, !dbg !1509
  call void @llvm.dbg.value(metadata i8* getelementptr inbounds ([17 x i8], [17 x i8]* @.str.10, i32 0, i32 0), metadata !1504, metadata !DIExpression()) #10, !dbg !1509
  call void @llvm.dbg.value(metadata i1 false, metadata !1505, metadata !DIExpression(DW_OP_LLVM_convert, 1, DW_ATE_unsigned, DW_OP_LLVM_convert, 8, DW_ATE_unsigned, DW_OP_stack_value)) #10, !dbg !1509
  %46 = tail call i8* @halide_cuda_get_symbol(i8* %0, i8* getelementptr inbounds ([17 x i8], [17 x i8]* @.str.10, i32 0, i32 0)) #8, !dbg !1511
  call void @llvm.dbg.value(metadata i8* %46, metadata !1506, metadata !DIExpression()) #10, !dbg !1509
  %47 = icmp eq i8* %46, null
  br i1 %47, label %48, label %67, !dbg !1512

48:                                               ; preds = %45
  call void @llvm.dbg.value(metadata %"class.Halide::Runtime::Internal::(anonymous namespace)::Printer.0"* undef, metadata !1433, metadata !DIExpression()) #10, !dbg !1514
  call void @llvm.dbg.value(metadata i8* %0, metadata !1436, metadata !DIExpression()) #10, !dbg !1514
  call void @llvm.dbg.value(metadata i8* null, metadata !1437, metadata !DIExpression()) #10, !dbg !1514
  %49 = tail call i8* @malloc(i32 1024) #8, !dbg !1517
  %50 = icmp eq i8* %49, null, !dbg !1518
  br i1 %50, label %53, label %51, !dbg !1519

51:                                               ; preds = %48
  %52 = getelementptr inbounds i8, i8* %49, i32 1023, !dbg !1520
  store i8 0, i8* %52, align 1, !dbg !1521, !tbaa !1065
  br label %53, !dbg !1522

53:                                               ; preds = %51, %48
  %54 = phi i8* [ %52, %51 ], [ null, %48 ], !dbg !1523
  call void @llvm.dbg.value(metadata %"class.Halide::Runtime::Internal::(anonymous namespace)::Printer.0"* undef, metadata !1455, metadata !DIExpression()) #10, !dbg !1524
  call void @llvm.dbg.value(metadata i8* getelementptr inbounds ([21 x i8], [21 x i8]* @.str.221, i32 0, i32 0), metadata !1458, metadata !DIExpression()) #10, !dbg !1524
  %55 = tail call i8* @halide_string_to_string(i8* %49, i8* %54, i8* nonnull getelementptr inbounds ([21 x i8], [21 x i8]* @.str.221, i32 0, i32 0)) #8, !dbg !1526
  call void @llvm.dbg.value(metadata %"class.Halide::Runtime::Internal::(anonymous namespace)::Printer.0"* undef, metadata !1455, metadata !DIExpression()) #10, !dbg !1527
  call void @llvm.dbg.value(metadata i8* getelementptr inbounds ([17 x i8], [17 x i8]* @.str.10, i32 0, i32 0), metadata !1458, metadata !DIExpression()) #10, !dbg !1527
  %56 = tail call i8* @halide_string_to_string(i8* %55, i8* %54, i8* nonnull getelementptr inbounds ([17 x i8], [17 x i8]* @.str.10, i32 0, i32 0)) #8, !dbg !1529
  call void @llvm.dbg.value(metadata %"class.Halide::Runtime::Internal::(anonymous namespace)::Printer.0"* undef, metadata !1455, metadata !DIExpression()) #10, !dbg !1530
  call void @llvm.dbg.value(metadata i8* getelementptr inbounds ([2 x i8], [2 x i8]* @.str.5, i32 0, i32 0), metadata !1458, metadata !DIExpression()) #10, !dbg !1530
  %57 = tail call i8* @halide_string_to_string(i8* %56, i8* %54, i8* nonnull getelementptr inbounds ([2 x i8], [2 x i8]* @.str.5, i32 0, i32 0)) #8, !dbg !1532
  call void @llvm.dbg.value(metadata %"class.Halide::Runtime::Internal::(anonymous namespace)::Printer.0"* undef, metadata !1470, metadata !DIExpression()) #10, !dbg !1533
  br i1 %50, label %58, label %59, !dbg !1535

58:                                               ; preds = %53
  tail call void @halide_error(i8* %0, i8* getelementptr inbounds ([35 x i8], [35 x i8]* @.str.219, i32 0, i32 0)) #8, !dbg !1536
  br label %66, !dbg !1537

59:                                               ; preds = %53
  call void @llvm.dbg.value(metadata %"class.Halide::Runtime::Internal::(anonymous namespace)::Printer.0"* undef, metadata !1481, metadata !DIExpression()) #10, !dbg !1538
  %60 = ptrtoint i8* %57 to i32, !dbg !1540
  %61 = ptrtoint i8* %49 to i32, !dbg !1540
  %62 = sub i32 1, %61, !dbg !1540
  %63 = add i32 %62, %60, !dbg !1541
  %64 = sext i32 %63 to i64, !dbg !1542
  %65 = tail call i32 @halide_msan_annotate_memory_is_initialized(i8* %0, i8* nonnull %49, i64 %64) #8, !dbg !1543
  tail call void @halide_error(i8* %0, i8* nonnull %49) #8, !dbg !1544
  br label %66

66:                                               ; preds = %59, %58
  tail call void @free(i8* %49) #8, !dbg !1545
  br label %67, !dbg !1546

67:                                               ; preds = %45, %66
  call void @llvm.dbg.value(metadata i8* %46, metadata !1506, metadata !DIExpression()) #10, !dbg !1509
  store i8* %46, i8** bitcast (i32 (i32*)** @_ZN6Halide7Runtime8Internal4Cuda16cuDeviceGetCountE to i8**), align 4, !dbg !1547, !tbaa !1316
  call void @llvm.dbg.value(metadata i8* %0, metadata !1548, metadata !DIExpression()) #10, !dbg !1558
  call void @llvm.dbg.value(metadata i8* getelementptr inbounds ([12 x i8], [12 x i8]* @.str.11, i32 0, i32 0), metadata !1553, metadata !DIExpression()) #10, !dbg !1558
  call void @llvm.dbg.value(metadata i1 false, metadata !1554, metadata !DIExpression(DW_OP_LLVM_convert, 1, DW_ATE_unsigned, DW_OP_LLVM_convert, 8, DW_ATE_unsigned, DW_OP_stack_value)) #10, !dbg !1558
  %68 = tail call i8* @halide_cuda_get_symbol(i8* %0, i8* getelementptr inbounds ([12 x i8], [12 x i8]* @.str.11, i32 0, i32 0)) #8, !dbg !1560
  call void @llvm.dbg.value(metadata i8* %68, metadata !1555, metadata !DIExpression()) #10, !dbg !1558
  %69 = icmp eq i8* %68, null
  br i1 %69, label %70, label %89, !dbg !1561

70:                                               ; preds = %67
  call void @llvm.dbg.value(metadata %"class.Halide::Runtime::Internal::(anonymous namespace)::Printer.0"* undef, metadata !1433, metadata !DIExpression()) #10, !dbg !1563
  call void @llvm.dbg.value(metadata i8* %0, metadata !1436, metadata !DIExpression()) #10, !dbg !1563
  call void @llvm.dbg.value(metadata i8* null, metadata !1437, metadata !DIExpression()) #10, !dbg !1563
  %71 = tail call i8* @malloc(i32 1024) #8, !dbg !1566
  %72 = icmp eq i8* %71, null, !dbg !1567
  br i1 %72, label %75, label %73, !dbg !1568

73:                                               ; preds = %70
  %74 = getelementptr inbounds i8, i8* %71, i32 1023, !dbg !1569
  store i8 0, i8* %74, align 1, !dbg !1570, !tbaa !1065
  br label %75, !dbg !1571

75:                                               ; preds = %73, %70
  %76 = phi i8* [ %74, %73 ], [ null, %70 ], !dbg !1572
  call void @llvm.dbg.value(metadata %"class.Halide::Runtime::Internal::(anonymous namespace)::Printer.0"* undef, metadata !1455, metadata !DIExpression()) #10, !dbg !1573
  call void @llvm.dbg.value(metadata i8* getelementptr inbounds ([21 x i8], [21 x i8]* @.str.221, i32 0, i32 0), metadata !1458, metadata !DIExpression()) #10, !dbg !1573
  %77 = tail call i8* @halide_string_to_string(i8* %71, i8* %76, i8* nonnull getelementptr inbounds ([21 x i8], [21 x i8]* @.str.221, i32 0, i32 0)) #8, !dbg !1575
  call void @llvm.dbg.value(metadata %"class.Halide::Runtime::Internal::(anonymous namespace)::Printer.0"* undef, metadata !1455, metadata !DIExpression()) #10, !dbg !1576
  call void @llvm.dbg.value(metadata i8* getelementptr inbounds ([12 x i8], [12 x i8]* @.str.11, i32 0, i32 0), metadata !1458, metadata !DIExpression()) #10, !dbg !1576
  %78 = tail call i8* @halide_string_to_string(i8* %77, i8* %76, i8* nonnull getelementptr inbounds ([12 x i8], [12 x i8]* @.str.11, i32 0, i32 0)) #8, !dbg !1578
  call void @llvm.dbg.value(metadata %"class.Halide::Runtime::Internal::(anonymous namespace)::Printer.0"* undef, metadata !1455, metadata !DIExpression()) #10, !dbg !1579
  call void @llvm.dbg.value(metadata i8* getelementptr inbounds ([2 x i8], [2 x i8]* @.str.5, i32 0, i32 0), metadata !1458, metadata !DIExpression()) #10, !dbg !1579
  %79 = tail call i8* @halide_string_to_string(i8* %78, i8* %76, i8* nonnull getelementptr inbounds ([2 x i8], [2 x i8]* @.str.5, i32 0, i32 0)) #8, !dbg !1581
  call void @llvm.dbg.value(metadata %"class.Halide::Runtime::Internal::(anonymous namespace)::Printer.0"* undef, metadata !1470, metadata !DIExpression()) #10, !dbg !1582
  br i1 %72, label %80, label %81, !dbg !1584

80:                                               ; preds = %75
  tail call void @halide_error(i8* %0, i8* getelementptr inbounds ([35 x i8], [35 x i8]* @.str.219, i32 0, i32 0)) #8, !dbg !1585
  br label %88, !dbg !1586

81:                                               ; preds = %75
  call void @llvm.dbg.value(metadata %"class.Halide::Runtime::Internal::(anonymous namespace)::Printer.0"* undef, metadata !1481, metadata !DIExpression()) #10, !dbg !1587
  %82 = ptrtoint i8* %79 to i32, !dbg !1589
  %83 = ptrtoint i8* %71 to i32, !dbg !1589
  %84 = sub i32 1, %83, !dbg !1589
  %85 = add i32 %84, %82, !dbg !1590
  %86 = sext i32 %85 to i64, !dbg !1591
  %87 = tail call i32 @halide_msan_annotate_memory_is_initialized(i8* %0, i8* nonnull %71, i64 %86) #8, !dbg !1592
  tail call void @halide_error(i8* %0, i8* nonnull %71) #8, !dbg !1593
  br label %88

88:                                               ; preds = %81, %80
  tail call void @free(i8* %71) #8, !dbg !1594
  br label %89, !dbg !1595

89:                                               ; preds = %67, %88
  call void @llvm.dbg.value(metadata i8* %68, metadata !1555, metadata !DIExpression()) #10, !dbg !1558
  store i8* %68, i8** bitcast (i32 (i32*, i32)** @_ZN6Halide7Runtime8Internal4Cuda11cuDeviceGetE to i8**), align 4, !dbg !1596, !tbaa !1316
  call void @llvm.dbg.value(metadata i8* %0, metadata !1597, metadata !DIExpression()) #10, !dbg !1607
  call void @llvm.dbg.value(metadata i8* getelementptr inbounds ([21 x i8], [21 x i8]* @.str.12, i32 0, i32 0), metadata !1602, metadata !DIExpression()) #10, !dbg !1607
  call void @llvm.dbg.value(metadata i1 false, metadata !1603, metadata !DIExpression(DW_OP_LLVM_convert, 1, DW_ATE_unsigned, DW_OP_LLVM_convert, 8, DW_ATE_unsigned, DW_OP_stack_value)) #10, !dbg !1607
  %90 = tail call i8* @halide_cuda_get_symbol(i8* %0, i8* getelementptr inbounds ([21 x i8], [21 x i8]* @.str.12, i32 0, i32 0)) #8, !dbg !1609
  call void @llvm.dbg.value(metadata i8* %90, metadata !1604, metadata !DIExpression()) #10, !dbg !1607
  %91 = icmp eq i8* %90, null
  br i1 %91, label %92, label %111, !dbg !1610

92:                                               ; preds = %89
  call void @llvm.dbg.value(metadata %"class.Halide::Runtime::Internal::(anonymous namespace)::Printer.0"* undef, metadata !1433, metadata !DIExpression()) #10, !dbg !1612
  call void @llvm.dbg.value(metadata i8* %0, metadata !1436, metadata !DIExpression()) #10, !dbg !1612
  call void @llvm.dbg.value(metadata i8* null, metadata !1437, metadata !DIExpression()) #10, !dbg !1612
  %93 = tail call i8* @malloc(i32 1024) #8, !dbg !1615
  %94 = icmp eq i8* %93, null, !dbg !1616
  br i1 %94, label %97, label %95, !dbg !1617

95:                                               ; preds = %92
  %96 = getelementptr inbounds i8, i8* %93, i32 1023, !dbg !1618
  store i8 0, i8* %96, align 1, !dbg !1619, !tbaa !1065
  br label %97, !dbg !1620

97:                                               ; preds = %95, %92
  %98 = phi i8* [ %96, %95 ], [ null, %92 ], !dbg !1621
  call void @llvm.dbg.value(metadata %"class.Halide::Runtime::Internal::(anonymous namespace)::Printer.0"* undef, metadata !1455, metadata !DIExpression()) #10, !dbg !1622
  call void @llvm.dbg.value(metadata i8* getelementptr inbounds ([21 x i8], [21 x i8]* @.str.221, i32 0, i32 0), metadata !1458, metadata !DIExpression()) #10, !dbg !1622
  %99 = tail call i8* @halide_string_to_string(i8* %93, i8* %98, i8* nonnull getelementptr inbounds ([21 x i8], [21 x i8]* @.str.221, i32 0, i32 0)) #8, !dbg !1624
  call void @llvm.dbg.value(metadata %"class.Halide::Runtime::Internal::(anonymous namespace)::Printer.0"* undef, metadata !1455, metadata !DIExpression()) #10, !dbg !1625
  call void @llvm.dbg.value(metadata i8* getelementptr inbounds ([21 x i8], [21 x i8]* @.str.12, i32 0, i32 0), metadata !1458, metadata !DIExpression()) #10, !dbg !1625
  %100 = tail call i8* @halide_string_to_string(i8* %99, i8* %98, i8* nonnull getelementptr inbounds ([21 x i8], [21 x i8]* @.str.12, i32 0, i32 0)) #8, !dbg !1627
  call void @llvm.dbg.value(metadata %"class.Halide::Runtime::Internal::(anonymous namespace)::Printer.0"* undef, metadata !1455, metadata !DIExpression()) #10, !dbg !1628
  call void @llvm.dbg.value(metadata i8* getelementptr inbounds ([2 x i8], [2 x i8]* @.str.5, i32 0, i32 0), metadata !1458, metadata !DIExpression()) #10, !dbg !1628
  %101 = tail call i8* @halide_string_to_string(i8* %100, i8* %98, i8* nonnull getelementptr inbounds ([2 x i8], [2 x i8]* @.str.5, i32 0, i32 0)) #8, !dbg !1630
  call void @llvm.dbg.value(metadata %"class.Halide::Runtime::Internal::(anonymous namespace)::Printer.0"* undef, metadata !1470, metadata !DIExpression()) #10, !dbg !1631
  br i1 %94, label %102, label %103, !dbg !1633

102:                                              ; preds = %97
  tail call void @halide_error(i8* %0, i8* getelementptr inbounds ([35 x i8], [35 x i8]* @.str.219, i32 0, i32 0)) #8, !dbg !1634
  br label %110, !dbg !1635

103:                                              ; preds = %97
  call void @llvm.dbg.value(metadata %"class.Halide::Runtime::Internal::(anonymous namespace)::Printer.0"* undef, metadata !1481, metadata !DIExpression()) #10, !dbg !1636
  %104 = ptrtoint i8* %101 to i32, !dbg !1638
  %105 = ptrtoint i8* %93 to i32, !dbg !1638
  %106 = sub i32 1, %105, !dbg !1638
  %107 = add i32 %106, %104, !dbg !1639
  %108 = sext i32 %107 to i64, !dbg !1640
  %109 = tail call i32 @halide_msan_annotate_memory_is_initialized(i8* %0, i8* nonnull %93, i64 %108) #8, !dbg !1641
  tail call void @halide_error(i8* %0, i8* nonnull %93) #8, !dbg !1642
  br label %110

110:                                              ; preds = %103, %102
  tail call void @free(i8* %93) #8, !dbg !1643
  br label %111, !dbg !1644

111:                                              ; preds = %89, %110
  call void @llvm.dbg.value(metadata i8* %90, metadata !1604, metadata !DIExpression()) #10, !dbg !1607
  store i8* %90, i8** bitcast (i32 (i32*, i32, i32)** @_ZN6Halide7Runtime8Internal4Cuda20cuDeviceGetAttributeE to i8**), align 4, !dbg !1645, !tbaa !1316
  call void @llvm.dbg.value(metadata i8* %0, metadata !1646, metadata !DIExpression()) #10, !dbg !1656
  call void @llvm.dbg.value(metadata i8* getelementptr inbounds ([16 x i8], [16 x i8]* @.str.13, i32 0, i32 0), metadata !1651, metadata !DIExpression()) #10, !dbg !1656
  call void @llvm.dbg.value(metadata i1 false, metadata !1652, metadata !DIExpression(DW_OP_LLVM_convert, 1, DW_ATE_unsigned, DW_OP_LLVM_convert, 8, DW_ATE_unsigned, DW_OP_stack_value)) #10, !dbg !1656
  %112 = tail call i8* @halide_cuda_get_symbol(i8* %0, i8* getelementptr inbounds ([16 x i8], [16 x i8]* @.str.13, i32 0, i32 0)) #8, !dbg !1658
  call void @llvm.dbg.value(metadata i8* %112, metadata !1653, metadata !DIExpression()) #10, !dbg !1656
  %113 = icmp eq i8* %112, null
  br i1 %113, label %114, label %133, !dbg !1659

114:                                              ; preds = %111
  call void @llvm.dbg.value(metadata %"class.Halide::Runtime::Internal::(anonymous namespace)::Printer.0"* undef, metadata !1433, metadata !DIExpression()) #10, !dbg !1661
  call void @llvm.dbg.value(metadata i8* %0, metadata !1436, metadata !DIExpression()) #10, !dbg !1661
  call void @llvm.dbg.value(metadata i8* null, metadata !1437, metadata !DIExpression()) #10, !dbg !1661
  %115 = tail call i8* @malloc(i32 1024) #8, !dbg !1664
  %116 = icmp eq i8* %115, null, !dbg !1665
  br i1 %116, label %119, label %117, !dbg !1666

117:                                              ; preds = %114
  %118 = getelementptr inbounds i8, i8* %115, i32 1023, !dbg !1667
  store i8 0, i8* %118, align 1, !dbg !1668, !tbaa !1065
  br label %119, !dbg !1669

119:                                              ; preds = %117, %114
  %120 = phi i8* [ %118, %117 ], [ null, %114 ], !dbg !1670
  call void @llvm.dbg.value(metadata %"class.Halide::Runtime::Internal::(anonymous namespace)::Printer.0"* undef, metadata !1455, metadata !DIExpression()) #10, !dbg !1671
  call void @llvm.dbg.value(metadata i8* getelementptr inbounds ([21 x i8], [21 x i8]* @.str.221, i32 0, i32 0), metadata !1458, metadata !DIExpression()) #10, !dbg !1671
  %121 = tail call i8* @halide_string_to_string(i8* %115, i8* %120, i8* nonnull getelementptr inbounds ([21 x i8], [21 x i8]* @.str.221, i32 0, i32 0)) #8, !dbg !1673
  call void @llvm.dbg.value(metadata %"class.Halide::Runtime::Internal::(anonymous namespace)::Printer.0"* undef, metadata !1455, metadata !DIExpression()) #10, !dbg !1674
  call void @llvm.dbg.value(metadata i8* getelementptr inbounds ([16 x i8], [16 x i8]* @.str.13, i32 0, i32 0), metadata !1458, metadata !DIExpression()) #10, !dbg !1674
  %122 = tail call i8* @halide_string_to_string(i8* %121, i8* %120, i8* nonnull getelementptr inbounds ([16 x i8], [16 x i8]* @.str.13, i32 0, i32 0)) #8, !dbg !1676
  call void @llvm.dbg.value(metadata %"class.Halide::Runtime::Internal::(anonymous namespace)::Printer.0"* undef, metadata !1455, metadata !DIExpression()) #10, !dbg !1677
  call void @llvm.dbg.value(metadata i8* getelementptr inbounds ([2 x i8], [2 x i8]* @.str.5, i32 0, i32 0), metadata !1458, metadata !DIExpression()) #10, !dbg !1677
  %123 = tail call i8* @halide_string_to_string(i8* %122, i8* %120, i8* nonnull getelementptr inbounds ([2 x i8], [2 x i8]* @.str.5, i32 0, i32 0)) #8, !dbg !1679
  call void @llvm.dbg.value(metadata %"class.Halide::Runtime::Internal::(anonymous namespace)::Printer.0"* undef, metadata !1470, metadata !DIExpression()) #10, !dbg !1680
  br i1 %116, label %124, label %125, !dbg !1682

124:                                              ; preds = %119
  tail call void @halide_error(i8* %0, i8* getelementptr inbounds ([35 x i8], [35 x i8]* @.str.219, i32 0, i32 0)) #8, !dbg !1683
  br label %132, !dbg !1684

125:                                              ; preds = %119
  call void @llvm.dbg.value(metadata %"class.Halide::Runtime::Internal::(anonymous namespace)::Printer.0"* undef, metadata !1481, metadata !DIExpression()) #10, !dbg !1685
  %126 = ptrtoint i8* %123 to i32, !dbg !1687
  %127 = ptrtoint i8* %115 to i32, !dbg !1687
  %128 = sub i32 1, %127, !dbg !1687
  %129 = add i32 %128, %126, !dbg !1688
  %130 = sext i32 %129 to i64, !dbg !1689
  %131 = tail call i32 @halide_msan_annotate_memory_is_initialized(i8* %0, i8* nonnull %115, i64 %130) #8, !dbg !1690
  tail call void @halide_error(i8* %0, i8* nonnull %115) #8, !dbg !1691
  br label %132

132:                                              ; preds = %125, %124
  tail call void @free(i8* %115) #8, !dbg !1692
  br label %133, !dbg !1693

133:                                              ; preds = %111, %132
  call void @llvm.dbg.value(metadata i8* %112, metadata !1653, metadata !DIExpression()) #10, !dbg !1656
  store i8* %112, i8** bitcast (i32 (i8*, i32, i32)** @_ZN6Halide7Runtime8Internal4Cuda15cuDeviceGetNameE to i8**), align 4, !dbg !1694, !tbaa !1316
  call void @llvm.dbg.value(metadata i8* %0, metadata !1695, metadata !DIExpression()) #10, !dbg !1705
  call void @llvm.dbg.value(metadata i8* getelementptr inbounds ([17 x i8], [17 x i8]* @.str.14, i32 0, i32 0), metadata !1700, metadata !DIExpression()) #10, !dbg !1705
  call void @llvm.dbg.value(metadata i1 false, metadata !1701, metadata !DIExpression(DW_OP_LLVM_convert, 1, DW_ATE_unsigned, DW_OP_LLVM_convert, 8, DW_ATE_unsigned, DW_OP_stack_value)) #10, !dbg !1705
  %134 = tail call i8* @halide_cuda_get_symbol(i8* %0, i8* getelementptr inbounds ([17 x i8], [17 x i8]* @.str.14, i32 0, i32 0)) #8, !dbg !1707
  call void @llvm.dbg.value(metadata i8* %134, metadata !1702, metadata !DIExpression()) #10, !dbg !1705
  %135 = icmp eq i8* %134, null
  br i1 %135, label %136, label %155, !dbg !1708

136:                                              ; preds = %133
  call void @llvm.dbg.value(metadata %"class.Halide::Runtime::Internal::(anonymous namespace)::Printer.0"* undef, metadata !1433, metadata !DIExpression()) #10, !dbg !1710
  call void @llvm.dbg.value(metadata i8* %0, metadata !1436, metadata !DIExpression()) #10, !dbg !1710
  call void @llvm.dbg.value(metadata i8* null, metadata !1437, metadata !DIExpression()) #10, !dbg !1710
  %137 = tail call i8* @malloc(i32 1024) #8, !dbg !1713
  %138 = icmp eq i8* %137, null, !dbg !1714
  br i1 %138, label %141, label %139, !dbg !1715

139:                                              ; preds = %136
  %140 = getelementptr inbounds i8, i8* %137, i32 1023, !dbg !1716
  store i8 0, i8* %140, align 1, !dbg !1717, !tbaa !1065
  br label %141, !dbg !1718

141:                                              ; preds = %139, %136
  %142 = phi i8* [ %140, %139 ], [ null, %136 ], !dbg !1719
  call void @llvm.dbg.value(metadata %"class.Halide::Runtime::Internal::(anonymous namespace)::Printer.0"* undef, metadata !1455, metadata !DIExpression()) #10, !dbg !1720
  call void @llvm.dbg.value(metadata i8* getelementptr inbounds ([21 x i8], [21 x i8]* @.str.221, i32 0, i32 0), metadata !1458, metadata !DIExpression()) #10, !dbg !1720
  %143 = tail call i8* @halide_string_to_string(i8* %137, i8* %142, i8* nonnull getelementptr inbounds ([21 x i8], [21 x i8]* @.str.221, i32 0, i32 0)) #8, !dbg !1722
  call void @llvm.dbg.value(metadata %"class.Halide::Runtime::Internal::(anonymous namespace)::Printer.0"* undef, metadata !1455, metadata !DIExpression()) #10, !dbg !1723
  call void @llvm.dbg.value(metadata i8* getelementptr inbounds ([17 x i8], [17 x i8]* @.str.14, i32 0, i32 0), metadata !1458, metadata !DIExpression()) #10, !dbg !1723
  %144 = tail call i8* @halide_string_to_string(i8* %143, i8* %142, i8* nonnull getelementptr inbounds ([17 x i8], [17 x i8]* @.str.14, i32 0, i32 0)) #8, !dbg !1725
  call void @llvm.dbg.value(metadata %"class.Halide::Runtime::Internal::(anonymous namespace)::Printer.0"* undef, metadata !1455, metadata !DIExpression()) #10, !dbg !1726
  call void @llvm.dbg.value(metadata i8* getelementptr inbounds ([2 x i8], [2 x i8]* @.str.5, i32 0, i32 0), metadata !1458, metadata !DIExpression()) #10, !dbg !1726
  %145 = tail call i8* @halide_string_to_string(i8* %144, i8* %142, i8* nonnull getelementptr inbounds ([2 x i8], [2 x i8]* @.str.5, i32 0, i32 0)) #8, !dbg !1728
  call void @llvm.dbg.value(metadata %"class.Halide::Runtime::Internal::(anonymous namespace)::Printer.0"* undef, metadata !1470, metadata !DIExpression()) #10, !dbg !1729
  br i1 %138, label %146, label %147, !dbg !1731

146:                                              ; preds = %141
  tail call void @halide_error(i8* %0, i8* getelementptr inbounds ([35 x i8], [35 x i8]* @.str.219, i32 0, i32 0)) #8, !dbg !1732
  br label %154, !dbg !1733

147:                                              ; preds = %141
  call void @llvm.dbg.value(metadata %"class.Halide::Runtime::Internal::(anonymous namespace)::Printer.0"* undef, metadata !1481, metadata !DIExpression()) #10, !dbg !1734
  %148 = ptrtoint i8* %145 to i32, !dbg !1736
  %149 = ptrtoint i8* %137 to i32, !dbg !1736
  %150 = sub i32 1, %149, !dbg !1736
  %151 = add i32 %150, %148, !dbg !1737
  %152 = sext i32 %151 to i64, !dbg !1738
  %153 = tail call i32 @halide_msan_annotate_memory_is_initialized(i8* %0, i8* nonnull %137, i64 %152) #8, !dbg !1739
  tail call void @halide_error(i8* %0, i8* nonnull %137) #8, !dbg !1740
  br label %154

154:                                              ; preds = %147, %146
  tail call void @free(i8* %137) #8, !dbg !1741
  br label %155, !dbg !1742

155:                                              ; preds = %133, %154
  call void @llvm.dbg.value(metadata i8* %134, metadata !1702, metadata !DIExpression()) #10, !dbg !1705
  store i8* %134, i8** bitcast (i32 (i32*, i32)** @_ZN6Halide7Runtime8Internal4Cuda16cuDeviceTotalMemE to i8**), align 4, !dbg !1743, !tbaa !1316
  call void @llvm.dbg.value(metadata i8* %0, metadata !1744, metadata !DIExpression()) #10, !dbg !1754
  call void @llvm.dbg.value(metadata i8* getelementptr inbounds ([15 x i8], [15 x i8]* @.str.15, i32 0, i32 0), metadata !1749, metadata !DIExpression()) #10, !dbg !1754
  call void @llvm.dbg.value(metadata i1 false, metadata !1750, metadata !DIExpression(DW_OP_LLVM_convert, 1, DW_ATE_unsigned, DW_OP_LLVM_convert, 8, DW_ATE_unsigned, DW_OP_stack_value)) #10, !dbg !1754
  %156 = tail call i8* @halide_cuda_get_symbol(i8* %0, i8* getelementptr inbounds ([15 x i8], [15 x i8]* @.str.15, i32 0, i32 0)) #8, !dbg !1756
  call void @llvm.dbg.value(metadata i8* %156, metadata !1751, metadata !DIExpression()) #10, !dbg !1754
  %157 = icmp eq i8* %156, null
  br i1 %157, label %158, label %177, !dbg !1757

158:                                              ; preds = %155
  call void @llvm.dbg.value(metadata %"class.Halide::Runtime::Internal::(anonymous namespace)::Printer.0"* undef, metadata !1433, metadata !DIExpression()) #10, !dbg !1759
  call void @llvm.dbg.value(metadata i8* %0, metadata !1436, metadata !DIExpression()) #10, !dbg !1759
  call void @llvm.dbg.value(metadata i8* null, metadata !1437, metadata !DIExpression()) #10, !dbg !1759
  %159 = tail call i8* @malloc(i32 1024) #8, !dbg !1762
  %160 = icmp eq i8* %159, null, !dbg !1763
  br i1 %160, label %163, label %161, !dbg !1764

161:                                              ; preds = %158
  %162 = getelementptr inbounds i8, i8* %159, i32 1023, !dbg !1765
  store i8 0, i8* %162, align 1, !dbg !1766, !tbaa !1065
  br label %163, !dbg !1767

163:                                              ; preds = %161, %158
  %164 = phi i8* [ %162, %161 ], [ null, %158 ], !dbg !1768
  call void @llvm.dbg.value(metadata %"class.Halide::Runtime::Internal::(anonymous namespace)::Printer.0"* undef, metadata !1455, metadata !DIExpression()) #10, !dbg !1769
  call void @llvm.dbg.value(metadata i8* getelementptr inbounds ([21 x i8], [21 x i8]* @.str.221, i32 0, i32 0), metadata !1458, metadata !DIExpression()) #10, !dbg !1769
  %165 = tail call i8* @halide_string_to_string(i8* %159, i8* %164, i8* nonnull getelementptr inbounds ([21 x i8], [21 x i8]* @.str.221, i32 0, i32 0)) #8, !dbg !1771
  call void @llvm.dbg.value(metadata %"class.Halide::Runtime::Internal::(anonymous namespace)::Printer.0"* undef, metadata !1455, metadata !DIExpression()) #10, !dbg !1772
  call void @llvm.dbg.value(metadata i8* getelementptr inbounds ([15 x i8], [15 x i8]* @.str.15, i32 0, i32 0), metadata !1458, metadata !DIExpression()) #10, !dbg !1772
  %166 = tail call i8* @halide_string_to_string(i8* %165, i8* %164, i8* nonnull getelementptr inbounds ([15 x i8], [15 x i8]* @.str.15, i32 0, i32 0)) #8, !dbg !1774
  call void @llvm.dbg.value(metadata %"class.Halide::Runtime::Internal::(anonymous namespace)::Printer.0"* undef, metadata !1455, metadata !DIExpression()) #10, !dbg !1775
  call void @llvm.dbg.value(metadata i8* getelementptr inbounds ([2 x i8], [2 x i8]* @.str.5, i32 0, i32 0), metadata !1458, metadata !DIExpression()) #10, !dbg !1775
  %167 = tail call i8* @halide_string_to_string(i8* %166, i8* %164, i8* nonnull getelementptr inbounds ([2 x i8], [2 x i8]* @.str.5, i32 0, i32 0)) #8, !dbg !1777
  call void @llvm.dbg.value(metadata %"class.Halide::Runtime::Internal::(anonymous namespace)::Printer.0"* undef, metadata !1470, metadata !DIExpression()) #10, !dbg !1778
  br i1 %160, label %168, label %169, !dbg !1780

168:                                              ; preds = %163
  tail call void @halide_error(i8* %0, i8* getelementptr inbounds ([35 x i8], [35 x i8]* @.str.219, i32 0, i32 0)) #8, !dbg !1781
  br label %176, !dbg !1782

169:                                              ; preds = %163
  call void @llvm.dbg.value(metadata %"class.Halide::Runtime::Internal::(anonymous namespace)::Printer.0"* undef, metadata !1481, metadata !DIExpression()) #10, !dbg !1783
  %170 = ptrtoint i8* %167 to i32, !dbg !1785
  %171 = ptrtoint i8* %159 to i32, !dbg !1785
  %172 = sub i32 1, %171, !dbg !1785
  %173 = add i32 %172, %170, !dbg !1786
  %174 = sext i32 %173 to i64, !dbg !1787
  %175 = tail call i32 @halide_msan_annotate_memory_is_initialized(i8* %0, i8* nonnull %159, i64 %174) #8, !dbg !1788
  tail call void @halide_error(i8* %0, i8* nonnull %159) #8, !dbg !1789
  br label %176

176:                                              ; preds = %169, %168
  tail call void @free(i8* %159) #8, !dbg !1790
  br label %177, !dbg !1791

177:                                              ; preds = %155, %176
  call void @llvm.dbg.value(metadata i8* %156, metadata !1751, metadata !DIExpression()) #10, !dbg !1754
  store i8* %156, i8** bitcast (i32 (%"struct.Halide::Runtime::Internal::Cuda::CUctx_st"**, i32, i32)** @_ZN6Halide7Runtime8Internal4Cuda11cuCtxCreateE to i8**), align 4, !dbg !1792, !tbaa !1316
  call void @llvm.dbg.value(metadata i8* %0, metadata !1793, metadata !DIExpression()) #10, !dbg !1803
  call void @llvm.dbg.value(metadata i8* getelementptr inbounds ([16 x i8], [16 x i8]* @.str.16, i32 0, i32 0), metadata !1798, metadata !DIExpression()) #10, !dbg !1803
  call void @llvm.dbg.value(metadata i1 false, metadata !1799, metadata !DIExpression(DW_OP_LLVM_convert, 1, DW_ATE_unsigned, DW_OP_LLVM_convert, 8, DW_ATE_unsigned, DW_OP_stack_value)) #10, !dbg !1803
  %178 = tail call i8* @halide_cuda_get_symbol(i8* %0, i8* getelementptr inbounds ([16 x i8], [16 x i8]* @.str.16, i32 0, i32 0)) #8, !dbg !1805
  call void @llvm.dbg.value(metadata i8* %178, metadata !1800, metadata !DIExpression()) #10, !dbg !1803
  %179 = icmp eq i8* %178, null
  br i1 %179, label %180, label %199, !dbg !1806

180:                                              ; preds = %177
  call void @llvm.dbg.value(metadata %"class.Halide::Runtime::Internal::(anonymous namespace)::Printer.0"* undef, metadata !1433, metadata !DIExpression()) #10, !dbg !1808
  call void @llvm.dbg.value(metadata i8* %0, metadata !1436, metadata !DIExpression()) #10, !dbg !1808
  call void @llvm.dbg.value(metadata i8* null, metadata !1437, metadata !DIExpression()) #10, !dbg !1808
  %181 = tail call i8* @malloc(i32 1024) #8, !dbg !1811
  %182 = icmp eq i8* %181, null, !dbg !1812
  br i1 %182, label %185, label %183, !dbg !1813

183:                                              ; preds = %180
  %184 = getelementptr inbounds i8, i8* %181, i32 1023, !dbg !1814
  store i8 0, i8* %184, align 1, !dbg !1815, !tbaa !1065
  br label %185, !dbg !1816

185:                                              ; preds = %183, %180
  %186 = phi i8* [ %184, %183 ], [ null, %180 ], !dbg !1817
  call void @llvm.dbg.value(metadata %"class.Halide::Runtime::Internal::(anonymous namespace)::Printer.0"* undef, metadata !1455, metadata !DIExpression()) #10, !dbg !1818
  call void @llvm.dbg.value(metadata i8* getelementptr inbounds ([21 x i8], [21 x i8]* @.str.221, i32 0, i32 0), metadata !1458, metadata !DIExpression()) #10, !dbg !1818
  %187 = tail call i8* @halide_string_to_string(i8* %181, i8* %186, i8* nonnull getelementptr inbounds ([21 x i8], [21 x i8]* @.str.221, i32 0, i32 0)) #8, !dbg !1820
  call void @llvm.dbg.value(metadata %"class.Halide::Runtime::Internal::(anonymous namespace)::Printer.0"* undef, metadata !1455, metadata !DIExpression()) #10, !dbg !1821
  call void @llvm.dbg.value(metadata i8* getelementptr inbounds ([16 x i8], [16 x i8]* @.str.16, i32 0, i32 0), metadata !1458, metadata !DIExpression()) #10, !dbg !1821
  %188 = tail call i8* @halide_string_to_string(i8* %187, i8* %186, i8* nonnull getelementptr inbounds ([16 x i8], [16 x i8]* @.str.16, i32 0, i32 0)) #8, !dbg !1823
  call void @llvm.dbg.value(metadata %"class.Halide::Runtime::Internal::(anonymous namespace)::Printer.0"* undef, metadata !1455, metadata !DIExpression()) #10, !dbg !1824
  call void @llvm.dbg.value(metadata i8* getelementptr inbounds ([2 x i8], [2 x i8]* @.str.5, i32 0, i32 0), metadata !1458, metadata !DIExpression()) #10, !dbg !1824
  %189 = tail call i8* @halide_string_to_string(i8* %188, i8* %186, i8* nonnull getelementptr inbounds ([2 x i8], [2 x i8]* @.str.5, i32 0, i32 0)) #8, !dbg !1826
  call void @llvm.dbg.value(metadata %"class.Halide::Runtime::Internal::(anonymous namespace)::Printer.0"* undef, metadata !1470, metadata !DIExpression()) #10, !dbg !1827
  br i1 %182, label %190, label %191, !dbg !1829

190:                                              ; preds = %185
  tail call void @halide_error(i8* %0, i8* getelementptr inbounds ([35 x i8], [35 x i8]* @.str.219, i32 0, i32 0)) #8, !dbg !1830
  br label %198, !dbg !1831

191:                                              ; preds = %185
  call void @llvm.dbg.value(metadata %"class.Halide::Runtime::Internal::(anonymous namespace)::Printer.0"* undef, metadata !1481, metadata !DIExpression()) #10, !dbg !1832
  %192 = ptrtoint i8* %189 to i32, !dbg !1834
  %193 = ptrtoint i8* %181 to i32, !dbg !1834
  %194 = sub i32 1, %193, !dbg !1834
  %195 = add i32 %194, %192, !dbg !1835
  %196 = sext i32 %195 to i64, !dbg !1836
  %197 = tail call i32 @halide_msan_annotate_memory_is_initialized(i8* %0, i8* nonnull %181, i64 %196) #8, !dbg !1837
  tail call void @halide_error(i8* %0, i8* nonnull %181) #8, !dbg !1838
  br label %198

198:                                              ; preds = %191, %190
  tail call void @free(i8* %181) #8, !dbg !1839
  br label %199, !dbg !1840

199:                                              ; preds = %177, %198
  call void @llvm.dbg.value(metadata i8* %178, metadata !1800, metadata !DIExpression()) #10, !dbg !1803
  store i8* %178, i8** bitcast (i32 (%"struct.Halide::Runtime::Internal::Cuda::CUctx_st"*)** @_ZN6Halide7Runtime8Internal4Cuda12cuCtxDestroyE to i8**), align 4, !dbg !1841, !tbaa !1316
  call void @llvm.dbg.value(metadata i8* %0, metadata !1842, metadata !DIExpression()) #10, !dbg !1852
  call void @llvm.dbg.value(metadata i8* getelementptr inbounds ([15 x i8], [15 x i8]* @.str.17, i32 0, i32 0), metadata !1847, metadata !DIExpression()) #10, !dbg !1852
  call void @llvm.dbg.value(metadata i1 false, metadata !1848, metadata !DIExpression(DW_OP_LLVM_convert, 1, DW_ATE_unsigned, DW_OP_LLVM_convert, 8, DW_ATE_unsigned, DW_OP_stack_value)) #10, !dbg !1852
  %200 = tail call i8* @halide_cuda_get_symbol(i8* %0, i8* getelementptr inbounds ([15 x i8], [15 x i8]* @.str.17, i32 0, i32 0)) #8, !dbg !1854
  call void @llvm.dbg.value(metadata i8* %200, metadata !1849, metadata !DIExpression()) #10, !dbg !1852
  %201 = icmp eq i8* %200, null
  br i1 %201, label %202, label %221, !dbg !1855

202:                                              ; preds = %199
  call void @llvm.dbg.value(metadata %"class.Halide::Runtime::Internal::(anonymous namespace)::Printer.0"* undef, metadata !1433, metadata !DIExpression()) #10, !dbg !1857
  call void @llvm.dbg.value(metadata i8* %0, metadata !1436, metadata !DIExpression()) #10, !dbg !1857
  call void @llvm.dbg.value(metadata i8* null, metadata !1437, metadata !DIExpression()) #10, !dbg !1857
  %203 = tail call i8* @malloc(i32 1024) #8, !dbg !1860
  %204 = icmp eq i8* %203, null, !dbg !1861
  br i1 %204, label %207, label %205, !dbg !1862

205:                                              ; preds = %202
  %206 = getelementptr inbounds i8, i8* %203, i32 1023, !dbg !1863
  store i8 0, i8* %206, align 1, !dbg !1864, !tbaa !1065
  br label %207, !dbg !1865

207:                                              ; preds = %205, %202
  %208 = phi i8* [ %206, %205 ], [ null, %202 ], !dbg !1866
  call void @llvm.dbg.value(metadata %"class.Halide::Runtime::Internal::(anonymous namespace)::Printer.0"* undef, metadata !1455, metadata !DIExpression()) #10, !dbg !1867
  call void @llvm.dbg.value(metadata i8* getelementptr inbounds ([21 x i8], [21 x i8]* @.str.221, i32 0, i32 0), metadata !1458, metadata !DIExpression()) #10, !dbg !1867
  %209 = tail call i8* @halide_string_to_string(i8* %203, i8* %208, i8* nonnull getelementptr inbounds ([21 x i8], [21 x i8]* @.str.221, i32 0, i32 0)) #8, !dbg !1869
  call void @llvm.dbg.value(metadata %"class.Halide::Runtime::Internal::(anonymous namespace)::Printer.0"* undef, metadata !1455, metadata !DIExpression()) #10, !dbg !1870
  call void @llvm.dbg.value(metadata i8* getelementptr inbounds ([15 x i8], [15 x i8]* @.str.17, i32 0, i32 0), metadata !1458, metadata !DIExpression()) #10, !dbg !1870
  %210 = tail call i8* @halide_string_to_string(i8* %209, i8* %208, i8* nonnull getelementptr inbounds ([15 x i8], [15 x i8]* @.str.17, i32 0, i32 0)) #8, !dbg !1872
  call void @llvm.dbg.value(metadata %"class.Halide::Runtime::Internal::(anonymous namespace)::Printer.0"* undef, metadata !1455, metadata !DIExpression()) #10, !dbg !1873
  call void @llvm.dbg.value(metadata i8* getelementptr inbounds ([2 x i8], [2 x i8]* @.str.5, i32 0, i32 0), metadata !1458, metadata !DIExpression()) #10, !dbg !1873
  %211 = tail call i8* @halide_string_to_string(i8* %210, i8* %208, i8* nonnull getelementptr inbounds ([2 x i8], [2 x i8]* @.str.5, i32 0, i32 0)) #8, !dbg !1875
  call void @llvm.dbg.value(metadata %"class.Halide::Runtime::Internal::(anonymous namespace)::Printer.0"* undef, metadata !1470, metadata !DIExpression()) #10, !dbg !1876
  br i1 %204, label %212, label %213, !dbg !1878

212:                                              ; preds = %207
  tail call void @halide_error(i8* %0, i8* getelementptr inbounds ([35 x i8], [35 x i8]* @.str.219, i32 0, i32 0)) #8, !dbg !1879
  br label %220, !dbg !1880

213:                                              ; preds = %207
  call void @llvm.dbg.value(metadata %"class.Halide::Runtime::Internal::(anonymous namespace)::Printer.0"* undef, metadata !1481, metadata !DIExpression()) #10, !dbg !1881
  %214 = ptrtoint i8* %211 to i32, !dbg !1883
  %215 = ptrtoint i8* %203 to i32, !dbg !1883
  %216 = sub i32 1, %215, !dbg !1883
  %217 = add i32 %216, %214, !dbg !1884
  %218 = sext i32 %217 to i64, !dbg !1885
  %219 = tail call i32 @halide_msan_annotate_memory_is_initialized(i8* %0, i8* nonnull %203, i64 %218) #8, !dbg !1886
  tail call void @halide_error(i8* %0, i8* nonnull %203) #8, !dbg !1887
  br label %220

220:                                              ; preds = %213, %212
  tail call void @free(i8* %203) #8, !dbg !1888
  br label %221, !dbg !1889

221:                                              ; preds = %199, %220
  call void @llvm.dbg.value(metadata i8* %200, metadata !1849, metadata !DIExpression()) #10, !dbg !1852
  store i8* %200, i8** bitcast (i32 ()** @_ZN6Halide7Runtime8Internal4Cuda14cuProfilerStopE to i8**), align 4, !dbg !1890, !tbaa !1316
  call void @llvm.dbg.value(metadata i8* %0, metadata !1891, metadata !DIExpression()) #10, !dbg !1901
  call void @llvm.dbg.value(metadata i8* getelementptr inbounds ([19 x i8], [19 x i8]* @.str.18, i32 0, i32 0), metadata !1896, metadata !DIExpression()) #10, !dbg !1901
  call void @llvm.dbg.value(metadata i1 false, metadata !1897, metadata !DIExpression(DW_OP_LLVM_convert, 1, DW_ATE_unsigned, DW_OP_LLVM_convert, 8, DW_ATE_unsigned, DW_OP_stack_value)) #10, !dbg !1901
  %222 = tail call i8* @halide_cuda_get_symbol(i8* %0, i8* getelementptr inbounds ([19 x i8], [19 x i8]* @.str.18, i32 0, i32 0)) #8, !dbg !1903
  call void @llvm.dbg.value(metadata i8* %222, metadata !1898, metadata !DIExpression()) #10, !dbg !1901
  %223 = icmp eq i8* %222, null
  br i1 %223, label %224, label %243, !dbg !1904

224:                                              ; preds = %221
  call void @llvm.dbg.value(metadata %"class.Halide::Runtime::Internal::(anonymous namespace)::Printer.0"* undef, metadata !1433, metadata !DIExpression()) #10, !dbg !1906
  call void @llvm.dbg.value(metadata i8* %0, metadata !1436, metadata !DIExpression()) #10, !dbg !1906
  call void @llvm.dbg.value(metadata i8* null, metadata !1437, metadata !DIExpression()) #10, !dbg !1906
  %225 = tail call i8* @malloc(i32 1024) #8, !dbg !1909
  %226 = icmp eq i8* %225, null, !dbg !1910
  br i1 %226, label %229, label %227, !dbg !1911

227:                                              ; preds = %224
  %228 = getelementptr inbounds i8, i8* %225, i32 1023, !dbg !1912
  store i8 0, i8* %228, align 1, !dbg !1913, !tbaa !1065
  br label %229, !dbg !1914

229:                                              ; preds = %227, %224
  %230 = phi i8* [ %228, %227 ], [ null, %224 ], !dbg !1915
  call void @llvm.dbg.value(metadata %"class.Halide::Runtime::Internal::(anonymous namespace)::Printer.0"* undef, metadata !1455, metadata !DIExpression()) #10, !dbg !1916
  call void @llvm.dbg.value(metadata i8* getelementptr inbounds ([21 x i8], [21 x i8]* @.str.221, i32 0, i32 0), metadata !1458, metadata !DIExpression()) #10, !dbg !1916
  %231 = tail call i8* @halide_string_to_string(i8* %225, i8* %230, i8* nonnull getelementptr inbounds ([21 x i8], [21 x i8]* @.str.221, i32 0, i32 0)) #8, !dbg !1918
  call void @llvm.dbg.value(metadata %"class.Halide::Runtime::Internal::(anonymous namespace)::Printer.0"* undef, metadata !1455, metadata !DIExpression()) #10, !dbg !1919
  call void @llvm.dbg.value(metadata i8* getelementptr inbounds ([19 x i8], [19 x i8]* @.str.18, i32 0, i32 0), metadata !1458, metadata !DIExpression()) #10, !dbg !1919
  %232 = tail call i8* @halide_string_to_string(i8* %231, i8* %230, i8* nonnull getelementptr inbounds ([19 x i8], [19 x i8]* @.str.18, i32 0, i32 0)) #8, !dbg !1921
  call void @llvm.dbg.value(metadata %"class.Halide::Runtime::Internal::(anonymous namespace)::Printer.0"* undef, metadata !1455, metadata !DIExpression()) #10, !dbg !1922
  call void @llvm.dbg.value(metadata i8* getelementptr inbounds ([2 x i8], [2 x i8]* @.str.5, i32 0, i32 0), metadata !1458, metadata !DIExpression()) #10, !dbg !1922
  %233 = tail call i8* @halide_string_to_string(i8* %232, i8* %230, i8* nonnull getelementptr inbounds ([2 x i8], [2 x i8]* @.str.5, i32 0, i32 0)) #8, !dbg !1924
  call void @llvm.dbg.value(metadata %"class.Halide::Runtime::Internal::(anonymous namespace)::Printer.0"* undef, metadata !1470, metadata !DIExpression()) #10, !dbg !1925
  br i1 %226, label %234, label %235, !dbg !1927

234:                                              ; preds = %229
  tail call void @halide_error(i8* %0, i8* getelementptr inbounds ([35 x i8], [35 x i8]* @.str.219, i32 0, i32 0)) #8, !dbg !1928
  br label %242, !dbg !1929

235:                                              ; preds = %229
  call void @llvm.dbg.value(metadata %"class.Halide::Runtime::Internal::(anonymous namespace)::Printer.0"* undef, metadata !1481, metadata !DIExpression()) #10, !dbg !1930
  %236 = ptrtoint i8* %233 to i32, !dbg !1932
  %237 = ptrtoint i8* %225 to i32, !dbg !1932
  %238 = sub i32 1, %237, !dbg !1932
  %239 = add i32 %238, %236, !dbg !1933
  %240 = sext i32 %239 to i64, !dbg !1934
  %241 = tail call i32 @halide_msan_annotate_memory_is_initialized(i8* %0, i8* nonnull %225, i64 %240) #8, !dbg !1935
  tail call void @halide_error(i8* %0, i8* nonnull %225) #8, !dbg !1936
  br label %242

242:                                              ; preds = %235, %234
  tail call void @free(i8* %225) #8, !dbg !1937
  br label %243, !dbg !1938

243:                                              ; preds = %221, %242
  call void @llvm.dbg.value(metadata i8* %222, metadata !1898, metadata !DIExpression()) #10, !dbg !1901
  store i8* %222, i8** bitcast (i32 (%"struct.Halide::Runtime::Internal::Cuda::CUctx_st"*, i32*)** @_ZN6Halide7Runtime8Internal4Cuda18cuCtxGetApiVersionE to i8**), align 4, !dbg !1939, !tbaa !1316
  call void @llvm.dbg.value(metadata i8* %0, metadata !1499, metadata !DIExpression()) #10, !dbg !1940
  call void @llvm.dbg.value(metadata i8* getelementptr inbounds ([15 x i8], [15 x i8]* @.str.19, i32 0, i32 0), metadata !1504, metadata !DIExpression()) #10, !dbg !1940
  call void @llvm.dbg.value(metadata i1 false, metadata !1505, metadata !DIExpression(DW_OP_LLVM_convert, 1, DW_ATE_unsigned, DW_OP_LLVM_convert, 8, DW_ATE_unsigned, DW_OP_stack_value)) #10, !dbg !1940
  %244 = tail call i8* @halide_cuda_get_symbol(i8* %0, i8* getelementptr inbounds ([15 x i8], [15 x i8]* @.str.19, i32 0, i32 0)) #8, !dbg !1942
  call void @llvm.dbg.value(metadata i8* %244, metadata !1506, metadata !DIExpression()) #10, !dbg !1940
  %245 = icmp eq i8* %244, null
  br i1 %245, label %246, label %265, !dbg !1943

246:                                              ; preds = %243
  call void @llvm.dbg.value(metadata %"class.Halide::Runtime::Internal::(anonymous namespace)::Printer.0"* undef, metadata !1433, metadata !DIExpression()) #10, !dbg !1944
  call void @llvm.dbg.value(metadata i8* %0, metadata !1436, metadata !DIExpression()) #10, !dbg !1944
  call void @llvm.dbg.value(metadata i8* null, metadata !1437, metadata !DIExpression()) #10, !dbg !1944
  %247 = tail call i8* @malloc(i32 1024) #8, !dbg !1946
  %248 = icmp eq i8* %247, null, !dbg !1947
  br i1 %248, label %251, label %249, !dbg !1948

249:                                              ; preds = %246
  %250 = getelementptr inbounds i8, i8* %247, i32 1023, !dbg !1949
  store i8 0, i8* %250, align 1, !dbg !1950, !tbaa !1065
  br label %251, !dbg !1951

251:                                              ; preds = %249, %246
  %252 = phi i8* [ %250, %249 ], [ null, %246 ], !dbg !1952
  call void @llvm.dbg.value(metadata %"class.Halide::Runtime::Internal::(anonymous namespace)::Printer.0"* undef, metadata !1455, metadata !DIExpression()) #10, !dbg !1953
  call void @llvm.dbg.value(metadata i8* getelementptr inbounds ([21 x i8], [21 x i8]* @.str.221, i32 0, i32 0), metadata !1458, metadata !DIExpression()) #10, !dbg !1953
  %253 = tail call i8* @halide_string_to_string(i8* %247, i8* %252, i8* nonnull getelementptr inbounds ([21 x i8], [21 x i8]* @.str.221, i32 0, i32 0)) #8, !dbg !1955
  call void @llvm.dbg.value(metadata %"class.Halide::Runtime::Internal::(anonymous namespace)::Printer.0"* undef, metadata !1455, metadata !DIExpression()) #10, !dbg !1956
  call void @llvm.dbg.value(metadata i8* getelementptr inbounds ([15 x i8], [15 x i8]* @.str.19, i32 0, i32 0), metadata !1458, metadata !DIExpression()) #10, !dbg !1956
  %254 = tail call i8* @halide_string_to_string(i8* %253, i8* %252, i8* nonnull getelementptr inbounds ([15 x i8], [15 x i8]* @.str.19, i32 0, i32 0)) #8, !dbg !1958
  call void @llvm.dbg.value(metadata %"class.Halide::Runtime::Internal::(anonymous namespace)::Printer.0"* undef, metadata !1455, metadata !DIExpression()) #10, !dbg !1959
  call void @llvm.dbg.value(metadata i8* getelementptr inbounds ([2 x i8], [2 x i8]* @.str.5, i32 0, i32 0), metadata !1458, metadata !DIExpression()) #10, !dbg !1959
  %255 = tail call i8* @halide_string_to_string(i8* %254, i8* %252, i8* nonnull getelementptr inbounds ([2 x i8], [2 x i8]* @.str.5, i32 0, i32 0)) #8, !dbg !1961
  call void @llvm.dbg.value(metadata %"class.Halide::Runtime::Internal::(anonymous namespace)::Printer.0"* undef, metadata !1470, metadata !DIExpression()) #10, !dbg !1962
  br i1 %248, label %256, label %257, !dbg !1964

256:                                              ; preds = %251
  tail call void @halide_error(i8* %0, i8* getelementptr inbounds ([35 x i8], [35 x i8]* @.str.219, i32 0, i32 0)) #8, !dbg !1965
  br label %264, !dbg !1966

257:                                              ; preds = %251
  call void @llvm.dbg.value(metadata %"class.Halide::Runtime::Internal::(anonymous namespace)::Printer.0"* undef, metadata !1481, metadata !DIExpression()) #10, !dbg !1967
  %258 = ptrtoint i8* %255 to i32, !dbg !1969
  %259 = ptrtoint i8* %247 to i32, !dbg !1969
  %260 = sub i32 1, %259, !dbg !1969
  %261 = add i32 %260, %258, !dbg !1970
  %262 = sext i32 %261 to i64, !dbg !1971
  %263 = tail call i32 @halide_msan_annotate_memory_is_initialized(i8* %0, i8* nonnull %247, i64 %262) #8, !dbg !1972
  tail call void @halide_error(i8* %0, i8* nonnull %247) #8, !dbg !1973
  br label %264

264:                                              ; preds = %257, %256
  tail call void @free(i8* %247) #8, !dbg !1974
  br label %265, !dbg !1975

265:                                              ; preds = %243, %264
  call void @llvm.dbg.value(metadata i8* %244, metadata !1506, metadata !DIExpression()) #10, !dbg !1940
  store i8* %244, i8** bitcast (i32 (i32*)** @_ZN6Halide7Runtime8Internal4Cuda14cuCtxGetDeviceE to i8**), align 4, !dbg !1976, !tbaa !1316
  call void @llvm.dbg.value(metadata i8* %0, metadata !1977, metadata !DIExpression()) #10, !dbg !1987
  call void @llvm.dbg.value(metadata i8* getelementptr inbounds ([17 x i8], [17 x i8]* @.str.20, i32 0, i32 0), metadata !1982, metadata !DIExpression()) #10, !dbg !1987
  call void @llvm.dbg.value(metadata i1 false, metadata !1983, metadata !DIExpression(DW_OP_LLVM_convert, 1, DW_ATE_unsigned, DW_OP_LLVM_convert, 8, DW_ATE_unsigned, DW_OP_stack_value)) #10, !dbg !1987
  %266 = tail call i8* @halide_cuda_get_symbol(i8* %0, i8* getelementptr inbounds ([17 x i8], [17 x i8]* @.str.20, i32 0, i32 0)) #8, !dbg !1989
  call void @llvm.dbg.value(metadata i8* %266, metadata !1984, metadata !DIExpression()) #10, !dbg !1987
  %267 = icmp eq i8* %266, null
  br i1 %267, label %268, label %287, !dbg !1990

268:                                              ; preds = %265
  call void @llvm.dbg.value(metadata %"class.Halide::Runtime::Internal::(anonymous namespace)::Printer.0"* undef, metadata !1433, metadata !DIExpression()) #10, !dbg !1992
  call void @llvm.dbg.value(metadata i8* %0, metadata !1436, metadata !DIExpression()) #10, !dbg !1992
  call void @llvm.dbg.value(metadata i8* null, metadata !1437, metadata !DIExpression()) #10, !dbg !1992
  %269 = tail call i8* @malloc(i32 1024) #8, !dbg !1995
  %270 = icmp eq i8* %269, null, !dbg !1996
  br i1 %270, label %273, label %271, !dbg !1997

271:                                              ; preds = %268
  %272 = getelementptr inbounds i8, i8* %269, i32 1023, !dbg !1998
  store i8 0, i8* %272, align 1, !dbg !1999, !tbaa !1065
  br label %273, !dbg !2000

273:                                              ; preds = %271, %268
  %274 = phi i8* [ %272, %271 ], [ null, %268 ], !dbg !2001
  call void @llvm.dbg.value(metadata %"class.Halide::Runtime::Internal::(anonymous namespace)::Printer.0"* undef, metadata !1455, metadata !DIExpression()) #10, !dbg !2002
  call void @llvm.dbg.value(metadata i8* getelementptr inbounds ([21 x i8], [21 x i8]* @.str.221, i32 0, i32 0), metadata !1458, metadata !DIExpression()) #10, !dbg !2002
  %275 = tail call i8* @halide_string_to_string(i8* %269, i8* %274, i8* nonnull getelementptr inbounds ([21 x i8], [21 x i8]* @.str.221, i32 0, i32 0)) #8, !dbg !2004
  call void @llvm.dbg.value(metadata %"class.Halide::Runtime::Internal::(anonymous namespace)::Printer.0"* undef, metadata !1455, metadata !DIExpression()) #10, !dbg !2005
  call void @llvm.dbg.value(metadata i8* getelementptr inbounds ([17 x i8], [17 x i8]* @.str.20, i32 0, i32 0), metadata !1458, metadata !DIExpression()) #10, !dbg !2005
  %276 = tail call i8* @halide_string_to_string(i8* %275, i8* %274, i8* nonnull getelementptr inbounds ([17 x i8], [17 x i8]* @.str.20, i32 0, i32 0)) #8, !dbg !2007
  call void @llvm.dbg.value(metadata %"class.Halide::Runtime::Internal::(anonymous namespace)::Printer.0"* undef, metadata !1455, metadata !DIExpression()) #10, !dbg !2008
  call void @llvm.dbg.value(metadata i8* getelementptr inbounds ([2 x i8], [2 x i8]* @.str.5, i32 0, i32 0), metadata !1458, metadata !DIExpression()) #10, !dbg !2008
  %277 = tail call i8* @halide_string_to_string(i8* %276, i8* %274, i8* nonnull getelementptr inbounds ([2 x i8], [2 x i8]* @.str.5, i32 0, i32 0)) #8, !dbg !2010
  call void @llvm.dbg.value(metadata %"class.Halide::Runtime::Internal::(anonymous namespace)::Printer.0"* undef, metadata !1470, metadata !DIExpression()) #10, !dbg !2011
  br i1 %270, label %278, label %279, !dbg !2013

278:                                              ; preds = %273
  tail call void @halide_error(i8* %0, i8* getelementptr inbounds ([35 x i8], [35 x i8]* @.str.219, i32 0, i32 0)) #8, !dbg !2014
  br label %286, !dbg !2015

279:                                              ; preds = %273
  call void @llvm.dbg.value(metadata %"class.Halide::Runtime::Internal::(anonymous namespace)::Printer.0"* undef, metadata !1481, metadata !DIExpression()) #10, !dbg !2016
  %280 = ptrtoint i8* %277 to i32, !dbg !2018
  %281 = ptrtoint i8* %269 to i32, !dbg !2018
  %282 = sub i32 1, %281, !dbg !2018
  %283 = add i32 %282, %280, !dbg !2019
  %284 = sext i32 %283 to i64, !dbg !2020
  %285 = tail call i32 @halide_msan_annotate_memory_is_initialized(i8* %0, i8* nonnull %269, i64 %284) #8, !dbg !2021
  tail call void @halide_error(i8* %0, i8* nonnull %269) #8, !dbg !2022
  br label %286

286:                                              ; preds = %279, %278
  tail call void @free(i8* %269) #8, !dbg !2023
  br label %287, !dbg !2024

287:                                              ; preds = %265, %286
  call void @llvm.dbg.value(metadata i8* %266, metadata !1984, metadata !DIExpression()) #10, !dbg !1987
  store i8* %266, i8** bitcast (i32 (%"struct.Halide::Runtime::Internal::Cuda::CUmod_st"**, i8*)** @_ZN6Halide7Runtime8Internal4Cuda16cuModuleLoadDataE to i8**), align 4, !dbg !2025, !tbaa !1316
  call void @llvm.dbg.value(metadata i8* %0, metadata !2026, metadata !DIExpression()) #10, !dbg !2036
  call void @llvm.dbg.value(metadata i8* getelementptr inbounds ([19 x i8], [19 x i8]* @.str.21, i32 0, i32 0), metadata !2031, metadata !DIExpression()) #10, !dbg !2036
  call void @llvm.dbg.value(metadata i1 false, metadata !2032, metadata !DIExpression(DW_OP_LLVM_convert, 1, DW_ATE_unsigned, DW_OP_LLVM_convert, 8, DW_ATE_unsigned, DW_OP_stack_value)) #10, !dbg !2036
  %288 = tail call i8* @halide_cuda_get_symbol(i8* %0, i8* getelementptr inbounds ([19 x i8], [19 x i8]* @.str.21, i32 0, i32 0)) #8, !dbg !2038
  call void @llvm.dbg.value(metadata i8* %288, metadata !2033, metadata !DIExpression()) #10, !dbg !2036
  %289 = icmp eq i8* %288, null
  br i1 %289, label %290, label %309, !dbg !2039

290:                                              ; preds = %287
  call void @llvm.dbg.value(metadata %"class.Halide::Runtime::Internal::(anonymous namespace)::Printer.0"* undef, metadata !1433, metadata !DIExpression()) #10, !dbg !2041
  call void @llvm.dbg.value(metadata i8* %0, metadata !1436, metadata !DIExpression()) #10, !dbg !2041
  call void @llvm.dbg.value(metadata i8* null, metadata !1437, metadata !DIExpression()) #10, !dbg !2041
  %291 = tail call i8* @malloc(i32 1024) #8, !dbg !2044
  %292 = icmp eq i8* %291, null, !dbg !2045
  br i1 %292, label %295, label %293, !dbg !2046

293:                                              ; preds = %290
  %294 = getelementptr inbounds i8, i8* %291, i32 1023, !dbg !2047
  store i8 0, i8* %294, align 1, !dbg !2048, !tbaa !1065
  br label %295, !dbg !2049

295:                                              ; preds = %293, %290
  %296 = phi i8* [ %294, %293 ], [ null, %290 ], !dbg !2050
  call void @llvm.dbg.value(metadata %"class.Halide::Runtime::Internal::(anonymous namespace)::Printer.0"* undef, metadata !1455, metadata !DIExpression()) #10, !dbg !2051
  call void @llvm.dbg.value(metadata i8* getelementptr inbounds ([21 x i8], [21 x i8]* @.str.221, i32 0, i32 0), metadata !1458, metadata !DIExpression()) #10, !dbg !2051
  %297 = tail call i8* @halide_string_to_string(i8* %291, i8* %296, i8* nonnull getelementptr inbounds ([21 x i8], [21 x i8]* @.str.221, i32 0, i32 0)) #8, !dbg !2053
  call void @llvm.dbg.value(metadata %"class.Halide::Runtime::Internal::(anonymous namespace)::Printer.0"* undef, metadata !1455, metadata !DIExpression()) #10, !dbg !2054
  call void @llvm.dbg.value(metadata i8* getelementptr inbounds ([19 x i8], [19 x i8]* @.str.21, i32 0, i32 0), metadata !1458, metadata !DIExpression()) #10, !dbg !2054
  %298 = tail call i8* @halide_string_to_string(i8* %297, i8* %296, i8* nonnull getelementptr inbounds ([19 x i8], [19 x i8]* @.str.21, i32 0, i32 0)) #8, !dbg !2056
  call void @llvm.dbg.value(metadata %"class.Halide::Runtime::Internal::(anonymous namespace)::Printer.0"* undef, metadata !1455, metadata !DIExpression()) #10, !dbg !2057
  call void @llvm.dbg.value(metadata i8* getelementptr inbounds ([2 x i8], [2 x i8]* @.str.5, i32 0, i32 0), metadata !1458, metadata !DIExpression()) #10, !dbg !2057
  %299 = tail call i8* @halide_string_to_string(i8* %298, i8* %296, i8* nonnull getelementptr inbounds ([2 x i8], [2 x i8]* @.str.5, i32 0, i32 0)) #8, !dbg !2059
  call void @llvm.dbg.value(metadata %"class.Halide::Runtime::Internal::(anonymous namespace)::Printer.0"* undef, metadata !1470, metadata !DIExpression()) #10, !dbg !2060
  br i1 %292, label %300, label %301, !dbg !2062

300:                                              ; preds = %295
  tail call void @halide_error(i8* %0, i8* getelementptr inbounds ([35 x i8], [35 x i8]* @.str.219, i32 0, i32 0)) #8, !dbg !2063
  br label %308, !dbg !2064

301:                                              ; preds = %295
  call void @llvm.dbg.value(metadata %"class.Halide::Runtime::Internal::(anonymous namespace)::Printer.0"* undef, metadata !1481, metadata !DIExpression()) #10, !dbg !2065
  %302 = ptrtoint i8* %299 to i32, !dbg !2067
  %303 = ptrtoint i8* %291 to i32, !dbg !2067
  %304 = sub i32 1, %303, !dbg !2067
  %305 = add i32 %304, %302, !dbg !2068
  %306 = sext i32 %305 to i64, !dbg !2069
  %307 = tail call i32 @halide_msan_annotate_memory_is_initialized(i8* %0, i8* nonnull %291, i64 %306) #8, !dbg !2070
  tail call void @halide_error(i8* %0, i8* nonnull %291) #8, !dbg !2071
  br label %308

308:                                              ; preds = %301, %300
  tail call void @free(i8* %291) #8, !dbg !2072
  br label %309, !dbg !2073

309:                                              ; preds = %287, %308
  call void @llvm.dbg.value(metadata i8* %288, metadata !2033, metadata !DIExpression()) #10, !dbg !2036
  store i8* %288, i8** bitcast (i32 (%"struct.Halide::Runtime::Internal::Cuda::CUmod_st"**, i8*, i32, i32*, i8**)** @_ZN6Halide7Runtime8Internal4Cuda18cuModuleLoadDataExE to i8**), align 4, !dbg !2074, !tbaa !1316
  call void @llvm.dbg.value(metadata i8* %0, metadata !2075, metadata !DIExpression()) #10, !dbg !2085
  call void @llvm.dbg.value(metadata i8* getelementptr inbounds ([15 x i8], [15 x i8]* @.str.22, i32 0, i32 0), metadata !2080, metadata !DIExpression()) #10, !dbg !2085
  call void @llvm.dbg.value(metadata i1 false, metadata !2081, metadata !DIExpression(DW_OP_LLVM_convert, 1, DW_ATE_unsigned, DW_OP_LLVM_convert, 8, DW_ATE_unsigned, DW_OP_stack_value)) #10, !dbg !2085
  %310 = tail call i8* @halide_cuda_get_symbol(i8* %0, i8* getelementptr inbounds ([15 x i8], [15 x i8]* @.str.22, i32 0, i32 0)) #8, !dbg !2087
  call void @llvm.dbg.value(metadata i8* %310, metadata !2082, metadata !DIExpression()) #10, !dbg !2085
  %311 = icmp eq i8* %310, null
  br i1 %311, label %312, label %331, !dbg !2088

312:                                              ; preds = %309
  call void @llvm.dbg.value(metadata %"class.Halide::Runtime::Internal::(anonymous namespace)::Printer.0"* undef, metadata !1433, metadata !DIExpression()) #10, !dbg !2090
  call void @llvm.dbg.value(metadata i8* %0, metadata !1436, metadata !DIExpression()) #10, !dbg !2090
  call void @llvm.dbg.value(metadata i8* null, metadata !1437, metadata !DIExpression()) #10, !dbg !2090
  %313 = tail call i8* @malloc(i32 1024) #8, !dbg !2093
  %314 = icmp eq i8* %313, null, !dbg !2094
  br i1 %314, label %317, label %315, !dbg !2095

315:                                              ; preds = %312
  %316 = getelementptr inbounds i8, i8* %313, i32 1023, !dbg !2096
  store i8 0, i8* %316, align 1, !dbg !2097, !tbaa !1065
  br label %317, !dbg !2098

317:                                              ; preds = %315, %312
  %318 = phi i8* [ %316, %315 ], [ null, %312 ], !dbg !2099
  call void @llvm.dbg.value(metadata %"class.Halide::Runtime::Internal::(anonymous namespace)::Printer.0"* undef, metadata !1455, metadata !DIExpression()) #10, !dbg !2100
  call void @llvm.dbg.value(metadata i8* getelementptr inbounds ([21 x i8], [21 x i8]* @.str.221, i32 0, i32 0), metadata !1458, metadata !DIExpression()) #10, !dbg !2100
  %319 = tail call i8* @halide_string_to_string(i8* %313, i8* %318, i8* nonnull getelementptr inbounds ([21 x i8], [21 x i8]* @.str.221, i32 0, i32 0)) #8, !dbg !2102
  call void @llvm.dbg.value(metadata %"class.Halide::Runtime::Internal::(anonymous namespace)::Printer.0"* undef, metadata !1455, metadata !DIExpression()) #10, !dbg !2103
  call void @llvm.dbg.value(metadata i8* getelementptr inbounds ([15 x i8], [15 x i8]* @.str.22, i32 0, i32 0), metadata !1458, metadata !DIExpression()) #10, !dbg !2103
  %320 = tail call i8* @halide_string_to_string(i8* %319, i8* %318, i8* nonnull getelementptr inbounds ([15 x i8], [15 x i8]* @.str.22, i32 0, i32 0)) #8, !dbg !2105
  call void @llvm.dbg.value(metadata %"class.Halide::Runtime::Internal::(anonymous namespace)::Printer.0"* undef, metadata !1455, metadata !DIExpression()) #10, !dbg !2106
  call void @llvm.dbg.value(metadata i8* getelementptr inbounds ([2 x i8], [2 x i8]* @.str.5, i32 0, i32 0), metadata !1458, metadata !DIExpression()) #10, !dbg !2106
  %321 = tail call i8* @halide_string_to_string(i8* %320, i8* %318, i8* nonnull getelementptr inbounds ([2 x i8], [2 x i8]* @.str.5, i32 0, i32 0)) #8, !dbg !2108
  call void @llvm.dbg.value(metadata %"class.Halide::Runtime::Internal::(anonymous namespace)::Printer.0"* undef, metadata !1470, metadata !DIExpression()) #10, !dbg !2109
  br i1 %314, label %322, label %323, !dbg !2111

322:                                              ; preds = %317
  tail call void @halide_error(i8* %0, i8* getelementptr inbounds ([35 x i8], [35 x i8]* @.str.219, i32 0, i32 0)) #8, !dbg !2112
  br label %330, !dbg !2113

323:                                              ; preds = %317
  call void @llvm.dbg.value(metadata %"class.Halide::Runtime::Internal::(anonymous namespace)::Printer.0"* undef, metadata !1481, metadata !DIExpression()) #10, !dbg !2114
  %324 = ptrtoint i8* %321 to i32, !dbg !2116
  %325 = ptrtoint i8* %313 to i32, !dbg !2116
  %326 = sub i32 1, %325, !dbg !2116
  %327 = add i32 %326, %324, !dbg !2117
  %328 = sext i32 %327 to i64, !dbg !2118
  %329 = tail call i32 @halide_msan_annotate_memory_is_initialized(i8* %0, i8* nonnull %313, i64 %328) #8, !dbg !2119
  tail call void @halide_error(i8* %0, i8* nonnull %313) #8, !dbg !2120
  br label %330

330:                                              ; preds = %323, %322
  tail call void @free(i8* %313) #8, !dbg !2121
  br label %331, !dbg !2122

331:                                              ; preds = %309, %330
  call void @llvm.dbg.value(metadata i8* %310, metadata !2082, metadata !DIExpression()) #10, !dbg !2085
  store i8* %310, i8** bitcast (i32 (%"struct.Halide::Runtime::Internal::Cuda::CUmod_st"*)** @_ZN6Halide7Runtime8Internal4Cuda14cuModuleUnloadE to i8**), align 4, !dbg !2123, !tbaa !1316
  call void @llvm.dbg.value(metadata i8* %0, metadata !2124, metadata !DIExpression()) #10, !dbg !2134
  call void @llvm.dbg.value(metadata i8* getelementptr inbounds ([20 x i8], [20 x i8]* @.str.23, i32 0, i32 0), metadata !2129, metadata !DIExpression()) #10, !dbg !2134
  call void @llvm.dbg.value(metadata i1 false, metadata !2130, metadata !DIExpression(DW_OP_LLVM_convert, 1, DW_ATE_unsigned, DW_OP_LLVM_convert, 8, DW_ATE_unsigned, DW_OP_stack_value)) #10, !dbg !2134
  %332 = tail call i8* @halide_cuda_get_symbol(i8* %0, i8* getelementptr inbounds ([20 x i8], [20 x i8]* @.str.23, i32 0, i32 0)) #8, !dbg !2136
  call void @llvm.dbg.value(metadata i8* %332, metadata !2131, metadata !DIExpression()) #10, !dbg !2134
  %333 = icmp eq i8* %332, null
  br i1 %333, label %334, label %353, !dbg !2137

334:                                              ; preds = %331
  call void @llvm.dbg.value(metadata %"class.Halide::Runtime::Internal::(anonymous namespace)::Printer.0"* undef, metadata !1433, metadata !DIExpression()) #10, !dbg !2139
  call void @llvm.dbg.value(metadata i8* %0, metadata !1436, metadata !DIExpression()) #10, !dbg !2139
  call void @llvm.dbg.value(metadata i8* null, metadata !1437, metadata !DIExpression()) #10, !dbg !2139
  %335 = tail call i8* @malloc(i32 1024) #8, !dbg !2142
  %336 = icmp eq i8* %335, null, !dbg !2143
  br i1 %336, label %339, label %337, !dbg !2144

337:                                              ; preds = %334
  %338 = getelementptr inbounds i8, i8* %335, i32 1023, !dbg !2145
  store i8 0, i8* %338, align 1, !dbg !2146, !tbaa !1065
  br label %339, !dbg !2147

339:                                              ; preds = %337, %334
  %340 = phi i8* [ %338, %337 ], [ null, %334 ], !dbg !2148
  call void @llvm.dbg.value(metadata %"class.Halide::Runtime::Internal::(anonymous namespace)::Printer.0"* undef, metadata !1455, metadata !DIExpression()) #10, !dbg !2149
  call void @llvm.dbg.value(metadata i8* getelementptr inbounds ([21 x i8], [21 x i8]* @.str.221, i32 0, i32 0), metadata !1458, metadata !DIExpression()) #10, !dbg !2149
  %341 = tail call i8* @halide_string_to_string(i8* %335, i8* %340, i8* nonnull getelementptr inbounds ([21 x i8], [21 x i8]* @.str.221, i32 0, i32 0)) #8, !dbg !2151
  call void @llvm.dbg.value(metadata %"class.Halide::Runtime::Internal::(anonymous namespace)::Printer.0"* undef, metadata !1455, metadata !DIExpression()) #10, !dbg !2152
  call void @llvm.dbg.value(metadata i8* getelementptr inbounds ([20 x i8], [20 x i8]* @.str.23, i32 0, i32 0), metadata !1458, metadata !DIExpression()) #10, !dbg !2152
  %342 = tail call i8* @halide_string_to_string(i8* %341, i8* %340, i8* nonnull getelementptr inbounds ([20 x i8], [20 x i8]* @.str.23, i32 0, i32 0)) #8, !dbg !2154
  call void @llvm.dbg.value(metadata %"class.Halide::Runtime::Internal::(anonymous namespace)::Printer.0"* undef, metadata !1455, metadata !DIExpression()) #10, !dbg !2155
  call void @llvm.dbg.value(metadata i8* getelementptr inbounds ([2 x i8], [2 x i8]* @.str.5, i32 0, i32 0), metadata !1458, metadata !DIExpression()) #10, !dbg !2155
  %343 = tail call i8* @halide_string_to_string(i8* %342, i8* %340, i8* nonnull getelementptr inbounds ([2 x i8], [2 x i8]* @.str.5, i32 0, i32 0)) #8, !dbg !2157
  call void @llvm.dbg.value(metadata %"class.Halide::Runtime::Internal::(anonymous namespace)::Printer.0"* undef, metadata !1470, metadata !DIExpression()) #10, !dbg !2158
  br i1 %336, label %344, label %345, !dbg !2160

344:                                              ; preds = %339
  tail call void @halide_error(i8* %0, i8* getelementptr inbounds ([35 x i8], [35 x i8]* @.str.219, i32 0, i32 0)) #8, !dbg !2161
  br label %352, !dbg !2162

345:                                              ; preds = %339
  call void @llvm.dbg.value(metadata %"class.Halide::Runtime::Internal::(anonymous namespace)::Printer.0"* undef, metadata !1481, metadata !DIExpression()) #10, !dbg !2163
  %346 = ptrtoint i8* %343 to i32, !dbg !2165
  %347 = ptrtoint i8* %335 to i32, !dbg !2165
  %348 = sub i32 1, %347, !dbg !2165
  %349 = add i32 %348, %346, !dbg !2166
  %350 = sext i32 %349 to i64, !dbg !2167
  %351 = tail call i32 @halide_msan_annotate_memory_is_initialized(i8* %0, i8* nonnull %335, i64 %350) #8, !dbg !2168
  tail call void @halide_error(i8* %0, i8* nonnull %335) #8, !dbg !2169
  br label %352

352:                                              ; preds = %345, %344
  tail call void @free(i8* %335) #8, !dbg !2170
  br label %353, !dbg !2171

353:                                              ; preds = %331, %352
  call void @llvm.dbg.value(metadata i8* %332, metadata !2131, metadata !DIExpression()) #10, !dbg !2134
  store i8* %332, i8** bitcast (i32 (%"struct.Halide::Runtime::Internal::Cuda::CUfunc_st"**, %"struct.Halide::Runtime::Internal::Cuda::CUmod_st"*, i8*)** @_ZN6Halide7Runtime8Internal4Cuda19cuModuleGetFunctionE to i8**), align 4, !dbg !2172, !tbaa !1316
  call void @llvm.dbg.value(metadata i8* %0, metadata !2173, metadata !DIExpression()) #10, !dbg !2183
  call void @llvm.dbg.value(metadata i8* getelementptr inbounds ([14 x i8], [14 x i8]* @.str.24, i32 0, i32 0), metadata !2178, metadata !DIExpression()) #10, !dbg !2183
  call void @llvm.dbg.value(metadata i1 false, metadata !2179, metadata !DIExpression(DW_OP_LLVM_convert, 1, DW_ATE_unsigned, DW_OP_LLVM_convert, 8, DW_ATE_unsigned, DW_OP_stack_value)) #10, !dbg !2183
  %354 = tail call i8* @halide_cuda_get_symbol(i8* %0, i8* getelementptr inbounds ([14 x i8], [14 x i8]* @.str.24, i32 0, i32 0)) #8, !dbg !2185
  call void @llvm.dbg.value(metadata i8* %354, metadata !2180, metadata !DIExpression()) #10, !dbg !2183
  %355 = icmp eq i8* %354, null
  br i1 %355, label %356, label %375, !dbg !2186

356:                                              ; preds = %353
  call void @llvm.dbg.value(metadata %"class.Halide::Runtime::Internal::(anonymous namespace)::Printer.0"* undef, metadata !1433, metadata !DIExpression()) #10, !dbg !2188
  call void @llvm.dbg.value(metadata i8* %0, metadata !1436, metadata !DIExpression()) #10, !dbg !2188
  call void @llvm.dbg.value(metadata i8* null, metadata !1437, metadata !DIExpression()) #10, !dbg !2188
  %357 = tail call i8* @malloc(i32 1024) #8, !dbg !2191
  %358 = icmp eq i8* %357, null, !dbg !2192
  br i1 %358, label %361, label %359, !dbg !2193

359:                                              ; preds = %356
  %360 = getelementptr inbounds i8, i8* %357, i32 1023, !dbg !2194
  store i8 0, i8* %360, align 1, !dbg !2195, !tbaa !1065
  br label %361, !dbg !2196

361:                                              ; preds = %359, %356
  %362 = phi i8* [ %360, %359 ], [ null, %356 ], !dbg !2197
  call void @llvm.dbg.value(metadata %"class.Halide::Runtime::Internal::(anonymous namespace)::Printer.0"* undef, metadata !1455, metadata !DIExpression()) #10, !dbg !2198
  call void @llvm.dbg.value(metadata i8* getelementptr inbounds ([21 x i8], [21 x i8]* @.str.221, i32 0, i32 0), metadata !1458, metadata !DIExpression()) #10, !dbg !2198
  %363 = tail call i8* @halide_string_to_string(i8* %357, i8* %362, i8* nonnull getelementptr inbounds ([21 x i8], [21 x i8]* @.str.221, i32 0, i32 0)) #8, !dbg !2200
  call void @llvm.dbg.value(metadata %"class.Halide::Runtime::Internal::(anonymous namespace)::Printer.0"* undef, metadata !1455, metadata !DIExpression()) #10, !dbg !2201
  call void @llvm.dbg.value(metadata i8* getelementptr inbounds ([14 x i8], [14 x i8]* @.str.24, i32 0, i32 0), metadata !1458, metadata !DIExpression()) #10, !dbg !2201
  %364 = tail call i8* @halide_string_to_string(i8* %363, i8* %362, i8* nonnull getelementptr inbounds ([14 x i8], [14 x i8]* @.str.24, i32 0, i32 0)) #8, !dbg !2203
  call void @llvm.dbg.value(metadata %"class.Halide::Runtime::Internal::(anonymous namespace)::Printer.0"* undef, metadata !1455, metadata !DIExpression()) #10, !dbg !2204
  call void @llvm.dbg.value(metadata i8* getelementptr inbounds ([2 x i8], [2 x i8]* @.str.5, i32 0, i32 0), metadata !1458, metadata !DIExpression()) #10, !dbg !2204
  %365 = tail call i8* @halide_string_to_string(i8* %364, i8* %362, i8* nonnull getelementptr inbounds ([2 x i8], [2 x i8]* @.str.5, i32 0, i32 0)) #8, !dbg !2206
  call void @llvm.dbg.value(metadata %"class.Halide::Runtime::Internal::(anonymous namespace)::Printer.0"* undef, metadata !1470, metadata !DIExpression()) #10, !dbg !2207
  br i1 %358, label %366, label %367, !dbg !2209

366:                                              ; preds = %361
  tail call void @halide_error(i8* %0, i8* getelementptr inbounds ([35 x i8], [35 x i8]* @.str.219, i32 0, i32 0)) #8, !dbg !2210
  br label %374, !dbg !2211

367:                                              ; preds = %361
  call void @llvm.dbg.value(metadata %"class.Halide::Runtime::Internal::(anonymous namespace)::Printer.0"* undef, metadata !1481, metadata !DIExpression()) #10, !dbg !2212
  %368 = ptrtoint i8* %365 to i32, !dbg !2214
  %369 = ptrtoint i8* %357 to i32, !dbg !2214
  %370 = sub i32 1, %369, !dbg !2214
  %371 = add i32 %370, %368, !dbg !2215
  %372 = sext i32 %371 to i64, !dbg !2216
  %373 = tail call i32 @halide_msan_annotate_memory_is_initialized(i8* %0, i8* nonnull %357, i64 %372) #8, !dbg !2217
  tail call void @halide_error(i8* %0, i8* nonnull %357) #8, !dbg !2218
  br label %374

374:                                              ; preds = %367, %366
  tail call void @free(i8* %357) #8, !dbg !2219
  br label %375, !dbg !2220

375:                                              ; preds = %353, %374
  call void @llvm.dbg.value(metadata i8* %354, metadata !2180, metadata !DIExpression()) #10, !dbg !2183
  store i8* %354, i8** bitcast (i32 (i32*, i32)** @_ZN6Halide7Runtime8Internal4Cuda10cuMemAllocE to i8**), align 4, !dbg !2221, !tbaa !1316
  call void @llvm.dbg.value(metadata i8* %0, metadata !1417, metadata !DIExpression()) #10, !dbg !2222
  call void @llvm.dbg.value(metadata i8* getelementptr inbounds ([13 x i8], [13 x i8]* @.str.25, i32 0, i32 0), metadata !1422, metadata !DIExpression()) #10, !dbg !2222
  call void @llvm.dbg.value(metadata i1 false, metadata !1423, metadata !DIExpression(DW_OP_LLVM_convert, 1, DW_ATE_unsigned, DW_OP_LLVM_convert, 8, DW_ATE_unsigned, DW_OP_stack_value)) #10, !dbg !2222
  %376 = tail call i8* @halide_cuda_get_symbol(i8* %0, i8* getelementptr inbounds ([13 x i8], [13 x i8]* @.str.25, i32 0, i32 0)) #8, !dbg !2224
  call void @llvm.dbg.value(metadata i8* %376, metadata !1424, metadata !DIExpression()) #10, !dbg !2222
  %377 = icmp eq i8* %376, null
  br i1 %377, label %378, label %397, !dbg !2225

378:                                              ; preds = %375
  call void @llvm.dbg.value(metadata %"class.Halide::Runtime::Internal::(anonymous namespace)::Printer.0"* undef, metadata !1433, metadata !DIExpression()) #10, !dbg !2226
  call void @llvm.dbg.value(metadata i8* %0, metadata !1436, metadata !DIExpression()) #10, !dbg !2226
  call void @llvm.dbg.value(metadata i8* null, metadata !1437, metadata !DIExpression()) #10, !dbg !2226
  %379 = tail call i8* @malloc(i32 1024) #8, !dbg !2228
  %380 = icmp eq i8* %379, null, !dbg !2229
  br i1 %380, label %383, label %381, !dbg !2230

381:                                              ; preds = %378
  %382 = getelementptr inbounds i8, i8* %379, i32 1023, !dbg !2231
  store i8 0, i8* %382, align 1, !dbg !2232, !tbaa !1065
  br label %383, !dbg !2233

383:                                              ; preds = %381, %378
  %384 = phi i8* [ %382, %381 ], [ null, %378 ], !dbg !2234
  call void @llvm.dbg.value(metadata %"class.Halide::Runtime::Internal::(anonymous namespace)::Printer.0"* undef, metadata !1455, metadata !DIExpression()) #10, !dbg !2235
  call void @llvm.dbg.value(metadata i8* getelementptr inbounds ([21 x i8], [21 x i8]* @.str.221, i32 0, i32 0), metadata !1458, metadata !DIExpression()) #10, !dbg !2235
  %385 = tail call i8* @halide_string_to_string(i8* %379, i8* %384, i8* nonnull getelementptr inbounds ([21 x i8], [21 x i8]* @.str.221, i32 0, i32 0)) #8, !dbg !2237
  call void @llvm.dbg.value(metadata %"class.Halide::Runtime::Internal::(anonymous namespace)::Printer.0"* undef, metadata !1455, metadata !DIExpression()) #10, !dbg !2238
  call void @llvm.dbg.value(metadata i8* getelementptr inbounds ([13 x i8], [13 x i8]* @.str.25, i32 0, i32 0), metadata !1458, metadata !DIExpression()) #10, !dbg !2238
  %386 = tail call i8* @halide_string_to_string(i8* %385, i8* %384, i8* nonnull getelementptr inbounds ([13 x i8], [13 x i8]* @.str.25, i32 0, i32 0)) #8, !dbg !2240
  call void @llvm.dbg.value(metadata %"class.Halide::Runtime::Internal::(anonymous namespace)::Printer.0"* undef, metadata !1455, metadata !DIExpression()) #10, !dbg !2241
  call void @llvm.dbg.value(metadata i8* getelementptr inbounds ([2 x i8], [2 x i8]* @.str.5, i32 0, i32 0), metadata !1458, metadata !DIExpression()) #10, !dbg !2241
  %387 = tail call i8* @halide_string_to_string(i8* %386, i8* %384, i8* nonnull getelementptr inbounds ([2 x i8], [2 x i8]* @.str.5, i32 0, i32 0)) #8, !dbg !2243
  call void @llvm.dbg.value(metadata %"class.Halide::Runtime::Internal::(anonymous namespace)::Printer.0"* undef, metadata !1470, metadata !DIExpression()) #10, !dbg !2244
  br i1 %380, label %388, label %389, !dbg !2246

388:                                              ; preds = %383
  tail call void @halide_error(i8* %0, i8* getelementptr inbounds ([35 x i8], [35 x i8]* @.str.219, i32 0, i32 0)) #8, !dbg !2247
  br label %396, !dbg !2248

389:                                              ; preds = %383
  call void @llvm.dbg.value(metadata %"class.Halide::Runtime::Internal::(anonymous namespace)::Printer.0"* undef, metadata !1481, metadata !DIExpression()) #10, !dbg !2249
  %390 = ptrtoint i8* %387 to i32, !dbg !2251
  %391 = ptrtoint i8* %379 to i32, !dbg !2251
  %392 = sub i32 1, %391, !dbg !2251
  %393 = add i32 %392, %390, !dbg !2252
  %394 = sext i32 %393 to i64, !dbg !2253
  %395 = tail call i32 @halide_msan_annotate_memory_is_initialized(i8* %0, i8* nonnull %379, i64 %394) #8, !dbg !2254
  tail call void @halide_error(i8* %0, i8* nonnull %379) #8, !dbg !2255
  br label %396

396:                                              ; preds = %389, %388
  tail call void @free(i8* %379) #8, !dbg !2256
  br label %397, !dbg !2257

397:                                              ; preds = %375, %396
  call void @llvm.dbg.value(metadata i8* %376, metadata !1424, metadata !DIExpression()) #10, !dbg !2222
  store i8* %376, i8** bitcast (i32 (i32)** @_ZN6Halide7Runtime8Internal4Cuda9cuMemFreeE to i8**), align 4, !dbg !2258, !tbaa !1316
  call void @llvm.dbg.value(metadata i8* %0, metadata !2259, metadata !DIExpression()) #10, !dbg !2269
  call void @llvm.dbg.value(metadata i8* getelementptr inbounds ([16 x i8], [16 x i8]* @.str.26, i32 0, i32 0), metadata !2264, metadata !DIExpression()) #10, !dbg !2269
  call void @llvm.dbg.value(metadata i1 false, metadata !2265, metadata !DIExpression(DW_OP_LLVM_convert, 1, DW_ATE_unsigned, DW_OP_LLVM_convert, 8, DW_ATE_unsigned, DW_OP_stack_value)) #10, !dbg !2269
  %398 = tail call i8* @halide_cuda_get_symbol(i8* %0, i8* getelementptr inbounds ([16 x i8], [16 x i8]* @.str.26, i32 0, i32 0)) #8, !dbg !2271
  call void @llvm.dbg.value(metadata i8* %398, metadata !2266, metadata !DIExpression()) #10, !dbg !2269
  %399 = icmp eq i8* %398, null
  br i1 %399, label %400, label %419, !dbg !2272

400:                                              ; preds = %397
  call void @llvm.dbg.value(metadata %"class.Halide::Runtime::Internal::(anonymous namespace)::Printer.0"* undef, metadata !1433, metadata !DIExpression()) #10, !dbg !2274
  call void @llvm.dbg.value(metadata i8* %0, metadata !1436, metadata !DIExpression()) #10, !dbg !2274
  call void @llvm.dbg.value(metadata i8* null, metadata !1437, metadata !DIExpression()) #10, !dbg !2274
  %401 = tail call i8* @malloc(i32 1024) #8, !dbg !2277
  %402 = icmp eq i8* %401, null, !dbg !2278
  br i1 %402, label %405, label %403, !dbg !2279

403:                                              ; preds = %400
  %404 = getelementptr inbounds i8, i8* %401, i32 1023, !dbg !2280
  store i8 0, i8* %404, align 1, !dbg !2281, !tbaa !1065
  br label %405, !dbg !2282

405:                                              ; preds = %403, %400
  %406 = phi i8* [ %404, %403 ], [ null, %400 ], !dbg !2283
  call void @llvm.dbg.value(metadata %"class.Halide::Runtime::Internal::(anonymous namespace)::Printer.0"* undef, metadata !1455, metadata !DIExpression()) #10, !dbg !2284
  call void @llvm.dbg.value(metadata i8* getelementptr inbounds ([21 x i8], [21 x i8]* @.str.221, i32 0, i32 0), metadata !1458, metadata !DIExpression()) #10, !dbg !2284
  %407 = tail call i8* @halide_string_to_string(i8* %401, i8* %406, i8* nonnull getelementptr inbounds ([21 x i8], [21 x i8]* @.str.221, i32 0, i32 0)) #8, !dbg !2286
  call void @llvm.dbg.value(metadata %"class.Halide::Runtime::Internal::(anonymous namespace)::Printer.0"* undef, metadata !1455, metadata !DIExpression()) #10, !dbg !2287
  call void @llvm.dbg.value(metadata i8* getelementptr inbounds ([16 x i8], [16 x i8]* @.str.26, i32 0, i32 0), metadata !1458, metadata !DIExpression()) #10, !dbg !2287
  %408 = tail call i8* @halide_string_to_string(i8* %407, i8* %406, i8* nonnull getelementptr inbounds ([16 x i8], [16 x i8]* @.str.26, i32 0, i32 0)) #8, !dbg !2289
  call void @llvm.dbg.value(metadata %"class.Halide::Runtime::Internal::(anonymous namespace)::Printer.0"* undef, metadata !1455, metadata !DIExpression()) #10, !dbg !2290
  call void @llvm.dbg.value(metadata i8* getelementptr inbounds ([2 x i8], [2 x i8]* @.str.5, i32 0, i32 0), metadata !1458, metadata !DIExpression()) #10, !dbg !2290
  %409 = tail call i8* @halide_string_to_string(i8* %408, i8* %406, i8* nonnull getelementptr inbounds ([2 x i8], [2 x i8]* @.str.5, i32 0, i32 0)) #8, !dbg !2292
  call void @llvm.dbg.value(metadata %"class.Halide::Runtime::Internal::(anonymous namespace)::Printer.0"* undef, metadata !1470, metadata !DIExpression()) #10, !dbg !2293
  br i1 %402, label %410, label %411, !dbg !2295

410:                                              ; preds = %405
  tail call void @halide_error(i8* %0, i8* getelementptr inbounds ([35 x i8], [35 x i8]* @.str.219, i32 0, i32 0)) #8, !dbg !2296
  br label %418, !dbg !2297

411:                                              ; preds = %405
  call void @llvm.dbg.value(metadata %"class.Halide::Runtime::Internal::(anonymous namespace)::Printer.0"* undef, metadata !1481, metadata !DIExpression()) #10, !dbg !2298
  %412 = ptrtoint i8* %409 to i32, !dbg !2300
  %413 = ptrtoint i8* %401 to i32, !dbg !2300
  %414 = sub i32 1, %413, !dbg !2300
  %415 = add i32 %414, %412, !dbg !2301
  %416 = sext i32 %415 to i64, !dbg !2302
  %417 = tail call i32 @halide_msan_annotate_memory_is_initialized(i8* %0, i8* nonnull %401, i64 %416) #8, !dbg !2303
  tail call void @halide_error(i8* %0, i8* nonnull %401) #8, !dbg !2304
  br label %418

418:                                              ; preds = %411, %410
  tail call void @free(i8* %401) #8, !dbg !2305
  br label %419, !dbg !2306

419:                                              ; preds = %397, %418
  call void @llvm.dbg.value(metadata i8* %398, metadata !2266, metadata !DIExpression()) #10, !dbg !2269
  store i8* %398, i8** bitcast (i32 (i32, i8*, i32)** @_ZN6Halide7Runtime8Internal4Cuda12cuMemcpyHtoDE to i8**), align 4, !dbg !2307, !tbaa !1316
  call void @llvm.dbg.value(metadata i8* %0, metadata !2308, metadata !DIExpression()) #10, !dbg !2318
  call void @llvm.dbg.value(metadata i8* getelementptr inbounds ([16 x i8], [16 x i8]* @.str.27, i32 0, i32 0), metadata !2313, metadata !DIExpression()) #10, !dbg !2318
  call void @llvm.dbg.value(metadata i1 false, metadata !2314, metadata !DIExpression(DW_OP_LLVM_convert, 1, DW_ATE_unsigned, DW_OP_LLVM_convert, 8, DW_ATE_unsigned, DW_OP_stack_value)) #10, !dbg !2318
  %420 = tail call i8* @halide_cuda_get_symbol(i8* %0, i8* getelementptr inbounds ([16 x i8], [16 x i8]* @.str.27, i32 0, i32 0)) #8, !dbg !2320
  call void @llvm.dbg.value(metadata i8* %420, metadata !2315, metadata !DIExpression()) #10, !dbg !2318
  %421 = icmp eq i8* %420, null
  br i1 %421, label %422, label %441, !dbg !2321

422:                                              ; preds = %419
  call void @llvm.dbg.value(metadata %"class.Halide::Runtime::Internal::(anonymous namespace)::Printer.0"* undef, metadata !1433, metadata !DIExpression()) #10, !dbg !2323
  call void @llvm.dbg.value(metadata i8* %0, metadata !1436, metadata !DIExpression()) #10, !dbg !2323
  call void @llvm.dbg.value(metadata i8* null, metadata !1437, metadata !DIExpression()) #10, !dbg !2323
  %423 = tail call i8* @malloc(i32 1024) #8, !dbg !2326
  %424 = icmp eq i8* %423, null, !dbg !2327
  br i1 %424, label %427, label %425, !dbg !2328

425:                                              ; preds = %422
  %426 = getelementptr inbounds i8, i8* %423, i32 1023, !dbg !2329
  store i8 0, i8* %426, align 1, !dbg !2330, !tbaa !1065
  br label %427, !dbg !2331

427:                                              ; preds = %425, %422
  %428 = phi i8* [ %426, %425 ], [ null, %422 ], !dbg !2332
  call void @llvm.dbg.value(metadata %"class.Halide::Runtime::Internal::(anonymous namespace)::Printer.0"* undef, metadata !1455, metadata !DIExpression()) #10, !dbg !2333
  call void @llvm.dbg.value(metadata i8* getelementptr inbounds ([21 x i8], [21 x i8]* @.str.221, i32 0, i32 0), metadata !1458, metadata !DIExpression()) #10, !dbg !2333
  %429 = tail call i8* @halide_string_to_string(i8* %423, i8* %428, i8* nonnull getelementptr inbounds ([21 x i8], [21 x i8]* @.str.221, i32 0, i32 0)) #8, !dbg !2335
  call void @llvm.dbg.value(metadata %"class.Halide::Runtime::Internal::(anonymous namespace)::Printer.0"* undef, metadata !1455, metadata !DIExpression()) #10, !dbg !2336
  call void @llvm.dbg.value(metadata i8* getelementptr inbounds ([16 x i8], [16 x i8]* @.str.27, i32 0, i32 0), metadata !1458, metadata !DIExpression()) #10, !dbg !2336
  %430 = tail call i8* @halide_string_to_string(i8* %429, i8* %428, i8* nonnull getelementptr inbounds ([16 x i8], [16 x i8]* @.str.27, i32 0, i32 0)) #8, !dbg !2338
  call void @llvm.dbg.value(metadata %"class.Halide::Runtime::Internal::(anonymous namespace)::Printer.0"* undef, metadata !1455, metadata !DIExpression()) #10, !dbg !2339
  call void @llvm.dbg.value(metadata i8* getelementptr inbounds ([2 x i8], [2 x i8]* @.str.5, i32 0, i32 0), metadata !1458, metadata !DIExpression()) #10, !dbg !2339
  %431 = tail call i8* @halide_string_to_string(i8* %430, i8* %428, i8* nonnull getelementptr inbounds ([2 x i8], [2 x i8]* @.str.5, i32 0, i32 0)) #8, !dbg !2341
  call void @llvm.dbg.value(metadata %"class.Halide::Runtime::Internal::(anonymous namespace)::Printer.0"* undef, metadata !1470, metadata !DIExpression()) #10, !dbg !2342
  br i1 %424, label %432, label %433, !dbg !2344

432:                                              ; preds = %427
  tail call void @halide_error(i8* %0, i8* getelementptr inbounds ([35 x i8], [35 x i8]* @.str.219, i32 0, i32 0)) #8, !dbg !2345
  br label %440, !dbg !2346

433:                                              ; preds = %427
  call void @llvm.dbg.value(metadata %"class.Halide::Runtime::Internal::(anonymous namespace)::Printer.0"* undef, metadata !1481, metadata !DIExpression()) #10, !dbg !2347
  %434 = ptrtoint i8* %431 to i32, !dbg !2349
  %435 = ptrtoint i8* %423 to i32, !dbg !2349
  %436 = sub i32 1, %435, !dbg !2349
  %437 = add i32 %436, %434, !dbg !2350
  %438 = sext i32 %437 to i64, !dbg !2351
  %439 = tail call i32 @halide_msan_annotate_memory_is_initialized(i8* %0, i8* nonnull %423, i64 %438) #8, !dbg !2352
  tail call void @halide_error(i8* %0, i8* nonnull %423) #8, !dbg !2353
  br label %440

440:                                              ; preds = %433, %432
  tail call void @free(i8* %423) #8, !dbg !2354
  br label %441, !dbg !2355

441:                                              ; preds = %419, %440
  call void @llvm.dbg.value(metadata i8* %420, metadata !2315, metadata !DIExpression()) #10, !dbg !2318
  store i8* %420, i8** bitcast (i32 (i8*, i32, i32)** @_ZN6Halide7Runtime8Internal4Cuda12cuMemcpyDtoHE to i8**), align 4, !dbg !2356, !tbaa !1316
  call void @llvm.dbg.value(metadata i8* %0, metadata !2357, metadata !DIExpression()) #10, !dbg !2367
  call void @llvm.dbg.value(metadata i8* getelementptr inbounds ([16 x i8], [16 x i8]* @.str.28, i32 0, i32 0), metadata !2362, metadata !DIExpression()) #10, !dbg !2367
  call void @llvm.dbg.value(metadata i1 false, metadata !2363, metadata !DIExpression(DW_OP_LLVM_convert, 1, DW_ATE_unsigned, DW_OP_LLVM_convert, 8, DW_ATE_unsigned, DW_OP_stack_value)) #10, !dbg !2367
  %442 = tail call i8* @halide_cuda_get_symbol(i8* %0, i8* getelementptr inbounds ([16 x i8], [16 x i8]* @.str.28, i32 0, i32 0)) #8, !dbg !2369
  call void @llvm.dbg.value(metadata i8* %442, metadata !2364, metadata !DIExpression()) #10, !dbg !2367
  %443 = icmp eq i8* %442, null
  br i1 %443, label %444, label %463, !dbg !2370

444:                                              ; preds = %441
  call void @llvm.dbg.value(metadata %"class.Halide::Runtime::Internal::(anonymous namespace)::Printer.0"* undef, metadata !1433, metadata !DIExpression()) #10, !dbg !2372
  call void @llvm.dbg.value(metadata i8* %0, metadata !1436, metadata !DIExpression()) #10, !dbg !2372
  call void @llvm.dbg.value(metadata i8* null, metadata !1437, metadata !DIExpression()) #10, !dbg !2372
  %445 = tail call i8* @malloc(i32 1024) #8, !dbg !2375
  %446 = icmp eq i8* %445, null, !dbg !2376
  br i1 %446, label %449, label %447, !dbg !2377

447:                                              ; preds = %444
  %448 = getelementptr inbounds i8, i8* %445, i32 1023, !dbg !2378
  store i8 0, i8* %448, align 1, !dbg !2379, !tbaa !1065
  br label %449, !dbg !2380

449:                                              ; preds = %447, %444
  %450 = phi i8* [ %448, %447 ], [ null, %444 ], !dbg !2381
  call void @llvm.dbg.value(metadata %"class.Halide::Runtime::Internal::(anonymous namespace)::Printer.0"* undef, metadata !1455, metadata !DIExpression()) #10, !dbg !2382
  call void @llvm.dbg.value(metadata i8* getelementptr inbounds ([21 x i8], [21 x i8]* @.str.221, i32 0, i32 0), metadata !1458, metadata !DIExpression()) #10, !dbg !2382
  %451 = tail call i8* @halide_string_to_string(i8* %445, i8* %450, i8* nonnull getelementptr inbounds ([21 x i8], [21 x i8]* @.str.221, i32 0, i32 0)) #8, !dbg !2384
  call void @llvm.dbg.value(metadata %"class.Halide::Runtime::Internal::(anonymous namespace)::Printer.0"* undef, metadata !1455, metadata !DIExpression()) #10, !dbg !2385
  call void @llvm.dbg.value(metadata i8* getelementptr inbounds ([16 x i8], [16 x i8]* @.str.28, i32 0, i32 0), metadata !1458, metadata !DIExpression()) #10, !dbg !2385
  %452 = tail call i8* @halide_string_to_string(i8* %451, i8* %450, i8* nonnull getelementptr inbounds ([16 x i8], [16 x i8]* @.str.28, i32 0, i32 0)) #8, !dbg !2387
  call void @llvm.dbg.value(metadata %"class.Halide::Runtime::Internal::(anonymous namespace)::Printer.0"* undef, metadata !1455, metadata !DIExpression()) #10, !dbg !2388
  call void @llvm.dbg.value(metadata i8* getelementptr inbounds ([2 x i8], [2 x i8]* @.str.5, i32 0, i32 0), metadata !1458, metadata !DIExpression()) #10, !dbg !2388
  %453 = tail call i8* @halide_string_to_string(i8* %452, i8* %450, i8* nonnull getelementptr inbounds ([2 x i8], [2 x i8]* @.str.5, i32 0, i32 0)) #8, !dbg !2390
  call void @llvm.dbg.value(metadata %"class.Halide::Runtime::Internal::(anonymous namespace)::Printer.0"* undef, metadata !1470, metadata !DIExpression()) #10, !dbg !2391
  br i1 %446, label %454, label %455, !dbg !2393

454:                                              ; preds = %449
  tail call void @halide_error(i8* %0, i8* getelementptr inbounds ([35 x i8], [35 x i8]* @.str.219, i32 0, i32 0)) #8, !dbg !2394
  br label %462, !dbg !2395

455:                                              ; preds = %449
  call void @llvm.dbg.value(metadata %"class.Halide::Runtime::Internal::(anonymous namespace)::Printer.0"* undef, metadata !1481, metadata !DIExpression()) #10, !dbg !2396
  %456 = ptrtoint i8* %453 to i32, !dbg !2398
  %457 = ptrtoint i8* %445 to i32, !dbg !2398
  %458 = sub i32 1, %457, !dbg !2398
  %459 = add i32 %458, %456, !dbg !2399
  %460 = sext i32 %459 to i64, !dbg !2400
  %461 = tail call i32 @halide_msan_annotate_memory_is_initialized(i8* %0, i8* nonnull %445, i64 %460) #8, !dbg !2401
  tail call void @halide_error(i8* %0, i8* nonnull %445) #8, !dbg !2402
  br label %462

462:                                              ; preds = %455, %454
  tail call void @free(i8* %445) #8, !dbg !2403
  br label %463, !dbg !2404

463:                                              ; preds = %441, %462
  call void @llvm.dbg.value(metadata i8* %442, metadata !2364, metadata !DIExpression()) #10, !dbg !2367
  store i8* %442, i8** bitcast (i32 (i32, i32, i32)** @_ZN6Halide7Runtime8Internal4Cuda12cuMemcpyDtoDE to i8**), align 4, !dbg !2405, !tbaa !1316
  call void @llvm.dbg.value(metadata i8* %0, metadata !2406, metadata !DIExpression()) #10, !dbg !2416
  call void @llvm.dbg.value(metadata i8* getelementptr inbounds ([14 x i8], [14 x i8]* @.str.29, i32 0, i32 0), metadata !2411, metadata !DIExpression()) #10, !dbg !2416
  call void @llvm.dbg.value(metadata i1 false, metadata !2412, metadata !DIExpression(DW_OP_LLVM_convert, 1, DW_ATE_unsigned, DW_OP_LLVM_convert, 8, DW_ATE_unsigned, DW_OP_stack_value)) #10, !dbg !2416
  %464 = tail call i8* @halide_cuda_get_symbol(i8* %0, i8* getelementptr inbounds ([14 x i8], [14 x i8]* @.str.29, i32 0, i32 0)) #8, !dbg !2418
  call void @llvm.dbg.value(metadata i8* %464, metadata !2413, metadata !DIExpression()) #10, !dbg !2416
  %465 = icmp eq i8* %464, null
  br i1 %465, label %466, label %485, !dbg !2419

466:                                              ; preds = %463
  call void @llvm.dbg.value(metadata %"class.Halide::Runtime::Internal::(anonymous namespace)::Printer.0"* undef, metadata !1433, metadata !DIExpression()) #10, !dbg !2421
  call void @llvm.dbg.value(metadata i8* %0, metadata !1436, metadata !DIExpression()) #10, !dbg !2421
  call void @llvm.dbg.value(metadata i8* null, metadata !1437, metadata !DIExpression()) #10, !dbg !2421
  %467 = tail call i8* @malloc(i32 1024) #8, !dbg !2424
  %468 = icmp eq i8* %467, null, !dbg !2425
  br i1 %468, label %471, label %469, !dbg !2426

469:                                              ; preds = %466
  %470 = getelementptr inbounds i8, i8* %467, i32 1023, !dbg !2427
  store i8 0, i8* %470, align 1, !dbg !2428, !tbaa !1065
  br label %471, !dbg !2429

471:                                              ; preds = %469, %466
  %472 = phi i8* [ %470, %469 ], [ null, %466 ], !dbg !2430
  call void @llvm.dbg.value(metadata %"class.Halide::Runtime::Internal::(anonymous namespace)::Printer.0"* undef, metadata !1455, metadata !DIExpression()) #10, !dbg !2431
  call void @llvm.dbg.value(metadata i8* getelementptr inbounds ([21 x i8], [21 x i8]* @.str.221, i32 0, i32 0), metadata !1458, metadata !DIExpression()) #10, !dbg !2431
  %473 = tail call i8* @halide_string_to_string(i8* %467, i8* %472, i8* nonnull getelementptr inbounds ([21 x i8], [21 x i8]* @.str.221, i32 0, i32 0)) #8, !dbg !2433
  call void @llvm.dbg.value(metadata %"class.Halide::Runtime::Internal::(anonymous namespace)::Printer.0"* undef, metadata !1455, metadata !DIExpression()) #10, !dbg !2434
  call void @llvm.dbg.value(metadata i8* getelementptr inbounds ([14 x i8], [14 x i8]* @.str.29, i32 0, i32 0), metadata !1458, metadata !DIExpression()) #10, !dbg !2434
  %474 = tail call i8* @halide_string_to_string(i8* %473, i8* %472, i8* nonnull getelementptr inbounds ([14 x i8], [14 x i8]* @.str.29, i32 0, i32 0)) #8, !dbg !2436
  call void @llvm.dbg.value(metadata %"class.Halide::Runtime::Internal::(anonymous namespace)::Printer.0"* undef, metadata !1455, metadata !DIExpression()) #10, !dbg !2437
  call void @llvm.dbg.value(metadata i8* getelementptr inbounds ([2 x i8], [2 x i8]* @.str.5, i32 0, i32 0), metadata !1458, metadata !DIExpression()) #10, !dbg !2437
  %475 = tail call i8* @halide_string_to_string(i8* %474, i8* %472, i8* nonnull getelementptr inbounds ([2 x i8], [2 x i8]* @.str.5, i32 0, i32 0)) #8, !dbg !2439
  call void @llvm.dbg.value(metadata %"class.Halide::Runtime::Internal::(anonymous namespace)::Printer.0"* undef, metadata !1470, metadata !DIExpression()) #10, !dbg !2440
  br i1 %468, label %476, label %477, !dbg !2442

476:                                              ; preds = %471
  tail call void @halide_error(i8* %0, i8* getelementptr inbounds ([35 x i8], [35 x i8]* @.str.219, i32 0, i32 0)) #8, !dbg !2443
  br label %484, !dbg !2444

477:                                              ; preds = %471
  call void @llvm.dbg.value(metadata %"class.Halide::Runtime::Internal::(anonymous namespace)::Printer.0"* undef, metadata !1481, metadata !DIExpression()) #10, !dbg !2445
  %478 = ptrtoint i8* %475 to i32, !dbg !2447
  %479 = ptrtoint i8* %467 to i32, !dbg !2447
  %480 = sub i32 1, %479, !dbg !2447
  %481 = add i32 %480, %478, !dbg !2448
  %482 = sext i32 %481 to i64, !dbg !2449
  %483 = tail call i32 @halide_msan_annotate_memory_is_initialized(i8* %0, i8* nonnull %467, i64 %482) #8, !dbg !2450
  tail call void @halide_error(i8* %0, i8* nonnull %467) #8, !dbg !2451
  br label %484

484:                                              ; preds = %477, %476
  tail call void @free(i8* %467) #8, !dbg !2452
  br label %485, !dbg !2453

485:                                              ; preds = %463, %484
  call void @llvm.dbg.value(metadata i8* %464, metadata !2413, metadata !DIExpression()) #10, !dbg !2416
  store i8* %464, i8** bitcast (i32 (%"struct.Halide::Runtime::Internal::Cuda::CUDA_MEMCPY3D_st"*)** @_ZN6Halide7Runtime8Internal4Cuda10cuMemcpy3DE to i8**), align 4, !dbg !2454, !tbaa !1316
  call void @llvm.dbg.value(metadata i8* %0, metadata !2455, metadata !DIExpression()) #10, !dbg !2465
  call void @llvm.dbg.value(metadata i8* getelementptr inbounds ([15 x i8], [15 x i8]* @.str.30, i32 0, i32 0), metadata !2460, metadata !DIExpression()) #10, !dbg !2465
  call void @llvm.dbg.value(metadata i1 false, metadata !2461, metadata !DIExpression(DW_OP_LLVM_convert, 1, DW_ATE_unsigned, DW_OP_LLVM_convert, 8, DW_ATE_unsigned, DW_OP_stack_value)) #10, !dbg !2465
  %486 = tail call i8* @halide_cuda_get_symbol(i8* %0, i8* getelementptr inbounds ([15 x i8], [15 x i8]* @.str.30, i32 0, i32 0)) #8, !dbg !2467
  call void @llvm.dbg.value(metadata i8* %486, metadata !2462, metadata !DIExpression()) #10, !dbg !2465
  %487 = icmp eq i8* %486, null
  br i1 %487, label %488, label %507, !dbg !2468

488:                                              ; preds = %485
  call void @llvm.dbg.value(metadata %"class.Halide::Runtime::Internal::(anonymous namespace)::Printer.0"* undef, metadata !1433, metadata !DIExpression()) #10, !dbg !2470
  call void @llvm.dbg.value(metadata i8* %0, metadata !1436, metadata !DIExpression()) #10, !dbg !2470
  call void @llvm.dbg.value(metadata i8* null, metadata !1437, metadata !DIExpression()) #10, !dbg !2470
  %489 = tail call i8* @malloc(i32 1024) #8, !dbg !2473
  %490 = icmp eq i8* %489, null, !dbg !2474
  br i1 %490, label %493, label %491, !dbg !2475

491:                                              ; preds = %488
  %492 = getelementptr inbounds i8, i8* %489, i32 1023, !dbg !2476
  store i8 0, i8* %492, align 1, !dbg !2477, !tbaa !1065
  br label %493, !dbg !2478

493:                                              ; preds = %491, %488
  %494 = phi i8* [ %492, %491 ], [ null, %488 ], !dbg !2479
  call void @llvm.dbg.value(metadata %"class.Halide::Runtime::Internal::(anonymous namespace)::Printer.0"* undef, metadata !1455, metadata !DIExpression()) #10, !dbg !2480
  call void @llvm.dbg.value(metadata i8* getelementptr inbounds ([21 x i8], [21 x i8]* @.str.221, i32 0, i32 0), metadata !1458, metadata !DIExpression()) #10, !dbg !2480
  %495 = tail call i8* @halide_string_to_string(i8* %489, i8* %494, i8* nonnull getelementptr inbounds ([21 x i8], [21 x i8]* @.str.221, i32 0, i32 0)) #8, !dbg !2482
  call void @llvm.dbg.value(metadata %"class.Halide::Runtime::Internal::(anonymous namespace)::Printer.0"* undef, metadata !1455, metadata !DIExpression()) #10, !dbg !2483
  call void @llvm.dbg.value(metadata i8* getelementptr inbounds ([15 x i8], [15 x i8]* @.str.30, i32 0, i32 0), metadata !1458, metadata !DIExpression()) #10, !dbg !2483
  %496 = tail call i8* @halide_string_to_string(i8* %495, i8* %494, i8* nonnull getelementptr inbounds ([15 x i8], [15 x i8]* @.str.30, i32 0, i32 0)) #8, !dbg !2485
  call void @llvm.dbg.value(metadata %"class.Halide::Runtime::Internal::(anonymous namespace)::Printer.0"* undef, metadata !1455, metadata !DIExpression()) #10, !dbg !2486
  call void @llvm.dbg.value(metadata i8* getelementptr inbounds ([2 x i8], [2 x i8]* @.str.5, i32 0, i32 0), metadata !1458, metadata !DIExpression()) #10, !dbg !2486
  %497 = tail call i8* @halide_string_to_string(i8* %496, i8* %494, i8* nonnull getelementptr inbounds ([2 x i8], [2 x i8]* @.str.5, i32 0, i32 0)) #8, !dbg !2488
  call void @llvm.dbg.value(metadata %"class.Halide::Runtime::Internal::(anonymous namespace)::Printer.0"* undef, metadata !1470, metadata !DIExpression()) #10, !dbg !2489
  br i1 %490, label %498, label %499, !dbg !2491

498:                                              ; preds = %493
  tail call void @halide_error(i8* %0, i8* getelementptr inbounds ([35 x i8], [35 x i8]* @.str.219, i32 0, i32 0)) #8, !dbg !2492
  br label %506, !dbg !2493

499:                                              ; preds = %493
  call void @llvm.dbg.value(metadata %"class.Halide::Runtime::Internal::(anonymous namespace)::Printer.0"* undef, metadata !1481, metadata !DIExpression()) #10, !dbg !2494
  %500 = ptrtoint i8* %497 to i32, !dbg !2496
  %501 = ptrtoint i8* %489 to i32, !dbg !2496
  %502 = sub i32 1, %501, !dbg !2496
  %503 = add i32 %502, %500, !dbg !2497
  %504 = sext i32 %503 to i64, !dbg !2498
  %505 = tail call i32 @halide_msan_annotate_memory_is_initialized(i8* %0, i8* nonnull %489, i64 %504) #8, !dbg !2499
  tail call void @halide_error(i8* %0, i8* nonnull %489) #8, !dbg !2500
  br label %506

506:                                              ; preds = %499, %498
  tail call void @free(i8* %489) #8, !dbg !2501
  br label %507, !dbg !2502

507:                                              ; preds = %485, %506
  call void @llvm.dbg.value(metadata i8* %486, metadata !2462, metadata !DIExpression()) #10, !dbg !2465
  store i8* %486, i8** bitcast (i32 (%"struct.Halide::Runtime::Internal::Cuda::CUfunc_st"*, i32, i32, i32, i32, i32, i32, i32, %"struct.Halide::Runtime::Internal::Cuda::CUstream_st"*, i8**, i8**)** @_ZN6Halide7Runtime8Internal4Cuda14cuLaunchKernelE to i8**), align 4, !dbg !2503, !tbaa !1316
  call void @llvm.dbg.value(metadata i8* %0, metadata !1842, metadata !DIExpression()) #10, !dbg !2504
  call void @llvm.dbg.value(metadata i8* getelementptr inbounds ([17 x i8], [17 x i8]* @.str.31, i32 0, i32 0), metadata !1847, metadata !DIExpression()) #10, !dbg !2504
  call void @llvm.dbg.value(metadata i1 false, metadata !1848, metadata !DIExpression(DW_OP_LLVM_convert, 1, DW_ATE_unsigned, DW_OP_LLVM_convert, 8, DW_ATE_unsigned, DW_OP_stack_value)) #10, !dbg !2504
  %508 = tail call i8* @halide_cuda_get_symbol(i8* %0, i8* getelementptr inbounds ([17 x i8], [17 x i8]* @.str.31, i32 0, i32 0)) #8, !dbg !2506
  call void @llvm.dbg.value(metadata i8* %508, metadata !1849, metadata !DIExpression()) #10, !dbg !2504
  %509 = icmp eq i8* %508, null
  br i1 %509, label %510, label %529, !dbg !2507

510:                                              ; preds = %507
  call void @llvm.dbg.value(metadata %"class.Halide::Runtime::Internal::(anonymous namespace)::Printer.0"* undef, metadata !1433, metadata !DIExpression()) #10, !dbg !2508
  call void @llvm.dbg.value(metadata i8* %0, metadata !1436, metadata !DIExpression()) #10, !dbg !2508
  call void @llvm.dbg.value(metadata i8* null, metadata !1437, metadata !DIExpression()) #10, !dbg !2508
  %511 = tail call i8* @malloc(i32 1024) #8, !dbg !2510
  %512 = icmp eq i8* %511, null, !dbg !2511
  br i1 %512, label %515, label %513, !dbg !2512

513:                                              ; preds = %510
  %514 = getelementptr inbounds i8, i8* %511, i32 1023, !dbg !2513
  store i8 0, i8* %514, align 1, !dbg !2514, !tbaa !1065
  br label %515, !dbg !2515

515:                                              ; preds = %513, %510
  %516 = phi i8* [ %514, %513 ], [ null, %510 ], !dbg !2516
  call void @llvm.dbg.value(metadata %"class.Halide::Runtime::Internal::(anonymous namespace)::Printer.0"* undef, metadata !1455, metadata !DIExpression()) #10, !dbg !2517
  call void @llvm.dbg.value(metadata i8* getelementptr inbounds ([21 x i8], [21 x i8]* @.str.221, i32 0, i32 0), metadata !1458, metadata !DIExpression()) #10, !dbg !2517
  %517 = tail call i8* @halide_string_to_string(i8* %511, i8* %516, i8* nonnull getelementptr inbounds ([21 x i8], [21 x i8]* @.str.221, i32 0, i32 0)) #8, !dbg !2519
  call void @llvm.dbg.value(metadata %"class.Halide::Runtime::Internal::(anonymous namespace)::Printer.0"* undef, metadata !1455, metadata !DIExpression()) #10, !dbg !2520
  call void @llvm.dbg.value(metadata i8* getelementptr inbounds ([17 x i8], [17 x i8]* @.str.31, i32 0, i32 0), metadata !1458, metadata !DIExpression()) #10, !dbg !2520
  %518 = tail call i8* @halide_string_to_string(i8* %517, i8* %516, i8* nonnull getelementptr inbounds ([17 x i8], [17 x i8]* @.str.31, i32 0, i32 0)) #8, !dbg !2522
  call void @llvm.dbg.value(metadata %"class.Halide::Runtime::Internal::(anonymous namespace)::Printer.0"* undef, metadata !1455, metadata !DIExpression()) #10, !dbg !2523
  call void @llvm.dbg.value(metadata i8* getelementptr inbounds ([2 x i8], [2 x i8]* @.str.5, i32 0, i32 0), metadata !1458, metadata !DIExpression()) #10, !dbg !2523
  %519 = tail call i8* @halide_string_to_string(i8* %518, i8* %516, i8* nonnull getelementptr inbounds ([2 x i8], [2 x i8]* @.str.5, i32 0, i32 0)) #8, !dbg !2525
  call void @llvm.dbg.value(metadata %"class.Halide::Runtime::Internal::(anonymous namespace)::Printer.0"* undef, metadata !1470, metadata !DIExpression()) #10, !dbg !2526
  br i1 %512, label %520, label %521, !dbg !2528

520:                                              ; preds = %515
  tail call void @halide_error(i8* %0, i8* getelementptr inbounds ([35 x i8], [35 x i8]* @.str.219, i32 0, i32 0)) #8, !dbg !2529
  br label %528, !dbg !2530

521:                                              ; preds = %515
  call void @llvm.dbg.value(metadata %"class.Halide::Runtime::Internal::(anonymous namespace)::Printer.0"* undef, metadata !1481, metadata !DIExpression()) #10, !dbg !2531
  %522 = ptrtoint i8* %519 to i32, !dbg !2533
  %523 = ptrtoint i8* %511 to i32, !dbg !2533
  %524 = sub i32 1, %523, !dbg !2533
  %525 = add i32 %524, %522, !dbg !2534
  %526 = sext i32 %525 to i64, !dbg !2535
  %527 = tail call i32 @halide_msan_annotate_memory_is_initialized(i8* %0, i8* nonnull %511, i64 %526) #8, !dbg !2536
  tail call void @halide_error(i8* %0, i8* nonnull %511) #8, !dbg !2537
  br label %528

528:                                              ; preds = %521, %520
  tail call void @free(i8* %511) #8, !dbg !2538
  br label %529, !dbg !2539

529:                                              ; preds = %507, %528
  call void @llvm.dbg.value(metadata i8* %508, metadata !1849, metadata !DIExpression()) #10, !dbg !2504
  store i8* %508, i8** bitcast (i32 ()** @_ZN6Halide7Runtime8Internal4Cuda16cuCtxSynchronizeE to i8**), align 4, !dbg !2540, !tbaa !1316
  call void @llvm.dbg.value(metadata i8* %0, metadata !1793, metadata !DIExpression()) #10, !dbg !2541
  call void @llvm.dbg.value(metadata i8* getelementptr inbounds ([20 x i8], [20 x i8]* @.str.32, i32 0, i32 0), metadata !1798, metadata !DIExpression()) #10, !dbg !2541
  call void @llvm.dbg.value(metadata i1 false, metadata !1799, metadata !DIExpression(DW_OP_LLVM_convert, 1, DW_ATE_unsigned, DW_OP_LLVM_convert, 8, DW_ATE_unsigned, DW_OP_stack_value)) #10, !dbg !2541
  %530 = tail call i8* @halide_cuda_get_symbol(i8* %0, i8* getelementptr inbounds ([20 x i8], [20 x i8]* @.str.32, i32 0, i32 0)) #8, !dbg !2543
  call void @llvm.dbg.value(metadata i8* %530, metadata !1800, metadata !DIExpression()) #10, !dbg !2541
  %531 = icmp eq i8* %530, null
  br i1 %531, label %532, label %551, !dbg !2544

532:                                              ; preds = %529
  call void @llvm.dbg.value(metadata %"class.Halide::Runtime::Internal::(anonymous namespace)::Printer.0"* undef, metadata !1433, metadata !DIExpression()) #10, !dbg !2545
  call void @llvm.dbg.value(metadata i8* %0, metadata !1436, metadata !DIExpression()) #10, !dbg !2545
  call void @llvm.dbg.value(metadata i8* null, metadata !1437, metadata !DIExpression()) #10, !dbg !2545
  %533 = tail call i8* @malloc(i32 1024) #8, !dbg !2547
  %534 = icmp eq i8* %533, null, !dbg !2548
  br i1 %534, label %537, label %535, !dbg !2549

535:                                              ; preds = %532
  %536 = getelementptr inbounds i8, i8* %533, i32 1023, !dbg !2550
  store i8 0, i8* %536, align 1, !dbg !2551, !tbaa !1065
  br label %537, !dbg !2552

537:                                              ; preds = %535, %532
  %538 = phi i8* [ %536, %535 ], [ null, %532 ], !dbg !2553
  call void @llvm.dbg.value(metadata %"class.Halide::Runtime::Internal::(anonymous namespace)::Printer.0"* undef, metadata !1455, metadata !DIExpression()) #10, !dbg !2554
  call void @llvm.dbg.value(metadata i8* getelementptr inbounds ([21 x i8], [21 x i8]* @.str.221, i32 0, i32 0), metadata !1458, metadata !DIExpression()) #10, !dbg !2554
  %539 = tail call i8* @halide_string_to_string(i8* %533, i8* %538, i8* nonnull getelementptr inbounds ([21 x i8], [21 x i8]* @.str.221, i32 0, i32 0)) #8, !dbg !2556
  call void @llvm.dbg.value(metadata %"class.Halide::Runtime::Internal::(anonymous namespace)::Printer.0"* undef, metadata !1455, metadata !DIExpression()) #10, !dbg !2557
  call void @llvm.dbg.value(metadata i8* getelementptr inbounds ([20 x i8], [20 x i8]* @.str.32, i32 0, i32 0), metadata !1458, metadata !DIExpression()) #10, !dbg !2557
  %540 = tail call i8* @halide_string_to_string(i8* %539, i8* %538, i8* nonnull getelementptr inbounds ([20 x i8], [20 x i8]* @.str.32, i32 0, i32 0)) #8, !dbg !2559
  call void @llvm.dbg.value(metadata %"class.Halide::Runtime::Internal::(anonymous namespace)::Printer.0"* undef, metadata !1455, metadata !DIExpression()) #10, !dbg !2560
  call void @llvm.dbg.value(metadata i8* getelementptr inbounds ([2 x i8], [2 x i8]* @.str.5, i32 0, i32 0), metadata !1458, metadata !DIExpression()) #10, !dbg !2560
  %541 = tail call i8* @halide_string_to_string(i8* %540, i8* %538, i8* nonnull getelementptr inbounds ([2 x i8], [2 x i8]* @.str.5, i32 0, i32 0)) #8, !dbg !2562
  call void @llvm.dbg.value(metadata %"class.Halide::Runtime::Internal::(anonymous namespace)::Printer.0"* undef, metadata !1470, metadata !DIExpression()) #10, !dbg !2563
  br i1 %534, label %542, label %543, !dbg !2565

542:                                              ; preds = %537
  tail call void @halide_error(i8* %0, i8* getelementptr inbounds ([35 x i8], [35 x i8]* @.str.219, i32 0, i32 0)) #8, !dbg !2566
  br label %550, !dbg !2567

543:                                              ; preds = %537
  call void @llvm.dbg.value(metadata %"class.Halide::Runtime::Internal::(anonymous namespace)::Printer.0"* undef, metadata !1481, metadata !DIExpression()) #10, !dbg !2568
  %544 = ptrtoint i8* %541 to i32, !dbg !2570
  %545 = ptrtoint i8* %533 to i32, !dbg !2570
  %546 = sub i32 1, %545, !dbg !2570
  %547 = add i32 %546, %544, !dbg !2571
  %548 = sext i32 %547 to i64, !dbg !2572
  %549 = tail call i32 @halide_msan_annotate_memory_is_initialized(i8* %0, i8* nonnull %533, i64 %548) #8, !dbg !2573
  tail call void @halide_error(i8* %0, i8* nonnull %533) #8, !dbg !2574
  br label %550

550:                                              ; preds = %543, %542
  tail call void @free(i8* %533) #8, !dbg !2575
  br label %551, !dbg !2576

551:                                              ; preds = %529, %550
  call void @llvm.dbg.value(metadata i8* %530, metadata !1800, metadata !DIExpression()) #10, !dbg !2541
  store i8* %530, i8** bitcast (i32 (%"struct.Halide::Runtime::Internal::Cuda::CUctx_st"*)** @_ZN6Halide7Runtime8Internal4Cuda16cuCtxPushCurrentE to i8**), align 4, !dbg !2577, !tbaa !1316
  call void @llvm.dbg.value(metadata i8* %0, metadata !2578, metadata !DIExpression()) #10, !dbg !2588
  call void @llvm.dbg.value(metadata i8* getelementptr inbounds ([19 x i8], [19 x i8]* @.str.33, i32 0, i32 0), metadata !2583, metadata !DIExpression()) #10, !dbg !2588
  call void @llvm.dbg.value(metadata i1 false, metadata !2584, metadata !DIExpression(DW_OP_LLVM_convert, 1, DW_ATE_unsigned, DW_OP_LLVM_convert, 8, DW_ATE_unsigned, DW_OP_stack_value)) #10, !dbg !2588
  %552 = tail call i8* @halide_cuda_get_symbol(i8* %0, i8* getelementptr inbounds ([19 x i8], [19 x i8]* @.str.33, i32 0, i32 0)) #8, !dbg !2590
  call void @llvm.dbg.value(metadata i8* %552, metadata !2585, metadata !DIExpression()) #10, !dbg !2588
  %553 = icmp eq i8* %552, null
  br i1 %553, label %554, label %573, !dbg !2591

554:                                              ; preds = %551
  call void @llvm.dbg.value(metadata %"class.Halide::Runtime::Internal::(anonymous namespace)::Printer.0"* undef, metadata !1433, metadata !DIExpression()) #10, !dbg !2593
  call void @llvm.dbg.value(metadata i8* %0, metadata !1436, metadata !DIExpression()) #10, !dbg !2593
  call void @llvm.dbg.value(metadata i8* null, metadata !1437, metadata !DIExpression()) #10, !dbg !2593
  %555 = tail call i8* @malloc(i32 1024) #8, !dbg !2596
  %556 = icmp eq i8* %555, null, !dbg !2597
  br i1 %556, label %559, label %557, !dbg !2598

557:                                              ; preds = %554
  %558 = getelementptr inbounds i8, i8* %555, i32 1023, !dbg !2599
  store i8 0, i8* %558, align 1, !dbg !2600, !tbaa !1065
  br label %559, !dbg !2601

559:                                              ; preds = %557, %554
  %560 = phi i8* [ %558, %557 ], [ null, %554 ], !dbg !2602
  call void @llvm.dbg.value(metadata %"class.Halide::Runtime::Internal::(anonymous namespace)::Printer.0"* undef, metadata !1455, metadata !DIExpression()) #10, !dbg !2603
  call void @llvm.dbg.value(metadata i8* getelementptr inbounds ([21 x i8], [21 x i8]* @.str.221, i32 0, i32 0), metadata !1458, metadata !DIExpression()) #10, !dbg !2603
  %561 = tail call i8* @halide_string_to_string(i8* %555, i8* %560, i8* nonnull getelementptr inbounds ([21 x i8], [21 x i8]* @.str.221, i32 0, i32 0)) #8, !dbg !2605
  call void @llvm.dbg.value(metadata %"class.Halide::Runtime::Internal::(anonymous namespace)::Printer.0"* undef, metadata !1455, metadata !DIExpression()) #10, !dbg !2606
  call void @llvm.dbg.value(metadata i8* getelementptr inbounds ([19 x i8], [19 x i8]* @.str.33, i32 0, i32 0), metadata !1458, metadata !DIExpression()) #10, !dbg !2606
  %562 = tail call i8* @halide_string_to_string(i8* %561, i8* %560, i8* nonnull getelementptr inbounds ([19 x i8], [19 x i8]* @.str.33, i32 0, i32 0)) #8, !dbg !2608
  call void @llvm.dbg.value(metadata %"class.Halide::Runtime::Internal::(anonymous namespace)::Printer.0"* undef, metadata !1455, metadata !DIExpression()) #10, !dbg !2609
  call void @llvm.dbg.value(metadata i8* getelementptr inbounds ([2 x i8], [2 x i8]* @.str.5, i32 0, i32 0), metadata !1458, metadata !DIExpression()) #10, !dbg !2609
  %563 = tail call i8* @halide_string_to_string(i8* %562, i8* %560, i8* nonnull getelementptr inbounds ([2 x i8], [2 x i8]* @.str.5, i32 0, i32 0)) #8, !dbg !2611
  call void @llvm.dbg.value(metadata %"class.Halide::Runtime::Internal::(anonymous namespace)::Printer.0"* undef, metadata !1470, metadata !DIExpression()) #10, !dbg !2612
  br i1 %556, label %564, label %565, !dbg !2614

564:                                              ; preds = %559
  tail call void @halide_error(i8* %0, i8* getelementptr inbounds ([35 x i8], [35 x i8]* @.str.219, i32 0, i32 0)) #8, !dbg !2615
  br label %572, !dbg !2616

565:                                              ; preds = %559
  call void @llvm.dbg.value(metadata %"class.Halide::Runtime::Internal::(anonymous namespace)::Printer.0"* undef, metadata !1481, metadata !DIExpression()) #10, !dbg !2617
  %566 = ptrtoint i8* %563 to i32, !dbg !2619
  %567 = ptrtoint i8* %555 to i32, !dbg !2619
  %568 = sub i32 1, %567, !dbg !2619
  %569 = add i32 %568, %566, !dbg !2620
  %570 = sext i32 %569 to i64, !dbg !2621
  %571 = tail call i32 @halide_msan_annotate_memory_is_initialized(i8* %0, i8* nonnull %555, i64 %570) #8, !dbg !2622
  tail call void @halide_error(i8* %0, i8* nonnull %555) #8, !dbg !2623
  br label %572

572:                                              ; preds = %565, %564
  tail call void @free(i8* %555) #8, !dbg !2624
  br label %573, !dbg !2625

573:                                              ; preds = %551, %572
  call void @llvm.dbg.value(metadata i8* %552, metadata !2585, metadata !DIExpression()) #10, !dbg !2588
  store i8* %552, i8** bitcast (i32 (%"struct.Halide::Runtime::Internal::Cuda::CUctx_st"**)** @_ZN6Halide7Runtime8Internal4Cuda15cuCtxPopCurrentE to i8**), align 4, !dbg !2626, !tbaa !1316
  call void @llvm.dbg.value(metadata i8* %0, metadata !2627, metadata !DIExpression()) #10, !dbg !2637
  call void @llvm.dbg.value(metadata i8* getelementptr inbounds ([22 x i8], [22 x i8]* @.str.34, i32 0, i32 0), metadata !2632, metadata !DIExpression()) #10, !dbg !2637
  call void @llvm.dbg.value(metadata i1 false, metadata !2633, metadata !DIExpression(DW_OP_LLVM_convert, 1, DW_ATE_unsigned, DW_OP_LLVM_convert, 8, DW_ATE_unsigned, DW_OP_stack_value)) #10, !dbg !2637
  %574 = tail call i8* @halide_cuda_get_symbol(i8* %0, i8* getelementptr inbounds ([22 x i8], [22 x i8]* @.str.34, i32 0, i32 0)) #8, !dbg !2639
  call void @llvm.dbg.value(metadata i8* %574, metadata !2634, metadata !DIExpression()) #10, !dbg !2637
  %575 = icmp eq i8* %574, null
  br i1 %575, label %576, label %595, !dbg !2640

576:                                              ; preds = %573
  call void @llvm.dbg.value(metadata %"class.Halide::Runtime::Internal::(anonymous namespace)::Printer.0"* undef, metadata !1433, metadata !DIExpression()) #10, !dbg !2642
  call void @llvm.dbg.value(metadata i8* %0, metadata !1436, metadata !DIExpression()) #10, !dbg !2642
  call void @llvm.dbg.value(metadata i8* null, metadata !1437, metadata !DIExpression()) #10, !dbg !2642
  %577 = tail call i8* @malloc(i32 1024) #8, !dbg !2645
  %578 = icmp eq i8* %577, null, !dbg !2646
  br i1 %578, label %581, label %579, !dbg !2647

579:                                              ; preds = %576
  %580 = getelementptr inbounds i8, i8* %577, i32 1023, !dbg !2648
  store i8 0, i8* %580, align 1, !dbg !2649, !tbaa !1065
  br label %581, !dbg !2650

581:                                              ; preds = %579, %576
  %582 = phi i8* [ %580, %579 ], [ null, %576 ], !dbg !2651
  call void @llvm.dbg.value(metadata %"class.Halide::Runtime::Internal::(anonymous namespace)::Printer.0"* undef, metadata !1455, metadata !DIExpression()) #10, !dbg !2652
  call void @llvm.dbg.value(metadata i8* getelementptr inbounds ([21 x i8], [21 x i8]* @.str.221, i32 0, i32 0), metadata !1458, metadata !DIExpression()) #10, !dbg !2652
  %583 = tail call i8* @halide_string_to_string(i8* %577, i8* %582, i8* nonnull getelementptr inbounds ([21 x i8], [21 x i8]* @.str.221, i32 0, i32 0)) #8, !dbg !2654
  call void @llvm.dbg.value(metadata %"class.Halide::Runtime::Internal::(anonymous namespace)::Printer.0"* undef, metadata !1455, metadata !DIExpression()) #10, !dbg !2655
  call void @llvm.dbg.value(metadata i8* getelementptr inbounds ([22 x i8], [22 x i8]* @.str.34, i32 0, i32 0), metadata !1458, metadata !DIExpression()) #10, !dbg !2655
  %584 = tail call i8* @halide_string_to_string(i8* %583, i8* %582, i8* nonnull getelementptr inbounds ([22 x i8], [22 x i8]* @.str.34, i32 0, i32 0)) #8, !dbg !2657
  call void @llvm.dbg.value(metadata %"class.Halide::Runtime::Internal::(anonymous namespace)::Printer.0"* undef, metadata !1455, metadata !DIExpression()) #10, !dbg !2658
  call void @llvm.dbg.value(metadata i8* getelementptr inbounds ([2 x i8], [2 x i8]* @.str.5, i32 0, i32 0), metadata !1458, metadata !DIExpression()) #10, !dbg !2658
  %585 = tail call i8* @halide_string_to_string(i8* %584, i8* %582, i8* nonnull getelementptr inbounds ([2 x i8], [2 x i8]* @.str.5, i32 0, i32 0)) #8, !dbg !2660
  call void @llvm.dbg.value(metadata %"class.Halide::Runtime::Internal::(anonymous namespace)::Printer.0"* undef, metadata !1470, metadata !DIExpression()) #10, !dbg !2661
  br i1 %578, label %586, label %587, !dbg !2663

586:                                              ; preds = %581
  tail call void @halide_error(i8* %0, i8* getelementptr inbounds ([35 x i8], [35 x i8]* @.str.219, i32 0, i32 0)) #8, !dbg !2664
  br label %594, !dbg !2665

587:                                              ; preds = %581
  call void @llvm.dbg.value(metadata %"class.Halide::Runtime::Internal::(anonymous namespace)::Printer.0"* undef, metadata !1481, metadata !DIExpression()) #10, !dbg !2666
  %588 = ptrtoint i8* %585 to i32, !dbg !2668
  %589 = ptrtoint i8* %577 to i32, !dbg !2668
  %590 = sub i32 1, %589, !dbg !2668
  %591 = add i32 %590, %588, !dbg !2669
  %592 = sext i32 %591 to i64, !dbg !2670
  %593 = tail call i32 @halide_msan_annotate_memory_is_initialized(i8* %0, i8* nonnull %577, i64 %592) #8, !dbg !2671
  tail call void @halide_error(i8* %0, i8* nonnull %577) #8, !dbg !2672
  br label %594

594:                                              ; preds = %587, %586
  tail call void @free(i8* %577) #8, !dbg !2673
  br label %595, !dbg !2674

595:                                              ; preds = %573, %594
  call void @llvm.dbg.value(metadata i8* %574, metadata !2634, metadata !DIExpression()) #10, !dbg !2637
  store i8* %574, i8** bitcast (i32 (i8*, i32, i32)** @_ZN6Halide7Runtime8Internal4Cuda21cuPointerGetAttributeE to i8**), align 4, !dbg !2675, !tbaa !1316
  call void @llvm.dbg.value(metadata i8* %0, metadata !2676, metadata !DIExpression()) #10, !dbg !2686
  call void @llvm.dbg.value(metadata i8* getelementptr inbounds ([20 x i8], [20 x i8]* @.str.35, i32 0, i32 0), metadata !2681, metadata !DIExpression()) #10, !dbg !2686
  call void @llvm.dbg.value(metadata i1 true, metadata !2682, metadata !DIExpression(DW_OP_LLVM_convert, 1, DW_ATE_unsigned, DW_OP_LLVM_convert, 8, DW_ATE_unsigned, DW_OP_stack_value)) #10, !dbg !2686
  %596 = tail call i8* @halide_cuda_get_symbol(i8* %0, i8* getelementptr inbounds ([20 x i8], [20 x i8]* @.str.35, i32 0, i32 0)) #8, !dbg !2688
  call void @llvm.dbg.value(metadata i8* %596, metadata !2683, metadata !DIExpression()) #10, !dbg !2686
  store i8* %596, i8** bitcast (i32 (%"struct.Halide::Runtime::Internal::Cuda::CUstream_st"*)** @_ZN6Halide7Runtime8Internal4Cuda19cuStreamSynchronizeE to i8**), align 4, !dbg !2689, !tbaa !1316
  ret void, !dbg !2690
}

declare !dbg !2692 extern_weak dso_local void @halide_print(i8*, i8*) local_unnamed_addr #3

declare !dbg !2695 dso_local void @abort() local_unnamed_addr #3

; Function Attrs: nounwind
define weak dso_local void @_ZN6Halide7Runtime8Internal4Cuda19ensure_libcuda_initEPv(i8* %0) local_unnamed_addr #4 !dbg !2696 {
  call void @llvm.dbg.value(metadata i8* %0, metadata !2698, metadata !DIExpression()), !dbg !2700
  call void @llvm.dbg.value(metadata %"struct.Halide::Runtime::Internal::ScopedSpinLock"* undef, metadata !2701, metadata !DIExpression()), !dbg !2706
  call void @llvm.dbg.value(metadata i8* @_ZN6Halide7Runtime8Internal4Cuda13lib_cuda_lockE, metadata !2704, metadata !DIExpression()), !dbg !2706
  call void @llvm.dbg.value(metadata i8* @_ZN6Halide7Runtime8Internal4Cuda13lib_cuda_lockE, metadata !2699, metadata !DIExpression()), !dbg !2700
  br label %2, !dbg !2708

2:                                                ; preds = %2, %1
  %3 = atomicrmw volatile xchg i8* @_ZN6Halide7Runtime8Internal4Cuda13lib_cuda_lockE, i8 1 acquire, !dbg !2710
  %4 = icmp eq i8 %3, 0, !dbg !2710
  br i1 %4, label %5, label %2, !dbg !2708, !llvm.loop !2711

5:                                                ; preds = %2
  %6 = load i32 (i32)*, i32 (i32)** @_ZN6Halide7Runtime8Internal4Cuda6cuInitE, align 4, !dbg !2713, !tbaa !1316
  %7 = icmp eq i32 (i32)* %6, null, !dbg !2713
  br i1 %7, label %8, label %9, !dbg !2715

8:                                                ; preds = %5
  tail call void @_ZN6Halide7Runtime8Internal4Cuda12load_libcudaEPv(i8* %0) #9, !dbg !2716
  br label %9, !dbg !2718

9:                                                ; preds = %8, %5
  call void @llvm.dbg.value(metadata %"struct.Halide::Runtime::Internal::ScopedSpinLock"* undef, metadata !2719, metadata !DIExpression()), !dbg !2722
  store atomic volatile i8 0, i8* @_ZN6Halide7Runtime8Internal4Cuda13lib_cuda_lockE release, align 1, !dbg !2724
  ret void, !dbg !2726
}

; Function Attrs: nounwind
define weak dso_local i32 @halide_cuda_acquire_context(i8* %0, %"struct.Halide::Runtime::Internal::Cuda::CUctx_st"** %1, i1 zeroext %2) local_unnamed_addr #4 !dbg !2727 {
  %4 = alloca %"struct.Halide::Runtime::Internal::Cuda::CUctx_st"*, align 4
  call void @llvm.dbg.value(metadata i8* %0, metadata !2731, metadata !DIExpression()), !dbg !2754
  call void @llvm.dbg.value(metadata %"struct.Halide::Runtime::Internal::Cuda::CUctx_st"** %1, metadata !2732, metadata !DIExpression()), !dbg !2754
  call void @llvm.dbg.value(metadata i1 %2, metadata !2733, metadata !DIExpression(DW_OP_LLVM_convert, 1, DW_ATE_unsigned, DW_OP_LLVM_convert, 8, DW_ATE_unsigned, DW_OP_stack_value)), !dbg !2754
  %5 = icmp eq %"struct.Halide::Runtime::Internal::Cuda::CUctx_st"** %1, null, !dbg !2755
  br i1 %5, label %6, label %7, !dbg !2758

6:                                                ; preds = %3
  tail call void @halide_print(i8* %0, i8* getelementptr inbounds ([106 x i8], [106 x i8]* @.str.36, i32 0, i32 0)) #8, !dbg !2759
  tail call void @abort() #8, !dbg !2759
  br label %7, !dbg !2759

7:                                                ; preds = %6, %3
  %8 = bitcast %"struct.Halide::Runtime::Internal::Cuda::CUctx_st"** %4 to i8*, !dbg !2761
  call void @llvm.lifetime.start.p0i8(i64 4, i8* nonnull %8) #10, !dbg !2761
  %9 = load %"struct.Halide::Runtime::Internal::Cuda::CUctx_st"*, %"struct.Halide::Runtime::Internal::Cuda::CUctx_st"** @_ZN6Halide7Runtime8Internal4Cuda7contextE, align 4, !dbg !2762, !tbaa !1316
  call void @llvm.dbg.value(metadata %"struct.Halide::Runtime::Internal::Cuda::CUctx_st"* %9, metadata !2734, metadata !DIExpression()), !dbg !2754
  %10 = icmp eq %"struct.Halide::Runtime::Internal::Cuda::CUctx_st"* %9, null, !dbg !2763
  br i1 %10, label %11, label %25, !dbg !2764

11:                                               ; preds = %7
  br i1 %2, label %13, label %12, !dbg !2765

12:                                               ; preds = %11
  store %"struct.Halide::Runtime::Internal::Cuda::CUctx_st"* null, %"struct.Halide::Runtime::Internal::Cuda::CUctx_st"** %1, align 4, !dbg !2766, !tbaa !1316
  br label %27, !dbg !2769

13:                                               ; preds = %11
  call void @llvm.dbg.value(metadata %"struct.Halide::Runtime::Internal::ScopedMutexLock"* undef, metadata !2770, metadata !DIExpression()) #10, !dbg !2775
  call void @llvm.dbg.value(metadata %struct.halide_mutex* @_ZN6Halide7Runtime8Internal4Cuda12context_lockE, metadata !2773, metadata !DIExpression()) #10, !dbg !2775
  call void @llvm.dbg.value(metadata %struct.halide_mutex* @_ZN6Halide7Runtime8Internal4Cuda12context_lockE, metadata !2735, metadata !DIExpression()), !dbg !2777
  tail call void @halide_mutex_lock(%struct.halide_mutex* nonnull @_ZN6Halide7Runtime8Internal4Cuda12context_lockE) #8, !dbg !2778
  %14 = load %"struct.Halide::Runtime::Internal::Cuda::CUctx_st"*, %"struct.Halide::Runtime::Internal::Cuda::CUctx_st"** @_ZN6Halide7Runtime8Internal4Cuda7contextE, align 4, !dbg !2780, !tbaa !1316
  call void @llvm.dbg.value(metadata %"struct.Halide::Runtime::Internal::Cuda::CUctx_st"* %14, metadata !2734, metadata !DIExpression()), !dbg !2754
  store %"struct.Halide::Runtime::Internal::Cuda::CUctx_st"* %14, %"struct.Halide::Runtime::Internal::Cuda::CUctx_st"** %4, align 4, !dbg !2781, !tbaa !1316
  %15 = icmp eq %"struct.Halide::Runtime::Internal::Cuda::CUctx_st"* %14, null, !dbg !2782
  br i1 %15, label %16, label %21, !dbg !2783

16:                                               ; preds = %13
  call void @llvm.dbg.value(metadata %"struct.Halide::Runtime::Internal::Cuda::CUctx_st"** %4, metadata !2734, metadata !DIExpression(DW_OP_deref)), !dbg !2754
  %17 = call i32 @_ZN6Halide7Runtime8Internal4Cuda19create_cuda_contextEPvPPNS2_8CUctx_stE(i8* %0, %"struct.Halide::Runtime::Internal::Cuda::CUctx_st"** nonnull %4) #9, !dbg !2784
  call void @llvm.dbg.value(metadata i32 %17, metadata !2751, metadata !DIExpression()), !dbg !2785
  %18 = icmp eq i32 %17, 0, !dbg !2786
  br i1 %18, label %19, label %24

19:                                               ; preds = %16
  %20 = load %"struct.Halide::Runtime::Internal::Cuda::CUctx_st"*, %"struct.Halide::Runtime::Internal::Cuda::CUctx_st"** %4, align 4, !dbg !2788, !tbaa !1316
  br label %21

21:                                               ; preds = %19, %13
  %22 = phi %"struct.Halide::Runtime::Internal::Cuda::CUctx_st"* [ %20, %19 ], [ %14, %13 ], !dbg !2788
  call void @llvm.dbg.value(metadata %"struct.Halide::Runtime::Internal::Cuda::CUctx_st"* %22, metadata !2734, metadata !DIExpression()), !dbg !2754
  store %"struct.Halide::Runtime::Internal::Cuda::CUctx_st"* %22, %"struct.Halide::Runtime::Internal::Cuda::CUctx_st"** @_ZN6Halide7Runtime8Internal4Cuda7contextE, align 4, !dbg !2789, !tbaa !1316
  call void @llvm.dbg.value(metadata %"struct.Halide::Runtime::Internal::ScopedMutexLock"* undef, metadata !2790, metadata !DIExpression()) #10, !dbg !2793
  call void @halide_mutex_unlock(%struct.halide_mutex* nonnull @_ZN6Halide7Runtime8Internal4Cuda12context_lockE) #8, !dbg !2795
  %23 = load %"struct.Halide::Runtime::Internal::Cuda::CUctx_st"*, %"struct.Halide::Runtime::Internal::Cuda::CUctx_st"** %4, align 4, !dbg !2797, !tbaa !1316
  br label %25

24:                                               ; preds = %16
  call void @llvm.dbg.value(metadata %"struct.Halide::Runtime::Internal::ScopedMutexLock"* undef, metadata !2790, metadata !DIExpression()) #10, !dbg !2793
  call void @halide_mutex_unlock(%struct.halide_mutex* nonnull @_ZN6Halide7Runtime8Internal4Cuda12context_lockE) #8, !dbg !2795
  br label %27

25:                                               ; preds = %21, %7
  %26 = phi %"struct.Halide::Runtime::Internal::Cuda::CUctx_st"* [ %23, %21 ], [ %9, %7 ], !dbg !2797
  call void @llvm.dbg.value(metadata %"struct.Halide::Runtime::Internal::Cuda::CUctx_st"* %26, metadata !2734, metadata !DIExpression()), !dbg !2754
  store %"struct.Halide::Runtime::Internal::Cuda::CUctx_st"* %26, %"struct.Halide::Runtime::Internal::Cuda::CUctx_st"** %1, align 4, !dbg !2798, !tbaa !1316
  br label %27, !dbg !2799

27:                                               ; preds = %24, %25, %12
  %28 = phi i32 [ 0, %25 ], [ %17, %24 ], [ 0, %12 ], !dbg !2754
  call void @llvm.lifetime.end.p0i8(i64 4, i8* nonnull %8) #10, !dbg !2800
  ret i32 %28, !dbg !2800
}

; Function Attrs: nounwind
define weak dso_local i32 @_ZN6Halide7Runtime8Internal4Cuda19create_cuda_contextEPvPPNS2_8CUctx_stE(i8* %0, %"struct.Halide::Runtime::Internal::Cuda::CUctx_st"** %1) local_unnamed_addr #4 !dbg !2801 {
  %3 = alloca i32, align 4
  %4 = alloca %"class.Halide::Runtime::Internal::(anonymous namespace)::Printer.0", align 4
  %5 = alloca i32, align 4
  %6 = alloca i32, align 4
  %7 = alloca %"class.Halide::Runtime::Internal::(anonymous namespace)::Printer", align 4
  %8 = alloca i32, align 4
  %9 = alloca [256 x i8], align 1
  %10 = alloca %"class.Halide::Runtime::Internal::(anonymous namespace)::Printer.0", align 4
  %11 = alloca i32, align 4
  %12 = alloca %"class.Halide::Runtime::Internal::(anonymous namespace)::Printer.0", align 4
  %13 = alloca i32, align 4
  %14 = alloca i32, align 4
  %15 = alloca i32, align 4
  %16 = alloca [3 x i32], align 4
  %17 = alloca [3 x i32], align 4
  %18 = alloca i32, align 4
  %19 = alloca i32, align 4
  %20 = alloca i32, align 4
  %21 = alloca i32, align 4
  %22 = alloca [14 x %struct.anon], align 4
  %23 = alloca %"class.Halide::Runtime::Internal::(anonymous namespace)::Printer.0", align 4
  %24 = alloca %"class.Halide::Runtime::Internal::(anonymous namespace)::Printer", align 4
  %25 = alloca %"class.Halide::Runtime::Internal::(anonymous namespace)::Printer", align 4
  %26 = alloca %"class.Halide::Runtime::Internal::(anonymous namespace)::Printer.0", align 4
  %27 = alloca i32, align 4
  %28 = alloca %"class.Halide::Runtime::Internal::(anonymous namespace)::Printer", align 4
  %29 = alloca %"struct.Halide::Runtime::Internal::Cuda::CUctx_st"*, align 4
  %30 = alloca %"class.Halide::Runtime::Internal::(anonymous namespace)::Printer.0", align 4
  call void @llvm.dbg.value(metadata i8* %0, metadata !2805, metadata !DIExpression()), !dbg !2854
  call void @llvm.dbg.value(metadata %"struct.Halide::Runtime::Internal::Cuda::CUctx_st"** %1, metadata !2806, metadata !DIExpression()), !dbg !2854
  tail call void @_ZN6Halide7Runtime8Internal4Cuda19ensure_libcuda_initEPv(i8* %0) #9, !dbg !2855
  %31 = load i32 (i32)*, i32 (i32)** @_ZN6Halide7Runtime8Internal4Cuda6cuInitE, align 4, !dbg !2856, !tbaa !1316
  %32 = icmp eq i32 (i32)* %31, null, !dbg !2856
  br i1 %32, label %33, label %48, !dbg !2858

33:                                               ; preds = %2
  call void @llvm.dbg.value(metadata %"class.Halide::Runtime::Internal::(anonymous namespace)::Printer.0"* undef, metadata !1433, metadata !DIExpression()) #10, !dbg !2859
  call void @llvm.dbg.value(metadata i8* %0, metadata !1436, metadata !DIExpression()) #10, !dbg !2859
  call void @llvm.dbg.value(metadata i8* null, metadata !1437, metadata !DIExpression()) #10, !dbg !2859
  %34 = tail call i8* @malloc(i32 1024) #8, !dbg !2862
  %35 = icmp eq i8* %34, null, !dbg !2863
  br i1 %35, label %36, label %38, !dbg !2864

36:                                               ; preds = %33
  call void @llvm.dbg.value(metadata %"class.Halide::Runtime::Internal::(anonymous namespace)::Printer.0"* undef, metadata !1455, metadata !DIExpression()) #10, !dbg !2865
  call void @llvm.dbg.value(metadata i8* getelementptr inbounds ([37 x i8], [37 x i8]* @.str.38, i32 0, i32 0), metadata !1458, metadata !DIExpression()) #10, !dbg !2865
  %37 = tail call i8* @halide_string_to_string(i8* %34, i8* null, i8* nonnull getelementptr inbounds ([37 x i8], [37 x i8]* @.str.38, i32 0, i32 0)) #8, !dbg !2867
  call void @llvm.dbg.value(metadata %"class.Halide::Runtime::Internal::(anonymous namespace)::Printer.0"* undef, metadata !1470, metadata !DIExpression()) #10, !dbg !2868
  tail call void @halide_error(i8* %0, i8* getelementptr inbounds ([35 x i8], [35 x i8]* @.str.219, i32 0, i32 0)) #8, !dbg !2870
  br label %47, !dbg !2871

38:                                               ; preds = %33
  %39 = getelementptr inbounds i8, i8* %34, i32 1023, !dbg !2872
  store i8 0, i8* %39, align 1, !dbg !2873, !tbaa !1065
  call void @llvm.dbg.value(metadata %"class.Halide::Runtime::Internal::(anonymous namespace)::Printer.0"* undef, metadata !1455, metadata !DIExpression()) #10, !dbg !2865
  call void @llvm.dbg.value(metadata i8* getelementptr inbounds ([37 x i8], [37 x i8]* @.str.38, i32 0, i32 0), metadata !1458, metadata !DIExpression()) #10, !dbg !2865
  %40 = tail call i8* @halide_string_to_string(i8* nonnull %34, i8* nonnull %39, i8* nonnull getelementptr inbounds ([37 x i8], [37 x i8]* @.str.38, i32 0, i32 0)) #8, !dbg !2867
  call void @llvm.dbg.value(metadata %"class.Halide::Runtime::Internal::(anonymous namespace)::Printer.0"* undef, metadata !1470, metadata !DIExpression()) #10, !dbg !2868
  call void @llvm.dbg.value(metadata %"class.Halide::Runtime::Internal::(anonymous namespace)::Printer.0"* undef, metadata !1481, metadata !DIExpression()) #10, !dbg !2874
  %41 = ptrtoint i8* %40 to i32, !dbg !2876
  %42 = ptrtoint i8* %34 to i32, !dbg !2876
  %43 = add i32 %41, 1, !dbg !2876
  %44 = sub i32 %43, %42, !dbg !2877
  %45 = sext i32 %44 to i64, !dbg !2878
  %46 = tail call i32 @halide_msan_annotate_memory_is_initialized(i8* %0, i8* nonnull %34, i64 %45) #8, !dbg !2879
  tail call void @halide_error(i8* %0, i8* nonnull %34) #8, !dbg !2880
  br label %47

47:                                               ; preds = %38, %36
  tail call void @free(i8* %34) #8, !dbg !2881
  br label %865, !dbg !2882

48:                                               ; preds = %2
  %49 = tail call i32 %31(i32 0) #8, !dbg !2883
  call void @llvm.dbg.value(metadata i32 %49, metadata !2807, metadata !DIExpression()), !dbg !2854
  %50 = icmp eq i32 %49, 0, !dbg !2884
  br i1 %50, label %76, label %51, !dbg !2886

51:                                               ; preds = %48
  call void @llvm.dbg.value(metadata %"class.Halide::Runtime::Internal::(anonymous namespace)::Printer.0"* undef, metadata !1433, metadata !DIExpression()) #10, !dbg !2887
  call void @llvm.dbg.value(metadata i8* %0, metadata !1436, metadata !DIExpression()) #10, !dbg !2887
  call void @llvm.dbg.value(metadata i8* null, metadata !1437, metadata !DIExpression()) #10, !dbg !2887
  %52 = tail call i8* @malloc(i32 1024) #8, !dbg !2890
  %53 = icmp eq i8* %52, null, !dbg !2891
  br i1 %53, label %56, label %54, !dbg !2892

54:                                               ; preds = %51
  %55 = getelementptr inbounds i8, i8* %52, i32 1023, !dbg !2893
  store i8 0, i8* %55, align 1, !dbg !2894, !tbaa !1065
  br label %56, !dbg !2895

56:                                               ; preds = %51, %54
  %57 = phi i8* [ %55, %54 ], [ null, %51 ], !dbg !2896
  call void @llvm.dbg.value(metadata %"class.Halide::Runtime::Internal::(anonymous namespace)::Printer.0"* undef, metadata !1455, metadata !DIExpression()) #10, !dbg !2897
  call void @llvm.dbg.value(metadata i8* getelementptr inbounds ([22 x i8], [22 x i8]* @.str.39, i32 0, i32 0), metadata !1458, metadata !DIExpression()) #10, !dbg !2897
  %58 = tail call i8* @halide_string_to_string(i8* %52, i8* %57, i8* nonnull getelementptr inbounds ([22 x i8], [22 x i8]* @.str.39, i32 0, i32 0)) #8, !dbg !2899
  %59 = tail call i8* @_ZN6Halide7Runtime8Internal4Cuda14get_error_nameENS2_8CUresultE(i32 %49) #9, !dbg !2900
  call void @llvm.dbg.value(metadata %"class.Halide::Runtime::Internal::(anonymous namespace)::Printer.0"* undef, metadata !1455, metadata !DIExpression()) #10, !dbg !2901
  call void @llvm.dbg.value(metadata i8* %59, metadata !1458, metadata !DIExpression()) #10, !dbg !2901
  %60 = icmp eq i8* %59, null, !dbg !2903
  br i1 %60, label %61, label %63, !dbg !2904

61:                                               ; preds = %56
  %62 = tail call i8* @halide_string_to_string(i8* %58, i8* %57, i8* getelementptr inbounds ([10 x i8], [10 x i8]* @.str.220, i32 0, i32 0)) #8, !dbg !2905
  br label %65, !dbg !2907

63:                                               ; preds = %56
  %64 = tail call i8* @halide_string_to_string(i8* %58, i8* %57, i8* nonnull %59) #8, !dbg !2908
  br label %65

65:                                               ; preds = %61, %63
  %66 = phi i8* [ %64, %63 ], [ %62, %61 ], !dbg !2909
  call void @llvm.dbg.value(metadata %"class.Halide::Runtime::Internal::(anonymous namespace)::Printer.0"* undef, metadata !1470, metadata !DIExpression()) #10, !dbg !2910
  br i1 %53, label %67, label %68, !dbg !2912

67:                                               ; preds = %65
  tail call void @halide_error(i8* %0, i8* getelementptr inbounds ([35 x i8], [35 x i8]* @.str.219, i32 0, i32 0)) #8, !dbg !2913
  br label %75, !dbg !2914

68:                                               ; preds = %65
  call void @llvm.dbg.value(metadata %"class.Halide::Runtime::Internal::(anonymous namespace)::Printer.0"* undef, metadata !1481, metadata !DIExpression()) #10, !dbg !2915
  %69 = ptrtoint i8* %66 to i32, !dbg !2917
  %70 = ptrtoint i8* %52 to i32, !dbg !2917
  %71 = sub i32 1, %70, !dbg !2917
  %72 = add i32 %71, %69, !dbg !2918
  %73 = sext i32 %72 to i64, !dbg !2919
  %74 = tail call i32 @halide_msan_annotate_memory_is_initialized(i8* %0, i8* nonnull %52, i64 %73) #8, !dbg !2920
  tail call void @halide_error(i8* %0, i8* nonnull %52) #8, !dbg !2921
  br label %75

75:                                               ; preds = %67, %68
  call void @free(i8* %52) #8, !dbg !2922
  br label %865, !dbg !2923

76:                                               ; preds = %48
  %77 = bitcast i32* %3 to i8*, !dbg !2924
  call void @llvm.lifetime.start.p0i8(i64 4, i8* nonnull %77) #10, !dbg !2924
  call void @llvm.dbg.value(metadata i32 0, metadata !2808, metadata !DIExpression()), !dbg !2854
  store i32 0, i32* %3, align 4, !dbg !2925, !tbaa !2926
  %78 = load i32 (i32*)*, i32 (i32*)** @_ZN6Halide7Runtime8Internal4Cuda16cuDeviceGetCountE, align 4, !dbg !2927, !tbaa !1316
  call void @llvm.dbg.value(metadata i32* %3, metadata !2808, metadata !DIExpression(DW_OP_deref)), !dbg !2854
  %79 = call i32 %78(i32* nonnull %3) #8, !dbg !2927
  call void @llvm.dbg.value(metadata i32 %79, metadata !2807, metadata !DIExpression()), !dbg !2854
  %80 = icmp eq i32 %79, 0, !dbg !2928
  br i1 %80, label %121, label %81, !dbg !2930

81:                                               ; preds = %76
  %82 = bitcast %"class.Halide::Runtime::Internal::(anonymous namespace)::Printer.0"* %4 to i8*, !dbg !2931
  call void @llvm.lifetime.start.p0i8(i64 20, i8* nonnull %82) #10, !dbg !2931
  call void @llvm.dbg.value(metadata %"class.Halide::Runtime::Internal::(anonymous namespace)::Printer.0"* %4, metadata !1433, metadata !DIExpression()) #10, !dbg !2933
  call void @llvm.dbg.value(metadata i8* %0, metadata !1436, metadata !DIExpression()) #10, !dbg !2933
  call void @llvm.dbg.value(metadata i8* null, metadata !1437, metadata !DIExpression()) #10, !dbg !2933
  %83 = getelementptr inbounds %"class.Halide::Runtime::Internal::(anonymous namespace)::Printer.0", %"class.Halide::Runtime::Internal::(anonymous namespace)::Printer.0"* %4, i32 0, i32 3, !dbg !2935
  store i8* %0, i8** %83, align 4, !dbg !2935, !tbaa !2936
  %84 = getelementptr inbounds %"class.Halide::Runtime::Internal::(anonymous namespace)::Printer.0", %"class.Halide::Runtime::Internal::(anonymous namespace)::Printer.0"* %4, i32 0, i32 4, !dbg !2939
  store i8 1, i8* %84, align 4, !dbg !2939, !tbaa !2940
  %85 = call i8* @malloc(i32 1024) #8, !dbg !2941
  %86 = getelementptr inbounds %"class.Halide::Runtime::Internal::(anonymous namespace)::Printer.0", %"class.Halide::Runtime::Internal::(anonymous namespace)::Printer.0"* %4, i32 0, i32 0, !dbg !2942
  store i8* %85, i8** %86, align 4, !dbg !2943, !tbaa !2944
  %87 = getelementptr inbounds %"class.Halide::Runtime::Internal::(anonymous namespace)::Printer.0", %"class.Halide::Runtime::Internal::(anonymous namespace)::Printer.0"* %4, i32 0, i32 1, !dbg !2945
  store i8* %85, i8** %87, align 4, !dbg !2946, !tbaa !2947
  %88 = icmp eq i8* %85, null, !dbg !2948
  br i1 %88, label %91, label %89, !dbg !2949

89:                                               ; preds = %81
  %90 = getelementptr inbounds i8, i8* %85, i32 1023, !dbg !2950
  store i8 0, i8* %90, align 1, !dbg !2951, !tbaa !1065
  br label %91, !dbg !2952

91:                                               ; preds = %81, %89
  %92 = phi i8* [ %90, %89 ], [ null, %81 ], !dbg !2953
  call void @llvm.dbg.value(metadata %"class.Halide::Runtime::Internal::(anonymous namespace)::Printer.0"* %4, metadata !1455, metadata !DIExpression()) #10, !dbg !2954
  call void @llvm.dbg.value(metadata i8* getelementptr inbounds ([32 x i8], [32 x i8]* @.str.40, i32 0, i32 0), metadata !1458, metadata !DIExpression()) #10, !dbg !2954
  %93 = call i8* @halide_string_to_string(i8* %85, i8* %92, i8* nonnull getelementptr inbounds ([32 x i8], [32 x i8]* @.str.40, i32 0, i32 0)) #8, !dbg !2956
  %94 = call i8* @_ZN6Halide7Runtime8Internal4Cuda14get_error_nameENS2_8CUresultE(i32 %79) #9, !dbg !2957
  call void @llvm.dbg.value(metadata %"class.Halide::Runtime::Internal::(anonymous namespace)::Printer.0"* %4, metadata !1455, metadata !DIExpression()) #10, !dbg !2958
  call void @llvm.dbg.value(metadata i8* %94, metadata !1458, metadata !DIExpression()) #10, !dbg !2958
  %95 = icmp eq i8* %94, null, !dbg !2960
  br i1 %95, label %96, label %98, !dbg !2961

96:                                               ; preds = %91
  %97 = call i8* @halide_string_to_string(i8* %93, i8* %92, i8* getelementptr inbounds ([10 x i8], [10 x i8]* @.str.220, i32 0, i32 0)) #8, !dbg !2962
  br label %100, !dbg !2963

98:                                               ; preds = %91
  %99 = call i8* @halide_string_to_string(i8* %93, i8* %92, i8* nonnull %94) #8, !dbg !2964
  br label %100

100:                                              ; preds = %96, %98
  %101 = phi i8* [ %99, %98 ], [ %97, %96 ], !dbg !2965
  call void @llvm.dbg.value(metadata %"class.Halide::Runtime::Internal::(anonymous namespace)::Printer.0"* %4, metadata !1470, metadata !DIExpression()) #10, !dbg !2966
  %102 = load i8*, i8** %86, align 4, !dbg !2968, !tbaa !2944
  %103 = icmp eq i8* %102, null, !dbg !2968
  %104 = load i8*, i8** %83, align 4, !dbg !2969, !tbaa !2936
  br i1 %103, label %105, label %106, !dbg !2970

105:                                              ; preds = %100
  call void @halide_error(i8* %104, i8* getelementptr inbounds ([35 x i8], [35 x i8]* @.str.219, i32 0, i32 0)) #8, !dbg !2971
  br label %115, !dbg !2972

106:                                              ; preds = %100
  call void @llvm.dbg.value(metadata %"class.Halide::Runtime::Internal::(anonymous namespace)::Printer.0"* undef, metadata !1481, metadata !DIExpression()) #10, !dbg !2973
  %107 = ptrtoint i8* %101 to i32, !dbg !2975
  %108 = ptrtoint i8* %102 to i32, !dbg !2975
  %109 = sub i32 1, %108, !dbg !2975
  %110 = add i32 %109, %107, !dbg !2976
  %111 = sext i32 %110 to i64, !dbg !2977
  %112 = call i32 @halide_msan_annotate_memory_is_initialized(i8* %104, i8* nonnull %102, i64 %111) #8, !dbg !2978
  %113 = load i8*, i8** %83, align 4, !dbg !2979, !tbaa !2936
  %114 = load i8*, i8** %86, align 4, !dbg !2980, !tbaa !2944
  call void @halide_error(i8* %113, i8* %114) #8, !dbg !2981
  br label %115

