; ModuleID = '/media/maaz/Data/Repos/rake/Halide-master-d48fbde/src/runtime/windows_threads.cpp'
source_filename = "/media/maaz/Data/Repos/rake/Halide-master-d48fbde/src/runtime/windows_threads.cpp"
target datalayout = "e-m:x-p:32:32-p270:32:32-p271:32:32-p272:64:64-i64:64-f80:32-n8:16:32-a:0:32-S32"
target triple = "i386-unknown-windows-msvc19.11.0"

%"struct.Halide::Runtime::Internal::work_queue_t" = type { %struct.halide_mutex, i32, i32, %"struct.Halide::Runtime::Internal::work"*, i32, i32, i32, %struct.halide_cond, %struct.halide_cond, %struct.halide_cond, i32, i32, [256 x %struct.halide_thread*], i8, i8, i32 }
%struct.halide_mutex = type { [1 x i32] }
%"struct.Halide::Runtime::Internal::work" = type { %struct.halide_parallel_task_t, i32 (i8*, i32, i8*)*, %"struct.Halide::Runtime::Internal::work"*, %"struct.Halide::Runtime::Internal::work"*, i32, %"struct.Halide::Runtime::Internal::work"*, i32, i8*, i32, i32, i32, i8 }
%struct.halide_parallel_task_t = type { i32 (i8*, i32, i32, i8*, i8*)*, i8*, i8*, %struct.halide_semaphore_acquire_t*, i32, i32, i32, i32, i8 }
%struct.halide_semaphore_acquire_t = type { %struct.halide_semaphore_t*, i32 }
%struct.halide_semaphore_t = type { [2 x i64] }
%struct.halide_cond = type { [1 x i32] }
%struct.halide_thread = type opaque
%"struct.Halide::Runtime::Internal::spawned_thread" = type { void (i8*)*, i8*, i8* }
%"class.Halide::Runtime::Internal::Synchronization::word_lock" = type { i32 }
%"struct.Halide::Runtime::Internal::Synchronization::word_lock_queue_data" = type { %"struct.Halide::Runtime::Internal::Synchronization::thread_parker", %"struct.Halide::Runtime::Internal::Synchronization::word_lock_queue_data"*, %"struct.Halide::Runtime::Internal::Synchronization::word_lock_queue_data"*, %"struct.Halide::Runtime::Internal::Synchronization::word_lock_queue_data"* }
%"struct.Halide::Runtime::Internal::Synchronization::thread_parker" = type { %struct.CriticalSection, i64, i8 }
%struct.CriticalSection = type { [5 x i64] }
%"class.Halide::Runtime::Internal::Synchronization::spin_control" = type { i32 }
%"struct.Halide::Runtime::Internal::Synchronization::hash_bucket" = type { %"class.Halide::Runtime::Internal::Synchronization::word_lock", %"struct.Halide::Runtime::Internal::Synchronization::queue_data"*, %"struct.Halide::Runtime::Internal::Synchronization::queue_data"* }
%"struct.Halide::Runtime::Internal::Synchronization::queue_data" = type { %"struct.Halide::Runtime::Internal::Synchronization::thread_parker", i32, %"struct.Halide::Runtime::Internal::Synchronization::queue_data"*, i32 }
%"struct.Halide::Runtime::Internal::Synchronization::bucket_pair" = type { %"struct.Halide::Runtime::Internal::Synchronization::hash_bucket"*, %"struct.Halide::Runtime::Internal::Synchronization::hash_bucket"* }
%"struct.Halide::Runtime::Internal::Synchronization::validate_action" = type { i8, i32 }
%"struct.Halide::Runtime::Internal::Synchronization::parking_control" = type { i1 (i8*, %"struct.Halide::Runtime::Internal::Synchronization::validate_action"*)*, void (i8*)*, i32 (i8*, i32, i1)*, void (i8*, %"struct.Halide::Runtime::Internal::Synchronization::validate_action"*, i1, i1)* }
%"class.Halide::Runtime::Internal::Synchronization::fast_mutex" = type { i32 }
%"struct.Halide::Runtime::Internal::Synchronization::mutex_parking_control" = type { %"struct.Halide::Runtime::Internal::Synchronization::parking_control", i32* }
%"struct.Halide::Runtime::Internal::Synchronization::broadcast_parking_control" = type { %"struct.Halide::Runtime::Internal::Synchronization::parking_control", i32*, %"class.Halide::Runtime::Internal::Synchronization::fast_mutex"* }
%"struct.Halide::Runtime::Internal::Synchronization::signal_parking_control" = type { %"struct.Halide::Runtime::Internal::Synchronization::parking_control", i32*, %"class.Halide::Runtime::Internal::Synchronization::fast_mutex"* }
%"struct.Halide::Runtime::Internal::Synchronization::wait_parking_control" = type { %"struct.Halide::Runtime::Internal::Synchronization::parking_control", i32*, %"class.Halide::Runtime::Internal::Synchronization::fast_mutex"* }
%struct.halide_mutex_array = type { %struct.halide_mutex* }

$"??_C@_0BF@GHJEOHAG@NUMBER_OF_PROCESSORS?$AA@" = comdat any

$"??_C@_0HL@IBCKBNIJ@?1media?1maaz?1Data?1Repos?1rake?1Hali@" = comdat any

$"??_C@_0P@MMIMHEHB@HL_NUM_THREADS?$AA@" = comdat any

$"??_C@_0O@HDNCLFFD@HL_NUMTHREADS?$AA@" = comdat any

$"??_C@_0BAA@OBACBFKN@?1media?1maaz?1Data?1Repos?1rake?1Hali@" = comdat any

$"??_C@_0CG@GEJKLGAJ@halide_set_num_threads?3?5must?5be?5@" = comdat any

$"??_C@_0HG@DNBPGMBM@?1media?1maaz?1Data?1Repos?1rake?1Hali@" = comdat any

$"??_C@_0LD@GCOAOKDJ@?1media?1maaz?1Data?1Repos?1rake?1Hali@" = comdat any

@"??_C@_0BF@GHJEOHAG@NUMBER_OF_PROCESSORS?$AA@" = linkonce_odr dso_local unnamed_addr constant [21 x i8] c"NUMBER_OF_PROCESSORS\00", comdat, align 1
@"??_C@_0HL@IBCKBNIJ@?1media?1maaz?1Data?1Repos?1rake?1Hali@" = linkonce_odr dso_local unnamed_addr constant [123 x i8] c"/media/maaz/Data/Repos/rake/Halide-master-d48fbde/src/runtime/synchronization_common.h:395 Assert failed: next != nullptr\0A\00", comdat, align 1
@"?table_storage@Synchronization@Internal@Runtime@Halide@@3PADA" = weak dso_local global [12288 x i8] zeroinitializer, align 1, !dbg !0
@"??_C@_0P@MMIMHEHB@HL_NUM_THREADS?$AA@" = linkonce_odr dso_local unnamed_addr constant [15 x i8] c"HL_NUM_THREADS\00", comdat, align 1
@"??_C@_0O@HDNCLFFD@HL_NUMTHREADS?$AA@" = linkonce_odr dso_local unnamed_addr constant [14 x i8] c"HL_NUMTHREADS\00", comdat, align 1
@"?work_queue@Internal@Runtime@Halide@@3Uwork_queue_t@123@A" = weak dso_local global %"struct.Halide::Runtime::Internal::work_queue_t" zeroinitializer, align 4, !dbg !11
@"??_C@_0BAA@OBACBFKN@?1media?1maaz?1Data?1Repos?1rake?1Hali@" = linkonce_odr dso_local unnamed_addr constant [256 x i8] c"/media/maaz/Data/Repos/rake/Halide-master-d48fbde/src/runtime/thread_pool_common.h:520 Assert failed: (min_threads <= ((task_parent->task.min_threads * task_parent->active_workers) - task_parent->threads_reserved)) && \22Logic error: thread over commit.\\n\22\0A\00", comdat, align 1
@"?custom_do_task@Internal@Runtime@Halide@@3P6AHPAXP6AH0HPAE@ZH1@ZA" = weak dso_local local_unnamed_addr global i32 (i8*, i32 (i8*, i32, i8*)*, i32, i8*)* @halide_default_do_task, align 4, !dbg !121
@"?custom_do_loop_task@Internal@Runtime@Halide@@3P6AHPAXP6AH0HHPAE0@ZHH10@ZA" = weak dso_local local_unnamed_addr global i32 (i8*, i32 (i8*, i32, i32, i8*, i8*)*, i32, i32, i8*, i8*)* @halide_default_do_loop_task, align 4, !dbg !127
@"?custom_do_par_for@Internal@Runtime@Halide@@3P6AHPAXP6AH0HPAE@ZHH1@ZA" = weak dso_local local_unnamed_addr global i32 (i8*, i32 (i8*, i32, i8*)*, i32, i32, i8*)* @halide_default_do_par_for, align 4, !dbg !133
@"?custom_do_parallel_tasks@Internal@Runtime@Halide@@3P6AHPAXHPAUhalide_parallel_task_t@@0@ZA" = weak dso_local local_unnamed_addr global i32 (i8*, i32, %struct.halide_parallel_task_t*, i8*)* @halide_default_do_parallel_tasks, align 4, !dbg !139
@"?custom_semaphore_init@Internal@Runtime@Halide@@3P6AHPAUhalide_semaphore_t@@H@ZA" = weak dso_local local_unnamed_addr global i32 (%struct.halide_semaphore_t*, i32)* @halide_default_semaphore_init, align 4, !dbg !146
@"?custom_semaphore_try_acquire@Internal@Runtime@Halide@@3P6A_NPAUhalide_semaphore_t@@H@ZA" = weak dso_local local_unnamed_addr global i1 (%struct.halide_semaphore_t*, i32)* @halide_default_semaphore_try_acquire, align 4, !dbg !152
@"?custom_semaphore_release@Internal@Runtime@Halide@@3P6AHPAUhalide_semaphore_t@@H@ZA" = weak dso_local local_unnamed_addr global i32 (%struct.halide_semaphore_t*, i32)* @halide_default_semaphore_release, align 4, !dbg !158
@"??_C@_0CG@GEJKLGAJ@halide_set_num_threads?3?5must?5be?5@" = linkonce_odr dso_local unnamed_addr constant [38 x i8] c"halide_set_num_threads: must be >= 0.\00", comdat, align 1
@"??_C@_0HG@DNBPGMBM@?1media?1maaz?1Data?1Repos?1rake?1Hali@" = linkonce_odr dso_local unnamed_addr constant [118 x i8] c"/media/maaz/Data/Repos/rake/Halide-master-d48fbde/src/runtime/synchronization_common.h:1116 Assert failed: val & 0x1\0A\00", comdat, align 1
@"??_C@_0LD@GCOAOKDJ@?1media?1maaz?1Data?1Repos?1rake?1Hali@" = linkonce_odr dso_local unnamed_addr constant [179 x i8] c"/media/maaz/Data/Repos/rake/Halide-master-d48fbde/src/runtime/thread_pool_common.h:153 Assert failed: bytes == limit && \22Logic error in thread pool work queue initialization.\\n\22\0A\00", comdat, align 1
@llvm.global_dtors = appending global [1 x { i32, void ()*, i8* }] [{ i32, void ()*, i8* } { i32 65535, void ()* @halide_thread_pool_cleanup, i8* null }]

; Function Attrs: nounwind mustprogress
define weak dso_local i8* @"?spawn_thread_helper@Internal@Runtime@Halide@@YAPAXPAX@Z"(i8* %0) #0 !dbg !389 {
  call void @llvm.dbg.value(metadata i8* %0, metadata !393, metadata !DIExpression()), !dbg !395
  call void @llvm.dbg.value(metadata i8* %0, metadata !394, metadata !DIExpression()), !dbg !395
  %2 = bitcast i8* %0 to void (i8*)**, !dbg !396
  %3 = load void (i8*)*, void (i8*)** %2, align 4, !dbg !396, !tbaa !397
  %4 = getelementptr inbounds i8, i8* %0, i32 4, !dbg !396
  %5 = bitcast i8* %4 to i8**, !dbg !396
  %6 = load i8*, i8** %5, align 4, !dbg !396, !tbaa !402
  tail call void %3(i8* %6) #6, !dbg !396
  ret i8* null, !dbg !403
}

; Function Attrs: nofree nosync nounwind readnone speculatable willreturn
declare void @llvm.dbg.declare(metadata, metadata, metadata) #1

; Function Attrs: argmemonly nofree nosync nounwind willreturn
declare void @llvm.lifetime.start.p0i8(i64 immarg, i8* nocapture) #2

; Function Attrs: argmemonly nofree nosync nounwind willreturn
declare void @llvm.lifetime.end.p0i8(i64 immarg, i8* nocapture) #2

; Function Attrs: nounwind mustprogress
define weak dso_local i32 @halide_host_cpu_count() local_unnamed_addr #0 !dbg !404 {
  %1 = tail call i8* @getenv(i8* getelementptr inbounds ([21 x i8], [21 x i8]* @"??_C@_0BF@GHJEOHAG@NUMBER_OF_PROCESSORS?$AA@", i32 0, i32 0)) #6, !dbg !409
  call void @llvm.dbg.value(metadata i8* %1, metadata !408, metadata !DIExpression()), !dbg !410
  %2 = icmp eq i8* %1, null, !dbg !411
  br i1 %2, label %5, label %3, !dbg !411

3:                                                ; preds = %0
  %4 = tail call i32 @atoi(i8* nonnull %1) #6, !dbg !412
  br label %5, !dbg !412

5:                                                ; preds = %0, %3
  %6 = phi i32 [ %4, %3 ], [ 8, %0 ], !dbg !415
  ret i32 %6, !dbg !416
}

declare dso_local i8* @getenv(i8*) local_unnamed_addr #3

declare dso_local i32 @atoi(i8*) local_unnamed_addr #3

; Function Attrs: nounwind mustprogress
define weak dso_local %struct.halide_thread* @halide_spawn_thread(void (i8*)* %0, i8* %1) local_unnamed_addr #0 !dbg !417 {
  call void @llvm.dbg.value(metadata i8* %1, metadata !421, metadata !DIExpression()), !dbg !424
  call void @llvm.dbg.value(metadata void (i8*)* %0, metadata !422, metadata !DIExpression()), !dbg !424
  %3 = tail call i8* @malloc(i32 12) #6, !dbg !425
  call void @llvm.dbg.value(metadata i8* %3, metadata !423, metadata !DIExpression()), !dbg !424
  %4 = bitcast i8* %3 to void (i8*)**, !dbg !426
  store void (i8*)* %0, void (i8*)** %4, align 4, !dbg !426, !tbaa !397
  %5 = getelementptr inbounds i8, i8* %3, i32 4, !dbg !427
  %6 = bitcast i8* %5 to i8**, !dbg !427
  store i8* %1, i8** %6, align 4, !dbg !427, !tbaa !402
  %7 = tail call x86_stdcallcc i8* @"\01_CreateThread@24"(i8* null, i32 0, i8* (i8*)* nonnull @"?spawn_thread_helper@Internal@Runtime@Halide@@YAPAXPAX@Z", i8* %3, i32 0, i32* null) #6, !dbg !428
  %8 = getelementptr inbounds i8, i8* %3, i32 8, !dbg !428
  %9 = bitcast i8* %8 to i8**, !dbg !428
  store i8* %7, i8** %9, align 4, !dbg !428, !tbaa !429
  %10 = bitcast i8* %3 to %struct.halide_thread*, !dbg !430
  ret %struct.halide_thread* %10, !dbg !430
}

declare dso_local i8* @malloc(i32) local_unnamed_addr #3

declare dso_local x86_stdcallcc i8* @"\01_CreateThread@24"(i8*, i32, i8* (i8*)*, i8*, i32, i32*) local_unnamed_addr #3

; Function Attrs: nounwind mustprogress
define weak dso_local void @halide_join_thread(%struct.halide_thread* %0) local_unnamed_addr #0 !dbg !431 {
  call void @llvm.dbg.value(metadata %struct.halide_thread* %0, metadata !435, metadata !DIExpression()), !dbg !437
  %2 = bitcast %struct.halide_thread* %0 to %"struct.Halide::Runtime::Internal::spawned_thread"*, !dbg !438
  call void @llvm.dbg.value(metadata %"struct.Halide::Runtime::Internal::spawned_thread"* %2, metadata !436, metadata !DIExpression()), !dbg !437
  %3 = getelementptr inbounds %"struct.Halide::Runtime::Internal::spawned_thread", %"struct.Halide::Runtime::Internal::spawned_thread"* %2, i32 0, i32 2, !dbg !439
  %4 = load i8*, i8** %3, align 4, !dbg !439, !tbaa !429
  %5 = tail call x86_stdcallcc i32 @"\01_WaitForSingleObject@8"(i8* %4, i32 -1) #6, !dbg !439
  %6 = bitcast %struct.halide_thread* %0 to i8*, !dbg !440
  tail call void @free(i8* %6) #6, !dbg !440
  ret void, !dbg !441
}

declare dso_local x86_stdcallcc i32 @"\01_WaitForSingleObject@8"(i8*, i32) local_unnamed_addr #3

declare dso_local void @free(i8*) local_unnamed_addr #3

; Function Attrs: nounwind
define weak dso_local x86_thiscallcc void @"?lock_full@word_lock@Synchronization@Internal@Runtime@Halide@@AAEXXZ"(%"class.Halide::Runtime::Internal::Synchronization::word_lock"* nonnull dereferenceable(4) %0) local_unnamed_addr #4 align 2 !dbg !442 {
  %2 = alloca %"struct.Halide::Runtime::Internal::Synchronization::word_lock_queue_data", align 8
  call void @llvm.dbg.value(metadata %"class.Halide::Runtime::Internal::Synchronization::word_lock"* %0, metadata !444, metadata !DIExpression()), !dbg !466
  call void @llvm.dbg.value(metadata i32 40, metadata !446, metadata !DIExpression()), !dbg !466
  %3 = getelementptr inbounds %"class.Halide::Runtime::Internal::Synchronization::word_lock", %"class.Halide::Runtime::Internal::Synchronization::word_lock"* %0, i32 0, i32 0, !dbg !467
  %4 = load i32, i32* %3, align 4, !dbg !467, !tbaa !468
  %5 = bitcast %"struct.Halide::Runtime::Internal::Synchronization::word_lock_queue_data"* %2 to i8*
  %6 = getelementptr inbounds %"struct.Halide::Runtime::Internal::Synchronization::word_lock_queue_data", %"struct.Halide::Runtime::Internal::Synchronization::word_lock_queue_data"* %2, i32 0, i32 0, i32 2
  %7 = getelementptr inbounds %"struct.Halide::Runtime::Internal::Synchronization::word_lock_queue_data", %"struct.Halide::Runtime::Internal::Synchronization::word_lock_queue_data"* %2, i32 0, i32 0, i32 0
  %8 = getelementptr inbounds %"struct.Halide::Runtime::Internal::Synchronization::word_lock_queue_data", %"struct.Halide::Runtime::Internal::Synchronization::word_lock_queue_data"* %2, i32 0, i32 0, i32 1
  %9 = getelementptr inbounds %"struct.Halide::Runtime::Internal::Synchronization::word_lock_queue_data", %"struct.Halide::Runtime::Internal::Synchronization::word_lock_queue_data"* %2, i32 0, i32 1
  %10 = getelementptr inbounds %"struct.Halide::Runtime::Internal::Synchronization::word_lock_queue_data", %"struct.Halide::Runtime::Internal::Synchronization::word_lock_queue_data"* %2, i32 0, i32 2
  %11 = getelementptr inbounds %"struct.Halide::Runtime::Internal::Synchronization::word_lock_queue_data", %"struct.Halide::Runtime::Internal::Synchronization::word_lock_queue_data"* %2, i32 0, i32 3
  %12 = ptrtoint %"struct.Halide::Runtime::Internal::Synchronization::word_lock_queue_data"* %2 to i32
  br label %13, !dbg !470

13:                                               ; preds = %58, %1
  %14 = phi i32 [ %4, %1 ], [ %59, %58 ]
  %15 = phi i32 [ 40, %1 ], [ %60, %58 ]
  br label %16, !dbg !471

16:                                               ; preds = %13, %20
  %17 = phi i32 [ %23, %20 ], [ %14, %13 ], !dbg !466
  call void @llvm.dbg.value(metadata i32 %15, metadata !446, metadata !DIExpression()), !dbg !466
  call void @llvm.dbg.value(metadata i32 %17, metadata !458, metadata !DIExpression()), !dbg !466
  %18 = and i32 %17, 1, !dbg !471
  %19 = icmp eq i32 %18, 0, !dbg !471
  br i1 %19, label %20, label %25, !dbg !471

20:                                               ; preds = %16
  call void @llvm.dbg.value(metadata i32 %17, metadata !458, metadata !DIExpression()), !dbg !466
  %21 = or i32 %17, 1, !dbg !472
  call void @llvm.dbg.value(metadata i32 %21, metadata !459, metadata !DIExpression()), !dbg !473
  call void @llvm.dbg.value(metadata i32* undef, metadata !474, metadata !DIExpression()), !dbg !482
  call void @llvm.dbg.value(metadata i32* undef, metadata !480, metadata !DIExpression()), !dbg !482
  call void @llvm.dbg.value(metadata i32* %3, metadata !481, metadata !DIExpression()), !dbg !482
  call void @llvm.dbg.value(metadata i32* undef, metadata !484, metadata !DIExpression()), !dbg !496
  call void @llvm.dbg.value(metadata i32* undef, metadata !490, metadata !DIExpression()), !dbg !496
  call void @llvm.dbg.value(metadata i32* %3, metadata !491, metadata !DIExpression()), !dbg !496
  call void @llvm.dbg.value(metadata i32 %17, metadata !492, metadata !DIExpression()), !dbg !496
  %22 = cmpxchg i32* %3, i32 %17, i32 %21 seq_cst seq_cst, !dbg !498
  %23 = extractvalue { i32, i1 } %22, 0, !dbg !498
  call void @llvm.dbg.value(metadata i32 %23, metadata !493, metadata !DIExpression()), !dbg !496
  %24 = icmp eq i32 %17, %23, !dbg !499
  br i1 %24, label %61, label %16

25:                                               ; preds = %16
  %26 = icmp ugt i32 %17, 3, !dbg !500
  %27 = icmp sgt i32 %15, 0
  %28 = and i1 %26, %27, !dbg !500
  call void @llvm.dbg.value(metadata %"class.Halide::Runtime::Internal::Synchronization::spin_control"* undef, metadata !501, metadata !DIExpression()), !dbg !505
  br i1 %28, label %29, label %34, !dbg !500

29:                                               ; preds = %25
  call void @llvm.dbg.value(metadata i32 %15, metadata !446, metadata !DIExpression(DW_OP_constu, 1, DW_OP_minus, DW_OP_stack_value)), !dbg !466
  %30 = icmp sgt i32 %15, 1, !dbg !507
  br i1 %30, label %31, label %34, !dbg !500

31:                                               ; preds = %29
  %32 = add nsw i32 %15, -1, !dbg !508
  call void @llvm.dbg.value(metadata i32 %32, metadata !446, metadata !DIExpression()), !dbg !466
  call void @halide_thread_yield() #6, !dbg !511
  %33 = load i32, i32* %3, align 4, !dbg !514, !tbaa !468
  br label %58, !dbg !515

34:                                               ; preds = %29, %25
  %35 = phi i32 [ %15, %25 ], [ 0, %29 ], !dbg !466
  call void @llvm.dbg.value(metadata i32 %35, metadata !446, metadata !DIExpression()), !dbg !466
  call void @llvm.lifetime.start.p0i8(i64 72, i8* nonnull %5) #7, !dbg !516
  call void @llvm.dbg.declare(metadata %"struct.Halide::Runtime::Internal::Synchronization::word_lock_queue_data"* %2, metadata !463, metadata !DIExpression()), !dbg !516
  call void @llvm.dbg.value(metadata %"struct.Halide::Runtime::Internal::Synchronization::word_lock_queue_data"* %2, metadata !517, metadata !DIExpression()) #7, !dbg !520
  call void @llvm.dbg.value(metadata %"struct.Halide::Runtime::Internal::Synchronization::word_lock_queue_data"* %2, metadata !522, metadata !DIExpression()) #7, !dbg !526
  store i8 0, i8* %6, align 8, !dbg !528, !tbaa !529
  call x86_stdcallcc void @"\01_InitializeCriticalSection@4"(%struct.CriticalSection* nonnull %7) #6, !dbg !534
  call x86_stdcallcc void @"\01_InitializeConditionVariable@4"(i64* nonnull %8) #6, !dbg !536
  store %"struct.Halide::Runtime::Internal::Synchronization::word_lock_queue_data"* null, %"struct.Halide::Runtime::Internal::Synchronization::word_lock_queue_data"** %9, align 8, !dbg !537, !tbaa !538
  store %"struct.Halide::Runtime::Internal::Synchronization::word_lock_queue_data"* null, %"struct.Halide::Runtime::Internal::Synchronization::word_lock_queue_data"** %10, align 4, !dbg !537, !tbaa !540
  store %"struct.Halide::Runtime::Internal::Synchronization::word_lock_queue_data"* null, %"struct.Halide::Runtime::Internal::Synchronization::word_lock_queue_data"** %11, align 8, !dbg !537, !tbaa !541
  call void @llvm.dbg.value(metadata %"struct.Halide::Runtime::Internal::Synchronization::word_lock_queue_data"* %2, metadata !542, metadata !DIExpression()), !dbg !545
  store i8 1, i8* %6, align 8, !dbg !547, !tbaa !529
  call void @llvm.dbg.value(metadata i32 %17, metadata !458, metadata !DIExpression()), !dbg !466
  %36 = and i32 %17, -4, !dbg !548
  call void @llvm.dbg.value(metadata i32 %36, metadata !464, metadata !DIExpression()), !dbg !549
  %37 = icmp eq i32 %36, 0, !dbg !550
  br i1 %37, label %38, label %39, !dbg !550

38:                                               ; preds = %34
  store %"struct.Halide::Runtime::Internal::Synchronization::word_lock_queue_data"* %2, %"struct.Halide::Runtime::Internal::Synchronization::word_lock_queue_data"** %11, align 8, !dbg !551, !tbaa !541
  br label %41, !dbg !554

39:                                               ; preds = %34
  %40 = inttoptr i32 %36 to %"struct.Halide::Runtime::Internal::Synchronization::word_lock_queue_data"*, !dbg !548
  call void @llvm.dbg.value(metadata %"struct.Halide::Runtime::Internal::Synchronization::word_lock_queue_data"* %40, metadata !464, metadata !DIExpression()), !dbg !549
  store %"struct.Halide::Runtime::Internal::Synchronization::word_lock_queue_data"* %40, %"struct.Halide::Runtime::Internal::Synchronization::word_lock_queue_data"** %9, align 8, !dbg !555, !tbaa !538
  br label %41, !dbg !557

41:                                               ; preds = %39, %38
  call void @llvm.dbg.value(metadata i32 %17, metadata !458, metadata !DIExpression()), !dbg !466
  %42 = and i32 %17, 3, !dbg !558
  %43 = or i32 %42, %12, !dbg !558
  call void @llvm.dbg.value(metadata i32 %43, metadata !465, metadata !DIExpression()), !dbg !549
  call void @llvm.dbg.value(metadata i32* undef, metadata !559, metadata !DIExpression()), !dbg !564
  call void @llvm.dbg.value(metadata i32* undef, metadata !562, metadata !DIExpression()), !dbg !564
  call void @llvm.dbg.value(metadata i32* %3, metadata !563, metadata !DIExpression()), !dbg !564
  call void @llvm.dbg.value(metadata i32* undef, metadata !484, metadata !DIExpression()), !dbg !566
  call void @llvm.dbg.value(metadata i32* undef, metadata !490, metadata !DIExpression()), !dbg !566
  call void @llvm.dbg.value(metadata i32* %3, metadata !491, metadata !DIExpression()), !dbg !566
  call void @llvm.dbg.value(metadata i32 %17, metadata !492, metadata !DIExpression()), !dbg !566
  %44 = cmpxchg i32* %3, i32 %17, i32 %43 seq_cst seq_cst, !dbg !568
  %45 = extractvalue { i32, i1 } %44, 0, !dbg !568
  call void @llvm.dbg.value(metadata i32 %45, metadata !493, metadata !DIExpression()), !dbg !566
  %46 = icmp eq i32 %17, %45, !dbg !569
  br i1 %46, label %47, label %55, !dbg !570

47:                                               ; preds = %41
  call void @llvm.dbg.value(metadata %"struct.Halide::Runtime::Internal::Synchronization::word_lock_queue_data"* %2, metadata !571, metadata !DIExpression()) #7, !dbg !574
  call x86_stdcallcc void @"\01_EnterCriticalSection@4"(%struct.CriticalSection* nonnull %7) #6, !dbg !578
  %48 = load i8, i8* %6, align 8, !dbg !579, !tbaa !529, !range !580
  %49 = icmp eq i8 %48, 0, !dbg !579
  br i1 %49, label %53, label %50, !dbg !579

50:                                               ; preds = %47, %50
  call x86_stdcallcc void @"\01_SleepConditionVariableCS@12"(i64* nonnull %8, %struct.CriticalSection* nonnull %7, i32 -1) #6, !dbg !581
  %51 = load i8, i8* %6, align 8, !dbg !579, !tbaa !529, !range !580
  %52 = icmp eq i8 %51, 0, !dbg !579
  br i1 %52, label %53, label %50, !dbg !579, !llvm.loop !583

53:                                               ; preds = %50, %47
  call x86_stdcallcc void @"\01_LeaveCriticalSection@4"(%struct.CriticalSection* nonnull %7) #6, !dbg !586
  call void @llvm.dbg.value(metadata i32 40, metadata !446, metadata !DIExpression()), !dbg !466
  %54 = load i32, i32* %3, align 4, !dbg !587, !tbaa !468
  br label %55, !dbg !588

55:                                               ; preds = %53, %41
  %56 = phi i32 [ %54, %53 ], [ %45, %41 ], !dbg !549
  %57 = phi i32 [ 40, %53 ], [ %35, %41 ], !dbg !466
  call void @llvm.dbg.value(metadata i32 %57, metadata !446, metadata !DIExpression()), !dbg !466
  call void @llvm.dbg.value(metadata %"struct.Halide::Runtime::Internal::Synchronization::word_lock_queue_data"* %2, metadata !589, metadata !DIExpression()) #7, !dbg !592
  call void @llvm.dbg.value(metadata %"struct.Halide::Runtime::Internal::Synchronization::word_lock_queue_data"* %2, metadata !594, metadata !DIExpression()) #7, !dbg !597
  call x86_stdcallcc void @"\01_DeleteCriticalSection@4"(%struct.CriticalSection* nonnull %7) #6, !dbg !600
  call void @llvm.lifetime.end.p0i8(i64 72, i8* nonnull %5) #7, !dbg !602
  br label %58, !dbg !470

58:                                               ; preds = %55, %31
  %59 = phi i32 [ %33, %31 ], [ %56, %55 ]
  %60 = phi i32 [ %32, %31 ], [ %57, %55 ]
  br label %13, !dbg !471, !llvm.loop !603

61:                                               ; preds = %20
  ret void, !dbg !605
}

declare dso_local void @halide_thread_yield() local_unnamed_addr #3

; Function Attrs: nounwind
define weak dso_local x86_thiscallcc void @"?unlock_full@word_lock@Synchronization@Internal@Runtime@Halide@@AAEXXZ"(%"class.Halide::Runtime::Internal::Synchronization::word_lock"* nonnull dereferenceable(4) %0) local_unnamed_addr #4 align 2 !dbg !606 {
  call void @llvm.dbg.value(metadata %"class.Halide::Runtime::Internal::Synchronization::word_lock"* %0, metadata !608, metadata !DIExpression()), !dbg !630
  %2 = getelementptr inbounds %"class.Halide::Runtime::Internal::Synchronization::word_lock", %"class.Halide::Runtime::Internal::Synchronization::word_lock"* %0, i32 0, i32 0, !dbg !631
  %3 = load i32, i32* %2, align 4, !dbg !631, !tbaa !468
  call void @llvm.dbg.value(metadata i32* undef, metadata !632, metadata !DIExpression()), !dbg !638
  call void @llvm.dbg.value(metadata i32* undef, metadata !637, metadata !DIExpression()), !dbg !638
  br label %4, !dbg !640

4:                                                ; preds = %10, %1
  %5 = phi i32 [ %3, %1 ], [ %13, %10 ], !dbg !641
  call void @llvm.dbg.value(metadata i32 %5, metadata !609, metadata !DIExpression()), !dbg !630
  %6 = and i32 %5, 2, !dbg !642
  %7 = icmp ne i32 %6, 0, !dbg !642
  call void @llvm.dbg.value(metadata i1 %7, metadata !610, metadata !DIExpression(DW_OP_LLVM_convert, 1, DW_ATE_unsigned, DW_OP_LLVM_convert, 8, DW_ATE_unsigned, DW_OP_stack_value)), !dbg !643
  call void @llvm.dbg.value(metadata i1 undef, metadata !612, metadata !DIExpression(DW_OP_LLVM_convert, 1, DW_ATE_unsigned, DW_OP_LLVM_convert, 8, DW_ATE_unsigned, DW_OP_stack_value)), !dbg !643
  %8 = icmp ult i32 %5, 4
  %9 = or i1 %8, %7, !dbg !644
  call void @llvm.dbg.value(metadata i1 %8, metadata !612, metadata !DIExpression(DW_OP_LLVM_convert, 1, DW_ATE_unsigned, DW_OP_LLVM_convert, 8, DW_ATE_unsigned, DW_OP_stack_value)), !dbg !643
  br i1 %9, label %64, label %10, !dbg !644

10:                                               ; preds = %4
  call void @llvm.dbg.value(metadata i32 %5, metadata !609, metadata !DIExpression()), !dbg !630
  %11 = or i32 %5, 2, !dbg !645
  call void @llvm.dbg.value(metadata i32 %11, metadata !613, metadata !DIExpression()), !dbg !643
  call void @llvm.dbg.value(metadata i32* undef, metadata !474, metadata !DIExpression()), !dbg !646
  call void @llvm.dbg.value(metadata i32* undef, metadata !480, metadata !DIExpression()), !dbg !646
  call void @llvm.dbg.value(metadata i32* %2, metadata !481, metadata !DIExpression()), !dbg !646
  call void @llvm.dbg.value(metadata i32* undef, metadata !484, metadata !DIExpression()), !dbg !648
  call void @llvm.dbg.value(metadata i32* undef, metadata !490, metadata !DIExpression()), !dbg !648
  call void @llvm.dbg.value(metadata i32* %2, metadata !491, metadata !DIExpression()), !dbg !648
  call void @llvm.dbg.value(metadata i32 %5, metadata !492, metadata !DIExpression()), !dbg !648
  %12 = cmpxchg i32* %2, i32 %5, i32 %11 seq_cst seq_cst, !dbg !650
  %13 = extractvalue { i32, i1 } %12, 0, !dbg !650
  call void @llvm.dbg.value(metadata i32 %13, metadata !493, metadata !DIExpression()), !dbg !648
  %14 = icmp eq i32 %5, %13, !dbg !651
  br i1 %14, label %15, label %4

15:                                               ; preds = %10, %62
  %16 = phi i32 [ %63, %62 ], [ %5, %10 ], !dbg !630
  call void @llvm.dbg.value(metadata i32 %16, metadata !609, metadata !DIExpression()), !dbg !630
  %17 = and i32 %16, -4, !dbg !652
  %18 = inttoptr i32 %17 to %"struct.Halide::Runtime::Internal::Synchronization::word_lock_queue_data"*, !dbg !652
  call void @llvm.dbg.value(metadata %"struct.Halide::Runtime::Internal::Synchronization::word_lock_queue_data"* %18, metadata !614, metadata !DIExpression()), !dbg !653
  call void @llvm.dbg.value(metadata %"struct.Halide::Runtime::Internal::Synchronization::word_lock_queue_data"* %18, metadata !616, metadata !DIExpression()), !dbg !653
  %19 = getelementptr inbounds %"struct.Halide::Runtime::Internal::Synchronization::word_lock_queue_data", %"struct.Halide::Runtime::Internal::Synchronization::word_lock_queue_data"* %18, i32 0, i32 3, !dbg !654
  call void @llvm.dbg.value(metadata %"struct.Halide::Runtime::Internal::Synchronization::word_lock_queue_data"* undef, metadata !617, metadata !DIExpression()), !dbg !653
  call void @llvm.dbg.value(metadata i32 0, metadata !618, metadata !DIExpression()), !dbg !653
  %20 = load %"struct.Halide::Runtime::Internal::Synchronization::word_lock_queue_data"*, %"struct.Halide::Runtime::Internal::Synchronization::word_lock_queue_data"** %19, align 8, !dbg !653, !tbaa !541
  call void @llvm.dbg.value(metadata %"struct.Halide::Runtime::Internal::Synchronization::word_lock_queue_data"* %18, metadata !616, metadata !DIExpression()), !dbg !653
  call void @llvm.dbg.value(metadata i32 undef, metadata !618, metadata !DIExpression()), !dbg !653
  call void @llvm.dbg.value(metadata %"struct.Halide::Runtime::Internal::Synchronization::word_lock_queue_data"* %20, metadata !617, metadata !DIExpression()), !dbg !653
  %21 = icmp eq %"struct.Halide::Runtime::Internal::Synchronization::word_lock_queue_data"* %20, null, !dbg !655
  br i1 %21, label %22, label %33, !dbg !655

22:                                               ; preds = %15, %28
  %23 = phi %"struct.Halide::Runtime::Internal::Synchronization::word_lock_queue_data"* [ %25, %28 ], [ %18, %15 ]
  call void @llvm.dbg.value(metadata %"struct.Halide::Runtime::Internal::Synchronization::word_lock_queue_data"* %23, metadata !616, metadata !DIExpression()), !dbg !653
  %24 = getelementptr inbounds %"struct.Halide::Runtime::Internal::Synchronization::word_lock_queue_data", %"struct.Halide::Runtime::Internal::Synchronization::word_lock_queue_data"* %23, i32 0, i32 1, !dbg !656
  %25 = load %"struct.Halide::Runtime::Internal::Synchronization::word_lock_queue_data"*, %"struct.Halide::Runtime::Internal::Synchronization::word_lock_queue_data"** %24, align 8, !dbg !656, !tbaa !538
  call void @llvm.dbg.value(metadata %"struct.Halide::Runtime::Internal::Synchronization::word_lock_queue_data"* %25, metadata !619, metadata !DIExpression()), !dbg !657
  %26 = icmp eq %"struct.Halide::Runtime::Internal::Synchronization::word_lock_queue_data"* %25, null, !dbg !658
  br i1 %26, label %27, label %28, !dbg !658

27:                                               ; preds = %22
  tail call void @halide_print(i8* null, i8* getelementptr inbounds ([123 x i8], [123 x i8]* @"??_C@_0HL@IBCKBNIJ@?1media?1maaz?1Data?1Repos?1rake?1Hali@", i32 0, i32 0)) #6, !dbg !660
  tail call void @abort() #6, !dbg !660
  br label %28, !dbg !660

28:                                               ; preds = %27, %22
  %29 = getelementptr inbounds %"struct.Halide::Runtime::Internal::Synchronization::word_lock_queue_data", %"struct.Halide::Runtime::Internal::Synchronization::word_lock_queue_data"* %25, i32 0, i32 2, !dbg !663
  store %"struct.Halide::Runtime::Internal::Synchronization::word_lock_queue_data"* %23, %"struct.Halide::Runtime::Internal::Synchronization::word_lock_queue_data"** %29, align 4, !dbg !663, !tbaa !540
  call void @llvm.dbg.value(metadata %"struct.Halide::Runtime::Internal::Synchronization::word_lock_queue_data"* %25, metadata !616, metadata !DIExpression()), !dbg !653
  %30 = getelementptr inbounds %"struct.Halide::Runtime::Internal::Synchronization::word_lock_queue_data", %"struct.Halide::Runtime::Internal::Synchronization::word_lock_queue_data"* %25, i32 0, i32 3, !dbg !664
  call void @llvm.dbg.value(metadata %"struct.Halide::Runtime::Internal::Synchronization::word_lock_queue_data"* undef, metadata !617, metadata !DIExpression()), !dbg !653
  call void @llvm.dbg.value(metadata i32 undef, metadata !618, metadata !DIExpression(DW_OP_plus_uconst, 1, DW_OP_stack_value)), !dbg !653
  %31 = load %"struct.Halide::Runtime::Internal::Synchronization::word_lock_queue_data"*, %"struct.Halide::Runtime::Internal::Synchronization::word_lock_queue_data"** %30, align 8, !dbg !653, !tbaa !541
  call void @llvm.dbg.value(metadata i32 undef, metadata !618, metadata !DIExpression()), !dbg !653
  call void @llvm.dbg.value(metadata %"struct.Halide::Runtime::Internal::Synchronization::word_lock_queue_data"* %31, metadata !617, metadata !DIExpression()), !dbg !653
  %32 = icmp eq %"struct.Halide::Runtime::Internal::Synchronization::word_lock_queue_data"* %31, null, !dbg !655
  br i1 %32, label %22, label %33, !dbg !655, !llvm.loop !665

33:                                               ; preds = %28, %15
  %34 = phi %"struct.Halide::Runtime::Internal::Synchronization::word_lock_queue_data"* [ %20, %15 ], [ %31, %28 ], !dbg !653
  store %"struct.Halide::Runtime::Internal::Synchronization::word_lock_queue_data"* %34, %"struct.Halide::Runtime::Internal::Synchronization::word_lock_queue_data"** %19, align 8, !dbg !667, !tbaa !541
  call void @llvm.dbg.value(metadata i32 %16, metadata !609, metadata !DIExpression()), !dbg !630
  %35 = and i32 %16, 1, !dbg !668
  %36 = icmp eq i32 %35, 0, !dbg !668
  br i1 %36, label %42, label %37, !dbg !668

37:                                               ; preds = %33
  call void @llvm.dbg.value(metadata i32 %16, metadata !609, metadata !DIExpression()), !dbg !630
  %38 = and i32 %16, -3, !dbg !669
  call void @llvm.dbg.value(metadata i32 %38, metadata !621, metadata !DIExpression()), !dbg !670
  call void @llvm.dbg.value(metadata i32* undef, metadata !671, metadata !DIExpression()), !dbg !676
  call void @llvm.dbg.value(metadata i32* undef, metadata !674, metadata !DIExpression()), !dbg !676
  call void @llvm.dbg.value(metadata i32* %2, metadata !675, metadata !DIExpression()), !dbg !676
  call void @llvm.dbg.value(metadata i32* undef, metadata !484, metadata !DIExpression()), !dbg !678
  call void @llvm.dbg.value(metadata i32* undef, metadata !490, metadata !DIExpression()), !dbg !678
  call void @llvm.dbg.value(metadata i32* %2, metadata !491, metadata !DIExpression()), !dbg !678
  call void @llvm.dbg.value(metadata i32 %16, metadata !492, metadata !DIExpression()), !dbg !678
  %39 = cmpxchg i32* %2, i32 %16, i32 %38 seq_cst seq_cst, !dbg !680
  %40 = extractvalue { i32, i1 } %39, 0, !dbg !680
  call void @llvm.dbg.value(metadata i32 %40, metadata !493, metadata !DIExpression()), !dbg !678
  %41 = icmp eq i32 %16, %40, !dbg !681
  br i1 %41, label %64, label %62, !dbg !682, !llvm.loop !683

42:                                               ; preds = %33
  %43 = getelementptr inbounds %"struct.Halide::Runtime::Internal::Synchronization::word_lock_queue_data", %"struct.Halide::Runtime::Internal::Synchronization::word_lock_queue_data"* %34, i32 0, i32 2, !dbg !686
  %44 = load %"struct.Halide::Runtime::Internal::Synchronization::word_lock_queue_data"*, %"struct.Halide::Runtime::Internal::Synchronization::word_lock_queue_data"** %43, align 4, !dbg !686, !tbaa !540
  call void @llvm.dbg.value(metadata %"struct.Halide::Runtime::Internal::Synchronization::word_lock_queue_data"* %44, metadata !624, metadata !DIExpression()), !dbg !653
  %45 = icmp eq %"struct.Halide::Runtime::Internal::Synchronization::word_lock_queue_data"* %44, null, !dbg !687
  br i1 %45, label %46, label %56, !dbg !687

46:                                               ; preds = %42, %52
  %47 = phi i32 [ %50, %52 ], [ %16, %42 ]
  call void @llvm.dbg.value(metadata i8 0, metadata !625, metadata !DIExpression()), !dbg !688
  call void @llvm.dbg.value(metadata i32 %47, metadata !609, metadata !DIExpression()), !dbg !630
  %48 = and i32 %47, 1, !dbg !689
  call void @llvm.dbg.value(metadata i32 %48, metadata !628, metadata !DIExpression()), !dbg !690
  call void @llvm.dbg.value(metadata i32* undef, metadata !671, metadata !DIExpression()), !dbg !691
  call void @llvm.dbg.value(metadata i32* undef, metadata !674, metadata !DIExpression()), !dbg !691
  call void @llvm.dbg.value(metadata i32* %2, metadata !675, metadata !DIExpression()), !dbg !691
  call void @llvm.dbg.value(metadata i32* undef, metadata !484, metadata !DIExpression()), !dbg !693
  call void @llvm.dbg.value(metadata i32* undef, metadata !490, metadata !DIExpression()), !dbg !693
  call void @llvm.dbg.value(metadata i32* %2, metadata !491, metadata !DIExpression()), !dbg !693
  call void @llvm.dbg.value(metadata i32 %47, metadata !492, metadata !DIExpression()), !dbg !693
  %49 = cmpxchg i32* %2, i32 %47, i32 %48 seq_cst seq_cst, !dbg !695
  %50 = extractvalue { i32, i1 } %49, 0, !dbg !695
  call void @llvm.dbg.value(metadata i32 %50, metadata !493, metadata !DIExpression()), !dbg !693
  %51 = icmp eq i32 %47, %50, !dbg !696
  br i1 %51, label %58, label %52, !dbg !697

52:                                               ; preds = %46
  call void @llvm.dbg.value(metadata i32 %50, metadata !609, metadata !DIExpression()), !dbg !630
  %53 = icmp ult i32 %50, 4, !dbg !698
  br i1 %53, label %46, label %54, !dbg !698, !llvm.loop !699

54:                                               ; preds = %52
  %55 = extractvalue { i32, i1 } %49, 0, !dbg !695
  call void @llvm.dbg.value(metadata i8 0, metadata !625, metadata !DIExpression()), !dbg !688
  br label %62

56:                                               ; preds = %42
  store %"struct.Halide::Runtime::Internal::Synchronization::word_lock_queue_data"* %44, %"struct.Halide::Runtime::Internal::Synchronization::word_lock_queue_data"** %19, align 8, !dbg !702, !tbaa !541
  call void @llvm.dbg.value(metadata i32 -3, metadata !704, metadata !DIExpression()), !dbg !710
  call void @llvm.dbg.value(metadata i32* %2, metadata !709, metadata !DIExpression()), !dbg !710
  %57 = atomicrmw and i32* %2, i32 -3 seq_cst, !dbg !712
  br label %58, !dbg !713

58:                                               ; preds = %46, %56
  call void @llvm.dbg.value(metadata %"struct.Halide::Runtime::Internal::Synchronization::word_lock_queue_data"* %34, metadata !714, metadata !DIExpression()) #7, !dbg !717
  %59 = getelementptr inbounds %"struct.Halide::Runtime::Internal::Synchronization::word_lock_queue_data", %"struct.Halide::Runtime::Internal::Synchronization::word_lock_queue_data"* %34, i32 0, i32 0, i32 0, !dbg !719
  tail call x86_stdcallcc void @"\01_EnterCriticalSection@4"(%struct.CriticalSection* nonnull %59) #6, !dbg !719
  call void @llvm.dbg.value(metadata %"struct.Halide::Runtime::Internal::Synchronization::word_lock_queue_data"* %34, metadata !720, metadata !DIExpression()) #7, !dbg !723
  %60 = getelementptr inbounds %"struct.Halide::Runtime::Internal::Synchronization::word_lock_queue_data", %"struct.Halide::Runtime::Internal::Synchronization::word_lock_queue_data"* %34, i32 0, i32 0, i32 2, !dbg !725
  store i8 0, i8* %60, align 8, !dbg !725, !tbaa !529
  %61 = getelementptr inbounds %"struct.Halide::Runtime::Internal::Synchronization::word_lock_queue_data", %"struct.Halide::Runtime::Internal::Synchronization::word_lock_queue_data"* %34, i32 0, i32 0, i32 1, !dbg !726
  tail call x86_stdcallcc void @"\01_WakeConditionVariable@4"(i64* nonnull %61) #6, !dbg !726
  call void @llvm.dbg.value(metadata %"struct.Halide::Runtime::Internal::Synchronization::word_lock_queue_data"* %34, metadata !727, metadata !DIExpression()) #7, !dbg !730
  tail call x86_stdcallcc void @"\01_LeaveCriticalSection@4"(%struct.CriticalSection* nonnull %59) #6, !dbg !732
  br label %64, !dbg !733

62:                                               ; preds = %37, %54
  %63 = phi i32 [ %55, %54 ], [ %40, %37 ], !dbg !653
  fence seq_cst, !dbg !653
  br label %15

64:                                               ; preds = %4, %37, %58
  ret void, !dbg !734
}

declare extern_weak void @halide_print(i8*, i8*) local_unnamed_addr #3

declare dso_local void @abort() local_unnamed_addr #3

; Function Attrs: nounwind mustprogress
define weak dso_local nonnull align 4 dereferenceable(12) %"struct.Halide::Runtime::Internal::Synchronization::hash_bucket"* @"?lock_bucket@Synchronization@Internal@Runtime@Halide@@YAAAUhash_bucket@1234@I@Z"(i32 %0) local_unnamed_addr #0 !dbg !735 {
  call void @llvm.dbg.value(metadata i32 %0, metadata !740, metadata !DIExpression()), !dbg !743
  call void @llvm.dbg.value(metadata i32 10, metadata !744, metadata !DIExpression()), !dbg !750
  call void @llvm.dbg.value(metadata i32 %0, metadata !749, metadata !DIExpression()), !dbg !750
  %2 = mul i32 %0, -1640531527, !dbg !752
  %3 = lshr i32 %2, 22, !dbg !752
  call void @llvm.dbg.value(metadata i32 %3, metadata !741, metadata !DIExpression()), !dbg !743
  %4 = getelementptr inbounds [1024 x %"struct.Halide::Runtime::Internal::Synchronization::hash_bucket"], [1024 x %"struct.Halide::Runtime::Internal::Synchronization::hash_bucket"]* bitcast ([12288 x i8]* @"?table_storage@Synchronization@Internal@Runtime@Halide@@3PADA" to [1024 x %"struct.Halide::Runtime::Internal::Synchronization::hash_bucket"]*), i32 0, i32 %3, !dbg !755
  call void @llvm.dbg.value(metadata %"struct.Halide::Runtime::Internal::Synchronization::hash_bucket"* %4, metadata !742, metadata !DIExpression()), !dbg !743
  call void @llvm.dbg.value(metadata %"struct.Halide::Runtime::Internal::Synchronization::hash_bucket"* %4, metadata !756, metadata !DIExpression()) #7, !dbg !761
  call void @llvm.dbg.value(metadata i32 0, metadata !759, metadata !DIExpression()) #7, !dbg !761
  call void @llvm.dbg.value(metadata i32 1, metadata !760, metadata !DIExpression()) #7, !dbg !761
  %5 = getelementptr inbounds %"struct.Halide::Runtime::Internal::Synchronization::hash_bucket", %"struct.Halide::Runtime::Internal::Synchronization::hash_bucket"* %4, i32 0, i32 0, i32 0, !dbg !763
  call void @llvm.dbg.value(metadata i32* undef, metadata !474, metadata !DIExpression()) #7, !dbg !764
  call void @llvm.dbg.value(metadata i32* undef, metadata !480, metadata !DIExpression()) #7, !dbg !764
  call void @llvm.dbg.value(metadata i32* %5, metadata !481, metadata !DIExpression()) #7, !dbg !764
  call void @llvm.dbg.value(metadata i32* undef, metadata !484, metadata !DIExpression()) #7, !dbg !766
  call void @llvm.dbg.value(metadata i32* undef, metadata !490, metadata !DIExpression()) #7, !dbg !766
  call void @llvm.dbg.value(metadata i32* %5, metadata !491, metadata !DIExpression()) #7, !dbg !766
  call void @llvm.dbg.value(metadata i32 0, metadata !492, metadata !DIExpression()) #7, !dbg !766
  %6 = cmpxchg i32* %5, i32 0, i32 1 seq_cst seq_cst, !dbg !768
  call void @llvm.dbg.value(metadata i32 undef, metadata !493, metadata !DIExpression()) #7, !dbg !766
  %7 = extractvalue { i32, i1 } %6, 1, !dbg !769
  br i1 %7, label %10, label %8, !dbg !763

8:                                                ; preds = %1
  %9 = getelementptr inbounds %"struct.Halide::Runtime::Internal::Synchronization::hash_bucket", %"struct.Halide::Runtime::Internal::Synchronization::hash_bucket"* %4, i32 0, i32 0, !dbg !770
  call void @llvm.dbg.value(metadata %"class.Halide::Runtime::Internal::Synchronization::word_lock"* %9, metadata !756, metadata !DIExpression()) #7, !dbg !761
  tail call x86_thiscallcc void @"?lock_full@word_lock@Synchronization@Internal@Runtime@Halide@@AAEXXZ"(%"class.Halide::Runtime::Internal::Synchronization::word_lock"* nonnull dereferenceable(4) %9) #6, !dbg !771
  br label %10, !dbg !774

10:                                               ; preds = %1, %8
  ret %"struct.Halide::Runtime::Internal::Synchronization::hash_bucket"* %4, !dbg !775
}

; Function Attrs: nounwind
define weak dso_local void @"?lock_bucket_pair@Synchronization@Internal@Runtime@Halide@@YA?AUbucket_pair@1234@II@Z"(%"struct.Halide::Runtime::Internal::Synchronization::bucket_pair"* noalias sret(%"struct.Halide::Runtime::Internal::Synchronization::bucket_pair") align 4 %0, i32 %1, i32 %2) local_unnamed_addr #4 !dbg !776 {
  call void @llvm.dbg.value(metadata i32 %2, metadata !788, metadata !DIExpression()), !dbg !802
  call void @llvm.dbg.value(metadata i32 %1, metadata !789, metadata !DIExpression()), !dbg !802
  call void @llvm.dbg.value(metadata i32 10, metadata !744, metadata !DIExpression()), !dbg !803
  call void @llvm.dbg.value(metadata i32 %1, metadata !749, metadata !DIExpression()), !dbg !803
  %4 = mul i32 %1, -1640531527, !dbg !805
  %5 = lshr i32 %4, 22, !dbg !805
  call void @llvm.dbg.value(metadata i32 %5, metadata !790, metadata !DIExpression()), !dbg !802
  call void @llvm.dbg.value(metadata i32 10, metadata !744, metadata !DIExpression()), !dbg !806
  call void @llvm.dbg.value(metadata i32 %2, metadata !749, metadata !DIExpression()), !dbg !806
  %6 = mul i32 %2, -1640531527, !dbg !808
  %7 = lshr i32 %6, 22, !dbg !808
  call void @llvm.dbg.value(metadata i32 %7, metadata !791, metadata !DIExpression()), !dbg !802
  %8 = icmp eq i32 %5, %7, !dbg !809
  br i1 %8, label %9, label %16, !dbg !809

9:                                                ; preds = %3
  %10 = getelementptr inbounds [1024 x %"struct.Halide::Runtime::Internal::Synchronization::hash_bucket"], [1024 x %"struct.Halide::Runtime::Internal::Synchronization::hash_bucket"]* bitcast ([12288 x i8]* @"?table_storage@Synchronization@Internal@Runtime@Halide@@3PADA" to [1024 x %"struct.Halide::Runtime::Internal::Synchronization::hash_bucket"]*), i32 0, i32 %5, !dbg !810
  call void @llvm.dbg.value(metadata %"struct.Halide::Runtime::Internal::Synchronization::hash_bucket"* %10, metadata !792, metadata !DIExpression()), !dbg !811
  call void @llvm.dbg.value(metadata %"struct.Halide::Runtime::Internal::Synchronization::hash_bucket"* %10, metadata !756, metadata !DIExpression()) #7, !dbg !812
  call void @llvm.dbg.value(metadata i32 0, metadata !759, metadata !DIExpression()) #7, !dbg !812
  call void @llvm.dbg.value(metadata i32 1, metadata !760, metadata !DIExpression()) #7, !dbg !812
  %11 = getelementptr inbounds %"struct.Halide::Runtime::Internal::Synchronization::hash_bucket", %"struct.Halide::Runtime::Internal::Synchronization::hash_bucket"* %10, i32 0, i32 0, i32 0, !dbg !814
  call void @llvm.dbg.value(metadata i32* undef, metadata !474, metadata !DIExpression()) #7, !dbg !815
  call void @llvm.dbg.value(metadata i32* undef, metadata !480, metadata !DIExpression()) #7, !dbg !815
  call void @llvm.dbg.value(metadata i32* %11, metadata !481, metadata !DIExpression()) #7, !dbg !815
  call void @llvm.dbg.value(metadata i32* undef, metadata !484, metadata !DIExpression()) #7, !dbg !817
  call void @llvm.dbg.value(metadata i32* undef, metadata !490, metadata !DIExpression()) #7, !dbg !817
  call void @llvm.dbg.value(metadata i32* %11, metadata !491, metadata !DIExpression()) #7, !dbg !817
  call void @llvm.dbg.value(metadata i32 0, metadata !492, metadata !DIExpression()) #7, !dbg !817
  %12 = cmpxchg i32* %11, i32 0, i32 1 seq_cst seq_cst, !dbg !819
  call void @llvm.dbg.value(metadata i32 undef, metadata !493, metadata !DIExpression()) #7, !dbg !817
  %13 = extractvalue { i32, i1 } %12, 1, !dbg !820
  br i1 %13, label %46, label %14, !dbg !814

14:                                               ; preds = %9
  %15 = getelementptr inbounds %"struct.Halide::Runtime::Internal::Synchronization::hash_bucket", %"struct.Halide::Runtime::Internal::Synchronization::hash_bucket"* %10, i32 0, i32 0, !dbg !821
  call void @llvm.dbg.value(metadata %"class.Halide::Runtime::Internal::Synchronization::word_lock"* %15, metadata !756, metadata !DIExpression()) #7, !dbg !812
  tail call x86_thiscallcc void @"?lock_full@word_lock@Synchronization@Internal@Runtime@Halide@@AAEXXZ"(%"class.Halide::Runtime::Internal::Synchronization::word_lock"* nonnull dereferenceable(4) %15) #6, !dbg !822
  br label %46, !dbg !823

16:                                               ; preds = %3
  %17 = icmp ult i32 %5, %7, !dbg !824
  br i1 %17, label %18, label %32, !dbg !824

18:                                               ; preds = %16
  %19 = getelementptr inbounds [1024 x %"struct.Halide::Runtime::Internal::Synchronization::hash_bucket"], [1024 x %"struct.Halide::Runtime::Internal::Synchronization::hash_bucket"]* bitcast ([12288 x i8]* @"?table_storage@Synchronization@Internal@Runtime@Halide@@3PADA" to [1024 x %"struct.Halide::Runtime::Internal::Synchronization::hash_bucket"]*), i32 0, i32 %5, !dbg !825
  call void @llvm.dbg.value(metadata %"struct.Halide::Runtime::Internal::Synchronization::hash_bucket"* %19, metadata !795, metadata !DIExpression()), !dbg !826
  %20 = getelementptr inbounds [1024 x %"struct.Halide::Runtime::Internal::Synchronization::hash_bucket"], [1024 x %"struct.Halide::Runtime::Internal::Synchronization::hash_bucket"]* bitcast ([12288 x i8]* @"?table_storage@Synchronization@Internal@Runtime@Halide@@3PADA" to [1024 x %"struct.Halide::Runtime::Internal::Synchronization::hash_bucket"]*), i32 0, i32 %7, !dbg !827
  call void @llvm.dbg.value(metadata %"struct.Halide::Runtime::Internal::Synchronization::hash_bucket"* %20, metadata !798, metadata !DIExpression()), !dbg !826
  call void @llvm.dbg.value(metadata %"struct.Halide::Runtime::Internal::Synchronization::hash_bucket"* %19, metadata !756, metadata !DIExpression()) #7, !dbg !828
  call void @llvm.dbg.value(metadata i32 0, metadata !759, metadata !DIExpression()) #7, !dbg !828
  call void @llvm.dbg.value(metadata i32 1, metadata !760, metadata !DIExpression()) #7, !dbg !828
  %21 = getelementptr inbounds %"struct.Halide::Runtime::Internal::Synchronization::hash_bucket", %"struct.Halide::Runtime::Internal::Synchronization::hash_bucket"* %19, i32 0, i32 0, i32 0, !dbg !830
  call void @llvm.dbg.value(metadata i32* undef, metadata !474, metadata !DIExpression()) #7, !dbg !831
  call void @llvm.dbg.value(metadata i32* undef, metadata !480, metadata !DIExpression()) #7, !dbg !831
  call void @llvm.dbg.value(metadata i32* %21, metadata !481, metadata !DIExpression()) #7, !dbg !831
  call void @llvm.dbg.value(metadata i32* undef, metadata !484, metadata !DIExpression()) #7, !dbg !833
  call void @llvm.dbg.value(metadata i32* undef, metadata !490, metadata !DIExpression()) #7, !dbg !833
  call void @llvm.dbg.value(metadata i32* %21, metadata !491, metadata !DIExpression()) #7, !dbg !833
  call void @llvm.dbg.value(metadata i32 0, metadata !492, metadata !DIExpression()) #7, !dbg !833
  %22 = cmpxchg i32* %21, i32 0, i32 1 seq_cst seq_cst, !dbg !835
  call void @llvm.dbg.value(metadata i32 undef, metadata !493, metadata !DIExpression()) #7, !dbg !833
  %23 = extractvalue { i32, i1 } %22, 1, !dbg !836
  br i1 %23, label %26, label %24, !dbg !830

24:                                               ; preds = %18
  %25 = getelementptr inbounds %"struct.Halide::Runtime::Internal::Synchronization::hash_bucket", %"struct.Halide::Runtime::Internal::Synchronization::hash_bucket"* %19, i32 0, i32 0, !dbg !837
  call void @llvm.dbg.value(metadata %"class.Halide::Runtime::Internal::Synchronization::word_lock"* %25, metadata !756, metadata !DIExpression()) #7, !dbg !828
  tail call x86_thiscallcc void @"?lock_full@word_lock@Synchronization@Internal@Runtime@Halide@@AAEXXZ"(%"class.Halide::Runtime::Internal::Synchronization::word_lock"* nonnull dereferenceable(4) %25) #6, !dbg !838
  br label %26, !dbg !839

26:                                               ; preds = %18, %24
  call void @llvm.dbg.value(metadata %"struct.Halide::Runtime::Internal::Synchronization::hash_bucket"* %20, metadata !756, metadata !DIExpression()) #7, !dbg !840
  call void @llvm.dbg.value(metadata i32 0, metadata !759, metadata !DIExpression()) #7, !dbg !840
  call void @llvm.dbg.value(metadata i32 1, metadata !760, metadata !DIExpression()) #7, !dbg !840
  %27 = getelementptr inbounds %"struct.Halide::Runtime::Internal::Synchronization::hash_bucket", %"struct.Halide::Runtime::Internal::Synchronization::hash_bucket"* %20, i32 0, i32 0, i32 0, !dbg !842
  call void @llvm.dbg.value(metadata i32* undef, metadata !474, metadata !DIExpression()) #7, !dbg !843
  call void @llvm.dbg.value(metadata i32* undef, metadata !480, metadata !DIExpression()) #7, !dbg !843
  call void @llvm.dbg.value(metadata i32* %27, metadata !481, metadata !DIExpression()) #7, !dbg !843
  call void @llvm.dbg.value(metadata i32* undef, metadata !484, metadata !DIExpression()) #7, !dbg !845
  call void @llvm.dbg.value(metadata i32* undef, metadata !490, metadata !DIExpression()) #7, !dbg !845
  call void @llvm.dbg.value(metadata i32* %27, metadata !491, metadata !DIExpression()) #7, !dbg !845
  call void @llvm.dbg.value(metadata i32 0, metadata !492, metadata !DIExpression()) #7, !dbg !845
  %28 = cmpxchg i32* %27, i32 0, i32 1 seq_cst seq_cst, !dbg !847
  call void @llvm.dbg.value(metadata i32 undef, metadata !493, metadata !DIExpression()) #7, !dbg !845
  %29 = extractvalue { i32, i1 } %28, 1, !dbg !848
  br i1 %29, label %46, label %30, !dbg !842

30:                                               ; preds = %26
  %31 = getelementptr inbounds %"struct.Halide::Runtime::Internal::Synchronization::hash_bucket", %"struct.Halide::Runtime::Internal::Synchronization::hash_bucket"* %20, i32 0, i32 0, !dbg !849
  call void @llvm.dbg.value(metadata %"class.Halide::Runtime::Internal::Synchronization::word_lock"* %31, metadata !756, metadata !DIExpression()) #7, !dbg !840
  tail call x86_thiscallcc void @"?lock_full@word_lock@Synchronization@Internal@Runtime@Halide@@AAEXXZ"(%"class.Halide::Runtime::Internal::Synchronization::word_lock"* nonnull dereferenceable(4) %31) #6, !dbg !850
  br label %46, !dbg !851

32:                                               ; preds = %16
  %33 = getelementptr inbounds [1024 x %"struct.Halide::Runtime::Internal::Synchronization::hash_bucket"], [1024 x %"struct.Halide::Runtime::Internal::Synchronization::hash_bucket"]* bitcast ([12288 x i8]* @"?table_storage@Synchronization@Internal@Runtime@Halide@@3PADA" to [1024 x %"struct.Halide::Runtime::Internal::Synchronization::hash_bucket"]*), i32 0, i32 %7, !dbg !852
  call void @llvm.dbg.value(metadata %"struct.Halide::Runtime::Internal::Synchronization::hash_bucket"* %33, metadata !799, metadata !DIExpression()), !dbg !853
  %34 = getelementptr inbounds [1024 x %"struct.Halide::Runtime::Internal::Synchronization::hash_bucket"], [1024 x %"struct.Halide::Runtime::Internal::Synchronization::hash_bucket"]* bitcast ([12288 x i8]* @"?table_storage@Synchronization@Internal@Runtime@Halide@@3PADA" to [1024 x %"struct.Halide::Runtime::Internal::Synchronization::hash_bucket"]*), i32 0, i32 %5, !dbg !854
  call void @llvm.dbg.value(metadata %"struct.Halide::Runtime::Internal::Synchronization::hash_bucket"* %34, metadata !801, metadata !DIExpression()), !dbg !853
  call void @llvm.dbg.value(metadata %"struct.Halide::Runtime::Internal::Synchronization::hash_bucket"* %33, metadata !756, metadata !DIExpression()) #7, !dbg !855
  call void @llvm.dbg.value(metadata i32 0, metadata !759, metadata !DIExpression()) #7, !dbg !855
  call void @llvm.dbg.value(metadata i32 1, metadata !760, metadata !DIExpression()) #7, !dbg !855
  %35 = getelementptr inbounds %"struct.Halide::Runtime::Internal::Synchronization::hash_bucket", %"struct.Halide::Runtime::Internal::Synchronization::hash_bucket"* %33, i32 0, i32 0, i32 0, !dbg !857
  call void @llvm.dbg.value(metadata i32* undef, metadata !474, metadata !DIExpression()) #7, !dbg !858
  call void @llvm.dbg.value(metadata i32* undef, metadata !480, metadata !DIExpression()) #7, !dbg !858
  call void @llvm.dbg.value(metadata i32* %35, metadata !481, metadata !DIExpression()) #7, !dbg !858
  call void @llvm.dbg.value(metadata i32* undef, metadata !484, metadata !DIExpression()) #7, !dbg !860
  call void @llvm.dbg.value(metadata i32* undef, metadata !490, metadata !DIExpression()) #7, !dbg !860
  call void @llvm.dbg.value(metadata i32* %35, metadata !491, metadata !DIExpression()) #7, !dbg !860
  call void @llvm.dbg.value(metadata i32 0, metadata !492, metadata !DIExpression()) #7, !dbg !860
  %36 = cmpxchg i32* %35, i32 0, i32 1 seq_cst seq_cst, !dbg !862
  call void @llvm.dbg.value(metadata i32 undef, metadata !493, metadata !DIExpression()) #7, !dbg !860
  %37 = extractvalue { i32, i1 } %36, 1, !dbg !863
  br i1 %37, label %40, label %38, !dbg !857

38:                                               ; preds = %32
  %39 = getelementptr inbounds %"struct.Halide::Runtime::Internal::Synchronization::hash_bucket", %"struct.Halide::Runtime::Internal::Synchronization::hash_bucket"* %33, i32 0, i32 0, !dbg !864
  call void @llvm.dbg.value(metadata %"class.Halide::Runtime::Internal::Synchronization::word_lock"* %39, metadata !756, metadata !DIExpression()) #7, !dbg !855
  tail call x86_thiscallcc void @"?lock_full@word_lock@Synchronization@Internal@Runtime@Halide@@AAEXXZ"(%"class.Halide::Runtime::Internal::Synchronization::word_lock"* nonnull dereferenceable(4) %39) #6, !dbg !865
  br label %40, !dbg !866

40:                                               ; preds = %32, %38
  call void @llvm.dbg.value(metadata %"struct.Halide::Runtime::Internal::Synchronization::hash_bucket"* %34, metadata !756, metadata !DIExpression()) #7, !dbg !867
  call void @llvm.dbg.value(metadata i32 0, metadata !759, metadata !DIExpression()) #7, !dbg !867
  call void @llvm.dbg.value(metadata i32 1, metadata !760, metadata !DIExpression()) #7, !dbg !867
  %41 = getelementptr inbounds %"struct.Halide::Runtime::Internal::Synchronization::hash_bucket", %"struct.Halide::Runtime::Internal::Synchronization::hash_bucket"* %34, i32 0, i32 0, i32 0, !dbg !869
  call void @llvm.dbg.value(metadata i32* undef, metadata !474, metadata !DIExpression()) #7, !dbg !870
  call void @llvm.dbg.value(metadata i32* undef, metadata !480, metadata !DIExpression()) #7, !dbg !870
  call void @llvm.dbg.value(metadata i32* %41, metadata !481, metadata !DIExpression()) #7, !dbg !870
  call void @llvm.dbg.value(metadata i32* undef, metadata !484, metadata !DIExpression()) #7, !dbg !872
  call void @llvm.dbg.value(metadata i32* undef, metadata !490, metadata !DIExpression()) #7, !dbg !872
  call void @llvm.dbg.value(metadata i32* %41, metadata !491, metadata !DIExpression()) #7, !dbg !872
  call void @llvm.dbg.value(metadata i32 0, metadata !492, metadata !DIExpression()) #7, !dbg !872
  %42 = cmpxchg i32* %41, i32 0, i32 1 seq_cst seq_cst, !dbg !874
  call void @llvm.dbg.value(metadata i32 undef, metadata !493, metadata !DIExpression()) #7, !dbg !872
  %43 = extractvalue { i32, i1 } %42, 1, !dbg !875
  br i1 %43, label %46, label %44, !dbg !869

44:                                               ; preds = %40
  %45 = getelementptr inbounds %"struct.Halide::Runtime::Internal::Synchronization::hash_bucket", %"struct.Halide::Runtime::Internal::Synchronization::hash_bucket"* %34, i32 0, i32 0, !dbg !876
  call void @llvm.dbg.value(metadata %"class.Halide::Runtime::Internal::Synchronization::word_lock"* %45, metadata !756, metadata !DIExpression()) #7, !dbg !867
  tail call x86_thiscallcc void @"?lock_full@word_lock@Synchronization@Internal@Runtime@Halide@@AAEXXZ"(%"class.Halide::Runtime::Internal::Synchronization::word_lock"* nonnull dereferenceable(4) %45) #6, !dbg !877
  br label %46, !dbg !878

46:                                               ; preds = %44, %40, %30, %26, %14, %9
  %47 = phi %"struct.Halide::Runtime::Internal::Synchronization::hash_bucket"* [ %10, %9 ], [ %10, %14 ], [ %19, %26 ], [ %19, %30 ], [ %34, %40 ], [ %34, %44 ]
  %48 = phi %"struct.Halide::Runtime::Internal::Synchronization::hash_bucket"* [ %10, %9 ], [ %10, %14 ], [ %20, %26 ], [ %20, %30 ], [ %33, %40 ], [ %33, %44 ]
  %49 = getelementptr inbounds %"struct.Halide::Runtime::Internal::Synchronization::bucket_pair", %"struct.Halide::Runtime::Internal::Synchronization::bucket_pair"* %0, i32 0, i32 0, !dbg !879
  store %"struct.Halide::Runtime::Internal::Synchronization::hash_bucket"* %47, %"struct.Halide::Runtime::Internal::Synchronization::hash_bucket"** %49, align 4, !dbg !879, !tbaa !880
  %50 = getelementptr inbounds %"struct.Halide::Runtime::Internal::Synchronization::bucket_pair", %"struct.Halide::Runtime::Internal::Synchronization::bucket_pair"* %0, i32 0, i32 1, !dbg !879
  store %"struct.Halide::Runtime::Internal::Synchronization::hash_bucket"* %48, %"struct.Halide::Runtime::Internal::Synchronization::hash_bucket"** %50, align 4, !dbg !879, !tbaa !880
  ret void, !dbg !881
}

; Function Attrs: nounwind mustprogress
define weak dso_local void @"?unlock_bucket_pair@Synchronization@Internal@Runtime@Halide@@YAXAAUbucket_pair@1234@@Z"(%"struct.Halide::Runtime::Internal::Synchronization::bucket_pair"* nonnull align 4 dereferenceable(8) %0) local_unnamed_addr #0 !dbg !882 {
  call void @llvm.dbg.value(metadata %"struct.Halide::Runtime::Internal::Synchronization::bucket_pair"* %0, metadata !887, metadata !DIExpression()), !dbg !888
  %2 = getelementptr inbounds %"struct.Halide::Runtime::Internal::Synchronization::bucket_pair", %"struct.Halide::Runtime::Internal::Synchronization::bucket_pair"* %0, i32 0, i32 0, !dbg !889
  %3 = load %"struct.Halide::Runtime::Internal::Synchronization::hash_bucket"*, %"struct.Halide::Runtime::Internal::Synchronization::hash_bucket"** %2, align 4, !dbg !889, !tbaa !890
  %4 = getelementptr inbounds %"struct.Halide::Runtime::Internal::Synchronization::bucket_pair", %"struct.Halide::Runtime::Internal::Synchronization::bucket_pair"* %0, i32 0, i32 1, !dbg !889
  %5 = load %"struct.Halide::Runtime::Internal::Synchronization::hash_bucket"*, %"struct.Halide::Runtime::Internal::Synchronization::hash_bucket"** %4, align 4, !dbg !889, !tbaa !892
  %6 = icmp eq %"struct.Halide::Runtime::Internal::Synchronization::hash_bucket"* %3, %5, !dbg !889
  br i1 %6, label %7, label %16, !dbg !889

7:                                                ; preds = %1
  call void @llvm.dbg.value(metadata %"struct.Halide::Runtime::Internal::Synchronization::hash_bucket"* %3, metadata !893, metadata !DIExpression()) #7, !dbg !899
  %8 = getelementptr inbounds %"struct.Halide::Runtime::Internal::Synchronization::hash_bucket", %"struct.Halide::Runtime::Internal::Synchronization::hash_bucket"* %3, i32 0, i32 0, i32 0, !dbg !903
  call void @llvm.dbg.value(metadata i32 -2, metadata !904, metadata !DIExpression()) #7, !dbg !908
  call void @llvm.dbg.value(metadata i32* %8, metadata !907, metadata !DIExpression()) #7, !dbg !908
  %9 = atomicrmw and i32* %8, i32 -2 seq_cst, !dbg !910
  call void @llvm.dbg.value(metadata i32 %9, metadata !896, metadata !DIExpression()) #7, !dbg !899
  %10 = and i32 %9, 2, !dbg !911
  %11 = icmp ne i32 %10, 0, !dbg !911
  call void @llvm.dbg.value(metadata i1 %11, metadata !897, metadata !DIExpression(DW_OP_LLVM_convert, 1, DW_ATE_unsigned, DW_OP_LLVM_convert, 8, DW_ATE_unsigned, DW_OP_stack_value)) #7, !dbg !899
  call void @llvm.dbg.value(metadata i1 undef, metadata !898, metadata !DIExpression(DW_OP_LLVM_convert, 1, DW_ATE_unsigned, DW_OP_LLVM_convert, 8, DW_ATE_unsigned, DW_OP_stack_value)) #7, !dbg !899
  %12 = icmp ult i32 %9, 4
  %13 = or i1 %12, %11, !dbg !912
  call void @llvm.dbg.value(metadata i1 %12, metadata !898, metadata !DIExpression(DW_OP_LLVM_convert, 1, DW_ATE_unsigned, DW_OP_LLVM_convert, 8, DW_ATE_unsigned, DW_OP_stack_value)) #7, !dbg !899
  br i1 %13, label %56, label %14, !dbg !912

14:                                               ; preds = %7
  %15 = getelementptr inbounds %"struct.Halide::Runtime::Internal::Synchronization::hash_bucket", %"struct.Halide::Runtime::Internal::Synchronization::hash_bucket"* %3, i32 0, i32 0, !dbg !913
  call void @llvm.dbg.value(metadata %"class.Halide::Runtime::Internal::Synchronization::word_lock"* %15, metadata !893, metadata !DIExpression()) #7, !dbg !899
  tail call x86_thiscallcc void @"?unlock_full@word_lock@Synchronization@Internal@Runtime@Halide@@AAEXXZ"(%"class.Halide::Runtime::Internal::Synchronization::word_lock"* nonnull dereferenceable(4) %15) #6, !dbg !914
  br label %56, !dbg !917

16:                                               ; preds = %1
  %17 = icmp ugt %"struct.Halide::Runtime::Internal::Synchronization::hash_bucket"* %3, %5, !dbg !918
  br i1 %17, label %18, label %37, !dbg !918

18:                                               ; preds = %16
  call void @llvm.dbg.value(metadata %"struct.Halide::Runtime::Internal::Synchronization::hash_bucket"* %3, metadata !893, metadata !DIExpression()) #7, !dbg !919
  %19 = getelementptr inbounds %"struct.Halide::Runtime::Internal::Synchronization::hash_bucket", %"struct.Halide::Runtime::Internal::Synchronization::hash_bucket"* %3, i32 0, i32 0, i32 0, !dbg !923
  call void @llvm.dbg.value(metadata i32 -2, metadata !904, metadata !DIExpression()) #7, !dbg !924
  call void @llvm.dbg.value(metadata i32* %19, metadata !907, metadata !DIExpression()) #7, !dbg !924
  %20 = atomicrmw and i32* %19, i32 -2 seq_cst, !dbg !926
  call void @llvm.dbg.value(metadata i32 %20, metadata !896, metadata !DIExpression()) #7, !dbg !919
  %21 = and i32 %20, 2, !dbg !927
  %22 = icmp ne i32 %21, 0, !dbg !927
  call void @llvm.dbg.value(metadata i1 %22, metadata !897, metadata !DIExpression(DW_OP_LLVM_convert, 1, DW_ATE_unsigned, DW_OP_LLVM_convert, 8, DW_ATE_unsigned, DW_OP_stack_value)) #7, !dbg !919
  call void @llvm.dbg.value(metadata i1 undef, metadata !898, metadata !DIExpression(DW_OP_LLVM_convert, 1, DW_ATE_unsigned, DW_OP_LLVM_convert, 8, DW_ATE_unsigned, DW_OP_stack_value)) #7, !dbg !919
  %23 = icmp ult i32 %20, 4
  %24 = or i1 %23, %22, !dbg !928
  call void @llvm.dbg.value(metadata i1 %23, metadata !898, metadata !DIExpression(DW_OP_LLVM_convert, 1, DW_ATE_unsigned, DW_OP_LLVM_convert, 8, DW_ATE_unsigned, DW_OP_stack_value)) #7, !dbg !919
  br i1 %24, label %27, label %25, !dbg !928

25:                                               ; preds = %18
  %26 = getelementptr inbounds %"struct.Halide::Runtime::Internal::Synchronization::hash_bucket", %"struct.Halide::Runtime::Internal::Synchronization::hash_bucket"* %3, i32 0, i32 0, !dbg !929
  call void @llvm.dbg.value(metadata %"class.Halide::Runtime::Internal::Synchronization::word_lock"* %26, metadata !893, metadata !DIExpression()) #7, !dbg !919
  tail call x86_thiscallcc void @"?unlock_full@word_lock@Synchronization@Internal@Runtime@Halide@@AAEXXZ"(%"class.Halide::Runtime::Internal::Synchronization::word_lock"* nonnull dereferenceable(4) %26) #6, !dbg !930
  br label %27, !dbg !931

27:                                               ; preds = %18, %25
  %28 = load %"struct.Halide::Runtime::Internal::Synchronization::hash_bucket"*, %"struct.Halide::Runtime::Internal::Synchronization::hash_bucket"** %4, align 4, !dbg !932, !tbaa !892
  call void @llvm.dbg.value(metadata %"struct.Halide::Runtime::Internal::Synchronization::hash_bucket"* %28, metadata !893, metadata !DIExpression()) #7, !dbg !933
  %29 = getelementptr inbounds %"struct.Halide::Runtime::Internal::Synchronization::hash_bucket", %"struct.Halide::Runtime::Internal::Synchronization::hash_bucket"* %28, i32 0, i32 0, i32 0, !dbg !935
  call void @llvm.dbg.value(metadata i32 -2, metadata !904, metadata !DIExpression()) #7, !dbg !936
  call void @llvm.dbg.value(metadata i32* %29, metadata !907, metadata !DIExpression()) #7, !dbg !936
  %30 = atomicrmw and i32* %29, i32 -2 seq_cst, !dbg !938
  call void @llvm.dbg.value(metadata i32 %30, metadata !896, metadata !DIExpression()) #7, !dbg !933
  %31 = and i32 %30, 2, !dbg !939
  %32 = icmp ne i32 %31, 0, !dbg !939
  call void @llvm.dbg.value(metadata i1 %32, metadata !897, metadata !DIExpression(DW_OP_LLVM_convert, 1, DW_ATE_unsigned, DW_OP_LLVM_convert, 8, DW_ATE_unsigned, DW_OP_stack_value)) #7, !dbg !933
  call void @llvm.dbg.value(metadata i1 undef, metadata !898, metadata !DIExpression(DW_OP_LLVM_convert, 1, DW_ATE_unsigned, DW_OP_LLVM_convert, 8, DW_ATE_unsigned, DW_OP_stack_value)) #7, !dbg !933
  %33 = icmp ult i32 %30, 4
  %34 = or i1 %33, %32, !dbg !940
  call void @llvm.dbg.value(metadata i1 %33, metadata !898, metadata !DIExpression(DW_OP_LLVM_convert, 1, DW_ATE_unsigned, DW_OP_LLVM_convert, 8, DW_ATE_unsigned, DW_OP_stack_value)) #7, !dbg !933
  br i1 %34, label %56, label %35, !dbg !940

35:                                               ; preds = %27
  %36 = getelementptr inbounds %"struct.Halide::Runtime::Internal::Synchronization::hash_bucket", %"struct.Halide::Runtime::Internal::Synchronization::hash_bucket"* %28, i32 0, i32 0, !dbg !932
  call void @llvm.dbg.value(metadata %"class.Halide::Runtime::Internal::Synchronization::word_lock"* %36, metadata !893, metadata !DIExpression()) #7, !dbg !933
  tail call x86_thiscallcc void @"?unlock_full@word_lock@Synchronization@Internal@Runtime@Halide@@AAEXXZ"(%"class.Halide::Runtime::Internal::Synchronization::word_lock"* nonnull dereferenceable(4) %36) #6, !dbg !941
  br label %56, !dbg !942

37:                                               ; preds = %16
  call void @llvm.dbg.value(metadata %"struct.Halide::Runtime::Internal::Synchronization::hash_bucket"* %5, metadata !893, metadata !DIExpression()) #7, !dbg !943
  %38 = getelementptr inbounds %"struct.Halide::Runtime::Internal::Synchronization::hash_bucket", %"struct.Halide::Runtime::Internal::Synchronization::hash_bucket"* %5, i32 0, i32 0, i32 0, !dbg !946
  call void @llvm.dbg.value(metadata i32 -2, metadata !904, metadata !DIExpression()) #7, !dbg !947
  call void @llvm.dbg.value(metadata i32* %38, metadata !907, metadata !DIExpression()) #7, !dbg !947
  %39 = atomicrmw and i32* %38, i32 -2 seq_cst, !dbg !949
  call void @llvm.dbg.value(metadata i32 %39, metadata !896, metadata !DIExpression()) #7, !dbg !943
  %40 = and i32 %39, 2, !dbg !950
  %41 = icmp ne i32 %40, 0, !dbg !950
  call void @llvm.dbg.value(metadata i1 %41, metadata !897, metadata !DIExpression(DW_OP_LLVM_convert, 1, DW_ATE_unsigned, DW_OP_LLVM_convert, 8, DW_ATE_unsigned, DW_OP_stack_value)) #7, !dbg !943
  call void @llvm.dbg.value(metadata i1 undef, metadata !898, metadata !DIExpression(DW_OP_LLVM_convert, 1, DW_ATE_unsigned, DW_OP_LLVM_convert, 8, DW_ATE_unsigned, DW_OP_stack_value)) #7, !dbg !943
  %42 = icmp ult i32 %39, 4
  %43 = or i1 %42, %41, !dbg !951
  call void @llvm.dbg.value(metadata i1 %42, metadata !898, metadata !DIExpression(DW_OP_LLVM_convert, 1, DW_ATE_unsigned, DW_OP_LLVM_convert, 8, DW_ATE_unsigned, DW_OP_stack_value)) #7, !dbg !943
  br i1 %43, label %46, label %44, !dbg !951

44:                                               ; preds = %37
  %45 = getelementptr inbounds %"struct.Halide::Runtime::Internal::Synchronization::hash_bucket", %"struct.Halide::Runtime::Internal::Synchronization::hash_bucket"* %5, i32 0, i32 0, !dbg !952
  call void @llvm.dbg.value(metadata %"class.Halide::Runtime::Internal::Synchronization::word_lock"* %45, metadata !893, metadata !DIExpression()) #7, !dbg !943
  tail call x86_thiscallcc void @"?unlock_full@word_lock@Synchronization@Internal@Runtime@Halide@@AAEXXZ"(%"class.Halide::Runtime::Internal::Synchronization::word_lock"* nonnull dereferenceable(4) %45) #6, !dbg !953
  br label %46, !dbg !954

46:                                               ; preds = %37, %44
  %47 = load %"struct.Halide::Runtime::Internal::Synchronization::hash_bucket"*, %"struct.Halide::Runtime::Internal::Synchronization::hash_bucket"** %2, align 4, !dbg !955, !tbaa !890
  call void @llvm.dbg.value(metadata %"struct.Halide::Runtime::Internal::Synchronization::hash_bucket"* %47, metadata !893, metadata !DIExpression()) #7, !dbg !956
  %48 = getelementptr inbounds %"struct.Halide::Runtime::Internal::Synchronization::hash_bucket", %"struct.Halide::Runtime::Internal::Synchronization::hash_bucket"* %47, i32 0, i32 0, i32 0, !dbg !958
  call void @llvm.dbg.value(metadata i32 -2, metadata !904, metadata !DIExpression()) #7, !dbg !959
  call void @llvm.dbg.value(metadata i32* %48, metadata !907, metadata !DIExpression()) #7, !dbg !959
  %49 = atomicrmw and i32* %48, i32 -2 seq_cst, !dbg !961
  call void @llvm.dbg.value(metadata i32 %49, metadata !896, metadata !DIExpression()) #7, !dbg !956
  %50 = and i32 %49, 2, !dbg !962
  %51 = icmp ne i32 %50, 0, !dbg !962
  call void @llvm.dbg.value(metadata i1 %51, metadata !897, metadata !DIExpression(DW_OP_LLVM_convert, 1, DW_ATE_unsigned, DW_OP_LLVM_convert, 8, DW_ATE_unsigned, DW_OP_stack_value)) #7, !dbg !956
  call void @llvm.dbg.value(metadata i1 undef, metadata !898, metadata !DIExpression(DW_OP_LLVM_convert, 1, DW_ATE_unsigned, DW_OP_LLVM_convert, 8, DW_ATE_unsigned, DW_OP_stack_value)) #7, !dbg !956
  %52 = icmp ult i32 %49, 4
  %53 = or i1 %52, %51, !dbg !963
  call void @llvm.dbg.value(metadata i1 %52, metadata !898, metadata !DIExpression(DW_OP_LLVM_convert, 1, DW_ATE_unsigned, DW_OP_LLVM_convert, 8, DW_ATE_unsigned, DW_OP_stack_value)) #7, !dbg !956
  br i1 %53, label %56, label %54, !dbg !963

54:                                               ; preds = %46
  %55 = getelementptr inbounds %"struct.Halide::Runtime::Internal::Synchronization::hash_bucket", %"struct.Halide::Runtime::Internal::Synchronization::hash_bucket"* %47, i32 0, i32 0, !dbg !955
  call void @llvm.dbg.value(metadata %"class.Halide::Runtime::Internal::Synchronization::word_lock"* %55, metadata !893, metadata !DIExpression()) #7, !dbg !956
  tail call x86_thiscallcc void @"?unlock_full@word_lock@Synchronization@Internal@Runtime@Halide@@AAEXXZ"(%"class.Halide::Runtime::Internal::Synchronization::word_lock"* nonnull dereferenceable(4) %55) #6, !dbg !964
  br label %56, !dbg !965

56:                                               ; preds = %54, %46, %35, %27, %14, %7
  ret void, !dbg !966
}

; Function Attrs: nounwind willreturn mustprogress
define weak dso_local zeroext i1 @"?parking_control_validate@Synchronization@Internal@Runtime@Halide@@YA_NPAXAAUvalidate_action@1234@@Z"(i8* %0, %"struct.Halide::Runtime::Internal::Synchronization::validate_action"* nonnull align 4 dereferenceable(8) %1) #5 !dbg !967 {
  call void @llvm.dbg.value(metadata %"struct.Halide::Runtime::Internal::Synchronization::validate_action"* %1, metadata !969, metadata !DIExpression()), !dbg !971
  call void @llvm.dbg.value(metadata i8* %0, metadata !970, metadata !DIExpression()), !dbg !971
  ret i1 true, !dbg !972
}

; Function Attrs: nounwind willreturn mustprogress
define weak dso_local void @"?parking_control_before_sleep@Synchronization@Internal@Runtime@Halide@@YAXPAX@Z"(i8* %0) #5 !dbg !973 {
  call void @llvm.dbg.value(metadata i8* %0, metadata !975, metadata !DIExpression()), !dbg !976
  ret void, !dbg !977
}

; Function Attrs: nounwind willreturn mustprogress
define weak dso_local i32 @"?parking_control_unpark@Synchronization@Internal@Runtime@Halide@@YAIPAXH_N@Z"(i8* %0, i32 %1, i1 zeroext %2) #5 !dbg !978 {
  call void @llvm.dbg.value(metadata i1 %2, metadata !980, metadata !DIExpression(DW_OP_LLVM_convert, 1, DW_ATE_unsigned, DW_OP_LLVM_convert, 8, DW_ATE_unsigned, DW_OP_stack_value)), !dbg !983
  call void @llvm.dbg.value(metadata i32 %1, metadata !981, metadata !DIExpression()), !dbg !983
  call void @llvm.dbg.value(metadata i8* %0, metadata !982, metadata !DIExpression()), !dbg !983
  ret i32 0, !dbg !984
}

; Function Attrs: nounwind willreturn mustprogress
define weak dso_local void @"?parking_control_requeue_callback@Synchronization@Internal@Runtime@Halide@@YAXPAXABUvalidate_action@1234@_N2@Z"(i8* %0, %"struct.Halide::Runtime::Internal::Synchronization::validate_action"* nonnull align 4 dereferenceable(8) %1, i1 zeroext %2, i1 zeroext %3) #5 !dbg !985 {
  call void @llvm.dbg.value(metadata i1 %3, metadata !987, metadata !DIExpression(DW_OP_LLVM_convert, 1, DW_ATE_unsigned, DW_OP_LLVM_convert, 8, DW_ATE_unsigned, DW_OP_stack_value)), !dbg !991
  call void @llvm.dbg.value(metadata i1 %2, metadata !988, metadata !DIExpression(DW_OP_LLVM_convert, 1, DW_ATE_unsigned, DW_OP_LLVM_convert, 8, DW_ATE_unsigned, DW_OP_stack_value)), !dbg !991
  call void @llvm.dbg.value(metadata %"struct.Halide::Runtime::Internal::Synchronization::validate_action"* %1, metadata !989, metadata !DIExpression()), !dbg !991
  call void @llvm.dbg.value(metadata i8* %0, metadata !990, metadata !DIExpression()), !dbg !991
  ret void, !dbg !992
}

; Function Attrs: nounwind
define weak dso_local i32 @"?park@Synchronization@Internal@Runtime@Halide@@YAIIAAUparking_control@1234@@Z"(i32 %0, %"struct.Halide::Runtime::Internal::Synchronization::parking_control"* nonnull align 4 dereferenceable(16) %1) local_unnamed_addr #4 !dbg !993 {
  %3 = alloca %"struct.Halide::Runtime::Internal::Synchronization::queue_data", align 8
  %4 = alloca %"struct.Halide::Runtime::Internal::Synchronization::validate_action", align 4
  call void @llvm.dbg.value(metadata %"struct.Halide::Runtime::Internal::Synchronization::parking_control"* %1, metadata !998, metadata !DIExpression()), !dbg !1003
  call void @llvm.dbg.value(metadata i32 %0, metadata !999, metadata !DIExpression()), !dbg !1003
  %5 = bitcast %"struct.Halide::Runtime::Internal::Synchronization::queue_data"* %3 to i8*, !dbg !1004
  call void @llvm.lifetime.start.p0i8(i64 72, i8* nonnull %5) #7, !dbg !1004
  call void @llvm.dbg.declare(metadata %"struct.Halide::Runtime::Internal::Synchronization::queue_data"* %3, metadata !1000, metadata !DIExpression()), !dbg !1004
  call void @llvm.dbg.value(metadata %"struct.Halide::Runtime::Internal::Synchronization::queue_data"* %3, metadata !1005, metadata !DIExpression()) #7, !dbg !1008
  call void @llvm.dbg.value(metadata %"struct.Halide::Runtime::Internal::Synchronization::queue_data"* %3, metadata !522, metadata !DIExpression()) #7, !dbg !1010
  %6 = getelementptr inbounds %"struct.Halide::Runtime::Internal::Synchronization::queue_data", %"struct.Halide::Runtime::Internal::Synchronization::queue_data"* %3, i32 0, i32 0, i32 2, !dbg !1012
  store i8 0, i8* %6, align 8, !dbg !1012, !tbaa !529
  %7 = getelementptr inbounds %"struct.Halide::Runtime::Internal::Synchronization::queue_data", %"struct.Halide::Runtime::Internal::Synchronization::queue_data"* %3, i32 0, i32 0, i32 0, !dbg !1013
  call x86_stdcallcc void @"\01_InitializeCriticalSection@4"(%struct.CriticalSection* nonnull %7) #6, !dbg !1013
  %8 = getelementptr inbounds %"struct.Halide::Runtime::Internal::Synchronization::queue_data", %"struct.Halide::Runtime::Internal::Synchronization::queue_data"* %3, i32 0, i32 0, i32 1, !dbg !1014
  call x86_stdcallcc void @"\01_InitializeConditionVariable@4"(i64* nonnull %8) #6, !dbg !1014
  %9 = getelementptr inbounds %"struct.Halide::Runtime::Internal::Synchronization::queue_data", %"struct.Halide::Runtime::Internal::Synchronization::queue_data"* %3, i32 0, i32 1, !dbg !1015
  store i32 0, i32* %9, align 8, !dbg !1015, !tbaa !1016
  %10 = getelementptr inbounds %"struct.Halide::Runtime::Internal::Synchronization::queue_data", %"struct.Halide::Runtime::Internal::Synchronization::queue_data"* %3, i32 0, i32 2, !dbg !1015
  store %"struct.Halide::Runtime::Internal::Synchronization::queue_data"* null, %"struct.Halide::Runtime::Internal::Synchronization::queue_data"** %10, align 4, !dbg !1015, !tbaa !1018
  %11 = getelementptr inbounds %"struct.Halide::Runtime::Internal::Synchronization::queue_data", %"struct.Halide::Runtime::Internal::Synchronization::queue_data"* %3, i32 0, i32 3, !dbg !1015
  store i32 0, i32* %11, align 8, !dbg !1015, !tbaa !1019
  %12 = call nonnull align 4 dereferenceable(12) %"struct.Halide::Runtime::Internal::Synchronization::hash_bucket"* @"?lock_bucket@Synchronization@Internal@Runtime@Halide@@YAAAUhash_bucket@1234@I@Z"(i32 %0) #8, !dbg !1020
  call void @llvm.dbg.value(metadata %"struct.Halide::Runtime::Internal::Synchronization::hash_bucket"* %12, metadata !1001, metadata !DIExpression()), !dbg !1003
  %13 = getelementptr inbounds %"struct.Halide::Runtime::Internal::Synchronization::validate_action", %"struct.Halide::Runtime::Internal::Synchronization::validate_action"* %4, i32 0, i32 0, !dbg !1021
  call void @llvm.lifetime.start.p0i8(i64 8, i8* nonnull %13) #7, !dbg !1021
  call void @llvm.dbg.declare(metadata %"struct.Halide::Runtime::Internal::Synchronization::validate_action"* %4, metadata !1002, metadata !DIExpression()), !dbg !1021
  call void @llvm.dbg.value(metadata %"struct.Halide::Runtime::Internal::Synchronization::validate_action"* %4, metadata !1022, metadata !DIExpression()), !dbg !1026
  store i8 0, i8* %13, align 4, !dbg !1028, !tbaa !1029
  %14 = getelementptr inbounds %"struct.Halide::Runtime::Internal::Synchronization::validate_action", %"struct.Halide::Runtime::Internal::Synchronization::validate_action"* %4, i32 0, i32 1, !dbg !1028
  store i32 0, i32* %14, align 4, !dbg !1028, !tbaa !1031
  %15 = getelementptr inbounds %"struct.Halide::Runtime::Internal::Synchronization::parking_control", %"struct.Halide::Runtime::Internal::Synchronization::parking_control"* %1, i32 0, i32 0, !dbg !1032
  %16 = load i1 (i8*, %"struct.Halide::Runtime::Internal::Synchronization::validate_action"*)*, i1 (i8*, %"struct.Halide::Runtime::Internal::Synchronization::validate_action"*)** %15, align 4, !dbg !1032, !tbaa !1033
  %17 = bitcast %"struct.Halide::Runtime::Internal::Synchronization::parking_control"* %1 to i8*, !dbg !1032
  %18 = call zeroext i1 %16(i8* nonnull %17, %"struct.Halide::Runtime::Internal::Synchronization::validate_action"* nonnull align 4 dereferenceable(8) %4) #6, !dbg !1032
  br i1 %18, label %30, label %19, !dbg !1032

19:                                               ; preds = %2
  call void @llvm.dbg.value(metadata %"struct.Halide::Runtime::Internal::Synchronization::hash_bucket"* %12, metadata !893, metadata !DIExpression()) #7, !dbg !1035
  %20 = getelementptr inbounds %"struct.Halide::Runtime::Internal::Synchronization::hash_bucket", %"struct.Halide::Runtime::Internal::Synchronization::hash_bucket"* %12, i32 0, i32 0, i32 0, !dbg !1039
  call void @llvm.dbg.value(metadata i32 -2, metadata !904, metadata !DIExpression()) #7, !dbg !1040
  call void @llvm.dbg.value(metadata i32* %20, metadata !907, metadata !DIExpression()) #7, !dbg !1040
  %21 = atomicrmw and i32* %20, i32 -2 seq_cst, !dbg !1042
  call void @llvm.dbg.value(metadata i32 %21, metadata !896, metadata !DIExpression()) #7, !dbg !1035
  %22 = and i32 %21, 2, !dbg !1043
  %23 = icmp ne i32 %22, 0, !dbg !1043
  call void @llvm.dbg.value(metadata i1 %23, metadata !897, metadata !DIExpression(DW_OP_LLVM_convert, 1, DW_ATE_unsigned, DW_OP_LLVM_convert, 8, DW_ATE_unsigned, DW_OP_stack_value)) #7, !dbg !1035
  call void @llvm.dbg.value(metadata i1 undef, metadata !898, metadata !DIExpression(DW_OP_LLVM_convert, 1, DW_ATE_unsigned, DW_OP_LLVM_convert, 8, DW_ATE_unsigned, DW_OP_stack_value)) #7, !dbg !1035
  %24 = icmp ult i32 %21, 4
  %25 = or i1 %24, %23, !dbg !1044
  call void @llvm.dbg.value(metadata i1 %24, metadata !898, metadata !DIExpression(DW_OP_LLVM_convert, 1, DW_ATE_unsigned, DW_OP_LLVM_convert, 8, DW_ATE_unsigned, DW_OP_stack_value)) #7, !dbg !1035
  br i1 %25, label %28, label %26, !dbg !1044

26:                                               ; preds = %19
  %27 = getelementptr inbounds %"struct.Halide::Runtime::Internal::Synchronization::hash_bucket", %"struct.Halide::Runtime::Internal::Synchronization::hash_bucket"* %12, i32 0, i32 0, !dbg !1045
  call void @llvm.dbg.value(metadata %"class.Halide::Runtime::Internal::Synchronization::word_lock"* %27, metadata !893, metadata !DIExpression()) #7, !dbg !1035
  call x86_thiscallcc void @"?unlock_full@word_lock@Synchronization@Internal@Runtime@Halide@@AAEXXZ"(%"class.Halide::Runtime::Internal::Synchronization::word_lock"* nonnull dereferenceable(4) %27) #6, !dbg !1046
  br label %28, !dbg !1047

28:                                               ; preds = %19, %26
  %29 = load i32, i32* %14, align 4, !dbg !1048, !tbaa !1031
  br label %57, !dbg !1048

30:                                               ; preds = %2
  store %"struct.Halide::Runtime::Internal::Synchronization::queue_data"* null, %"struct.Halide::Runtime::Internal::Synchronization::queue_data"** %10, align 4, !dbg !1049, !tbaa !1018
  store i32 %0, i32* %9, align 8, !dbg !1050, !tbaa !1016
  call void @llvm.dbg.value(metadata %"struct.Halide::Runtime::Internal::Synchronization::queue_data"* %3, metadata !542, metadata !DIExpression()), !dbg !1051
  store i8 1, i8* %6, align 8, !dbg !1053, !tbaa !529
  %31 = getelementptr inbounds %"struct.Halide::Runtime::Internal::Synchronization::hash_bucket", %"struct.Halide::Runtime::Internal::Synchronization::hash_bucket"* %12, i32 0, i32 1, !dbg !1054
  %32 = load %"struct.Halide::Runtime::Internal::Synchronization::queue_data"*, %"struct.Halide::Runtime::Internal::Synchronization::queue_data"** %31, align 4, !dbg !1054, !tbaa !1055
  %33 = icmp eq %"struct.Halide::Runtime::Internal::Synchronization::queue_data"* %32, null, !dbg !1054
  %34 = getelementptr inbounds %"struct.Halide::Runtime::Internal::Synchronization::hash_bucket", %"struct.Halide::Runtime::Internal::Synchronization::hash_bucket"* %12, i32 0, i32 2, !dbg !1054
  %35 = load %"struct.Halide::Runtime::Internal::Synchronization::queue_data"*, %"struct.Halide::Runtime::Internal::Synchronization::queue_data"** %34, align 4, !dbg !1054
  %36 = getelementptr inbounds %"struct.Halide::Runtime::Internal::Synchronization::queue_data", %"struct.Halide::Runtime::Internal::Synchronization::queue_data"* %35, i32 0, i32 2, !dbg !1054
  %37 = select i1 %33, %"struct.Halide::Runtime::Internal::Synchronization::queue_data"** %31, %"struct.Halide::Runtime::Internal::Synchronization::queue_data"** %36, !dbg !1054
  store %"struct.Halide::Runtime::Internal::Synchronization::queue_data"* %3, %"struct.Halide::Runtime::Internal::Synchronization::queue_data"** %37, align 4, !dbg !1058, !tbaa !880
  %38 = getelementptr inbounds %"struct.Halide::Runtime::Internal::Synchronization::hash_bucket", %"struct.Halide::Runtime::Internal::Synchronization::hash_bucket"* %12, i32 0, i32 2, !dbg !1060
  store %"struct.Halide::Runtime::Internal::Synchronization::queue_data"* %3, %"struct.Halide::Runtime::Internal::Synchronization::queue_data"** %38, align 4, !dbg !1060, !tbaa !1061
  call void @llvm.dbg.value(metadata %"struct.Halide::Runtime::Internal::Synchronization::hash_bucket"* %12, metadata !893, metadata !DIExpression()) #7, !dbg !1062
  %39 = getelementptr inbounds %"struct.Halide::Runtime::Internal::Synchronization::hash_bucket", %"struct.Halide::Runtime::Internal::Synchronization::hash_bucket"* %12, i32 0, i32 0, i32 0, !dbg !1064
  call void @llvm.dbg.value(metadata i32 -2, metadata !904, metadata !DIExpression()) #7, !dbg !1065
  call void @llvm.dbg.value(metadata i32* %39, metadata !907, metadata !DIExpression()) #7, !dbg !1065
  %40 = atomicrmw and i32* %39, i32 -2 seq_cst, !dbg !1067
  call void @llvm.dbg.value(metadata i32 %40, metadata !896, metadata !DIExpression()) #7, !dbg !1062
  %41 = and i32 %40, 2, !dbg !1068
  %42 = icmp ne i32 %41, 0, !dbg !1068
  call void @llvm.dbg.value(metadata i1 %42, metadata !897, metadata !DIExpression(DW_OP_LLVM_convert, 1, DW_ATE_unsigned, DW_OP_LLVM_convert, 8, DW_ATE_unsigned, DW_OP_stack_value)) #7, !dbg !1062
  call void @llvm.dbg.value(metadata i1 undef, metadata !898, metadata !DIExpression(DW_OP_LLVM_convert, 1, DW_ATE_unsigned, DW_OP_LLVM_convert, 8, DW_ATE_unsigned, DW_OP_stack_value)) #7, !dbg !1062
  %43 = icmp ult i32 %40, 4
  %44 = or i1 %43, %42, !dbg !1069
  call void @llvm.dbg.value(metadata i1 %43, metadata !898, metadata !DIExpression(DW_OP_LLVM_convert, 1, DW_ATE_unsigned, DW_OP_LLVM_convert, 8, DW_ATE_unsigned, DW_OP_stack_value)) #7, !dbg !1062
  br i1 %44, label %47, label %45, !dbg !1069

45:                                               ; preds = %30
  %46 = getelementptr inbounds %"struct.Halide::Runtime::Internal::Synchronization::hash_bucket", %"struct.Halide::Runtime::Internal::Synchronization::hash_bucket"* %12, i32 0, i32 0, !dbg !1070
  call void @llvm.dbg.value(metadata %"class.Halide::Runtime::Internal::Synchronization::word_lock"* %46, metadata !893, metadata !DIExpression()) #7, !dbg !1062
  call x86_thiscallcc void @"?unlock_full@word_lock@Synchronization@Internal@Runtime@Halide@@AAEXXZ"(%"class.Halide::Runtime::Internal::Synchronization::word_lock"* nonnull dereferenceable(4) %46) #6, !dbg !1071
  br label %47, !dbg !1072

47:                                               ; preds = %30, %45
  %48 = getelementptr inbounds %"struct.Halide::Runtime::Internal::Synchronization::parking_control", %"struct.Halide::Runtime::Internal::Synchronization::parking_control"* %1, i32 0, i32 1, !dbg !1073
  %49 = load void (i8*)*, void (i8*)** %48, align 4, !dbg !1073, !tbaa !1074
  call void %49(i8* nonnull %17) #6, !dbg !1073
  call void @llvm.dbg.value(metadata %"struct.Halide::Runtime::Internal::Synchronization::queue_data"* %3, metadata !571, metadata !DIExpression()) #7, !dbg !1075
  call x86_stdcallcc void @"\01_EnterCriticalSection@4"(%struct.CriticalSection* nonnull %7) #6, !dbg !1077
  %50 = load i8, i8* %6, align 8, !dbg !1078, !tbaa !529, !range !580
  %51 = icmp eq i8 %50, 0, !dbg !1078
  br i1 %51, label %55, label %52, !dbg !1078

52:                                               ; preds = %47, %52
  call x86_stdcallcc void @"\01_SleepConditionVariableCS@12"(i64* nonnull %8, %struct.CriticalSection* nonnull %7, i32 -1) #6, !dbg !1079
  %53 = load i8, i8* %6, align 8, !dbg !1078, !tbaa !529, !range !580
  %54 = icmp eq i8 %53, 0, !dbg !1078
  br i1 %54, label %55, label %52, !dbg !1078, !llvm.loop !1080

55:                                               ; preds = %52, %47
  call x86_stdcallcc void @"\01_LeaveCriticalSection@4"(%struct.CriticalSection* nonnull %7) #6, !dbg !1082
  %56 = load i32, i32* %11, align 8, !dbg !1083, !tbaa !1019
  br label %57, !dbg !1083

57:                                               ; preds = %55, %28
  %58 = phi i32 [ %56, %55 ], [ %29, %28 ], !dbg !1003
  call void @llvm.lifetime.end.p0i8(i64 8, i8* nonnull %13) #7, !dbg !1084
  call void @llvm.dbg.value(metadata %"struct.Halide::Runtime::Internal::Synchronization::queue_data"* %3, metadata !1085, metadata !DIExpression()) #7, !dbg !1088
  call void @llvm.dbg.value(metadata %"struct.Halide::Runtime::Internal::Synchronization::queue_data"* %3, metadata !594, metadata !DIExpression()) #7, !dbg !1090
  call x86_stdcallcc void @"\01_DeleteCriticalSection@4"(%struct.CriticalSection* nonnull %7) #6, !dbg !1093
  call void @llvm.lifetime.end.p0i8(i64 72, i8* nonnull %5) #7, !dbg !1084
  ret i32 %58, !dbg !1084
}

; Function Attrs: nounwind mustprogress
define weak dso_local i32 @"?unpark_one@Synchronization@Internal@Runtime@Halide@@YAIIAAUparking_control@1234@@Z"(i32 %0, %"struct.Halide::Runtime::Internal::Synchronization::parking_control"* nonnull align 4 dereferenceable(16) %1) local_unnamed_addr #0 !dbg !1094 {
  call void @llvm.dbg.value(metadata %"struct.Halide::Runtime::Internal::Synchronization::parking_control"* %1, metadata !1096, metadata !DIExpression()), !dbg !1113
  call void @llvm.dbg.value(metadata i32 %0, metadata !1097, metadata !DIExpression()), !dbg !1113
  %3 = tail call nonnull align 4 dereferenceable(12) %"struct.Halide::Runtime::Internal::Synchronization::hash_bucket"* @"?lock_bucket@Synchronization@Internal@Runtime@Halide@@YAAAUhash_bucket@1234@I@Z"(i32 %0) #8, !dbg !1114
  call void @llvm.dbg.value(metadata %"struct.Halide::Runtime::Internal::Synchronization::hash_bucket"* %3, metadata !1098, metadata !DIExpression()), !dbg !1113
  %4 = getelementptr inbounds %"struct.Halide::Runtime::Internal::Synchronization::hash_bucket", %"struct.Halide::Runtime::Internal::Synchronization::hash_bucket"* %3, i32 0, i32 1, !dbg !1115
  call void @llvm.dbg.value(metadata %"struct.Halide::Runtime::Internal::Synchronization::queue_data"** %4, metadata !1099, metadata !DIExpression()), !dbg !1113
  call void @llvm.dbg.value(metadata %"struct.Halide::Runtime::Internal::Synchronization::queue_data"* null, metadata !1100, metadata !DIExpression()), !dbg !1113
  %5 = load %"struct.Halide::Runtime::Internal::Synchronization::queue_data"*, %"struct.Halide::Runtime::Internal::Synchronization::queue_data"** %4, align 4, !dbg !1116, !tbaa !880
  call void @llvm.dbg.value(metadata %"struct.Halide::Runtime::Internal::Synchronization::queue_data"* %5, metadata !1101, metadata !DIExpression()), !dbg !1113
  %6 = getelementptr inbounds %"struct.Halide::Runtime::Internal::Synchronization::hash_bucket", %"struct.Halide::Runtime::Internal::Synchronization::hash_bucket"* %3, i32 0, i32 2
  %7 = getelementptr inbounds %"struct.Halide::Runtime::Internal::Synchronization::parking_control", %"struct.Halide::Runtime::Internal::Synchronization::parking_control"* %1, i32 0, i32 2
  %8 = bitcast %"struct.Halide::Runtime::Internal::Synchronization::parking_control"* %1 to i8*
  %9 = getelementptr inbounds %"struct.Halide::Runtime::Internal::Synchronization::hash_bucket", %"struct.Halide::Runtime::Internal::Synchronization::hash_bucket"* %3, i32 0, i32 0, i32 0
  %10 = getelementptr inbounds %"struct.Halide::Runtime::Internal::Synchronization::hash_bucket", %"struct.Halide::Runtime::Internal::Synchronization::hash_bucket"* %3, i32 0, i32 0
  br label %11, !dbg !1117

11:                                               ; preds = %57, %2
  %12 = phi %"struct.Halide::Runtime::Internal::Synchronization::queue_data"** [ %4, %2 ], [ %58, %57 ], !dbg !1115
  %13 = phi %"struct.Halide::Runtime::Internal::Synchronization::queue_data"* [ null, %2 ], [ %59, %57 ], !dbg !1118
  %14 = phi %"struct.Halide::Runtime::Internal::Synchronization::queue_data"* [ %5, %2 ], [ %60, %57 ], !dbg !1116
  %15 = phi i32 [ undef, %2 ], [ %61, %57 ]
  call void @llvm.dbg.value(metadata %"struct.Halide::Runtime::Internal::Synchronization::queue_data"* %14, metadata !1101, metadata !DIExpression()), !dbg !1113
  call void @llvm.dbg.value(metadata %"struct.Halide::Runtime::Internal::Synchronization::queue_data"* %13, metadata !1100, metadata !DIExpression()), !dbg !1113
  call void @llvm.dbg.value(metadata %"struct.Halide::Runtime::Internal::Synchronization::queue_data"** %12, metadata !1099, metadata !DIExpression()), !dbg !1113
  %16 = icmp eq %"struct.Halide::Runtime::Internal::Synchronization::queue_data"* %14, null, !dbg !1117
  br i1 %16, label %62, label %17, !dbg !1117

17:                                               ; preds = %11
  %18 = getelementptr inbounds %"struct.Halide::Runtime::Internal::Synchronization::queue_data", %"struct.Halide::Runtime::Internal::Synchronization::queue_data"* %14, i32 0, i32 1, !dbg !1119
  %19 = load i32, i32* %18, align 4, !dbg !1119, !tbaa !468
  call void @llvm.dbg.value(metadata i32 %19, metadata !1102, metadata !DIExpression()), !dbg !1120
  %20 = icmp eq i32 %19, %0, !dbg !1121
  %21 = getelementptr inbounds %"struct.Halide::Runtime::Internal::Synchronization::queue_data", %"struct.Halide::Runtime::Internal::Synchronization::queue_data"* %14, i32 0, i32 2, !dbg !1122
  %22 = load %"struct.Halide::Runtime::Internal::Synchronization::queue_data"*, %"struct.Halide::Runtime::Internal::Synchronization::queue_data"** %21, align 4, !dbg !1122, !tbaa !1018
  br i1 %20, label %23, label %57, !dbg !1121

23:                                               ; preds = %17
  call void @llvm.dbg.value(metadata %"struct.Halide::Runtime::Internal::Synchronization::queue_data"* %22, metadata !1104, metadata !DIExpression()), !dbg !1123
  store %"struct.Halide::Runtime::Internal::Synchronization::queue_data"* %22, %"struct.Halide::Runtime::Internal::Synchronization::queue_data"** %12, align 4, !dbg !1124, !tbaa !880
  call void @llvm.dbg.value(metadata i8 0, metadata !1107, metadata !DIExpression()), !dbg !1123
  %24 = load %"struct.Halide::Runtime::Internal::Synchronization::queue_data"*, %"struct.Halide::Runtime::Internal::Synchronization::queue_data"** %6, align 4, !dbg !1125, !tbaa !1061
  %25 = icmp eq %"struct.Halide::Runtime::Internal::Synchronization::queue_data"* %24, %14, !dbg !1125
  br i1 %25, label %28, label %26, !dbg !1125

26:                                               ; preds = %23
  call void @llvm.dbg.value(metadata %"struct.Halide::Runtime::Internal::Synchronization::queue_data"* %22, metadata !1108, metadata !DIExpression()), !dbg !1126
  call void @llvm.dbg.value(metadata i8 0, metadata !1107, metadata !DIExpression()), !dbg !1123
  %27 = icmp eq %"struct.Halide::Runtime::Internal::Synchronization::queue_data"* %22, null, !dbg !1127
  br i1 %27, label %40, label %29, !dbg !1127

28:                                               ; preds = %23
  store %"struct.Halide::Runtime::Internal::Synchronization::queue_data"* %13, %"struct.Halide::Runtime::Internal::Synchronization::queue_data"** %6, align 4, !dbg !1128, !tbaa !1061
  br label %40, !dbg !1130

29:                                               ; preds = %26, %29
  %30 = phi %"struct.Halide::Runtime::Internal::Synchronization::queue_data"* [ %35, %29 ], [ %22, %26 ]
  call void @llvm.dbg.value(metadata %"struct.Halide::Runtime::Internal::Synchronization::queue_data"* %30, metadata !1108, metadata !DIExpression()), !dbg !1126
  %31 = getelementptr inbounds %"struct.Halide::Runtime::Internal::Synchronization::queue_data", %"struct.Halide::Runtime::Internal::Synchronization::queue_data"* %30, i32 0, i32 1, !dbg !1131
  %32 = load i32, i32* %31, align 4, !dbg !1131, !tbaa !468
  call void @llvm.dbg.value(metadata i32 %32, metadata !1111, metadata !DIExpression()), !dbg !1132
  %33 = icmp eq i32 %32, %0, !dbg !1133
  call void @llvm.dbg.value(metadata i1 %33, metadata !1107, metadata !DIExpression(DW_OP_LLVM_convert, 1, DW_ATE_unsigned, DW_OP_LLVM_convert, 8, DW_ATE_unsigned, DW_OP_stack_value)), !dbg !1123
  %34 = getelementptr inbounds %"struct.Halide::Runtime::Internal::Synchronization::queue_data", %"struct.Halide::Runtime::Internal::Synchronization::queue_data"* %30, i32 0, i32 2, !dbg !1134
  %35 = load %"struct.Halide::Runtime::Internal::Synchronization::queue_data"*, %"struct.Halide::Runtime::Internal::Synchronization::queue_data"** %34, align 4, !dbg !1134, !tbaa !1018
  call void @llvm.dbg.value(metadata %"struct.Halide::Runtime::Internal::Synchronization::queue_data"* %35, metadata !1108, metadata !DIExpression()), !dbg !1126
  %36 = icmp eq %"struct.Halide::Runtime::Internal::Synchronization::queue_data"* %35, null, !dbg !1127
  %37 = or i1 %33, %36, !dbg !1127
  br i1 %37, label %38, label %29, !dbg !1127, !llvm.loop !1135

38:                                               ; preds = %29
  %39 = zext i1 %33 to i8, !dbg !1133
  call void @llvm.dbg.value(metadata i8 %39, metadata !1107, metadata !DIExpression()), !dbg !1123
  br label %40, !dbg !1137

40:                                               ; preds = %38, %26, %28
  %41 = phi i8 [ 0, %28 ], [ 0, %26 ], [ %39, %38 ], !dbg !1138
  call void @llvm.dbg.value(metadata i8 %41, metadata !1107, metadata !DIExpression()), !dbg !1123
  %42 = load i32 (i8*, i32, i1)*, i32 (i8*, i32, i1)** %7, align 4, !dbg !1137, !tbaa !1139
  %43 = icmp ne i8 %41, 0, !dbg !1137
  %44 = tail call i32 %42(i8* nonnull %8, i32 1, i1 zeroext %43) #6, !dbg !1137
  %45 = getelementptr inbounds %"struct.Halide::Runtime::Internal::Synchronization::queue_data", %"struct.Halide::Runtime::Internal::Synchronization::queue_data"* %14, i32 0, i32 3, !dbg !1137
  store i32 %44, i32* %45, align 8, !dbg !1137, !tbaa !1019
  call void @llvm.dbg.value(metadata %"struct.Halide::Runtime::Internal::Synchronization::queue_data"* %14, metadata !714, metadata !DIExpression()) #7, !dbg !1140
  %46 = getelementptr inbounds %"struct.Halide::Runtime::Internal::Synchronization::queue_data", %"struct.Halide::Runtime::Internal::Synchronization::queue_data"* %14, i32 0, i32 0, i32 0, !dbg !1142
  tail call x86_stdcallcc void @"\01_EnterCriticalSection@4"(%struct.CriticalSection* nonnull %46) #6, !dbg !1142
  call void @llvm.dbg.value(metadata %"struct.Halide::Runtime::Internal::Synchronization::hash_bucket"* %3, metadata !893, metadata !DIExpression()) #7, !dbg !1143
  call void @llvm.dbg.value(metadata i32 -2, metadata !904, metadata !DIExpression()) #7, !dbg !1145
  call void @llvm.dbg.value(metadata i32* %9, metadata !907, metadata !DIExpression()) #7, !dbg !1145
  %47 = atomicrmw and i32* %9, i32 -2 seq_cst, !dbg !1147
  call void @llvm.dbg.value(metadata i32 %47, metadata !896, metadata !DIExpression()) #7, !dbg !1143
  %48 = and i32 %47, 2, !dbg !1148
  %49 = icmp ne i32 %48, 0, !dbg !1148
  call void @llvm.dbg.value(metadata i1 %49, metadata !897, metadata !DIExpression(DW_OP_LLVM_convert, 1, DW_ATE_unsigned, DW_OP_LLVM_convert, 8, DW_ATE_unsigned, DW_OP_stack_value)) #7, !dbg !1143
  call void @llvm.dbg.value(metadata i1 undef, metadata !898, metadata !DIExpression(DW_OP_LLVM_convert, 1, DW_ATE_unsigned, DW_OP_LLVM_convert, 8, DW_ATE_unsigned, DW_OP_stack_value)) #7, !dbg !1143
  %50 = icmp ult i32 %47, 4
  %51 = or i1 %50, %49, !dbg !1149
  call void @llvm.dbg.value(metadata i1 %50, metadata !898, metadata !DIExpression(DW_OP_LLVM_convert, 1, DW_ATE_unsigned, DW_OP_LLVM_convert, 8, DW_ATE_unsigned, DW_OP_stack_value)) #7, !dbg !1143
  br i1 %51, label %53, label %52, !dbg !1149

52:                                               ; preds = %40
  call void @llvm.dbg.value(metadata %"class.Halide::Runtime::Internal::Synchronization::word_lock"* %10, metadata !893, metadata !DIExpression()) #7, !dbg !1143
  tail call x86_thiscallcc void @"?unlock_full@word_lock@Synchronization@Internal@Runtime@Halide@@AAEXXZ"(%"class.Halide::Runtime::Internal::Synchronization::word_lock"* nonnull dereferenceable(4) %10) #6, !dbg !1150
  br label %53, !dbg !1151

53:                                               ; preds = %40, %52
  call void @llvm.dbg.value(metadata %"struct.Halide::Runtime::Internal::Synchronization::queue_data"* %14, metadata !720, metadata !DIExpression()) #7, !dbg !1152
  %54 = getelementptr inbounds %"struct.Halide::Runtime::Internal::Synchronization::queue_data", %"struct.Halide::Runtime::Internal::Synchronization::queue_data"* %14, i32 0, i32 0, i32 2, !dbg !1154
  store i8 0, i8* %54, align 8, !dbg !1154, !tbaa !529
  %55 = getelementptr inbounds %"struct.Halide::Runtime::Internal::Synchronization::queue_data", %"struct.Halide::Runtime::Internal::Synchronization::queue_data"* %14, i32 0, i32 0, i32 1, !dbg !1155
  tail call x86_stdcallcc void @"\01_WakeConditionVariable@4"(i64* nonnull %55) #6, !dbg !1155
  call void @llvm.dbg.value(metadata %"struct.Halide::Runtime::Internal::Synchronization::queue_data"* %14, metadata !727, metadata !DIExpression()) #7, !dbg !1156
  tail call x86_stdcallcc void @"\01_LeaveCriticalSection@4"(%struct.CriticalSection* nonnull %46) #6, !dbg !1158
  %56 = zext i8 %41 to i32, !dbg !1159
  br label %57

57:                                               ; preds = %17, %53
  %58 = phi %"struct.Halide::Runtime::Internal::Synchronization::queue_data"** [ %12, %53 ], [ %21, %17 ], !dbg !1113
  %59 = phi %"struct.Halide::Runtime::Internal::Synchronization::queue_data"* [ %13, %53 ], [ %14, %17 ], !dbg !1113
  %60 = phi %"struct.Halide::Runtime::Internal::Synchronization::queue_data"* [ %14, %53 ], [ %22, %17 ], !dbg !1113
  %61 = phi i32 [ %56, %53 ], [ %15, %17 ]
  call void @llvm.dbg.value(metadata %"struct.Halide::Runtime::Internal::Synchronization::queue_data"* %60, metadata !1101, metadata !DIExpression()), !dbg !1113
  call void @llvm.dbg.value(metadata %"struct.Halide::Runtime::Internal::Synchronization::queue_data"* %59, metadata !1100, metadata !DIExpression()), !dbg !1113
  call void @llvm.dbg.value(metadata %"struct.Halide::Runtime::Internal::Synchronization::queue_data"** %58, metadata !1099, metadata !DIExpression()), !dbg !1113
  br i1 %20, label %71, label %11, !llvm.loop !1160

62:                                               ; preds = %11
  %63 = load i32 (i8*, i32, i1)*, i32 (i8*, i32, i1)** %7, align 4, !dbg !1162, !tbaa !1139
  %64 = tail call i32 %63(i8* nonnull %8, i32 0, i1 zeroext false) #6, !dbg !1162
  call void @llvm.dbg.value(metadata %"struct.Halide::Runtime::Internal::Synchronization::hash_bucket"* %3, metadata !893, metadata !DIExpression()) #7, !dbg !1163
  call void @llvm.dbg.value(metadata i32 -2, metadata !904, metadata !DIExpression()) #7, !dbg !1165
  call void @llvm.dbg.value(metadata i32* %9, metadata !907, metadata !DIExpression()) #7, !dbg !1165
  %65 = atomicrmw and i32* %9, i32 -2 seq_cst, !dbg !1167
  call void @llvm.dbg.value(metadata i32 %65, metadata !896, metadata !DIExpression()) #7, !dbg !1163
  %66 = and i32 %65, 2, !dbg !1168
  %67 = icmp ne i32 %66, 0, !dbg !1168
  call void @llvm.dbg.value(metadata i1 %67, metadata !897, metadata !DIExpression(DW_OP_LLVM_convert, 1, DW_ATE_unsigned, DW_OP_LLVM_convert, 8, DW_ATE_unsigned, DW_OP_stack_value)) #7, !dbg !1163
  call void @llvm.dbg.value(metadata i1 undef, metadata !898, metadata !DIExpression(DW_OP_LLVM_convert, 1, DW_ATE_unsigned, DW_OP_LLVM_convert, 8, DW_ATE_unsigned, DW_OP_stack_value)) #7, !dbg !1163
  %68 = icmp ult i32 %65, 4
  %69 = or i1 %68, %67, !dbg !1169
  call void @llvm.dbg.value(metadata i1 %68, metadata !898, metadata !DIExpression(DW_OP_LLVM_convert, 1, DW_ATE_unsigned, DW_OP_LLVM_convert, 8, DW_ATE_unsigned, DW_OP_stack_value)) #7, !dbg !1163
  br i1 %69, label %71, label %70, !dbg !1169

70:                                               ; preds = %62
  call void @llvm.dbg.value(metadata %"class.Halide::Runtime::Internal::Synchronization::word_lock"* %10, metadata !893, metadata !DIExpression()) #7, !dbg !1163
  tail call x86_thiscallcc void @"?unlock_full@word_lock@Synchronization@Internal@Runtime@Halide@@AAEXXZ"(%"class.Halide::Runtime::Internal::Synchronization::word_lock"* nonnull dereferenceable(4) %10) #6, !dbg !1170
  br label %71, !dbg !1171

71:                                               ; preds = %57, %70, %62
  %72 = phi i32 [ 0, %62 ], [ 0, %70 ], [ %61, %57 ], !dbg !1113
  ret i32 %72, !dbg !1172
}

; Function Attrs: nounwind mustprogress
define weak dso_local i32 @"?unpark_all@Synchronization@Internal@Runtime@Halide@@YAIII@Z"(i32 %0, i32 %1) local_unnamed_addr #0 !dbg !1173 {
  %3 = alloca [16 x %"struct.Halide::Runtime::Internal::Synchronization::queue_data"*], align 4
  call void @llvm.dbg.value(metadata i32 %1, metadata !1177, metadata !DIExpression()), !dbg !1205
  call void @llvm.dbg.value(metadata i32 %0, metadata !1178, metadata !DIExpression()), !dbg !1205
  %4 = tail call nonnull align 4 dereferenceable(12) %"struct.Halide::Runtime::Internal::Synchronization::hash_bucket"* @"?lock_bucket@Synchronization@Internal@Runtime@Halide@@YAAAUhash_bucket@1234@I@Z"(i32 %0) #8, !dbg !1206
  call void @llvm.dbg.value(metadata %"struct.Halide::Runtime::Internal::Synchronization::hash_bucket"* %4, metadata !1179, metadata !DIExpression()), !dbg !1205
  %5 = getelementptr inbounds %"struct.Halide::Runtime::Internal::Synchronization::hash_bucket", %"struct.Halide::Runtime::Internal::Synchronization::hash_bucket"* %4, i32 0, i32 1, !dbg !1207
  call void @llvm.dbg.value(metadata %"struct.Halide::Runtime::Internal::Synchronization::queue_data"** %5, metadata !1180, metadata !DIExpression()), !dbg !1205
  call void @llvm.dbg.value(metadata %"struct.Halide::Runtime::Internal::Synchronization::queue_data"* null, metadata !1181, metadata !DIExpression()), !dbg !1205
  %6 = load %"struct.Halide::Runtime::Internal::Synchronization::queue_data"*, %"struct.Halide::Runtime::Internal::Synchronization::queue_data"** %5, align 4, !dbg !1208, !tbaa !880
  call void @llvm.dbg.value(metadata %"struct.Halide::Runtime::Internal::Synchronization::queue_data"* %6, metadata !1182, metadata !DIExpression()), !dbg !1205
  call void @llvm.dbg.value(metadata i32 0, metadata !1183, metadata !DIExpression()), !dbg !1205
  %7 = bitcast [16 x %"struct.Halide::Runtime::Internal::Synchronization::queue_data"*]* %3 to i8*, !dbg !1209
  call void @llvm.lifetime.start.p0i8(i64 64, i8* nonnull %7) #7, !dbg !1209
  call void @llvm.dbg.declare(metadata [16 x %"struct.Halide::Runtime::Internal::Synchronization::queue_data"*]* %3, metadata !1185, metadata !DIExpression()), !dbg !1209
  %8 = getelementptr inbounds [16 x %"struct.Halide::Runtime::Internal::Synchronization::queue_data"*], [16 x %"struct.Halide::Runtime::Internal::Synchronization::queue_data"*]* %3, i32 0, i32 0, !dbg !1210
  call void @llvm.dbg.value(metadata %"struct.Halide::Runtime::Internal::Synchronization::queue_data"** %8, metadata !1189, metadata !DIExpression()), !dbg !1205
  call void @llvm.dbg.value(metadata i32 16, metadata !1190, metadata !DIExpression()), !dbg !1205
  call void @llvm.dbg.value(metadata %"struct.Halide::Runtime::Internal::Synchronization::queue_data"* null, metadata !1181, metadata !DIExpression()), !dbg !1205
  call void @llvm.dbg.value(metadata %"struct.Halide::Runtime::Internal::Synchronization::queue_data"* %6, metadata !1182, metadata !DIExpression()), !dbg !1205
  call void @llvm.dbg.value(metadata i32 0, metadata !1183, metadata !DIExpression()), !dbg !1205
  %9 = icmp eq %"struct.Halide::Runtime::Internal::Synchronization::queue_data"* %6, null, !dbg !1211
  br i1 %9, label %91, label %10, !dbg !1211

10:                                               ; preds = %2
  %11 = getelementptr inbounds %"struct.Halide::Runtime::Internal::Synchronization::hash_bucket", %"struct.Halide::Runtime::Internal::Synchronization::hash_bucket"* %4, i32 0, i32 2
  br label %12, !dbg !1211

12:                                               ; preds = %10, %85
  %13 = phi %"struct.Halide::Runtime::Internal::Synchronization::queue_data"* [ null, %10 ], [ %89, %85 ]
  %14 = phi %"struct.Halide::Runtime::Internal::Synchronization::queue_data"* [ %6, %10 ], [ %21, %85 ]
  %15 = phi i32 [ 16, %10 ], [ %88, %85 ]
  %16 = phi %"struct.Halide::Runtime::Internal::Synchronization::queue_data"** [ %8, %10 ], [ %87, %85 ]
  %17 = phi i32 [ 0, %10 ], [ %86, %85 ]
  call void @llvm.dbg.value(metadata %"struct.Halide::Runtime::Internal::Synchronization::queue_data"* %13, metadata !1181, metadata !DIExpression()), !dbg !1205
  call void @llvm.dbg.value(metadata %"struct.Halide::Runtime::Internal::Synchronization::queue_data"* %14, metadata !1182, metadata !DIExpression()), !dbg !1205
  call void @llvm.dbg.value(metadata i32 %15, metadata !1190, metadata !DIExpression()), !dbg !1205
  call void @llvm.dbg.value(metadata %"struct.Halide::Runtime::Internal::Synchronization::queue_data"** %16, metadata !1189, metadata !DIExpression()), !dbg !1205
  call void @llvm.dbg.value(metadata i32 %17, metadata !1183, metadata !DIExpression()), !dbg !1205
  %18 = getelementptr inbounds %"struct.Halide::Runtime::Internal::Synchronization::queue_data", %"struct.Halide::Runtime::Internal::Synchronization::queue_data"* %14, i32 0, i32 1, !dbg !1212
  %19 = load i32, i32* %18, align 4, !dbg !1212, !tbaa !468
  %20 = getelementptr inbounds %"struct.Halide::Runtime::Internal::Synchronization::queue_data", %"struct.Halide::Runtime::Internal::Synchronization::queue_data"* %14, i32 0, i32 2, !dbg !1213
  %21 = load %"struct.Halide::Runtime::Internal::Synchronization::queue_data"*, %"struct.Halide::Runtime::Internal::Synchronization::queue_data"** %20, align 4, !dbg !1213, !tbaa !1018
  call void @llvm.dbg.value(metadata %"struct.Halide::Runtime::Internal::Synchronization::queue_data"* %21, metadata !1193, metadata !DIExpression()), !dbg !1214
  call void @llvm.dbg.value(metadata i32 %19, metadata !1191, metadata !DIExpression()), !dbg !1214
  %22 = icmp eq i32 %19, %0, !dbg !1215
  store %"struct.Halide::Runtime::Internal::Synchronization::queue_data"* %21, %"struct.Halide::Runtime::Internal::Synchronization::queue_data"** %5, align 4, !dbg !1216, !tbaa !880
  br i1 %22, label %23, label %85, !dbg !1215

23:                                               ; preds = %12
  %24 = load %"struct.Halide::Runtime::Internal::Synchronization::queue_data"*, %"struct.Halide::Runtime::Internal::Synchronization::queue_data"** %11, align 4, !dbg !1217, !tbaa !1061
  %25 = icmp eq %"struct.Halide::Runtime::Internal::Synchronization::queue_data"* %24, %14, !dbg !1217
  br i1 %25, label %26, label %27, !dbg !1217

26:                                               ; preds = %23
  store %"struct.Halide::Runtime::Internal::Synchronization::queue_data"* %13, %"struct.Halide::Runtime::Internal::Synchronization::queue_data"** %11, align 4, !dbg !1218, !tbaa !1061
  br label %27, !dbg !1221

27:                                               ; preds = %26, %23
  %28 = icmp eq i32 %17, %15, !dbg !1222
  br i1 %28, label %29, label %78, !dbg !1222

29:                                               ; preds = %27
  call void @llvm.dbg.value(metadata %"struct.Halide::Runtime::Internal::Synchronization::queue_data"** %16, metadata !1194, metadata !DIExpression()), !dbg !1223
  %30 = shl i32 %15, 3, !dbg !1224
  %31 = call i8* @malloc(i32 %30) #6, !dbg !1224
  %32 = bitcast i8* %31 to %"struct.Halide::Runtime::Internal::Synchronization::queue_data"**, !dbg !1224
  call void @llvm.dbg.value(metadata %"struct.Halide::Runtime::Internal::Synchronization::queue_data"** %32, metadata !1189, metadata !DIExpression()), !dbg !1205
  call void @llvm.dbg.value(metadata i32 0, metadata !1199, metadata !DIExpression()), !dbg !1225
  %33 = icmp eq i32 %15, 0, !dbg !1226
  br i1 %33, label %52, label %34, !dbg !1226

34:                                               ; preds = %29
  %35 = add i32 %15, -1, !dbg !1226
  %36 = and i32 %15, 3, !dbg !1226
  %37 = icmp ult i32 %35, 3, !dbg !1226
  br i1 %37, label %40, label %38, !dbg !1226

38:                                               ; preds = %34
  %39 = and i32 %15, -4, !dbg !1226
  br label %55, !dbg !1226

40:                                               ; preds = %55, %34
  %41 = phi i32 [ 0, %34 ], [ %73, %55 ]
  %42 = icmp eq i32 %36, 0, !dbg !1226
  br i1 %42, label %52, label %43, !dbg !1226

43:                                               ; preds = %40, %43
  %44 = phi i32 [ %49, %43 ], [ %41, %40 ]
  %45 = phi i32 [ %50, %43 ], [ %36, %40 ]
  call void @llvm.dbg.value(metadata i32 %44, metadata !1199, metadata !DIExpression()), !dbg !1225
  %46 = getelementptr inbounds %"struct.Halide::Runtime::Internal::Synchronization::queue_data"*, %"struct.Halide::Runtime::Internal::Synchronization::queue_data"** %16, i32 %44, !dbg !1227
  %47 = load %"struct.Halide::Runtime::Internal::Synchronization::queue_data"*, %"struct.Halide::Runtime::Internal::Synchronization::queue_data"** %46, align 4, !dbg !1227, !tbaa !880
  %48 = getelementptr inbounds %"struct.Halide::Runtime::Internal::Synchronization::queue_data"*, %"struct.Halide::Runtime::Internal::Synchronization::queue_data"** %32, i32 %44, !dbg !1227
  store %"struct.Halide::Runtime::Internal::Synchronization::queue_data"* %47, %"struct.Halide::Runtime::Internal::Synchronization::queue_data"** %48, align 4, !dbg !1227, !tbaa !880
  %49 = add nuw i32 %44, 1, !dbg !1230
  call void @llvm.dbg.value(metadata i32 %49, metadata !1199, metadata !DIExpression()), !dbg !1225
  %50 = add i32 %45, -1, !dbg !1226
  %51 = icmp eq i32 %50, 0, !dbg !1226
  br i1 %51, label %52, label %43, !dbg !1226, !llvm.loop !1231

52:                                               ; preds = %40, %43, %29
  %53 = shl i32 %15, 1, !dbg !1233
  call void @llvm.dbg.value(metadata i32 %53, metadata !1190, metadata !DIExpression()), !dbg !1205
  %54 = icmp eq %"struct.Halide::Runtime::Internal::Synchronization::queue_data"** %16, %8, !dbg !1234
  br i1 %54, label %78, label %76, !dbg !1234

55:                                               ; preds = %55, %38
  %56 = phi i32 [ 0, %38 ], [ %73, %55 ]
  %57 = phi i32 [ %39, %38 ], [ %74, %55 ]
  call void @llvm.dbg.value(metadata i32 %56, metadata !1199, metadata !DIExpression()), !dbg !1225
  %58 = getelementptr inbounds %"struct.Halide::Runtime::Internal::Synchronization::queue_data"*, %"struct.Halide::Runtime::Internal::Synchronization::queue_data"** %16, i32 %56, !dbg !1227
  %59 = load %"struct.Halide::Runtime::Internal::Synchronization::queue_data"*, %"struct.Halide::Runtime::Internal::Synchronization::queue_data"** %58, align 4, !dbg !1227, !tbaa !880
  %60 = getelementptr inbounds %"struct.Halide::Runtime::Internal::Synchronization::queue_data"*, %"struct.Halide::Runtime::Internal::Synchronization::queue_data"** %32, i32 %56, !dbg !1227
  store %"struct.Halide::Runtime::Internal::Synchronization::queue_data"* %59, %"struct.Halide::Runtime::Internal::Synchronization::queue_data"** %60, align 4, !dbg !1227, !tbaa !880
  %61 = or i32 %56, 1, !dbg !1230
  call void @llvm.dbg.value(metadata i32 %61, metadata !1199, metadata !DIExpression()), !dbg !1225
  call void @llvm.dbg.value(metadata i32 %61, metadata !1199, metadata !DIExpression()), !dbg !1225
  %62 = getelementptr inbounds %"struct.Halide::Runtime::Internal::Synchronization::queue_data"*, %"struct.Halide::Runtime::Internal::Synchronization::queue_data"** %16, i32 %61, !dbg !1227
  %63 = load %"struct.Halide::Runtime::Internal::Synchronization::queue_data"*, %"struct.Halide::Runtime::Internal::Synchronization::queue_data"** %62, align 4, !dbg !1227, !tbaa !880
  %64 = getelementptr inbounds %"struct.Halide::Runtime::Internal::Synchronization::queue_data"*, %"struct.Halide::Runtime::Internal::Synchronization::queue_data"** %32, i32 %61, !dbg !1227
  store %"struct.Halide::Runtime::Internal::Synchronization::queue_data"* %63, %"struct.Halide::Runtime::Internal::Synchronization::queue_data"** %64, align 4, !dbg !1227, !tbaa !880
  %65 = or i32 %56, 2, !dbg !1230
  call void @llvm.dbg.value(metadata i32 %65, metadata !1199, metadata !DIExpression()), !dbg !1225
  call void @llvm.dbg.value(metadata i32 %65, metadata !1199, metadata !DIExpression()), !dbg !1225
  %66 = getelementptr inbounds %"struct.Halide::Runtime::Internal::Synchronization::queue_data"*, %"struct.Halide::Runtime::Internal::Synchronization::queue_data"** %16, i32 %65, !dbg !1227
  %67 = load %"struct.Halide::Runtime::Internal::Synchronization::queue_data"*, %"struct.Halide::Runtime::Internal::Synchronization::queue_data"** %66, align 4, !dbg !1227, !tbaa !880
  %68 = getelementptr inbounds %"struct.Halide::Runtime::Internal::Synchronization::queue_data"*, %"struct.Halide::Runtime::Internal::Synchronization::queue_data"** %32, i32 %65, !dbg !1227
  store %"struct.Halide::Runtime::Internal::Synchronization::queue_data"* %67, %"struct.Halide::Runtime::Internal::Synchronization::queue_data"** %68, align 4, !dbg !1227, !tbaa !880
  %69 = or i32 %56, 3, !dbg !1230
  call void @llvm.dbg.value(metadata i32 %69, metadata !1199, metadata !DIExpression()), !dbg !1225
  call void @llvm.dbg.value(metadata i32 %69, metadata !1199, metadata !DIExpression()), !dbg !1225
  %70 = getelementptr inbounds %"struct.Halide::Runtime::Internal::Synchronization::queue_data"*, %"struct.Halide::Runtime::Internal::Synchronization::queue_data"** %16, i32 %69, !dbg !1227
  %71 = load %"struct.Halide::Runtime::Internal::Synchronization::queue_data"*, %"struct.Halide::Runtime::Internal::Synchronization::queue_data"** %70, align 4, !dbg !1227, !tbaa !880
  %72 = getelementptr inbounds %"struct.Halide::Runtime::Internal::Synchronization::queue_data"*, %"struct.Halide::Runtime::Internal::Synchronization::queue_data"** %32, i32 %69, !dbg !1227
  store %"struct.Halide::Runtime::Internal::Synchronization::queue_data"* %71, %"struct.Halide::Runtime::Internal::Synchronization::queue_data"** %72, align 4, !dbg !1227, !tbaa !880
  %73 = add nuw i32 %56, 4, !dbg !1230
  call void @llvm.dbg.value(metadata i32 %73, metadata !1199, metadata !DIExpression()), !dbg !1225
  %74 = add i32 %57, -4, !dbg !1226
  %75 = icmp eq i32 %74, 0, !dbg !1226
  br i1 %75, label %40, label %55, !dbg !1226, !llvm.loop !1235

76:                                               ; preds = %52
  %77 = bitcast %"struct.Halide::Runtime::Internal::Synchronization::queue_data"** %16 to i8*, !dbg !1237
  call void @free(i8* %77) #6, !dbg !1237
  br label %78, !dbg !1240

78:                                               ; preds = %52, %76, %27
  %79 = phi %"struct.Halide::Runtime::Internal::Synchronization::queue_data"** [ %16, %27 ], [ %32, %76 ], [ %32, %52 ], !dbg !1205
  %80 = phi i32 [ %15, %27 ], [ %53, %76 ], [ %53, %52 ], !dbg !1205
  call void @llvm.dbg.value(metadata i32 %80, metadata !1190, metadata !DIExpression()), !dbg !1205
  call void @llvm.dbg.value(metadata %"struct.Halide::Runtime::Internal::Synchronization::queue_data"** %79, metadata !1189, metadata !DIExpression()), !dbg !1205
  %81 = getelementptr inbounds %"struct.Halide::Runtime::Internal::Synchronization::queue_data", %"struct.Halide::Runtime::Internal::Synchronization::queue_data"* %14, i32 0, i32 3, !dbg !1241
  store i32 %1, i32* %81, align 8, !dbg !1241, !tbaa !1019
  %82 = add i32 %17, 1, !dbg !1242
  call void @llvm.dbg.value(metadata i32 %82, metadata !1183, metadata !DIExpression()), !dbg !1205
  %83 = getelementptr inbounds %"struct.Halide::Runtime::Internal::Synchronization::queue_data"*, %"struct.Halide::Runtime::Internal::Synchronization::queue_data"** %79, i32 %17, !dbg !1242
  store %"struct.Halide::Runtime::Internal::Synchronization::queue_data"* %14, %"struct.Halide::Runtime::Internal::Synchronization::queue_data"** %83, align 4, !dbg !1242, !tbaa !880
  call void @llvm.dbg.value(metadata %"struct.Halide::Runtime::Internal::Synchronization::queue_data"* %14, metadata !714, metadata !DIExpression()) #7, !dbg !1243
  %84 = getelementptr inbounds %"struct.Halide::Runtime::Internal::Synchronization::queue_data", %"struct.Halide::Runtime::Internal::Synchronization::queue_data"* %14, i32 0, i32 0, i32 0, !dbg !1245
  call x86_stdcallcc void @"\01_EnterCriticalSection@4"(%struct.CriticalSection* nonnull %84) #6, !dbg !1245
  call void @llvm.dbg.value(metadata %"struct.Halide::Runtime::Internal::Synchronization::queue_data"* %21, metadata !1182, metadata !DIExpression()), !dbg !1205
  br label %85, !dbg !1246

85:                                               ; preds = %12, %78
  %86 = phi i32 [ %82, %78 ], [ %17, %12 ], !dbg !1205
  %87 = phi %"struct.Halide::Runtime::Internal::Synchronization::queue_data"** [ %79, %78 ], [ %16, %12 ], !dbg !1205
  %88 = phi i32 [ %80, %78 ], [ %15, %12 ], !dbg !1205
  %89 = phi %"struct.Halide::Runtime::Internal::Synchronization::queue_data"* [ %13, %78 ], [ %14, %12 ], !dbg !1205
  call void @llvm.dbg.value(metadata %"struct.Halide::Runtime::Internal::Synchronization::queue_data"* %89, metadata !1181, metadata !DIExpression()), !dbg !1205
  call void @llvm.dbg.value(metadata %"struct.Halide::Runtime::Internal::Synchronization::queue_data"* %21, metadata !1182, metadata !DIExpression()), !dbg !1205
  call void @llvm.dbg.value(metadata i32 %88, metadata !1190, metadata !DIExpression()), !dbg !1205
  call void @llvm.dbg.value(metadata %"struct.Halide::Runtime::Internal::Synchronization::queue_data"** %87, metadata !1189, metadata !DIExpression()), !dbg !1205
  call void @llvm.dbg.value(metadata i32 %86, metadata !1183, metadata !DIExpression()), !dbg !1205
  %90 = icmp eq %"struct.Halide::Runtime::Internal::Synchronization::queue_data"* %21, null, !dbg !1211
  br i1 %90, label %91, label %12, !dbg !1211, !llvm.loop !1247

91:                                               ; preds = %85, %2
  %92 = phi i32 [ 0, %2 ], [ %86, %85 ], !dbg !1205
  %93 = phi %"struct.Halide::Runtime::Internal::Synchronization::queue_data"** [ %8, %2 ], [ %87, %85 ], !dbg !1205
  call void @llvm.dbg.value(metadata %"struct.Halide::Runtime::Internal::Synchronization::hash_bucket"* %4, metadata !893, metadata !DIExpression()) #7, !dbg !1249
  %94 = getelementptr inbounds %"struct.Halide::Runtime::Internal::Synchronization::hash_bucket", %"struct.Halide::Runtime::Internal::Synchronization::hash_bucket"* %4, i32 0, i32 0, i32 0, !dbg !1251
  call void @llvm.dbg.value(metadata i32 -2, metadata !904, metadata !DIExpression()) #7, !dbg !1252
  call void @llvm.dbg.value(metadata i32* %94, metadata !907, metadata !DIExpression()) #7, !dbg !1252
  %95 = atomicrmw and i32* %94, i32 -2 seq_cst, !dbg !1254
  call void @llvm.dbg.value(metadata i32 %95, metadata !896, metadata !DIExpression()) #7, !dbg !1249
  %96 = and i32 %95, 2, !dbg !1255
  %97 = icmp ne i32 %96, 0, !dbg !1255
  call void @llvm.dbg.value(metadata i1 %97, metadata !897, metadata !DIExpression(DW_OP_LLVM_convert, 1, DW_ATE_unsigned, DW_OP_LLVM_convert, 8, DW_ATE_unsigned, DW_OP_stack_value)) #7, !dbg !1249
  call void @llvm.dbg.value(metadata i1 undef, metadata !898, metadata !DIExpression(DW_OP_LLVM_convert, 1, DW_ATE_unsigned, DW_OP_LLVM_convert, 8, DW_ATE_unsigned, DW_OP_stack_value)) #7, !dbg !1249
  %98 = icmp ult i32 %95, 4
  %99 = or i1 %98, %97, !dbg !1256
  call void @llvm.dbg.value(metadata i1 %98, metadata !898, metadata !DIExpression(DW_OP_LLVM_convert, 1, DW_ATE_unsigned, DW_OP_LLVM_convert, 8, DW_ATE_unsigned, DW_OP_stack_value)) #7, !dbg !1249
  br i1 %99, label %102, label %100, !dbg !1256

100:                                              ; preds = %91
  %101 = getelementptr inbounds %"struct.Halide::Runtime::Internal::Synchronization::hash_bucket", %"struct.Halide::Runtime::Internal::Synchronization::hash_bucket"* %4, i32 0, i32 0, !dbg !1257
  call void @llvm.dbg.value(metadata %"class.Halide::Runtime::Internal::Synchronization::word_lock"* %101, metadata !893, metadata !DIExpression()) #7, !dbg !1249
  call x86_thiscallcc void @"?unlock_full@word_lock@Synchronization@Internal@Runtime@Halide@@AAEXXZ"(%"class.Halide::Runtime::Internal::Synchronization::word_lock"* nonnull dereferenceable(4) %101) #6, !dbg !1258
  br label %102, !dbg !1259

102:                                              ; preds = %91, %100
  call void @llvm.dbg.value(metadata i32 0, metadata !1201, metadata !DIExpression()), !dbg !1260
  %103 = icmp eq i32 %92, 0, !dbg !1261
  br i1 %103, label %113, label %105, !dbg !1261

104:                                              ; preds = %105
  call void @llvm.dbg.value(metadata i32 0, metadata !1203, metadata !DIExpression()), !dbg !1262
  br i1 %103, label %113, label %115, !dbg !1263

105:                                              ; preds = %102, %105
  %106 = phi i32 [ %111, %105 ], [ 0, %102 ]
  call void @llvm.dbg.value(metadata i32 %106, metadata !1201, metadata !DIExpression()), !dbg !1260
  %107 = getelementptr inbounds %"struct.Halide::Runtime::Internal::Synchronization::queue_data"*, %"struct.Halide::Runtime::Internal::Synchronization::queue_data"** %93, i32 %106, !dbg !1264
  %108 = load %"struct.Halide::Runtime::Internal::Synchronization::queue_data"*, %"struct.Halide::Runtime::Internal::Synchronization::queue_data"** %107, align 4, !dbg !1264, !tbaa !880
  call void @llvm.dbg.value(metadata %"struct.Halide::Runtime::Internal::Synchronization::queue_data"* %108, metadata !720, metadata !DIExpression()) #7, !dbg !1267
  %109 = getelementptr inbounds %"struct.Halide::Runtime::Internal::Synchronization::queue_data", %"struct.Halide::Runtime::Internal::Synchronization::queue_data"* %108, i32 0, i32 0, i32 2, !dbg !1269
  store i8 0, i8* %109, align 8, !dbg !1269, !tbaa !529
  %110 = getelementptr inbounds %"struct.Halide::Runtime::Internal::Synchronization::queue_data", %"struct.Halide::Runtime::Internal::Synchronization::queue_data"* %108, i32 0, i32 0, i32 1, !dbg !1270
  call x86_stdcallcc void @"\01_WakeConditionVariable@4"(i64* nonnull %110) #6, !dbg !1270
  %111 = add nuw i32 %106, 1, !dbg !1271
  call void @llvm.dbg.value(metadata i32 %111, metadata !1201, metadata !DIExpression()), !dbg !1260
  %112 = icmp eq i32 %111, %92, !dbg !1261
  br i1 %112, label %104, label %105, !dbg !1261, !llvm.loop !1272

113:                                              ; preds = %115, %102, %104
  %114 = icmp eq %"struct.Halide::Runtime::Internal::Synchronization::queue_data"** %93, %8, !dbg !1274
  br i1 %114, label %124, label %122, !dbg !1274

115:                                              ; preds = %104, %115
  %116 = phi i32 [ %120, %115 ], [ 0, %104 ]
  call void @llvm.dbg.value(metadata i32 %116, metadata !1203, metadata !DIExpression()), !dbg !1262
  %117 = getelementptr inbounds %"struct.Halide::Runtime::Internal::Synchronization::queue_data"*, %"struct.Halide::Runtime::Internal::Synchronization::queue_data"** %93, i32 %116, !dbg !1275
  %118 = load %"struct.Halide::Runtime::Internal::Synchronization::queue_data"*, %"struct.Halide::Runtime::Internal::Synchronization::queue_data"** %117, align 4, !dbg !1275, !tbaa !880
  call void @llvm.dbg.value(metadata %"struct.Halide::Runtime::Internal::Synchronization::queue_data"* %118, metadata !727, metadata !DIExpression()) #7, !dbg !1278
  %119 = getelementptr inbounds %"struct.Halide::Runtime::Internal::Synchronization::queue_data", %"struct.Halide::Runtime::Internal::Synchronization::queue_data"* %118, i32 0, i32 0, i32 0, !dbg !1280
  call x86_stdcallcc void @"\01_LeaveCriticalSection@4"(%struct.CriticalSection* nonnull %119) #6, !dbg !1280
  %120 = add nuw i32 %116, 1, !dbg !1281
  call void @llvm.dbg.value(metadata i32 %120, metadata !1203, metadata !DIExpression()), !dbg !1262
  %121 = icmp eq i32 %120, %92, !dbg !1263
  br i1 %121, label %113, label %115, !dbg !1263, !llvm.loop !1282

122:                                              ; preds = %113
  %123 = bitcast %"struct.Halide::Runtime::Internal::Synchronization::queue_data"** %93 to i8*, !dbg !1284
  call void @free(i8* %123) #6, !dbg !1284
  br label %124, !dbg !1287

124:                                              ; preds = %122, %113
  call void @llvm.lifetime.end.p0i8(i64 64, i8* nonnull %7) #7, !dbg !1288
  ret i32 %92, !dbg !1289
}

; Function Attrs: nounwind
define weak dso_local i32 @"?unpark_requeue@Synchronization@Internal@Runtime@Halide@@YAHIIAAUparking_control@1234@I@Z"(i32 %0, i32 %1, %"struct.Halide::Runtime::Internal::Synchronization::parking_control"* nonnull align 4 dereferenceable(16) %2, i32 %3) local_unnamed_addr #4 !dbg !1290 {
  %5 = alloca %"struct.Halide::Runtime::Internal::Synchronization::bucket_pair", align 4
  %6 = alloca %"struct.Halide::Runtime::Internal::Synchronization::validate_action", align 4
  call void @llvm.dbg.value(metadata i32 %3, metadata !1294, metadata !DIExpression()), !dbg !1309
  call void @llvm.dbg.value(metadata %"struct.Halide::Runtime::Internal::Synchronization::parking_control"* %2, metadata !1295, metadata !DIExpression()), !dbg !1309
  call void @llvm.dbg.value(metadata i32 %1, metadata !1296, metadata !DIExpression()), !dbg !1309
  call void @llvm.dbg.value(metadata i32 %0, metadata !1297, metadata !DIExpression()), !dbg !1309
  %7 = bitcast %"struct.Halide::Runtime::Internal::Synchronization::bucket_pair"* %5 to i8*, !dbg !1310
  call void @llvm.lifetime.start.p0i8(i64 8, i8* nonnull %7) #7, !dbg !1310
  call void @llvm.dbg.declare(metadata %"struct.Halide::Runtime::Internal::Synchronization::bucket_pair"* %5, metadata !1298, metadata !DIExpression()), !dbg !1310
  call void @llvm.dbg.value(metadata i32 %1, metadata !1296, metadata !DIExpression()), !dbg !1309
  call void @"?lock_bucket_pair@Synchronization@Internal@Runtime@Halide@@YA?AUbucket_pair@1234@II@Z"(%"struct.Halide::Runtime::Internal::Synchronization::bucket_pair"* nonnull sret(%"struct.Halide::Runtime::Internal::Synchronization::bucket_pair") align 4 %5, i32 %0, i32 %1) #8, !dbg !1310
  %8 = getelementptr inbounds %"struct.Halide::Runtime::Internal::Synchronization::validate_action", %"struct.Halide::Runtime::Internal::Synchronization::validate_action"* %6, i32 0, i32 0, !dbg !1311
  call void @llvm.lifetime.start.p0i8(i64 8, i8* nonnull %8) #7, !dbg !1311
  call void @llvm.dbg.declare(metadata %"struct.Halide::Runtime::Internal::Synchronization::validate_action"* %6, metadata !1299, metadata !DIExpression()), !dbg !1311
  call void @llvm.dbg.value(metadata %"struct.Halide::Runtime::Internal::Synchronization::validate_action"* %6, metadata !1022, metadata !DIExpression()), !dbg !1312
  store i8 0, i8* %8, align 4, !dbg !1314, !tbaa !1029
  %9 = getelementptr inbounds %"struct.Halide::Runtime::Internal::Synchronization::validate_action", %"struct.Halide::Runtime::Internal::Synchronization::validate_action"* %6, i32 0, i32 1, !dbg !1314
  store i32 0, i32* %9, align 4, !dbg !1314, !tbaa !1031
  %10 = getelementptr inbounds %"struct.Halide::Runtime::Internal::Synchronization::parking_control", %"struct.Halide::Runtime::Internal::Synchronization::parking_control"* %2, i32 0, i32 0, !dbg !1315
  %11 = load i1 (i8*, %"struct.Halide::Runtime::Internal::Synchronization::validate_action"*)*, i1 (i8*, %"struct.Halide::Runtime::Internal::Synchronization::validate_action"*)** %10, align 4, !dbg !1315, !tbaa !1033
  %12 = bitcast %"struct.Halide::Runtime::Internal::Synchronization::parking_control"* %2 to i8*, !dbg !1315
  %13 = call zeroext i1 %11(i8* nonnull %12, %"struct.Halide::Runtime::Internal::Synchronization::validate_action"* nonnull align 4 dereferenceable(8) %6) #6, !dbg !1315
  br i1 %13, label %15, label %14, !dbg !1315

14:                                               ; preds = %4
  call void @"?unlock_bucket_pair@Synchronization@Internal@Runtime@Halide@@YAXAAUbucket_pair@1234@@Z"(%"struct.Halide::Runtime::Internal::Synchronization::bucket_pair"* nonnull align 4 dereferenceable(8) %5) #8, !dbg !1316
  br label %123, !dbg !1319

15:                                               ; preds = %4
  %16 = getelementptr inbounds %"struct.Halide::Runtime::Internal::Synchronization::bucket_pair", %"struct.Halide::Runtime::Internal::Synchronization::bucket_pair"* %5, i32 0, i32 0, !dbg !1320
  %17 = load %"struct.Halide::Runtime::Internal::Synchronization::hash_bucket"*, %"struct.Halide::Runtime::Internal::Synchronization::hash_bucket"** %16, align 4, !dbg !1320, !tbaa !890
  %18 = getelementptr inbounds %"struct.Halide::Runtime::Internal::Synchronization::hash_bucket", %"struct.Halide::Runtime::Internal::Synchronization::hash_bucket"* %17, i32 0, i32 1, !dbg !1320
  call void @llvm.dbg.value(metadata %"struct.Halide::Runtime::Internal::Synchronization::queue_data"** %18, metadata !1300, metadata !DIExpression()), !dbg !1309
  call void @llvm.dbg.value(metadata %"struct.Halide::Runtime::Internal::Synchronization::queue_data"* null, metadata !1301, metadata !DIExpression()), !dbg !1309
  %19 = load %"struct.Halide::Runtime::Internal::Synchronization::queue_data"*, %"struct.Halide::Runtime::Internal::Synchronization::queue_data"** %18, align 4, !dbg !1321, !tbaa !880
  call void @llvm.dbg.value(metadata %"struct.Halide::Runtime::Internal::Synchronization::queue_data"* %19, metadata !1302, metadata !DIExpression()), !dbg !1309
  call void @llvm.dbg.value(metadata %"struct.Halide::Runtime::Internal::Synchronization::queue_data"* null, metadata !1303, metadata !DIExpression()), !dbg !1309
  call void @llvm.dbg.value(metadata %"struct.Halide::Runtime::Internal::Synchronization::queue_data"* null, metadata !1304, metadata !DIExpression()), !dbg !1309
  call void @llvm.dbg.value(metadata %"struct.Halide::Runtime::Internal::Synchronization::queue_data"* null, metadata !1305, metadata !DIExpression()), !dbg !1309
  call void @llvm.dbg.value(metadata %"struct.Halide::Runtime::Internal::Synchronization::queue_data"* null, metadata !1301, metadata !DIExpression()), !dbg !1309
  call void @llvm.dbg.value(metadata %"struct.Halide::Runtime::Internal::Synchronization::queue_data"** %18, metadata !1300, metadata !DIExpression()), !dbg !1309
  %20 = icmp eq %"struct.Halide::Runtime::Internal::Synchronization::queue_data"* %19, null, !dbg !1322
  br i1 %20, label %105, label %21, !dbg !1322

21:                                               ; preds = %15
  %22 = load i8, i8* %8, align 4
  %23 = icmp eq i8 %22, 0
  br i1 %23, label %57, label %24, !dbg !1322

24:                                               ; preds = %21, %50
  %25 = phi %"struct.Halide::Runtime::Internal::Synchronization::queue_data"* [ %55, %50 ], [ null, %21 ]
  %26 = phi %"struct.Halide::Runtime::Internal::Synchronization::queue_data"* [ %54, %50 ], [ null, %21 ]
  %27 = phi %"struct.Halide::Runtime::Internal::Synchronization::queue_data"* [ %53, %50 ], [ null, %21 ]
  %28 = phi %"struct.Halide::Runtime::Internal::Synchronization::queue_data"* [ %34, %50 ], [ %19, %21 ]
  %29 = phi %"struct.Halide::Runtime::Internal::Synchronization::queue_data"* [ %52, %50 ], [ null, %21 ]
  %30 = phi %"struct.Halide::Runtime::Internal::Synchronization::queue_data"** [ %51, %50 ], [ %18, %21 ]
  call void @llvm.dbg.value(metadata %"struct.Halide::Runtime::Internal::Synchronization::queue_data"* %25, metadata !1305, metadata !DIExpression()), !dbg !1309
  call void @llvm.dbg.value(metadata %"struct.Halide::Runtime::Internal::Synchronization::queue_data"* %26, metadata !1304, metadata !DIExpression()), !dbg !1309
  call void @llvm.dbg.value(metadata %"struct.Halide::Runtime::Internal::Synchronization::queue_data"* %27, metadata !1303, metadata !DIExpression()), !dbg !1309
  call void @llvm.dbg.value(metadata %"struct.Halide::Runtime::Internal::Synchronization::queue_data"* %28, metadata !1302, metadata !DIExpression()), !dbg !1309
  call void @llvm.dbg.value(metadata %"struct.Halide::Runtime::Internal::Synchronization::queue_data"* %29, metadata !1301, metadata !DIExpression()), !dbg !1309
  call void @llvm.dbg.value(metadata %"struct.Halide::Runtime::Internal::Synchronization::queue_data"** %30, metadata !1300, metadata !DIExpression()), !dbg !1309
  %31 = getelementptr inbounds %"struct.Halide::Runtime::Internal::Synchronization::queue_data", %"struct.Halide::Runtime::Internal::Synchronization::queue_data"* %28, i32 0, i32 1, !dbg !1323
  %32 = load i32, i32* %31, align 4, !dbg !1323, !tbaa !468
  %33 = getelementptr inbounds %"struct.Halide::Runtime::Internal::Synchronization::queue_data", %"struct.Halide::Runtime::Internal::Synchronization::queue_data"* %28, i32 0, i32 2, !dbg !1324
  %34 = load %"struct.Halide::Runtime::Internal::Synchronization::queue_data"*, %"struct.Halide::Runtime::Internal::Synchronization::queue_data"** %33, align 4, !dbg !1324, !tbaa !1018
  call void @llvm.dbg.value(metadata %"struct.Halide::Runtime::Internal::Synchronization::queue_data"* %34, metadata !1308, metadata !DIExpression()), !dbg !1325
  call void @llvm.dbg.value(metadata i32 %32, metadata !1306, metadata !DIExpression()), !dbg !1325
  %35 = icmp eq i32 %32, %0, !dbg !1326
  br i1 %35, label %36, label %50, !dbg !1326

36:                                               ; preds = %24
  store %"struct.Halide::Runtime::Internal::Synchronization::queue_data"* %34, %"struct.Halide::Runtime::Internal::Synchronization::queue_data"** %30, align 4, !dbg !1327, !tbaa !880
  %37 = load %"struct.Halide::Runtime::Internal::Synchronization::hash_bucket"*, %"struct.Halide::Runtime::Internal::Synchronization::hash_bucket"** %16, align 4, !dbg !1330, !tbaa !890
  %38 = getelementptr inbounds %"struct.Halide::Runtime::Internal::Synchronization::hash_bucket", %"struct.Halide::Runtime::Internal::Synchronization::hash_bucket"* %37, i32 0, i32 2, !dbg !1330
  %39 = load %"struct.Halide::Runtime::Internal::Synchronization::queue_data"*, %"struct.Halide::Runtime::Internal::Synchronization::queue_data"** %38, align 4, !dbg !1330, !tbaa !1061
  %40 = icmp eq %"struct.Halide::Runtime::Internal::Synchronization::queue_data"* %39, %28, !dbg !1330
  br i1 %40, label %41, label %42, !dbg !1330

41:                                               ; preds = %36
  store %"struct.Halide::Runtime::Internal::Synchronization::queue_data"* %29, %"struct.Halide::Runtime::Internal::Synchronization::queue_data"** %38, align 4, !dbg !1331, !tbaa !1061
  br label %42, !dbg !1334

42:                                               ; preds = %41, %36
  %43 = icmp eq %"struct.Halide::Runtime::Internal::Synchronization::queue_data"* %25, null, !dbg !1335
  br i1 %43, label %50, label %44, !dbg !1335

44:                                               ; preds = %42
  %45 = icmp eq %"struct.Halide::Runtime::Internal::Synchronization::queue_data"* %27, null, !dbg !1336
  br i1 %45, label %48, label %46, !dbg !1336

46:                                               ; preds = %44
  %47 = getelementptr inbounds %"struct.Halide::Runtime::Internal::Synchronization::queue_data", %"struct.Halide::Runtime::Internal::Synchronization::queue_data"* %26, i32 0, i32 2, !dbg !1339
  store %"struct.Halide::Runtime::Internal::Synchronization::queue_data"* %28, %"struct.Halide::Runtime::Internal::Synchronization::queue_data"** %47, align 4, !dbg !1339, !tbaa !1018
  br label %48, !dbg !1342

48:                                               ; preds = %46, %44
  %49 = phi %"struct.Halide::Runtime::Internal::Synchronization::queue_data"* [ %27, %46 ], [ %28, %44 ], !dbg !1309
  call void @llvm.dbg.value(metadata %"struct.Halide::Runtime::Internal::Synchronization::queue_data"* %49, metadata !1303, metadata !DIExpression()), !dbg !1309
  call void @llvm.dbg.value(metadata %"struct.Halide::Runtime::Internal::Synchronization::queue_data"* %28, metadata !1304, metadata !DIExpression()), !dbg !1309
  call void @llvm.dbg.value(metadata i32* undef, metadata !1343, metadata !DIExpression()), !dbg !1349
  call void @llvm.dbg.value(metadata i32* %31, metadata !1348, metadata !DIExpression()), !dbg !1349
  store i32 %1, i32* %31, align 4, !dbg !1351, !tbaa !468
  br label %50, !dbg !1352

50:                                               ; preds = %48, %42, %24
  %51 = phi %"struct.Halide::Runtime::Internal::Synchronization::queue_data"** [ %30, %42 ], [ %30, %48 ], [ %33, %24 ], !dbg !1309
  %52 = phi %"struct.Halide::Runtime::Internal::Synchronization::queue_data"* [ %29, %42 ], [ %29, %48 ], [ %28, %24 ], !dbg !1309
  %53 = phi %"struct.Halide::Runtime::Internal::Synchronization::queue_data"* [ %27, %42 ], [ %49, %48 ], [ %27, %24 ], !dbg !1353
  %54 = phi %"struct.Halide::Runtime::Internal::Synchronization::queue_data"* [ %26, %42 ], [ %28, %48 ], [ %26, %24 ], !dbg !1354
  %55 = phi %"struct.Halide::Runtime::Internal::Synchronization::queue_data"* [ %28, %42 ], [ %25, %48 ], [ %25, %24 ], !dbg !1309
  call void @llvm.dbg.value(metadata %"struct.Halide::Runtime::Internal::Synchronization::queue_data"* %55, metadata !1305, metadata !DIExpression()), !dbg !1309
  call void @llvm.dbg.value(metadata %"struct.Halide::Runtime::Internal::Synchronization::queue_data"* %54, metadata !1304, metadata !DIExpression()), !dbg !1309
  call void @llvm.dbg.value(metadata %"struct.Halide::Runtime::Internal::Synchronization::queue_data"* %53, metadata !1303, metadata !DIExpression()), !dbg !1309
  call void @llvm.dbg.value(metadata %"struct.Halide::Runtime::Internal::Synchronization::queue_data"* %34, metadata !1302, metadata !DIExpression()), !dbg !1309
  call void @llvm.dbg.value(metadata %"struct.Halide::Runtime::Internal::Synchronization::queue_data"* %52, metadata !1301, metadata !DIExpression()), !dbg !1309
  call void @llvm.dbg.value(metadata %"struct.Halide::Runtime::Internal::Synchronization::queue_data"** %51, metadata !1300, metadata !DIExpression()), !dbg !1309
  %56 = icmp eq %"struct.Halide::Runtime::Internal::Synchronization::queue_data"* %34, null, !dbg !1322
  br i1 %56, label %86, label %24, !dbg !1322, !llvm.loop !1355

57:                                               ; preds = %21, %80
  %58 = phi %"struct.Halide::Runtime::Internal::Synchronization::queue_data"* [ %84, %80 ], [ null, %21 ]
  %59 = phi %"struct.Halide::Runtime::Internal::Synchronization::queue_data"* [ %83, %80 ], [ null, %21 ]
  %60 = phi %"struct.Halide::Runtime::Internal::Synchronization::queue_data"* [ %66, %80 ], [ %19, %21 ]
  %61 = phi %"struct.Halide::Runtime::Internal::Synchronization::queue_data"* [ %82, %80 ], [ null, %21 ]
  %62 = phi %"struct.Halide::Runtime::Internal::Synchronization::queue_data"** [ %81, %80 ], [ %18, %21 ]
  call void @llvm.dbg.value(metadata %"struct.Halide::Runtime::Internal::Synchronization::queue_data"* null, metadata !1305, metadata !DIExpression()), !dbg !1309
  call void @llvm.dbg.value(metadata %"struct.Halide::Runtime::Internal::Synchronization::queue_data"* %58, metadata !1304, metadata !DIExpression()), !dbg !1309
  call void @llvm.dbg.value(metadata %"struct.Halide::Runtime::Internal::Synchronization::queue_data"* %59, metadata !1303, metadata !DIExpression()), !dbg !1309
  call void @llvm.dbg.value(metadata %"struct.Halide::Runtime::Internal::Synchronization::queue_data"* %60, metadata !1302, metadata !DIExpression()), !dbg !1309
  call void @llvm.dbg.value(metadata %"struct.Halide::Runtime::Internal::Synchronization::queue_data"* %61, metadata !1301, metadata !DIExpression()), !dbg !1309
  call void @llvm.dbg.value(metadata %"struct.Halide::Runtime::Internal::Synchronization::queue_data"** %62, metadata !1300, metadata !DIExpression()), !dbg !1309
  %63 = getelementptr inbounds %"struct.Halide::Runtime::Internal::Synchronization::queue_data", %"struct.Halide::Runtime::Internal::Synchronization::queue_data"* %60, i32 0, i32 1, !dbg !1323
  %64 = load i32, i32* %63, align 4, !dbg !1323, !tbaa !468
  %65 = getelementptr inbounds %"struct.Halide::Runtime::Internal::Synchronization::queue_data", %"struct.Halide::Runtime::Internal::Synchronization::queue_data"* %60, i32 0, i32 2, !dbg !1324
  %66 = load %"struct.Halide::Runtime::Internal::Synchronization::queue_data"*, %"struct.Halide::Runtime::Internal::Synchronization::queue_data"** %65, align 4, !dbg !1324, !tbaa !1018
  call void @llvm.dbg.value(metadata %"struct.Halide::Runtime::Internal::Synchronization::queue_data"* %66, metadata !1308, metadata !DIExpression()), !dbg !1325
  call void @llvm.dbg.value(metadata i32 %64, metadata !1306, metadata !DIExpression()), !dbg !1325
  %67 = icmp eq i32 %64, %0, !dbg !1326
  br i1 %67, label %68, label %80, !dbg !1326

68:                                               ; preds = %57
  store %"struct.Halide::Runtime::Internal::Synchronization::queue_data"* %66, %"struct.Halide::Runtime::Internal::Synchronization::queue_data"** %62, align 4, !dbg !1327, !tbaa !880
  %69 = load %"struct.Halide::Runtime::Internal::Synchronization::hash_bucket"*, %"struct.Halide::Runtime::Internal::Synchronization::hash_bucket"** %16, align 4, !dbg !1330, !tbaa !890
  %70 = getelementptr inbounds %"struct.Halide::Runtime::Internal::Synchronization::hash_bucket", %"struct.Halide::Runtime::Internal::Synchronization::hash_bucket"* %69, i32 0, i32 2, !dbg !1330
  %71 = load %"struct.Halide::Runtime::Internal::Synchronization::queue_data"*, %"struct.Halide::Runtime::Internal::Synchronization::queue_data"** %70, align 4, !dbg !1330, !tbaa !1061
  %72 = icmp eq %"struct.Halide::Runtime::Internal::Synchronization::queue_data"* %71, %60, !dbg !1330
  br i1 %72, label %73, label %74, !dbg !1330

73:                                               ; preds = %68
  store %"struct.Halide::Runtime::Internal::Synchronization::queue_data"* %61, %"struct.Halide::Runtime::Internal::Synchronization::queue_data"** %70, align 4, !dbg !1331, !tbaa !1061
  br label %74, !dbg !1334

74:                                               ; preds = %68, %73
  %75 = icmp eq %"struct.Halide::Runtime::Internal::Synchronization::queue_data"* %59, null, !dbg !1336
  br i1 %75, label %78, label %76, !dbg !1336

76:                                               ; preds = %74
  %77 = getelementptr inbounds %"struct.Halide::Runtime::Internal::Synchronization::queue_data", %"struct.Halide::Runtime::Internal::Synchronization::queue_data"* %58, i32 0, i32 2, !dbg !1339
  store %"struct.Halide::Runtime::Internal::Synchronization::queue_data"* %60, %"struct.Halide::Runtime::Internal::Synchronization::queue_data"** %77, align 4, !dbg !1339, !tbaa !1018
  br label %78, !dbg !1342

78:                                               ; preds = %74, %76
  %79 = phi %"struct.Halide::Runtime::Internal::Synchronization::queue_data"* [ %59, %76 ], [ %60, %74 ], !dbg !1309
  call void @llvm.dbg.value(metadata %"struct.Halide::Runtime::Internal::Synchronization::queue_data"* %79, metadata !1303, metadata !DIExpression()), !dbg !1309
  call void @llvm.dbg.value(metadata %"struct.Halide::Runtime::Internal::Synchronization::queue_data"* %60, metadata !1304, metadata !DIExpression()), !dbg !1309
  call void @llvm.dbg.value(metadata i32* undef, metadata !1343, metadata !DIExpression()), !dbg !1349
  call void @llvm.dbg.value(metadata i32* %63, metadata !1348, metadata !DIExpression()), !dbg !1349
  store i32 %1, i32* %63, align 4, !dbg !1351, !tbaa !468
  br label %80, !dbg !1352

80:                                               ; preds = %57, %78
  %81 = phi %"struct.Halide::Runtime::Internal::Synchronization::queue_data"** [ %62, %78 ], [ %65, %57 ], !dbg !1309
  %82 = phi %"struct.Halide::Runtime::Internal::Synchronization::queue_data"* [ %61, %78 ], [ %60, %57 ], !dbg !1309
  %83 = phi %"struct.Halide::Runtime::Internal::Synchronization::queue_data"* [ %79, %78 ], [ %59, %57 ], !dbg !1353
  %84 = phi %"struct.Halide::Runtime::Internal::Synchronization::queue_data"* [ %60, %78 ], [ %58, %57 ], !dbg !1354
  call void @llvm.dbg.value(metadata %"struct.Halide::Runtime::Internal::Synchronization::queue_data"* null, metadata !1305, metadata !DIExpression()), !dbg !1309
  call void @llvm.dbg.value(metadata %"struct.Halide::Runtime::Internal::Synchronization::queue_data"* %84, metadata !1304, metadata !DIExpression()), !dbg !1309
  call void @llvm.dbg.value(metadata %"struct.Halide::Runtime::Internal::Synchronization::queue_data"* %83, metadata !1303, metadata !DIExpression()), !dbg !1309
  call void @llvm.dbg.value(metadata %"struct.Halide::Runtime::Internal::Synchronization::queue_data"* %66, metadata !1302, metadata !DIExpression()), !dbg !1309
  call void @llvm.dbg.value(metadata %"struct.Halide::Runtime::Internal::Synchronization::queue_data"* %82, metadata !1301, metadata !DIExpression()), !dbg !1309
  call void @llvm.dbg.value(metadata %"struct.Halide::Runtime::Internal::Synchronization::queue_data"** %81, metadata !1300, metadata !DIExpression()), !dbg !1309
  %85 = icmp eq %"struct.Halide::Runtime::Internal::Synchronization::queue_data"* %66, null, !dbg !1322
  br i1 %85, label %86, label %57, !dbg !1322, !llvm.loop !1355

86:                                               ; preds = %50, %80
  %87 = phi %"struct.Halide::Runtime::Internal::Synchronization::queue_data"* [ %83, %80 ], [ %53, %50 ], !dbg !1353
  %88 = phi %"struct.Halide::Runtime::Internal::Synchronization::queue_data"* [ %84, %80 ], [ %54, %50 ], !dbg !1354
  %89 = phi %"struct.Halide::Runtime::Internal::Synchronization::queue_data"* [ null, %80 ], [ %55, %50 ], !dbg !1309
  %90 = icmp eq %"struct.Halide::Runtime::Internal::Synchronization::queue_data"* %87, null, !dbg !1357
  br i1 %90, label %105, label %91, !dbg !1357

91:                                               ; preds = %86
  %92 = getelementptr inbounds %"struct.Halide::Runtime::Internal::Synchronization::queue_data", %"struct.Halide::Runtime::Internal::Synchronization::queue_data"* %88, i32 0, i32 2, !dbg !1358
  store %"struct.Halide::Runtime::Internal::Synchronization::queue_data"* null, %"struct.Halide::Runtime::Internal::Synchronization::queue_data"** %92, align 4, !dbg !1358, !tbaa !1018
  %93 = getelementptr inbounds %"struct.Halide::Runtime::Internal::Synchronization::bucket_pair", %"struct.Halide::Runtime::Internal::Synchronization::bucket_pair"* %5, i32 0, i32 1, !dbg !1361
  %94 = load %"struct.Halide::Runtime::Internal::Synchronization::hash_bucket"*, %"struct.Halide::Runtime::Internal::Synchronization::hash_bucket"** %93, align 4, !dbg !1361, !tbaa !892
  %95 = getelementptr inbounds %"struct.Halide::Runtime::Internal::Synchronization::hash_bucket", %"struct.Halide::Runtime::Internal::Synchronization::hash_bucket"* %94, i32 0, i32 1, !dbg !1361
  %96 = load %"struct.Halide::Runtime::Internal::Synchronization::queue_data"*, %"struct.Halide::Runtime::Internal::Synchronization::queue_data"** %95, align 4, !dbg !1361, !tbaa !1055
  %97 = icmp eq %"struct.Halide::Runtime::Internal::Synchronization::queue_data"* %96, null, !dbg !1361
  br i1 %97, label %102, label %98, !dbg !1361

98:                                               ; preds = %91
  %99 = getelementptr inbounds %"struct.Halide::Runtime::Internal::Synchronization::hash_bucket", %"struct.Halide::Runtime::Internal::Synchronization::hash_bucket"* %94, i32 0, i32 2, !dbg !1362
  %100 = load %"struct.Halide::Runtime::Internal::Synchronization::queue_data"*, %"struct.Halide::Runtime::Internal::Synchronization::queue_data"** %99, align 4, !dbg !1362, !tbaa !1061
  %101 = getelementptr inbounds %"struct.Halide::Runtime::Internal::Synchronization::queue_data", %"struct.Halide::Runtime::Internal::Synchronization::queue_data"* %100, i32 0, i32 2, !dbg !1362
  br label %102, !dbg !1365

102:                                              ; preds = %91, %98
  %103 = phi %"struct.Halide::Runtime::Internal::Synchronization::queue_data"** [ %101, %98 ], [ %95, %91 ]
  store %"struct.Halide::Runtime::Internal::Synchronization::queue_data"* %87, %"struct.Halide::Runtime::Internal::Synchronization::queue_data"** %103, align 4, !dbg !1366, !tbaa !880
  %104 = getelementptr inbounds %"struct.Halide::Runtime::Internal::Synchronization::hash_bucket", %"struct.Halide::Runtime::Internal::Synchronization::hash_bucket"* %94, i32 0, i32 2, !dbg !1367
  store %"struct.Halide::Runtime::Internal::Synchronization::queue_data"* %88, %"struct.Halide::Runtime::Internal::Synchronization::queue_data"** %104, align 4, !dbg !1367, !tbaa !1061
  br label %105, !dbg !1368

105:                                              ; preds = %15, %102, %86
  %106 = phi i1 [ true, %102 ], [ false, %86 ], [ false, %15 ]
  %107 = phi %"struct.Halide::Runtime::Internal::Synchronization::queue_data"* [ %89, %102 ], [ %89, %86 ], [ null, %15 ]
  %108 = getelementptr inbounds %"struct.Halide::Runtime::Internal::Synchronization::parking_control", %"struct.Halide::Runtime::Internal::Synchronization::parking_control"* %2, i32 0, i32 3, !dbg !1369
  %109 = load void (i8*, %"struct.Halide::Runtime::Internal::Synchronization::validate_action"*, i1, i1)*, void (i8*, %"struct.Halide::Runtime::Internal::Synchronization::validate_action"*, i1, i1)** %108, align 4, !dbg !1369, !tbaa !1370
  %110 = icmp ne %"struct.Halide::Runtime::Internal::Synchronization::queue_data"* %107, null, !dbg !1369
  call void %109(i8* nonnull %12, %"struct.Halide::Runtime::Internal::Synchronization::validate_action"* nonnull align 4 dereferenceable(8) %6, i1 zeroext %110, i1 zeroext %106) #6, !dbg !1369
  br i1 %110, label %111, label %116, !dbg !1371

111:                                              ; preds = %105
  %112 = getelementptr inbounds %"struct.Halide::Runtime::Internal::Synchronization::queue_data", %"struct.Halide::Runtime::Internal::Synchronization::queue_data"* %107, i32 0, i32 3, !dbg !1372
  store i32 %3, i32* %112, align 8, !dbg !1372, !tbaa !1019
  call void @llvm.dbg.value(metadata %"struct.Halide::Runtime::Internal::Synchronization::queue_data"* %89, metadata !714, metadata !DIExpression()) #7, !dbg !1375
  %113 = getelementptr inbounds %"struct.Halide::Runtime::Internal::Synchronization::queue_data", %"struct.Halide::Runtime::Internal::Synchronization::queue_data"* %107, i32 0, i32 0, i32 0, !dbg !1377
  call x86_stdcallcc void @"\01_EnterCriticalSection@4"(%struct.CriticalSection* nonnull %113) #6, !dbg !1377
  call void @"?unlock_bucket_pair@Synchronization@Internal@Runtime@Halide@@YAXAAUbucket_pair@1234@@Z"(%"struct.Halide::Runtime::Internal::Synchronization::bucket_pair"* nonnull align 4 dereferenceable(8) %5) #8, !dbg !1378
  call void @llvm.dbg.value(metadata %"struct.Halide::Runtime::Internal::Synchronization::queue_data"* %89, metadata !720, metadata !DIExpression()) #7, !dbg !1379
  %114 = getelementptr inbounds %"struct.Halide::Runtime::Internal::Synchronization::queue_data", %"struct.Halide::Runtime::Internal::Synchronization::queue_data"* %107, i32 0, i32 0, i32 2, !dbg !1381
  store i8 0, i8* %114, align 8, !dbg !1381, !tbaa !529
  %115 = getelementptr inbounds %"struct.Halide::Runtime::Internal::Synchronization::queue_data", %"struct.Halide::Runtime::Internal::Synchronization::queue_data"* %107, i32 0, i32 0, i32 1, !dbg !1382
  call x86_stdcallcc void @"\01_WakeConditionVariable@4"(i64* nonnull %115) #6, !dbg !1382
  call void @llvm.dbg.value(metadata %"struct.Halide::Runtime::Internal::Synchronization::queue_data"* %89, metadata !727, metadata !DIExpression()) #7, !dbg !1383
  call x86_stdcallcc void @"\01_LeaveCriticalSection@4"(%struct.CriticalSection* nonnull %113) #6, !dbg !1385
  br label %117, !dbg !1386

116:                                              ; preds = %105
  call void @"?unlock_bucket_pair@Synchronization@Internal@Runtime@Halide@@YAXAAUbucket_pair@1234@@Z"(%"struct.Halide::Runtime::Internal::Synchronization::bucket_pair"* nonnull align 4 dereferenceable(8) %5) #8, !dbg !1387
  br label %117, !dbg !1389

117:                                              ; preds = %116, %111
  %118 = load i8, i8* %8, align 4, !dbg !1390
  %119 = and i8 %118, 1, !dbg !1390
  %120 = icmp ne i8 %119, 0, !dbg !1390
  %121 = and i1 %110, %120, !dbg !1390
  %122 = zext i1 %121 to i32, !dbg !1390
  br label %123

123:                                              ; preds = %117, %14
  %124 = phi i32 [ %122, %117 ], [ 0, %14 ], !dbg !1309
  call void @llvm.lifetime.end.p0i8(i64 8, i8* nonnull %8) #7, !dbg !1391
  call void @llvm.lifetime.end.p0i8(i64 8, i8* nonnull %7) #7, !dbg !1391
  ret i32 %124, !dbg !1391
}

; Function Attrs: nounwind willreturn mustprogress
define weak dso_local zeroext i1 @"?mutex_parking_control_validate@Synchronization@Internal@Runtime@Halide@@YA_NPAXAAUvalidate_action@1234@@Z"(i8* %0, %"struct.Halide::Runtime::Internal::Synchronization::validate_action"* nonnull align 4 dereferenceable(8) %1) #5 !dbg !1392 {
  call void @llvm.dbg.value(metadata %"struct.Halide::Runtime::Internal::Synchronization::validate_action"* %1, metadata !1394, metadata !DIExpression()), !dbg !1398
  call void @llvm.dbg.value(metadata i8* %0, metadata !1395, metadata !DIExpression()), !dbg !1398
  call void @llvm.dbg.value(metadata i8* %0, metadata !1396, metadata !DIExpression()), !dbg !1398
  %3 = getelementptr inbounds i8, i8* %0, i32 16, !dbg !1399
  %4 = bitcast i8* %3 to i32**, !dbg !1399
  %5 = load i32*, i32** %4, align 4, !dbg !1399, !tbaa !1400
  %6 = load i32, i32* %5, align 4, !dbg !1399, !tbaa !468
  call void @llvm.dbg.value(metadata i32 %6, metadata !1397, metadata !DIExpression()), !dbg !1398
  %7 = icmp eq i32 %6, 3, !dbg !1402
  ret i1 %7, !dbg !1402
}

; Function Attrs: nounwind willreturn mustprogress
define weak dso_local i32 @"?mutex_parking_control_unpark@Synchronization@Internal@Runtime@Halide@@YAIPAXH_N@Z"(i8* %0, i32 %1, i1 zeroext %2) #5 !dbg !1403 {
  call void @llvm.dbg.value(metadata i1 %2, metadata !1405, metadata !DIExpression(DW_OP_LLVM_convert, 1, DW_ATE_unsigned, DW_OP_LLVM_convert, 8, DW_ATE_unsigned, DW_OP_stack_value)), !dbg !1410
  call void @llvm.dbg.value(metadata i32 %1, metadata !1406, metadata !DIExpression()), !dbg !1410
  call void @llvm.dbg.value(metadata i8* %0, metadata !1407, metadata !DIExpression()), !dbg !1410
  call void @llvm.dbg.value(metadata i8* %0, metadata !1408, metadata !DIExpression()), !dbg !1410
  %4 = select i1 %2, i32 2, i32 0, !dbg !1411
  call void @llvm.dbg.value(metadata i32 %4, metadata !1409, metadata !DIExpression()), !dbg !1410
  %5 = getelementptr inbounds i8, i8* %0, i32 16, !dbg !1412
  %6 = bitcast i8* %5 to i32**, !dbg !1412
  %7 = load i32*, i32** %6, align 4, !dbg !1412, !tbaa !1400
  call void @llvm.dbg.value(metadata i32* undef, metadata !1413, metadata !DIExpression()), !dbg !1417
  call void @llvm.dbg.value(metadata i32* %7, metadata !1416, metadata !DIExpression()), !dbg !1417
  store i32 %4, i32* %7, align 4, !dbg !1419, !tbaa !468
  fence seq_cst, !dbg !1420
  ret i32 0, !dbg !1421
}

; Function Attrs: nounwind willreturn mustprogress
define weak dso_local i32 @"?signal_parking_control_unpark@Synchronization@Internal@Runtime@Halide@@YAIPAXH_N@Z"(i8* %0, i32 %1, i1 zeroext %2) #5 !dbg !1422 {
  call void @llvm.dbg.value(metadata i1 %2, metadata !1424, metadata !DIExpression(DW_OP_LLVM_convert, 1, DW_ATE_unsigned, DW_OP_LLVM_convert, 8, DW_ATE_unsigned, DW_OP_stack_value)), !dbg !1431
  call void @llvm.dbg.value(metadata i32 %1, metadata !1425, metadata !DIExpression()), !dbg !1431
  call void @llvm.dbg.value(metadata i8* %0, metadata !1426, metadata !DIExpression()), !dbg !1431
  call void @llvm.dbg.value(metadata i8* %0, metadata !1427, metadata !DIExpression()), !dbg !1431
  br i1 %2, label %8, label %4, !dbg !1432

4:                                                ; preds = %3
  call void @llvm.dbg.value(metadata i8* %0, metadata !1427, metadata !DIExpression()), !dbg !1431
  call void @llvm.dbg.value(metadata i32 0, metadata !1428, metadata !DIExpression()), !dbg !1433
  %5 = getelementptr inbounds i8, i8* %0, i32 16, !dbg !1434
  %6 = bitcast i8* %5 to i32**, !dbg !1434
  %7 = load i32*, i32** %6, align 4, !dbg !1434, !tbaa !1435
  call void @llvm.dbg.value(metadata i32* undef, metadata !1343, metadata !DIExpression()), !dbg !1437
  call void @llvm.dbg.value(metadata i32* %7, metadata !1348, metadata !DIExpression()), !dbg !1437
  store i32 0, i32* %7, align 4, !dbg !1439, !tbaa !468
  br label %8, !dbg !1440

8:                                                ; preds = %4, %3
  ret i32 0, !dbg !1441
}

; Function Attrs: nounwind
define weak dso_local zeroext i1 @"?broadcast_parking_control_validate@Synchronization@Internal@Runtime@Halide@@YA_NPAXAAUvalidate_action@1234@@Z"(i8* %0, %"struct.Halide::Runtime::Internal::Synchronization::validate_action"* nonnull align 4 dereferenceable(8) %1) #4 !dbg !1442 {
  call void @llvm.dbg.value(metadata %"struct.Halide::Runtime::Internal::Synchronization::validate_action"* %1, metadata !1444, metadata !DIExpression()), !dbg !1448
  call void @llvm.dbg.value(metadata i8* %0, metadata !1445, metadata !DIExpression()), !dbg !1448
  call void @llvm.dbg.value(metadata i8* %0, metadata !1446, metadata !DIExpression()), !dbg !1448
  %3 = getelementptr inbounds i8, i8* %0, i32 16, !dbg !1449
  %4 = bitcast i8* %3 to i32**, !dbg !1449
  %5 = load i32*, i32** %4, align 4, !dbg !1449, !tbaa !1450
  %6 = load i32, i32* %5, align 4, !dbg !1449, !tbaa !468
  call void @llvm.dbg.value(metadata i32 %6, metadata !1447, metadata !DIExpression()), !dbg !1448
  %7 = getelementptr inbounds i8, i8* %0, i32 20, !dbg !1452
  %8 = bitcast i8* %7 to %"class.Halide::Runtime::Internal::Synchronization::fast_mutex"**, !dbg !1452
  %9 = load %"class.Halide::Runtime::Internal::Synchronization::fast_mutex"*, %"class.Halide::Runtime::Internal::Synchronization::fast_mutex"** %8, align 4, !dbg !1452, !tbaa !1453
  %10 = ptrtoint %"class.Halide::Runtime::Internal::Synchronization::fast_mutex"* %9 to i32, !dbg !1452
  %11 = icmp eq i32 %6, %10, !dbg !1452
  br i1 %11, label %12, label %27, !dbg !1452

12:                                               ; preds = %2
  call void @llvm.dbg.value(metadata i32 0, metadata !1447, metadata !DIExpression()), !dbg !1448
  call void @llvm.dbg.value(metadata i32* undef, metadata !1343, metadata !DIExpression()), !dbg !1454
  call void @llvm.dbg.value(metadata i32* %5, metadata !1348, metadata !DIExpression()), !dbg !1454
  store i32 0, i32* %5, align 4, !dbg !1456, !tbaa !468
  call void @llvm.dbg.value(metadata %"class.Halide::Runtime::Internal::Synchronization::fast_mutex"* %9, metadata !1457, metadata !DIExpression()), !dbg !1463
  %13 = getelementptr inbounds %"class.Halide::Runtime::Internal::Synchronization::fast_mutex", %"class.Halide::Runtime::Internal::Synchronization::fast_mutex"* %9, i32 0, i32 0, !dbg !1465
  %14 = load i32, i32* %13, align 4, !dbg !1465, !tbaa !468
  br label %15, !dbg !1466

15:                                               ; preds = %19, %12
  %16 = phi i32 [ %14, %12 ], [ %22, %19 ], !dbg !1463
  call void @llvm.dbg.value(metadata i32 %16, metadata !1460, metadata !DIExpression()), !dbg !1463
  %17 = and i32 %16, 1, !dbg !1467
  %18 = icmp eq i32 %17, 0, !dbg !1467
  br i1 %18, label %24, label %19, !dbg !1467

19:                                               ; preds = %15
  call void @llvm.dbg.value(metadata i32 %16, metadata !1460, metadata !DIExpression()), !dbg !1463
  %20 = or i32 %16, 2, !dbg !1468
  call void @llvm.dbg.value(metadata i32 %20, metadata !1461, metadata !DIExpression()), !dbg !1469
  call void @llvm.dbg.value(metadata i32* undef, metadata !1470, metadata !DIExpression()), !dbg !1475
  call void @llvm.dbg.value(metadata i32* undef, metadata !1473, metadata !DIExpression()), !dbg !1475
  call void @llvm.dbg.value(metadata i32* %13, metadata !1474, metadata !DIExpression()), !dbg !1475
  call void @llvm.dbg.value(metadata i32* undef, metadata !484, metadata !DIExpression()), !dbg !1477
  call void @llvm.dbg.value(metadata i32* undef, metadata !490, metadata !DIExpression()), !dbg !1477
  call void @llvm.dbg.value(metadata i32* %13, metadata !491, metadata !DIExpression()), !dbg !1477
  call void @llvm.dbg.value(metadata i32 %16, metadata !492, metadata !DIExpression()), !dbg !1477
  %21 = cmpxchg i32* %13, i32 %16, i32 %20 seq_cst seq_cst, !dbg !1479
  %22 = extractvalue { i32, i1 } %21, 0, !dbg !1479
  call void @llvm.dbg.value(metadata i32 %22, metadata !493, metadata !DIExpression()), !dbg !1477
  %23 = icmp eq i32 %16, %22, !dbg !1480
  br i1 %23, label %24, label %15, !llvm.loop !1481

24:                                               ; preds = %15, %19
  %25 = phi i8 [ 1, %15 ], [ 0, %19 ]
  %26 = getelementptr inbounds %"struct.Halide::Runtime::Internal::Synchronization::validate_action", %"struct.Halide::Runtime::Internal::Synchronization::validate_action"* %1, i32 0, i32 0, !dbg !1483
  store i8 %25, i8* %26, align 4, !dbg !1483, !tbaa !1029
  br label %27, !dbg !1484

27:                                               ; preds = %2, %24
  ret i1 %11, !dbg !1485
}

; Function Attrs: nounwind willreturn mustprogress
define weak dso_local void @"?broadcast_parking_control_requeue_callback@Synchronization@Internal@Runtime@Halide@@YAXPAXABUvalidate_action@1234@_N2@Z"(i8* %0, %"struct.Halide::Runtime::Internal::Synchronization::validate_action"* nonnull align 4 dereferenceable(8) %1, i1 zeroext %2, i1 zeroext %3) #5 !dbg !1486 {
  call void @llvm.dbg.value(metadata i1 %3, metadata !1488, metadata !DIExpression(DW_OP_LLVM_convert, 1, DW_ATE_unsigned, DW_OP_LLVM_convert, 8, DW_ATE_unsigned, DW_OP_stack_value)), !dbg !1493
  call void @llvm.dbg.value(metadata i1 %2, metadata !1489, metadata !DIExpression(DW_OP_LLVM_convert, 1, DW_ATE_unsigned, DW_OP_LLVM_convert, 8, DW_ATE_unsigned, DW_OP_stack_value)), !dbg !1493
  call void @llvm.dbg.value(metadata %"struct.Halide::Runtime::Internal::Synchronization::validate_action"* %1, metadata !1490, metadata !DIExpression()), !dbg !1493
  call void @llvm.dbg.value(metadata i8* %0, metadata !1491, metadata !DIExpression()), !dbg !1493
  call void @llvm.dbg.value(metadata i8* %0, metadata !1492, metadata !DIExpression()), !dbg !1493
  %5 = getelementptr inbounds %"struct.Halide::Runtime::Internal::Synchronization::validate_action", %"struct.Halide::Runtime::Internal::Synchronization::validate_action"* %1, i32 0, i32 0, !dbg !1494
  %6 = load i8, i8* %5, align 4, !dbg !1494, !tbaa !1029, !range !580
  %7 = icmp ne i8 %6, 0, !dbg !1494
  %8 = and i1 %7, %3, !dbg !1494
  br i1 %8, label %9, label %15, !dbg !1494

9:                                                ; preds = %4
  %10 = getelementptr inbounds i8, i8* %0, i32 20, !dbg !1495
  %11 = bitcast i8* %10 to %"class.Halide::Runtime::Internal::Synchronization::fast_mutex"**, !dbg !1495
  %12 = load %"class.Halide::Runtime::Internal::Synchronization::fast_mutex"*, %"class.Halide::Runtime::Internal::Synchronization::fast_mutex"** %11, align 4, !dbg !1495, !tbaa !1453
  call void @llvm.dbg.value(metadata %"class.Halide::Runtime::Internal::Synchronization::fast_mutex"* %12, metadata !1498, metadata !DIExpression()), !dbg !1501
  %13 = getelementptr inbounds %"class.Halide::Runtime::Internal::Synchronization::fast_mutex", %"class.Halide::Runtime::Internal::Synchronization::fast_mutex"* %12, i32 0, i32 0, !dbg !1503
  call void @llvm.dbg.value(metadata i32 2, metadata !1504, metadata !DIExpression()), !dbg !1508
  call void @llvm.dbg.value(metadata i32* %13, metadata !1507, metadata !DIExpression()), !dbg !1508
  %14 = atomicrmw or i32* %13, i32 2 seq_cst, !dbg !1510
  br label %15, !dbg !1511

15:                                               ; preds = %4, %9
  ret void, !dbg !1512
}

; Function Attrs: nounwind willreturn mustprogress
define weak dso_local zeroext i1 @"?wait_parking_control_validate@Synchronization@Internal@Runtime@Halide@@YA_NPAXAAUvalidate_action@1234@@Z"(i8* %0, %"struct.Halide::Runtime::Internal::Synchronization::validate_action"* nonnull align 4 dereferenceable(8) %1) #5 !dbg !1513 {
  call void @llvm.dbg.value(metadata %"struct.Halide::Runtime::Internal::Synchronization::validate_action"* %1, metadata !1515, metadata !DIExpression()), !dbg !1519
  call void @llvm.dbg.value(metadata i8* %0, metadata !1516, metadata !DIExpression()), !dbg !1519
  call void @llvm.dbg.value(metadata i8* %0, metadata !1517, metadata !DIExpression()), !dbg !1519
  %3 = getelementptr inbounds i8, i8* %0, i32 16, !dbg !1520
  %4 = bitcast i8* %3 to i32**, !dbg !1520
  %5 = load i32*, i32** %4, align 4, !dbg !1520, !tbaa !1521
  %6 = load i32, i32* %5, align 4, !dbg !1520, !tbaa !468
  call void @llvm.dbg.value(metadata i32 %6, metadata !1518, metadata !DIExpression()), !dbg !1519
  %7 = icmp eq i32 %6, 0, !dbg !1523
  %8 = getelementptr inbounds i8, i8* %0, i32 20, !dbg !1524
  %9 = bitcast i8* %8 to %"class.Halide::Runtime::Internal::Synchronization::fast_mutex"**, !dbg !1524
  %10 = load %"class.Halide::Runtime::Internal::Synchronization::fast_mutex"*, %"class.Halide::Runtime::Internal::Synchronization::fast_mutex"** %9, align 4, !dbg !1524, !tbaa !1526
  %11 = ptrtoint %"class.Halide::Runtime::Internal::Synchronization::fast_mutex"* %10 to i32, !dbg !1524
  br i1 %7, label %16, label %12, !dbg !1523

12:                                               ; preds = %2
  %13 = icmp eq i32 %6, %11, !dbg !1527
  br i1 %13, label %18, label %14, !dbg !1527

14:                                               ; preds = %12
  %15 = getelementptr inbounds %"struct.Halide::Runtime::Internal::Synchronization::validate_action", %"struct.Halide::Runtime::Internal::Synchronization::validate_action"* %1, i32 0, i32 1, !dbg !1528
  br label %16, !dbg !1531

16:                                               ; preds = %2, %14
  %17 = phi i32* [ %15, %14 ], [ %5, %2 ]
  store i32 %11, i32* %17, align 4, !dbg !1524, !tbaa !468
  br label %18, !dbg !1532

18:                                               ; preds = %16, %12
  %19 = phi i1 [ true, %12 ], [ %7, %16 ], !dbg !1519
  ret i1 %19, !dbg !1532
}

; Function Attrs: nounwind
define weak dso_local void @"?wait_parking_control_before_sleep@Synchronization@Internal@Runtime@Halide@@YAXPAX@Z"(i8* %0) #4 !dbg !1533 {
  %2 = alloca %"struct.Halide::Runtime::Internal::Synchronization::mutex_parking_control", align 4
  call void @llvm.dbg.value(metadata i8* %0, metadata !1535, metadata !DIExpression()), !dbg !1537
  call void @llvm.dbg.value(metadata i8* %0, metadata !1536, metadata !DIExpression()), !dbg !1537
  %3 = getelementptr inbounds i8, i8* %0, i32 20, !dbg !1538
  %4 = bitcast i8* %3 to %"class.Halide::Runtime::Internal::Synchronization::fast_mutex"**, !dbg !1538
  %5 = load %"class.Halide::Runtime::Internal::Synchronization::fast_mutex"*, %"class.Halide::Runtime::Internal::Synchronization::fast_mutex"** %4, align 4, !dbg !1538, !tbaa !1526
  call void @llvm.dbg.value(metadata %"class.Halide::Runtime::Internal::Synchronization::fast_mutex"* %5, metadata !1539, metadata !DIExpression()) #7, !dbg !1544
  call void @llvm.dbg.value(metadata i32 1, metadata !1542, metadata !DIExpression()) #7, !dbg !1544
  call void @llvm.dbg.value(metadata i32 0, metadata !1543, metadata !DIExpression()) #7, !dbg !1544
  %6 = getelementptr inbounds %"class.Halide::Runtime::Internal::Synchronization::fast_mutex", %"class.Halide::Runtime::Internal::Synchronization::fast_mutex"* %5, i32 0, i32 0, !dbg !1546
  call void @llvm.dbg.value(metadata i32* undef, metadata !559, metadata !DIExpression()) #7, !dbg !1547
  call void @llvm.dbg.value(metadata i32* undef, metadata !562, metadata !DIExpression()) #7, !dbg !1547
  call void @llvm.dbg.value(metadata i32* %6, metadata !563, metadata !DIExpression()) #7, !dbg !1547
  call void @llvm.dbg.value(metadata i32* undef, metadata !484, metadata !DIExpression()) #7, !dbg !1549
  call void @llvm.dbg.value(metadata i32* undef, metadata !490, metadata !DIExpression()) #7, !dbg !1549
  call void @llvm.dbg.value(metadata i32* %6, metadata !491, metadata !DIExpression()) #7, !dbg !1549
  call void @llvm.dbg.value(metadata i32 1, metadata !492, metadata !DIExpression()) #7, !dbg !1549
  %7 = cmpxchg i32* %6, i32 1, i32 0 seq_cst seq_cst, !dbg !1551
  call void @llvm.dbg.value(metadata i32 undef, metadata !493, metadata !DIExpression()) #7, !dbg !1549
  %8 = extractvalue { i32, i1 } %7, 1, !dbg !1552
  br i1 %8, label %22, label %9, !dbg !1546

9:                                                ; preds = %1
  call void @llvm.dbg.value(metadata %"class.Halide::Runtime::Internal::Synchronization::fast_mutex"* %5, metadata !1553, metadata !DIExpression()) #7, !dbg !1559
  call void @llvm.dbg.value(metadata i32 1, metadata !1556, metadata !DIExpression()) #7, !dbg !1559
  call void @llvm.dbg.value(metadata i32 0, metadata !1557, metadata !DIExpression()) #7, !dbg !1559
  call void @llvm.dbg.value(metadata i32* undef, metadata !1563, metadata !DIExpression()) #7, !dbg !1568
  call void @llvm.dbg.value(metadata i32* undef, metadata !1566, metadata !DIExpression()) #7, !dbg !1568
  call void @llvm.dbg.value(metadata i32* %6, metadata !1567, metadata !DIExpression()) #7, !dbg !1568
  call void @llvm.dbg.value(metadata i32* undef, metadata !484, metadata !DIExpression()) #7, !dbg !1570
  call void @llvm.dbg.value(metadata i32* undef, metadata !490, metadata !DIExpression()) #7, !dbg !1570
  call void @llvm.dbg.value(metadata i32* %6, metadata !491, metadata !DIExpression()) #7, !dbg !1570
  call void @llvm.dbg.value(metadata i32 1, metadata !492, metadata !DIExpression()) #7, !dbg !1570
  %10 = cmpxchg i32* %6, i32 1, i32 0 seq_cst seq_cst, !dbg !1572
  call void @llvm.dbg.value(metadata i32 undef, metadata !493, metadata !DIExpression()) #7, !dbg !1570
  %11 = extractvalue { i32, i1 } %10, 1, !dbg !1573
  br i1 %11, label %22, label %12, !dbg !1574

12:                                               ; preds = %9
  %13 = bitcast %"struct.Halide::Runtime::Internal::Synchronization::mutex_parking_control"* %2 to i8*, !dbg !1575
  call void @llvm.lifetime.start.p0i8(i64 20, i8* nonnull %13) #7, !dbg !1575
  call void @llvm.dbg.declare(metadata %"struct.Halide::Runtime::Internal::Synchronization::mutex_parking_control"* %2, metadata !1558, metadata !DIExpression()) #7, !dbg !1575
  call void @llvm.dbg.value(metadata i32* %6, metadata !1576, metadata !DIExpression()) #7, !dbg !1580
  call void @llvm.dbg.value(metadata %"struct.Halide::Runtime::Internal::Synchronization::mutex_parking_control"* %2, metadata !1579, metadata !DIExpression()) #7, !dbg !1580
  call void @llvm.dbg.value(metadata %"struct.Halide::Runtime::Internal::Synchronization::mutex_parking_control"* %2, metadata !1582, metadata !DIExpression()) #7, !dbg !1586
  %14 = getelementptr inbounds %"struct.Halide::Runtime::Internal::Synchronization::mutex_parking_control", %"struct.Halide::Runtime::Internal::Synchronization::mutex_parking_control"* %2, i32 0, i32 0, i32 0, !dbg !1588
  %15 = getelementptr inbounds %"struct.Halide::Runtime::Internal::Synchronization::mutex_parking_control", %"struct.Halide::Runtime::Internal::Synchronization::mutex_parking_control"* %2, i32 0, i32 0, i32 1, !dbg !1588
  store void (i8*)* @"?parking_control_before_sleep@Synchronization@Internal@Runtime@Halide@@YAXPAX@Z", void (i8*)** %15, align 4, !dbg !1588, !tbaa !1074
  %16 = getelementptr inbounds %"struct.Halide::Runtime::Internal::Synchronization::mutex_parking_control", %"struct.Halide::Runtime::Internal::Synchronization::mutex_parking_control"* %2, i32 0, i32 0, i32 2, !dbg !1588
  %17 = getelementptr inbounds %"struct.Halide::Runtime::Internal::Synchronization::mutex_parking_control", %"struct.Halide::Runtime::Internal::Synchronization::mutex_parking_control"* %2, i32 0, i32 0, i32 3, !dbg !1588
  store void (i8*, %"struct.Halide::Runtime::Internal::Synchronization::validate_action"*, i1, i1)* @"?parking_control_requeue_callback@Synchronization@Internal@Runtime@Halide@@YAXPAXABUvalidate_action@1234@_N2@Z", void (i8*, %"struct.Halide::Runtime::Internal::Synchronization::validate_action"*, i1, i1)** %17, align 4, !dbg !1588, !tbaa !1370
  %18 = getelementptr inbounds %"struct.Halide::Runtime::Internal::Synchronization::mutex_parking_control", %"struct.Halide::Runtime::Internal::Synchronization::mutex_parking_control"* %2, i32 0, i32 1, !dbg !1589
  store i32* %6, i32** %18, align 4, !dbg !1589, !tbaa !1400
  store i1 (i8*, %"struct.Halide::Runtime::Internal::Synchronization::validate_action"*)* @"?mutex_parking_control_validate@Synchronization@Internal@Runtime@Halide@@YA_NPAXAAUvalidate_action@1234@@Z", i1 (i8*, %"struct.Halide::Runtime::Internal::Synchronization::validate_action"*)** %14, align 4, !dbg !1590, !tbaa !1033
  store i32 (i8*, i32, i1)* @"?mutex_parking_control_unpark@Synchronization@Internal@Runtime@Halide@@YAIPAXH_N@Z", i32 (i8*, i32, i1)** %16, align 4, !dbg !1592, !tbaa !1139
  %19 = getelementptr inbounds %"struct.Halide::Runtime::Internal::Synchronization::mutex_parking_control", %"struct.Halide::Runtime::Internal::Synchronization::mutex_parking_control"* %2, i32 0, i32 0, !dbg !1593
  %20 = ptrtoint %"class.Halide::Runtime::Internal::Synchronization::fast_mutex"* %5 to i32, !dbg !1593
  %21 = call i32 @"?unpark_one@Synchronization@Internal@Runtime@Halide@@YAIIAAUparking_control@1234@@Z"(i32 %20, %"struct.Halide::Runtime::Internal::Synchronization::parking_control"* nonnull align 4 dereferenceable(16) %19) #6, !dbg !1593
  call void @llvm.lifetime.end.p0i8(i64 20, i8* nonnull %13) #7, !dbg !1594
  br label %22, !dbg !1594

22:                                               ; preds = %1, %9, %12
  ret void, !dbg !1595
}

; Function Attrs: nounwind willreturn mustprogress
define weak dso_local i32 @"?wait_parking_control_unpark@Synchronization@Internal@Runtime@Halide@@YAIPAXH_N@Z"(i8* %0, i32 %1, i1 zeroext %2) #5 !dbg !1596 {
  call void @llvm.dbg.value(metadata i1 %2, metadata !1598, metadata !DIExpression(DW_OP_LLVM_convert, 1, DW_ATE_unsigned, DW_OP_LLVM_convert, 8, DW_ATE_unsigned, DW_OP_stack_value)), !dbg !1605
  call void @llvm.dbg.value(metadata i32 %1, metadata !1599, metadata !DIExpression()), !dbg !1605
  call void @llvm.dbg.value(metadata i8* %0, metadata !1600, metadata !DIExpression()), !dbg !1605
  call void @llvm.dbg.value(metadata i8* %0, metadata !1601, metadata !DIExpression()), !dbg !1605
  br i1 %2, label %8, label %4, !dbg !1606

4:                                                ; preds = %3
  call void @llvm.dbg.value(metadata i8* %0, metadata !1601, metadata !DIExpression()), !dbg !1605
  call void @llvm.dbg.value(metadata i32 0, metadata !1602, metadata !DIExpression()), !dbg !1607
  %5 = getelementptr inbounds i8, i8* %0, i32 16, !dbg !1608
  %6 = bitcast i8* %5 to i32**, !dbg !1608
  %7 = load i32*, i32** %6, align 4, !dbg !1608, !tbaa !1521
  call void @llvm.dbg.value(metadata i32* undef, metadata !1343, metadata !DIExpression()), !dbg !1609
  call void @llvm.dbg.value(metadata i32* %7, metadata !1348, metadata !DIExpression()), !dbg !1609
  store i32 0, i32* %7, align 4, !dbg !1611, !tbaa !468
  br label %8, !dbg !1612

8:                                                ; preds = %4, %3
  ret i32 0, !dbg !1613
}

; Function Attrs: nounwind
define weak dso_local void @halide_mutex_lock(%struct.halide_mutex* %0) local_unnamed_addr #4 !dbg !1614 {
  %2 = alloca %"struct.Halide::Runtime::Internal::Synchronization::mutex_parking_control", align 4
  call void @llvm.dbg.value(metadata %struct.halide_mutex* %0, metadata !1618, metadata !DIExpression()), !dbg !1620
  call void @llvm.dbg.value(metadata %struct.halide_mutex* %0, metadata !1619, metadata !DIExpression()), !dbg !1620
  call void @llvm.dbg.value(metadata %struct.halide_mutex* %0, metadata !1621, metadata !DIExpression()) #7, !dbg !1626
  call void @llvm.dbg.value(metadata i32 0, metadata !1624, metadata !DIExpression()) #7, !dbg !1626
  call void @llvm.dbg.value(metadata i32 1, metadata !1625, metadata !DIExpression()) #7, !dbg !1626
  %3 = getelementptr %struct.halide_mutex, %struct.halide_mutex* %0, i32 0, i32 0, i32 0, !dbg !1628
  call void @llvm.dbg.value(metadata i32* undef, metadata !474, metadata !DIExpression()) #7, !dbg !1629
  call void @llvm.dbg.value(metadata i32* undef, metadata !480, metadata !DIExpression()) #7, !dbg !1629
  call void @llvm.dbg.value(metadata i32* %3, metadata !481, metadata !DIExpression()) #7, !dbg !1629
  call void @llvm.dbg.value(metadata i32* undef, metadata !484, metadata !DIExpression()) #7, !dbg !1631
  call void @llvm.dbg.value(metadata i32* undef, metadata !490, metadata !DIExpression()) #7, !dbg !1631
  call void @llvm.dbg.value(metadata i32* %3, metadata !491, metadata !DIExpression()) #7, !dbg !1631
  call void @llvm.dbg.value(metadata i32 0, metadata !492, metadata !DIExpression()) #7, !dbg !1631
  %4 = cmpxchg i32* %3, i32 0, i32 1 seq_cst seq_cst, !dbg !1633
  call void @llvm.dbg.value(metadata i32 undef, metadata !493, metadata !DIExpression()) #7, !dbg !1631
  %5 = extractvalue { i32, i1 } %4, 1, !dbg !1634
  br i1 %5, label %53, label %6, !dbg !1628

6:                                                ; preds = %1
  call void @llvm.dbg.value(metadata %struct.halide_mutex* %0, metadata !1621, metadata !DIExpression()) #7, !dbg !1626
  call void @llvm.dbg.value(metadata %struct.halide_mutex* %0, metadata !1619, metadata !DIExpression()), !dbg !1620
  call void @llvm.dbg.value(metadata %struct.halide_mutex* %0, metadata !1635, metadata !DIExpression()) #7, !dbg !1649
  call void @llvm.dbg.value(metadata i32 40, metadata !1638, metadata !DIExpression()) #7, !dbg !1649
  %7 = load i32, i32* %3, align 4, !dbg !1653, !tbaa !468
  %8 = bitcast %"struct.Halide::Runtime::Internal::Synchronization::mutex_parking_control"* %2 to i8*
  %9 = getelementptr inbounds %"struct.Halide::Runtime::Internal::Synchronization::mutex_parking_control", %"struct.Halide::Runtime::Internal::Synchronization::mutex_parking_control"* %2, i32 0, i32 0, i32 0
  %10 = getelementptr inbounds %"struct.Halide::Runtime::Internal::Synchronization::mutex_parking_control", %"struct.Halide::Runtime::Internal::Synchronization::mutex_parking_control"* %2, i32 0, i32 0, i32 1
  %11 = getelementptr inbounds %"struct.Halide::Runtime::Internal::Synchronization::mutex_parking_control", %"struct.Halide::Runtime::Internal::Synchronization::mutex_parking_control"* %2, i32 0, i32 0, i32 2
  %12 = getelementptr inbounds %"struct.Halide::Runtime::Internal::Synchronization::mutex_parking_control", %"struct.Halide::Runtime::Internal::Synchronization::mutex_parking_control"* %2, i32 0, i32 0, i32 3
  %13 = getelementptr inbounds %"struct.Halide::Runtime::Internal::Synchronization::mutex_parking_control", %"struct.Halide::Runtime::Internal::Synchronization::mutex_parking_control"* %2, i32 0, i32 1
  %14 = getelementptr inbounds %"struct.Halide::Runtime::Internal::Synchronization::mutex_parking_control", %"struct.Halide::Runtime::Internal::Synchronization::mutex_parking_control"* %2, i32 0, i32 0
  %15 = ptrtoint %struct.halide_mutex* %0 to i32
  br label %16, !dbg !1654

16:                                               ; preds = %49, %6
  %17 = phi i32 [ %7, %6 ], [ %50, %49 ]
  %18 = phi i32 [ 40, %6 ], [ %51, %49 ]
  br label %19, !dbg !1655

19:                                               ; preds = %23, %16
  %20 = phi i32 [ %26, %23 ], [ %17, %16 ], !dbg !1649
  call void @llvm.dbg.value(metadata i32 %18, metadata !1638, metadata !DIExpression()) #7, !dbg !1649
  call void @llvm.dbg.value(metadata i32 %20, metadata !1639, metadata !DIExpression()) #7, !dbg !1649
  %21 = and i32 %20, 1, !dbg !1655
  %22 = icmp eq i32 %21, 0, !dbg !1655
  br i1 %22, label %23, label %28, !dbg !1655

23:                                               ; preds = %19
  call void @llvm.dbg.value(metadata i32 %20, metadata !1639, metadata !DIExpression()) #7, !dbg !1649
  %24 = or i32 %20, 1, !dbg !1656
  call void @llvm.dbg.value(metadata i32 %24, metadata !1640, metadata !DIExpression()) #7, !dbg !1657
  call void @llvm.dbg.value(metadata i32* undef, metadata !474, metadata !DIExpression()) #7, !dbg !1658
  call void @llvm.dbg.value(metadata i32* undef, metadata !480, metadata !DIExpression()) #7, !dbg !1658
  call void @llvm.dbg.value(metadata i32* %3, metadata !481, metadata !DIExpression()) #7, !dbg !1658
  call void @llvm.dbg.value(metadata i32* undef, metadata !484, metadata !DIExpression()) #7, !dbg !1660
  call void @llvm.dbg.value(metadata i32* undef, metadata !490, metadata !DIExpression()) #7, !dbg !1660
  call void @llvm.dbg.value(metadata i32* %3, metadata !491, metadata !DIExpression()) #7, !dbg !1660
  call void @llvm.dbg.value(metadata i32 %20, metadata !492, metadata !DIExpression()) #7, !dbg !1660
  %25 = cmpxchg i32* %3, i32 %20, i32 %24 seq_cst seq_cst, !dbg !1662
  %26 = extractvalue { i32, i1 } %25, 0, !dbg !1662
  call void @llvm.dbg.value(metadata i32 %26, metadata !493, metadata !DIExpression()) #7, !dbg !1660
  %27 = icmp eq i32 %20, %26, !dbg !1663
  br i1 %27, label %53, label %19

28:                                               ; preds = %19
  call void @llvm.dbg.value(metadata %"class.Halide::Runtime::Internal::Synchronization::spin_control"* undef, metadata !501, metadata !DIExpression()) #7, !dbg !1664
  %29 = icmp sgt i32 %18, 0, !dbg !1666
  br i1 %29, label %30, label %35, !dbg !1666

30:                                               ; preds = %28
  call void @llvm.dbg.value(metadata i32 %18, metadata !1638, metadata !DIExpression(DW_OP_constu, 1, DW_OP_minus, DW_OP_stack_value)) #7, !dbg !1649
  %31 = icmp eq i32 %18, 1, !dbg !1667
  br i1 %31, label %35, label %32, !dbg !1668

32:                                               ; preds = %30
  %33 = add nsw i32 %18, -1, !dbg !1669
  call void @llvm.dbg.value(metadata i32 %33, metadata !1638, metadata !DIExpression()) #7, !dbg !1649
  call void @halide_thread_yield() #6, !dbg !1670
  %34 = load i32, i32* %3, align 4, !dbg !1673, !tbaa !468
  br label %49, !dbg !1674

35:                                               ; preds = %30, %28
  %36 = phi i32 [ 0, %30 ], [ %18, %28 ]
  call void @llvm.dbg.value(metadata i32 %20, metadata !1639, metadata !DIExpression()) #7, !dbg !1649
  %37 = and i32 %20, 2, !dbg !1675
  %38 = icmp eq i32 %37, 0, !dbg !1675
  br i1 %38, label %39, label %44, !dbg !1675

39:                                               ; preds = %35
  call void @llvm.dbg.value(metadata i32 %20, metadata !1639, metadata !DIExpression()) #7, !dbg !1649
  %40 = or i32 %20, 2, !dbg !1676
  call void @llvm.dbg.value(metadata i32 %40, metadata !1644, metadata !DIExpression()) #7, !dbg !1677
  call void @llvm.dbg.value(metadata i32* undef, metadata !1470, metadata !DIExpression()) #7, !dbg !1678
  call void @llvm.dbg.value(metadata i32* undef, metadata !1473, metadata !DIExpression()) #7, !dbg !1678
  call void @llvm.dbg.value(metadata i32* %3, metadata !1474, metadata !DIExpression()) #7, !dbg !1678
  call void @llvm.dbg.value(metadata i32* undef, metadata !484, metadata !DIExpression()) #7, !dbg !1680
  call void @llvm.dbg.value(metadata i32* undef, metadata !490, metadata !DIExpression()) #7, !dbg !1680
  call void @llvm.dbg.value(metadata i32* %3, metadata !491, metadata !DIExpression()) #7, !dbg !1680
  call void @llvm.dbg.value(metadata i32 %20, metadata !492, metadata !DIExpression()) #7, !dbg !1680
  %41 = cmpxchg i32* %3, i32 %20, i32 %40 seq_cst seq_cst, !dbg !1682
  %42 = extractvalue { i32, i1 } %41, 0, !dbg !1682
  call void @llvm.dbg.value(metadata i32 %42, metadata !493, metadata !DIExpression()) #7, !dbg !1680
  %43 = icmp eq i32 %20, %42, !dbg !1683
  br i1 %43, label %44, label %49

44:                                               ; preds = %39, %35
  call void @llvm.lifetime.start.p0i8(i64 20, i8* nonnull %8) #7, !dbg !1684
  call void @llvm.dbg.declare(metadata %"struct.Halide::Runtime::Internal::Synchronization::mutex_parking_control"* %2, metadata !1647, metadata !DIExpression()) #7, !dbg !1684
  call void @llvm.dbg.value(metadata i32* %3, metadata !1576, metadata !DIExpression()) #7, !dbg !1685
  call void @llvm.dbg.value(metadata %"struct.Halide::Runtime::Internal::Synchronization::mutex_parking_control"* %2, metadata !1579, metadata !DIExpression()) #7, !dbg !1685
  call void @llvm.dbg.value(metadata %"struct.Halide::Runtime::Internal::Synchronization::mutex_parking_control"* %2, metadata !1582, metadata !DIExpression()) #7, !dbg !1687
  store void (i8*)* @"?parking_control_before_sleep@Synchronization@Internal@Runtime@Halide@@YAXPAX@Z", void (i8*)** %10, align 4, !dbg !1689, !tbaa !1074
  store void (i8*, %"struct.Halide::Runtime::Internal::Synchronization::validate_action"*, i1, i1)* @"?parking_control_requeue_callback@Synchronization@Internal@Runtime@Halide@@YAXPAXABUvalidate_action@1234@_N2@Z", void (i8*, %"struct.Halide::Runtime::Internal::Synchronization::validate_action"*, i1, i1)** %12, align 4, !dbg !1689, !tbaa !1370
  store i32* %3, i32** %13, align 4, !dbg !1690, !tbaa !1400
  store i1 (i8*, %"struct.Halide::Runtime::Internal::Synchronization::validate_action"*)* @"?mutex_parking_control_validate@Synchronization@Internal@Runtime@Halide@@YA_NPAXAAUvalidate_action@1234@@Z", i1 (i8*, %"struct.Halide::Runtime::Internal::Synchronization::validate_action"*)** %9, align 4, !dbg !1691, !tbaa !1033
  store i32 (i8*, i32, i1)* @"?mutex_parking_control_unpark@Synchronization@Internal@Runtime@Halide@@YAIPAXH_N@Z", i32 (i8*, i32, i1)** %11, align 4, !dbg !1692, !tbaa !1139
  %45 = call i32 @"?park@Synchronization@Internal@Runtime@Halide@@YAIIAAUparking_control@1234@@Z"(i32 %15, %"struct.Halide::Runtime::Internal::Synchronization::parking_control"* nonnull align 4 dereferenceable(16) %14) #6, !dbg !1693
  call void @llvm.dbg.value(metadata i32 %45, metadata !1648, metadata !DIExpression()) #7, !dbg !1694
  %46 = icmp eq i32 %45, %15, !dbg !1695
  br i1 %46, label %52, label %47, !dbg !1695

47:                                               ; preds = %44
  call void @llvm.dbg.value(metadata i32 40, metadata !1638, metadata !DIExpression()) #7, !dbg !1649
  %48 = load i32, i32* %3, align 4, !dbg !1696, !tbaa !468
  call void @llvm.lifetime.end.p0i8(i64 20, i8* nonnull %8) #7, !dbg !1697
  br label %49

49:                                               ; preds = %47, %39, %32
  %50 = phi i32 [ %42, %39 ], [ %48, %47 ], [ %34, %32 ]
  %51 = phi i32 [ %36, %39 ], [ 40, %47 ], [ %33, %32 ]
  br label %16, !dbg !1655, !llvm.loop !1698

52:                                               ; preds = %44
  call void @llvm.lifetime.end.p0i8(i64 20, i8* nonnull %8) #7, !dbg !1697
  br label %53

53:                                               ; preds = %23, %1, %52
  ret void, !dbg !1700
}

; Function Attrs: nounwind
define weak dso_local void @halide_mutex_unlock(%struct.halide_mutex* %0) local_unnamed_addr #4 !dbg !1701 {
  %2 = alloca %"struct.Halide::Runtime::Internal::Synchronization::mutex_parking_control", align 4
  call void @llvm.dbg.value(metadata %struct.halide_mutex* %0, metadata !1703, metadata !DIExpression()), !dbg !1705
  call void @llvm.dbg.value(metadata %struct.halide_mutex* %0, metadata !1704, metadata !DIExpression()), !dbg !1705
  call void @llvm.dbg.value(metadata %struct.halide_mutex* %0, metadata !1539, metadata !DIExpression()) #7, !dbg !1706
  call void @llvm.dbg.value(metadata i32 1, metadata !1542, metadata !DIExpression()) #7, !dbg !1706
  call void @llvm.dbg.value(metadata i32 0, metadata !1543, metadata !DIExpression()) #7, !dbg !1706
  %3 = getelementptr %struct.halide_mutex, %struct.halide_mutex* %0, i32 0, i32 0, i32 0, !dbg !1708
  call void @llvm.dbg.value(metadata i32* undef, metadata !559, metadata !DIExpression()) #7, !dbg !1709
  call void @llvm.dbg.value(metadata i32* undef, metadata !562, metadata !DIExpression()) #7, !dbg !1709
  call void @llvm.dbg.value(metadata i32* %3, metadata !563, metadata !DIExpression()) #7, !dbg !1709
  call void @llvm.dbg.value(metadata i32* undef, metadata !484, metadata !DIExpression()) #7, !dbg !1711
  call void @llvm.dbg.value(metadata i32* undef, metadata !490, metadata !DIExpression()) #7, !dbg !1711
  call void @llvm.dbg.value(metadata i32* %3, metadata !491, metadata !DIExpression()) #7, !dbg !1711
  call void @llvm.dbg.value(metadata i32 1, metadata !492, metadata !DIExpression()) #7, !dbg !1711
  %4 = cmpxchg i32* %3, i32 1, i32 0 seq_cst seq_cst, !dbg !1713
  call void @llvm.dbg.value(metadata i32 undef, metadata !493, metadata !DIExpression()) #7, !dbg !1711
  %5 = extractvalue { i32, i1 } %4, 1, !dbg !1714
  br i1 %5, label %19, label %6, !dbg !1708

6:                                                ; preds = %1
  call void @llvm.dbg.value(metadata %struct.halide_mutex* %0, metadata !1553, metadata !DIExpression()) #7, !dbg !1715
  call void @llvm.dbg.value(metadata i32 1, metadata !1556, metadata !DIExpression()) #7, !dbg !1715
  call void @llvm.dbg.value(metadata i32 0, metadata !1557, metadata !DIExpression()) #7, !dbg !1715
  call void @llvm.dbg.value(metadata i32* undef, metadata !1563, metadata !DIExpression()) #7, !dbg !1717
  call void @llvm.dbg.value(metadata i32* undef, metadata !1566, metadata !DIExpression()) #7, !dbg !1717
  call void @llvm.dbg.value(metadata i32* %3, metadata !1567, metadata !DIExpression()) #7, !dbg !1717
  call void @llvm.dbg.value(metadata i32* undef, metadata !484, metadata !DIExpression()) #7, !dbg !1719
  call void @llvm.dbg.value(metadata i32* undef, metadata !490, metadata !DIExpression()) #7, !dbg !1719
  call void @llvm.dbg.value(metadata i32* %3, metadata !491, metadata !DIExpression()) #7, !dbg !1719
  call void @llvm.dbg.value(metadata i32 1, metadata !492, metadata !DIExpression()) #7, !dbg !1719
  %7 = cmpxchg i32* %3, i32 1, i32 0 seq_cst seq_cst, !dbg !1721
  call void @llvm.dbg.value(metadata i32 undef, metadata !493, metadata !DIExpression()) #7, !dbg !1719
  %8 = extractvalue { i32, i1 } %7, 1, !dbg !1722
  br i1 %8, label %19, label %9, !dbg !1723

9:                                                ; preds = %6
  %10 = bitcast %"struct.Halide::Runtime::Internal::Synchronization::mutex_parking_control"* %2 to i8*, !dbg !1724
  call void @llvm.lifetime.start.p0i8(i64 20, i8* nonnull %10) #7, !dbg !1724
  call void @llvm.dbg.declare(metadata %"struct.Halide::Runtime::Internal::Synchronization::mutex_parking_control"* %2, metadata !1558, metadata !DIExpression()) #7, !dbg !1724
  call void @llvm.dbg.value(metadata i32* %3, metadata !1576, metadata !DIExpression()) #7, !dbg !1725
  call void @llvm.dbg.value(metadata %"struct.Halide::Runtime::Internal::Synchronization::mutex_parking_control"* %2, metadata !1579, metadata !DIExpression()) #7, !dbg !1725
  call void @llvm.dbg.value(metadata %"struct.Halide::Runtime::Internal::Synchronization::mutex_parking_control"* %2, metadata !1582, metadata !DIExpression()) #7, !dbg !1727
  %11 = getelementptr inbounds %"struct.Halide::Runtime::Internal::Synchronization::mutex_parking_control", %"struct.Halide::Runtime::Internal::Synchronization::mutex_parking_control"* %2, i32 0, i32 0, i32 0, !dbg !1729
  %12 = getelementptr inbounds %"struct.Halide::Runtime::Internal::Synchronization::mutex_parking_control", %"struct.Halide::Runtime::Internal::Synchronization::mutex_parking_control"* %2, i32 0, i32 0, i32 1, !dbg !1729
  store void (i8*)* @"?parking_control_before_sleep@Synchronization@Internal@Runtime@Halide@@YAXPAX@Z", void (i8*)** %12, align 4, !dbg !1729, !tbaa !1074
  %13 = getelementptr inbounds %"struct.Halide::Runtime::Internal::Synchronization::mutex_parking_control", %"struct.Halide::Runtime::Internal::Synchronization::mutex_parking_control"* %2, i32 0, i32 0, i32 2, !dbg !1729
  %14 = getelementptr inbounds %"struct.Halide::Runtime::Internal::Synchronization::mutex_parking_control", %"struct.Halide::Runtime::Internal::Synchronization::mutex_parking_control"* %2, i32 0, i32 0, i32 3, !dbg !1729
  store void (i8*, %"struct.Halide::Runtime::Internal::Synchronization::validate_action"*, i1, i1)* @"?parking_control_requeue_callback@Synchronization@Internal@Runtime@Halide@@YAXPAXABUvalidate_action@1234@_N2@Z", void (i8*, %"struct.Halide::Runtime::Internal::Synchronization::validate_action"*, i1, i1)** %14, align 4, !dbg !1729, !tbaa !1370
  %15 = getelementptr inbounds %"struct.Halide::Runtime::Internal::Synchronization::mutex_parking_control", %"struct.Halide::Runtime::Internal::Synchronization::mutex_parking_control"* %2, i32 0, i32 1, !dbg !1730
  store i32* %3, i32** %15, align 4, !dbg !1730, !tbaa !1400
  store i1 (i8*, %"struct.Halide::Runtime::Internal::Synchronization::validate_action"*)* @"?mutex_parking_control_validate@Synchronization@Internal@Runtime@Halide@@YA_NPAXAAUvalidate_action@1234@@Z", i1 (i8*, %"struct.Halide::Runtime::Internal::Synchronization::validate_action"*)** %11, align 4, !dbg !1731, !tbaa !1033
  store i32 (i8*, i32, i1)* @"?mutex_parking_control_unpark@Synchronization@Internal@Runtime@Halide@@YAIPAXH_N@Z", i32 (i8*, i32, i1)** %13, align 4, !dbg !1732, !tbaa !1139
  %16 = getelementptr inbounds %"struct.Halide::Runtime::Internal::Synchronization::mutex_parking_control", %"struct.Halide::Runtime::Internal::Synchronization::mutex_parking_control"* %2, i32 0, i32 0, !dbg !1733
  %17 = ptrtoint %struct.halide_mutex* %0 to i32, !dbg !1733
  %18 = call i32 @"?unpark_one@Synchronization@Internal@Runtime@Halide@@YAIIAAUparking_control@1234@@Z"(i32 %17, %"struct.Halide::Runtime::Internal::Synchronization::parking_control"* nonnull align 4 dereferenceable(16) %16) #6, !dbg !1733
  call void @llvm.lifetime.end.p0i8(i64 20, i8* nonnull %10) #7, !dbg !1734
  br label %19, !dbg !1734

19:                                               ; preds = %1, %6, %9
  ret void, !dbg !1735
}

; Function Attrs: nounwind
define weak dso_local void @halide_cond_broadcast(%struct.halide_cond* %0) local_unnamed_addr #4 !dbg !1736 {
  %2 = alloca %"struct.Halide::Runtime::Internal::Synchronization::broadcast_parking_control", align 4
  call void @llvm.dbg.value(metadata %struct.halide_cond* %0, metadata !1741, metadata !DIExpression()), !dbg !1743
  call void @llvm.dbg.value(metadata %struct.halide_cond* %0, metadata !1742, metadata !DIExpression()), !dbg !1743
  call void @llvm.dbg.value(metadata %struct.halide_cond* %0, metadata !1744, metadata !DIExpression()) #7, !dbg !1749
  %3 = getelementptr %struct.halide_cond, %struct.halide_cond* %0, i32 0, i32 0, i32 0, !dbg !1751
  %4 = load i32, i32* %3, align 4, !dbg !1751, !tbaa !468
  call void @llvm.dbg.value(metadata i32 %4, metadata !1747, metadata !DIExpression()) #7, !dbg !1749
  %5 = icmp eq i32 %4, 0, !dbg !1752
  br i1 %5, label %18, label %6, !dbg !1752

6:                                                ; preds = %1
  call void @llvm.dbg.value(metadata %struct.halide_cond* %0, metadata !1744, metadata !DIExpression()) #7, !dbg !1749
  call void @llvm.dbg.value(metadata %struct.halide_cond* %0, metadata !1742, metadata !DIExpression()), !dbg !1743
  %7 = bitcast %"struct.Halide::Runtime::Internal::Synchronization::broadcast_parking_control"* %2 to i8*, !dbg !1753
  call void @llvm.lifetime.start.p0i8(i64 24, i8* nonnull %7) #7, !dbg !1753
  call void @llvm.dbg.declare(metadata %"struct.Halide::Runtime::Internal::Synchronization::broadcast_parking_control"* %2, metadata !1748, metadata !DIExpression()) #7, !dbg !1753
  call void @llvm.dbg.value(metadata i32 %4, metadata !1747, metadata !DIExpression()) #7, !dbg !1749
  %8 = inttoptr i32 %4 to %"class.Halide::Runtime::Internal::Synchronization::fast_mutex"*, !dbg !1753
  call void @llvm.dbg.value(metadata %"class.Halide::Runtime::Internal::Synchronization::fast_mutex"* %8, metadata !1754, metadata !DIExpression()) #7, !dbg !1759
  call void @llvm.dbg.value(metadata i32* %3, metadata !1757, metadata !DIExpression()) #7, !dbg !1759
  call void @llvm.dbg.value(metadata %"struct.Halide::Runtime::Internal::Synchronization::broadcast_parking_control"* %2, metadata !1758, metadata !DIExpression()) #7, !dbg !1759
  call void @llvm.dbg.value(metadata %"struct.Halide::Runtime::Internal::Synchronization::broadcast_parking_control"* %2, metadata !1582, metadata !DIExpression()) #7, !dbg !1761
  %9 = getelementptr inbounds %"struct.Halide::Runtime::Internal::Synchronization::broadcast_parking_control", %"struct.Halide::Runtime::Internal::Synchronization::broadcast_parking_control"* %2, i32 0, i32 0, i32 0, !dbg !1763
  %10 = getelementptr inbounds %"struct.Halide::Runtime::Internal::Synchronization::broadcast_parking_control", %"struct.Halide::Runtime::Internal::Synchronization::broadcast_parking_control"* %2, i32 0, i32 0, i32 1, !dbg !1763
  store void (i8*)* @"?parking_control_before_sleep@Synchronization@Internal@Runtime@Halide@@YAXPAX@Z", void (i8*)** %10, align 4, !dbg !1763, !tbaa !1074
  %11 = getelementptr inbounds %"struct.Halide::Runtime::Internal::Synchronization::broadcast_parking_control", %"struct.Halide::Runtime::Internal::Synchronization::broadcast_parking_control"* %2, i32 0, i32 0, i32 2, !dbg !1763
  store i32 (i8*, i32, i1)* @"?parking_control_unpark@Synchronization@Internal@Runtime@Halide@@YAIPAXH_N@Z", i32 (i8*, i32, i1)** %11, align 4, !dbg !1763, !tbaa !1139
  %12 = getelementptr inbounds %"struct.Halide::Runtime::Internal::Synchronization::broadcast_parking_control", %"struct.Halide::Runtime::Internal::Synchronization::broadcast_parking_control"* %2, i32 0, i32 0, i32 3, !dbg !1763
  %13 = getelementptr inbounds %"struct.Halide::Runtime::Internal::Synchronization::broadcast_parking_control", %"struct.Halide::Runtime::Internal::Synchronization::broadcast_parking_control"* %2, i32 0, i32 1, !dbg !1764
  store i32* %3, i32** %13, align 4, !dbg !1764, !tbaa !1450
  %14 = getelementptr inbounds %"struct.Halide::Runtime::Internal::Synchronization::broadcast_parking_control", %"struct.Halide::Runtime::Internal::Synchronization::broadcast_parking_control"* %2, i32 0, i32 2, !dbg !1764
  store %"class.Halide::Runtime::Internal::Synchronization::fast_mutex"* %8, %"class.Halide::Runtime::Internal::Synchronization::fast_mutex"** %14, align 4, !dbg !1764, !tbaa !1453
  store i1 (i8*, %"struct.Halide::Runtime::Internal::Synchronization::validate_action"*)* @"?broadcast_parking_control_validate@Synchronization@Internal@Runtime@Halide@@YA_NPAXAAUvalidate_action@1234@@Z", i1 (i8*, %"struct.Halide::Runtime::Internal::Synchronization::validate_action"*)** %9, align 4, !dbg !1765, !tbaa !1033
  store void (i8*, %"struct.Halide::Runtime::Internal::Synchronization::validate_action"*, i1, i1)* @"?broadcast_parking_control_requeue_callback@Synchronization@Internal@Runtime@Halide@@YAXPAXABUvalidate_action@1234@_N2@Z", void (i8*, %"struct.Halide::Runtime::Internal::Synchronization::validate_action"*, i1, i1)** %12, align 4, !dbg !1767, !tbaa !1370
  %15 = getelementptr inbounds %"struct.Halide::Runtime::Internal::Synchronization::broadcast_parking_control", %"struct.Halide::Runtime::Internal::Synchronization::broadcast_parking_control"* %2, i32 0, i32 0, !dbg !1768
  %16 = ptrtoint %struct.halide_cond* %0 to i32, !dbg !1768
  %17 = call i32 @"?unpark_requeue@Synchronization@Internal@Runtime@Halide@@YAHIIAAUparking_control@1234@I@Z"(i32 %16, i32 %4, %"struct.Halide::Runtime::Internal::Synchronization::parking_control"* nonnull align 4 dereferenceable(16) %15, i32 0) #6, !dbg !1768
  call void @llvm.lifetime.end.p0i8(i64 24, i8* nonnull %7) #7, !dbg !1769
  br label %18, !dbg !1769

18:                                               ; preds = %1, %6
  ret void, !dbg !1770
}

; Function Attrs: nounwind
define weak dso_local void @halide_cond_signal(%struct.halide_cond* %0) local_unnamed_addr #4 !dbg !1771 {
  %2 = alloca %"struct.Halide::Runtime::Internal::Synchronization::signal_parking_control", align 4
  call void @llvm.dbg.value(metadata %struct.halide_cond* %0, metadata !1773, metadata !DIExpression()), !dbg !1775
  call void @llvm.dbg.value(metadata %struct.halide_cond* %0, metadata !1774, metadata !DIExpression()), !dbg !1775
  call void @llvm.dbg.value(metadata %struct.halide_cond* %0, metadata !1776, metadata !DIExpression()) #7, !dbg !1781
  %3 = getelementptr %struct.halide_cond, %struct.halide_cond* %0, i32 0, i32 0, i32 0, !dbg !1783
  %4 = load i32, i32* %3, align 4, !dbg !1783, !tbaa !468
  call void @llvm.dbg.value(metadata i32 %4, metadata !1779, metadata !DIExpression()) #7, !dbg !1781
  %5 = icmp eq i32 %4, 0, !dbg !1784
  br i1 %5, label %18, label %6, !dbg !1784

6:                                                ; preds = %1
  call void @llvm.dbg.value(metadata %struct.halide_cond* %0, metadata !1776, metadata !DIExpression()) #7, !dbg !1781
  call void @llvm.dbg.value(metadata %struct.halide_cond* %0, metadata !1774, metadata !DIExpression()), !dbg !1775
  %7 = bitcast %"struct.Halide::Runtime::Internal::Synchronization::signal_parking_control"* %2 to i8*, !dbg !1785
  call void @llvm.lifetime.start.p0i8(i64 24, i8* nonnull %7) #7, !dbg !1785
  call void @llvm.dbg.declare(metadata %"struct.Halide::Runtime::Internal::Synchronization::signal_parking_control"* %2, metadata !1780, metadata !DIExpression()) #7, !dbg !1785
  call void @llvm.dbg.value(metadata i32 %4, metadata !1779, metadata !DIExpression()) #7, !dbg !1781
  %8 = inttoptr i32 %4 to %"class.Halide::Runtime::Internal::Synchronization::fast_mutex"*, !dbg !1785
  call void @llvm.dbg.value(metadata %"class.Halide::Runtime::Internal::Synchronization::fast_mutex"* %8, metadata !1786, metadata !DIExpression()) #7, !dbg !1791
  call void @llvm.dbg.value(metadata i32* %3, metadata !1789, metadata !DIExpression()) #7, !dbg !1791
  call void @llvm.dbg.value(metadata %"struct.Halide::Runtime::Internal::Synchronization::signal_parking_control"* %2, metadata !1790, metadata !DIExpression()) #7, !dbg !1791
  call void @llvm.dbg.value(metadata %"struct.Halide::Runtime::Internal::Synchronization::signal_parking_control"* %2, metadata !1582, metadata !DIExpression()) #7, !dbg !1793
  %9 = getelementptr inbounds %"struct.Halide::Runtime::Internal::Synchronization::signal_parking_control", %"struct.Halide::Runtime::Internal::Synchronization::signal_parking_control"* %2, i32 0, i32 0, i32 0, !dbg !1795
  store i1 (i8*, %"struct.Halide::Runtime::Internal::Synchronization::validate_action"*)* @"?parking_control_validate@Synchronization@Internal@Runtime@Halide@@YA_NPAXAAUvalidate_action@1234@@Z", i1 (i8*, %"struct.Halide::Runtime::Internal::Synchronization::validate_action"*)** %9, align 4, !dbg !1795, !tbaa !1033
  %10 = getelementptr inbounds %"struct.Halide::Runtime::Internal::Synchronization::signal_parking_control", %"struct.Halide::Runtime::Internal::Synchronization::signal_parking_control"* %2, i32 0, i32 0, i32 1, !dbg !1795
  store void (i8*)* @"?parking_control_before_sleep@Synchronization@Internal@Runtime@Halide@@YAXPAX@Z", void (i8*)** %10, align 4, !dbg !1795, !tbaa !1074
  %11 = getelementptr inbounds %"struct.Halide::Runtime::Internal::Synchronization::signal_parking_control", %"struct.Halide::Runtime::Internal::Synchronization::signal_parking_control"* %2, i32 0, i32 0, i32 2, !dbg !1795
  %12 = getelementptr inbounds %"struct.Halide::Runtime::Internal::Synchronization::signal_parking_control", %"struct.Halide::Runtime::Internal::Synchronization::signal_parking_control"* %2, i32 0, i32 0, i32 3, !dbg !1795
  store void (i8*, %"struct.Halide::Runtime::Internal::Synchronization::validate_action"*, i1, i1)* @"?parking_control_requeue_callback@Synchronization@Internal@Runtime@Halide@@YAXPAXABUvalidate_action@1234@_N2@Z", void (i8*, %"struct.Halide::Runtime::Internal::Synchronization::validate_action"*, i1, i1)** %12, align 4, !dbg !1795, !tbaa !1370
  %13 = getelementptr inbounds %"struct.Halide::Runtime::Internal::Synchronization::signal_parking_control", %"struct.Halide::Runtime::Internal::Synchronization::signal_parking_control"* %2, i32 0, i32 1, !dbg !1796
  store i32* %3, i32** %13, align 4, !dbg !1796, !tbaa !1435
  %14 = getelementptr inbounds %"struct.Halide::Runtime::Internal::Synchronization::signal_parking_control", %"struct.Halide::Runtime::Internal::Synchronization::signal_parking_control"* %2, i32 0, i32 2, !dbg !1796
  store %"class.Halide::Runtime::Internal::Synchronization::fast_mutex"* %8, %"class.Halide::Runtime::Internal::Synchronization::fast_mutex"** %14, align 4, !dbg !1796, !tbaa !1797
  store i32 (i8*, i32, i1)* @"?signal_parking_control_unpark@Synchronization@Internal@Runtime@Halide@@YAIPAXH_N@Z", i32 (i8*, i32, i1)** %11, align 4, !dbg !1798, !tbaa !1139
  %15 = getelementptr inbounds %"struct.Halide::Runtime::Internal::Synchronization::signal_parking_control", %"struct.Halide::Runtime::Internal::Synchronization::signal_parking_control"* %2, i32 0, i32 0, !dbg !1800
  %16 = ptrtoint %struct.halide_cond* %0 to i32, !dbg !1800
  %17 = call i32 @"?unpark_one@Synchronization@Internal@Runtime@Halide@@YAIIAAUparking_control@1234@@Z"(i32 %16, %"struct.Halide::Runtime::Internal::Synchronization::parking_control"* nonnull align 4 dereferenceable(16) %15) #6, !dbg !1800
  call void @llvm.lifetime.end.p0i8(i64 24, i8* nonnull %7) #7, !dbg !1801
  br label %18, !dbg !1801

18:                                               ; preds = %1, %6
  ret void, !dbg !1802
}

; Function Attrs: nounwind
define weak dso_local void @halide_cond_wait(%struct.halide_cond* %0, %struct.halide_mutex* %1) local_unnamed_addr #4 !dbg !1803 {
  %3 = alloca %"struct.Halide::Runtime::Internal::Synchronization::mutex_parking_control", align 4
  %4 = alloca %"struct.Halide::Runtime::Internal::Synchronization::wait_parking_control", align 4
  call void @llvm.dbg.value(metadata %struct.halide_mutex* %1, metadata !1807, metadata !DIExpression()), !dbg !1811
  call void @llvm.dbg.value(metadata %struct.halide_cond* %0, metadata !1808, metadata !DIExpression()), !dbg !1811
  call void @llvm.dbg.value(metadata %struct.halide_cond* %0, metadata !1809, metadata !DIExpression()), !dbg !1811
  call void @llvm.dbg.value(metadata %struct.halide_mutex* %1, metadata !1810, metadata !DIExpression()), !dbg !1811
  call void @llvm.dbg.value(metadata %struct.halide_mutex* %1, metadata !1812, metadata !DIExpression()) #7, !dbg !1821
  call void @llvm.dbg.value(metadata %struct.halide_cond* %0, metadata !1815, metadata !DIExpression()) #7, !dbg !1821
  %5 = bitcast %"struct.Halide::Runtime::Internal::Synchronization::wait_parking_control"* %4 to i8*, !dbg !1823
  call void @llvm.lifetime.start.p0i8(i64 24, i8* nonnull %5) #7, !dbg !1823
  call void @llvm.dbg.declare(metadata %"struct.Halide::Runtime::Internal::Synchronization::wait_parking_control"* %4, metadata !1816, metadata !DIExpression()) #7, !dbg !1823
  %6 = getelementptr %struct.halide_cond, %struct.halide_cond* %0, i32 0, i32 0, i32 0, !dbg !1823
  call void @llvm.dbg.value(metadata %struct.halide_mutex* %1, metadata !1824, metadata !DIExpression()) #7, !dbg !1829
  call void @llvm.dbg.value(metadata i32* %6, metadata !1827, metadata !DIExpression()) #7, !dbg !1829
  call void @llvm.dbg.value(metadata %"struct.Halide::Runtime::Internal::Synchronization::wait_parking_control"* %4, metadata !1828, metadata !DIExpression()) #7, !dbg !1829
  call void @llvm.dbg.value(metadata %"struct.Halide::Runtime::Internal::Synchronization::wait_parking_control"* %4, metadata !1582, metadata !DIExpression()) #7, !dbg !1831
  %7 = getelementptr inbounds %"struct.Halide::Runtime::Internal::Synchronization::wait_parking_control", %"struct.Halide::Runtime::Internal::Synchronization::wait_parking_control"* %4, i32 0, i32 0, i32 0, !dbg !1833
  %8 = getelementptr inbounds %"struct.Halide::Runtime::Internal::Synchronization::wait_parking_control", %"struct.Halide::Runtime::Internal::Synchronization::wait_parking_control"* %4, i32 0, i32 0, i32 1, !dbg !1833
  %9 = getelementptr inbounds %"struct.Halide::Runtime::Internal::Synchronization::wait_parking_control", %"struct.Halide::Runtime::Internal::Synchronization::wait_parking_control"* %4, i32 0, i32 0, i32 2, !dbg !1833
  %10 = getelementptr inbounds %"struct.Halide::Runtime::Internal::Synchronization::wait_parking_control", %"struct.Halide::Runtime::Internal::Synchronization::wait_parking_control"* %4, i32 0, i32 0, i32 3, !dbg !1833
  store void (i8*, %"struct.Halide::Runtime::Internal::Synchronization::validate_action"*, i1, i1)* @"?parking_control_requeue_callback@Synchronization@Internal@Runtime@Halide@@YAXPAXABUvalidate_action@1234@_N2@Z", void (i8*, %"struct.Halide::Runtime::Internal::Synchronization::validate_action"*, i1, i1)** %10, align 4, !dbg !1833, !tbaa !1370
  %11 = getelementptr inbounds %"struct.Halide::Runtime::Internal::Synchronization::wait_parking_control", %"struct.Halide::Runtime::Internal::Synchronization::wait_parking_control"* %4, i32 0, i32 1, !dbg !1834
  store i32* %6, i32** %11, align 4, !dbg !1834, !tbaa !1521
  %12 = getelementptr inbounds %"struct.Halide::Runtime::Internal::Synchronization::wait_parking_control", %"struct.Halide::Runtime::Internal::Synchronization::wait_parking_control"* %4, i32 0, i32 2, !dbg !1834
  %13 = bitcast %"class.Halide::Runtime::Internal::Synchronization::fast_mutex"** %12 to %struct.halide_mutex**, !dbg !1834
  store %struct.halide_mutex* %1, %struct.halide_mutex** %13, align 4, !dbg !1834, !tbaa !1526
  store i1 (i8*, %"struct.Halide::Runtime::Internal::Synchronization::validate_action"*)* @"?wait_parking_control_validate@Synchronization@Internal@Runtime@Halide@@YA_NPAXAAUvalidate_action@1234@@Z", i1 (i8*, %"struct.Halide::Runtime::Internal::Synchronization::validate_action"*)** %7, align 4, !dbg !1835, !tbaa !1033
  store void (i8*)* @"?wait_parking_control_before_sleep@Synchronization@Internal@Runtime@Halide@@YAXPAX@Z", void (i8*)** %8, align 4, !dbg !1837, !tbaa !1074
  store i32 (i8*, i32, i1)* @"?wait_parking_control_unpark@Synchronization@Internal@Runtime@Halide@@YAIPAXH_N@Z", i32 (i8*, i32, i1)** %9, align 4, !dbg !1838, !tbaa !1139
  %14 = getelementptr inbounds %"struct.Halide::Runtime::Internal::Synchronization::wait_parking_control", %"struct.Halide::Runtime::Internal::Synchronization::wait_parking_control"* %4, i32 0, i32 0, !dbg !1839
  %15 = ptrtoint %struct.halide_cond* %0 to i32, !dbg !1839
  %16 = call i32 @"?park@Synchronization@Internal@Runtime@Halide@@YAIIAAUparking_control@1234@@Z"(i32 %15, %"struct.Halide::Runtime::Internal::Synchronization::parking_control"* nonnull align 4 dereferenceable(16) %14) #6, !dbg !1839
  call void @llvm.dbg.value(metadata i32 %16, metadata !1817, metadata !DIExpression()) #7, !dbg !1821
  %17 = ptrtoint %struct.halide_mutex* %1 to i32, !dbg !1840
  %18 = icmp eq i32 %16, %17, !dbg !1840
  %19 = getelementptr %struct.halide_mutex, %struct.halide_mutex* %1, i32 0, i32 0, i32 0, !dbg !1841
  br i1 %18, label %69, label %20, !dbg !1840

20:                                               ; preds = %2
  call void @llvm.dbg.value(metadata %struct.halide_mutex* %1, metadata !1621, metadata !DIExpression()) #7, !dbg !1842
  call void @llvm.dbg.value(metadata i32 0, metadata !1624, metadata !DIExpression()) #7, !dbg !1842
  call void @llvm.dbg.value(metadata i32 1, metadata !1625, metadata !DIExpression()) #7, !dbg !1842
  call void @llvm.dbg.value(metadata i32* undef, metadata !474, metadata !DIExpression()) #7, !dbg !1845
  call void @llvm.dbg.value(metadata i32* undef, metadata !480, metadata !DIExpression()) #7, !dbg !1845
  call void @llvm.dbg.value(metadata i32* %19, metadata !481, metadata !DIExpression()) #7, !dbg !1845
  call void @llvm.dbg.value(metadata i32* undef, metadata !484, metadata !DIExpression()) #7, !dbg !1847
  call void @llvm.dbg.value(metadata i32* undef, metadata !490, metadata !DIExpression()) #7, !dbg !1847
  call void @llvm.dbg.value(metadata i32* %19, metadata !491, metadata !DIExpression()) #7, !dbg !1847
  call void @llvm.dbg.value(metadata i32 0, metadata !492, metadata !DIExpression()) #7, !dbg !1847
  %21 = cmpxchg i32* %19, i32 0, i32 1 seq_cst seq_cst, !dbg !1849
  call void @llvm.dbg.value(metadata i32 undef, metadata !493, metadata !DIExpression()) #7, !dbg !1847
  %22 = extractvalue { i32, i1 } %21, 1, !dbg !1850
  br i1 %22, label %74, label %23, !dbg !1851

23:                                               ; preds = %20
  call void @llvm.dbg.value(metadata %struct.halide_mutex* %1, metadata !1635, metadata !DIExpression()) #7, !dbg !1852
  call void @llvm.dbg.value(metadata i32 40, metadata !1638, metadata !DIExpression()) #7, !dbg !1852
  %24 = load i32, i32* %19, align 4, !dbg !1854, !tbaa !468
  %25 = bitcast %"struct.Halide::Runtime::Internal::Synchronization::mutex_parking_control"* %3 to i8*
  %26 = getelementptr inbounds %"struct.Halide::Runtime::Internal::Synchronization::mutex_parking_control", %"struct.Halide::Runtime::Internal::Synchronization::mutex_parking_control"* %3, i32 0, i32 0, i32 0
  %27 = getelementptr inbounds %"struct.Halide::Runtime::Internal::Synchronization::mutex_parking_control", %"struct.Halide::Runtime::Internal::Synchronization::mutex_parking_control"* %3, i32 0, i32 0, i32 1
  %28 = getelementptr inbounds %"struct.Halide::Runtime::Internal::Synchronization::mutex_parking_control", %"struct.Halide::Runtime::Internal::Synchronization::mutex_parking_control"* %3, i32 0, i32 0, i32 2
  %29 = getelementptr inbounds %"struct.Halide::Runtime::Internal::Synchronization::mutex_parking_control", %"struct.Halide::Runtime::Internal::Synchronization::mutex_parking_control"* %3, i32 0, i32 0, i32 3
  %30 = getelementptr inbounds %"struct.Halide::Runtime::Internal::Synchronization::mutex_parking_control", %"struct.Halide::Runtime::Internal::Synchronization::mutex_parking_control"* %3, i32 0, i32 1
  %31 = getelementptr inbounds %"struct.Halide::Runtime::Internal::Synchronization::mutex_parking_control", %"struct.Halide::Runtime::Internal::Synchronization::mutex_parking_control"* %3, i32 0, i32 0
  br label %32, !dbg !1855

32:                                               ; preds = %65, %23
  %33 = phi i32 [ %24, %23 ], [ %66, %65 ]
  %34 = phi i32 [ 40, %23 ], [ %67, %65 ]
  br label %35, !dbg !1856

35:                                               ; preds = %39, %32
  %36 = phi i32 [ %42, %39 ], [ %33, %32 ], !dbg !1852
  call void @llvm.dbg.value(metadata i32 %34, metadata !1638, metadata !DIExpression()) #7, !dbg !1852
  call void @llvm.dbg.value(metadata i32 %36, metadata !1639, metadata !DIExpression()) #7, !dbg !1852
  %37 = and i32 %36, 1, !dbg !1856
  %38 = icmp eq i32 %37, 0, !dbg !1856
  br i1 %38, label %39, label %44, !dbg !1856

39:                                               ; preds = %35
  call void @llvm.dbg.value(metadata i32 %36, metadata !1639, metadata !DIExpression()) #7, !dbg !1852
  %40 = or i32 %36, 1, !dbg !1857
  call void @llvm.dbg.value(metadata i32 %40, metadata !1640, metadata !DIExpression()) #7, !dbg !1858
  call void @llvm.dbg.value(metadata i32* undef, metadata !474, metadata !DIExpression()) #7, !dbg !1859
  call void @llvm.dbg.value(metadata i32* undef, metadata !480, metadata !DIExpression()) #7, !dbg !1859
  call void @llvm.dbg.value(metadata i32* %19, metadata !481, metadata !DIExpression()) #7, !dbg !1859
  call void @llvm.dbg.value(metadata i32* undef, metadata !484, metadata !DIExpression()) #7, !dbg !1861
  call void @llvm.dbg.value(metadata i32* undef, metadata !490, metadata !DIExpression()) #7, !dbg !1861
  call void @llvm.dbg.value(metadata i32* %19, metadata !491, metadata !DIExpression()) #7, !dbg !1861
  call void @llvm.dbg.value(metadata i32 %36, metadata !492, metadata !DIExpression()) #7, !dbg !1861
  %41 = cmpxchg i32* %19, i32 %36, i32 %40 seq_cst seq_cst, !dbg !1863
  %42 = extractvalue { i32, i1 } %41, 0, !dbg !1863
  call void @llvm.dbg.value(metadata i32 %42, metadata !493, metadata !DIExpression()) #7, !dbg !1861
  %43 = icmp eq i32 %36, %42, !dbg !1864
  br i1 %43, label %74, label %35

44:                                               ; preds = %35
  call void @llvm.dbg.value(metadata %"class.Halide::Runtime::Internal::Synchronization::spin_control"* undef, metadata !501, metadata !DIExpression()) #7, !dbg !1865
  %45 = icmp sgt i32 %34, 0, !dbg !1867
  br i1 %45, label %46, label %51, !dbg !1867

46:                                               ; preds = %44
  call void @llvm.dbg.value(metadata i32 %34, metadata !1638, metadata !DIExpression(DW_OP_constu, 1, DW_OP_minus, DW_OP_stack_value)) #7, !dbg !1852
  %47 = icmp eq i32 %34, 1, !dbg !1868
  br i1 %47, label %51, label %48, !dbg !1869

48:                                               ; preds = %46
  %49 = add nsw i32 %34, -1, !dbg !1870
  call void @llvm.dbg.value(metadata i32 %49, metadata !1638, metadata !DIExpression()) #7, !dbg !1852
  call void @halide_thread_yield() #6, !dbg !1871
  %50 = load i32, i32* %19, align 4, !dbg !1872, !tbaa !468
  br label %65, !dbg !1873

51:                                               ; preds = %46, %44
  %52 = phi i32 [ 0, %46 ], [ %34, %44 ]
  call void @llvm.dbg.value(metadata i32 %36, metadata !1639, metadata !DIExpression()) #7, !dbg !1852
  %53 = and i32 %36, 2, !dbg !1874
  %54 = icmp eq i32 %53, 0, !dbg !1874
  br i1 %54, label %55, label %60, !dbg !1874

55:                                               ; preds = %51
  call void @llvm.dbg.value(metadata i32 %36, metadata !1639, metadata !DIExpression()) #7, !dbg !1852
  %56 = or i32 %36, 2, !dbg !1875
  call void @llvm.dbg.value(metadata i32 %56, metadata !1644, metadata !DIExpression()) #7, !dbg !1876
  call void @llvm.dbg.value(metadata i32* undef, metadata !1470, metadata !DIExpression()) #7, !dbg !1877
  call void @llvm.dbg.value(metadata i32* undef, metadata !1473, metadata !DIExpression()) #7, !dbg !1877
  call void @llvm.dbg.value(metadata i32* %19, metadata !1474, metadata !DIExpression()) #7, !dbg !1877
  call void @llvm.dbg.value(metadata i32* undef, metadata !484, metadata !DIExpression()) #7, !dbg !1879
  call void @llvm.dbg.value(metadata i32* undef, metadata !490, metadata !DIExpression()) #7, !dbg !1879
  call void @llvm.dbg.value(metadata i32* %19, metadata !491, metadata !DIExpression()) #7, !dbg !1879
  call void @llvm.dbg.value(metadata i32 %36, metadata !492, metadata !DIExpression()) #7, !dbg !1879
  %57 = cmpxchg i32* %19, i32 %36, i32 %56 seq_cst seq_cst, !dbg !1881
  %58 = extractvalue { i32, i1 } %57, 0, !dbg !1881
  call void @llvm.dbg.value(metadata i32 %58, metadata !493, metadata !DIExpression()) #7, !dbg !1879
  %59 = icmp eq i32 %36, %58, !dbg !1882
  br i1 %59, label %60, label %65

60:                                               ; preds = %55, %51
  call void @llvm.lifetime.start.p0i8(i64 20, i8* nonnull %25) #7, !dbg !1883
  call void @llvm.dbg.declare(metadata %"struct.Halide::Runtime::Internal::Synchronization::mutex_parking_control"* %3, metadata !1647, metadata !DIExpression()) #7, !dbg !1883
  call void @llvm.dbg.value(metadata i32* %19, metadata !1576, metadata !DIExpression()) #7, !dbg !1884
  call void @llvm.dbg.value(metadata %"struct.Halide::Runtime::Internal::Synchronization::mutex_parking_control"* %3, metadata !1579, metadata !DIExpression()) #7, !dbg !1884
  call void @llvm.dbg.value(metadata %"struct.Halide::Runtime::Internal::Synchronization::mutex_parking_control"* %3, metadata !1582, metadata !DIExpression()) #7, !dbg !1886
  store void (i8*)* @"?parking_control_before_sleep@Synchronization@Internal@Runtime@Halide@@YAXPAX@Z", void (i8*)** %27, align 4, !dbg !1888, !tbaa !1074
  store void (i8*, %"struct.Halide::Runtime::Internal::Synchronization::validate_action"*, i1, i1)* @"?parking_control_requeue_callback@Synchronization@Internal@Runtime@Halide@@YAXPAXABUvalidate_action@1234@_N2@Z", void (i8*, %"struct.Halide::Runtime::Internal::Synchronization::validate_action"*, i1, i1)** %29, align 4, !dbg !1888, !tbaa !1370
  store i32* %19, i32** %30, align 4, !dbg !1889, !tbaa !1400
  store i1 (i8*, %"struct.Halide::Runtime::Internal::Synchronization::validate_action"*)* @"?mutex_parking_control_validate@Synchronization@Internal@Runtime@Halide@@YA_NPAXAAUvalidate_action@1234@@Z", i1 (i8*, %"struct.Halide::Runtime::Internal::Synchronization::validate_action"*)** %26, align 4, !dbg !1890, !tbaa !1033
  store i32 (i8*, i32, i1)* @"?mutex_parking_control_unpark@Synchronization@Internal@Runtime@Halide@@YAIPAXH_N@Z", i32 (i8*, i32, i1)** %28, align 4, !dbg !1891, !tbaa !1139
  %61 = call i32 @"?park@Synchronization@Internal@Runtime@Halide@@YAIIAAUparking_control@1234@@Z"(i32 %17, %"struct.Halide::Runtime::Internal::Synchronization::parking_control"* nonnull align 4 dereferenceable(16) %31) #6, !dbg !1892
  call void @llvm.dbg.value(metadata i32 %61, metadata !1648, metadata !DIExpression()) #7, !dbg !1893
  %62 = icmp eq i32 %61, %17, !dbg !1894
  br i1 %62, label %68, label %63, !dbg !1894

63:                                               ; preds = %60
  call void @llvm.dbg.value(metadata i32 40, metadata !1638, metadata !DIExpression()) #7, !dbg !1852
  %64 = load i32, i32* %19, align 4, !dbg !1895, !tbaa !468
  call void @llvm.lifetime.end.p0i8(i64 20, i8* nonnull %25) #7, !dbg !1896
  br label %65

65:                                               ; preds = %63, %55, %48
  %66 = phi i32 [ %58, %55 ], [ %64, %63 ], [ %50, %48 ]
  %67 = phi i32 [ %52, %55 ], [ 40, %63 ], [ %49, %48 ]
  br label %32, !dbg !1856, !llvm.loop !1897

68:                                               ; preds = %60
  call void @llvm.lifetime.end.p0i8(i64 20, i8* nonnull %25) #7, !dbg !1896
  br label %74

69:                                               ; preds = %2
  call void @llvm.dbg.value(metadata %struct.halide_mutex* %1, metadata !1824, metadata !DIExpression()) #7, !dbg !1829
  call void @llvm.dbg.value(metadata %struct.halide_mutex* %1, metadata !1812, metadata !DIExpression()) #7, !dbg !1821
  call void @llvm.dbg.value(metadata %struct.halide_mutex* %1, metadata !1810, metadata !DIExpression()), !dbg !1811
  %70 = load i32, i32* %19, align 4, !dbg !1899, !tbaa !468
  call void @llvm.dbg.value(metadata i32 %70, metadata !1818, metadata !DIExpression()) #7, !dbg !1900
  %71 = and i32 %70, 1, !dbg !1901
  %72 = icmp eq i32 %71, 0, !dbg !1901
  br i1 %72, label %73, label %74, !dbg !1901

73:                                               ; preds = %69
  call void @halide_print(i8* null, i8* getelementptr inbounds ([118 x i8], [118 x i8]* @"??_C@_0HG@DNBPGMBM@?1media?1maaz?1Data?1Repos?1rake?1Hali@", i32 0, i32 0)) #6, !dbg !1903
  call void @abort() #6, !dbg !1903
  br label %74, !dbg !1903

74:                                               ; preds = %39, %20, %68, %69, %73
  call void @llvm.lifetime.end.p0i8(i64 24, i8* nonnull %5) #7, !dbg !1906
  ret void, !dbg !1907
}

; Function Attrs: nounwind mustprogress
define weak dso_local %struct.halide_mutex_array* @halide_mutex_array_create(i32 %0) local_unnamed_addr #0 !dbg !1908 {
  call void @llvm.dbg.value(metadata i32 %0, metadata !1912, metadata !DIExpression()), !dbg !1914
  %2 = tail call i8* @halide_malloc(i8* null, i32 4) #6, !dbg !1915
  %3 = bitcast i8* %2 to %struct.halide_mutex_array*, !dbg !1915
  call void @llvm.dbg.value(metadata %struct.halide_mutex_array* %3, metadata !1913, metadata !DIExpression()), !dbg !1914
  %4 = icmp eq i8* %2, null, !dbg !1916
  br i1 %4, label %13, label %5, !dbg !1916

5:                                                ; preds = %1
  %6 = shl i32 %0, 2, !dbg !1917
  %7 = tail call i8* @halide_malloc(i8* null, i32 %6) #6, !dbg !1917
  %8 = bitcast i8* %2 to i8**, !dbg !1917
  store i8* %7, i8** %8, align 4, !dbg !1917, !tbaa !1918
  %9 = icmp eq i8* %7, null, !dbg !1920
  br i1 %9, label %10, label %11, !dbg !1920

10:                                               ; preds = %5
  tail call void @halide_free(i8* null, i8* nonnull %2) #6, !dbg !1921
  br label %13, !dbg !1924

11:                                               ; preds = %5
  %12 = tail call i8* @memset(i8* nonnull %7, i32 0, i32 %6) #6, !dbg !1925
  br label %13, !dbg !1926

13:                                               ; preds = %1, %11, %10
  %14 = phi %struct.halide_mutex_array* [ null, %10 ], [ %3, %11 ], [ null, %1 ], !dbg !1914
  ret %struct.halide_mutex_array* %14, !dbg !1927
}

declare dso_local i8* @halide_malloc(i8*, i32) local_unnamed_addr #3

declare dso_local void @halide_free(i8*, i8*) local_unnamed_addr #3

declare dso_local i8* @memset(i8*, i32, i32) local_unnamed_addr #3

; Function Attrs: nounwind mustprogress
define weak dso_local void @halide_mutex_array_destroy(i8* %0, i8* %1) local_unnamed_addr #0 !dbg !1928 {
  call void @llvm.dbg.value(metadata i8* %1, metadata !1932, metadata !DIExpression()), !dbg !1935
  call void @llvm.dbg.value(metadata i8* %0, metadata !1933, metadata !DIExpression()), !dbg !1935
  call void @llvm.dbg.value(metadata i8* %1, metadata !1934, metadata !DIExpression()), !dbg !1935
  %3 = bitcast i8* %1 to i8**, !dbg !1936
  %4 = load i8*, i8** %3, align 4, !dbg !1936, !tbaa !1918
  tail call void @halide_free(i8* %0, i8* %4) #6, !dbg !1936
  tail call void @halide_free(i8* %0, i8* %1) #6, !dbg !1937
  ret void, !dbg !1938
}

; Function Attrs: nounwind mustprogress
define weak dso_local i32 @halide_mutex_array_lock(%struct.halide_mutex_array* %0, i32 %1) local_unnamed_addr #0 !dbg !1939 {
  call void @llvm.dbg.value(metadata i32 %1, metadata !1943, metadata !DIExpression()), !dbg !1945
  call void @llvm.dbg.value(metadata %struct.halide_mutex_array* %0, metadata !1944, metadata !DIExpression()), !dbg !1945
  %3 = getelementptr inbounds %struct.halide_mutex_array, %struct.halide_mutex_array* %0, i32 0, i32 0, !dbg !1946
  %4 = load %struct.halide_mutex*, %struct.halide_mutex** %3, align 4, !dbg !1946, !tbaa !1918
  %5 = getelementptr inbounds %struct.halide_mutex, %struct.halide_mutex* %4, i32 %1, !dbg !1946
  tail call void @halide_mutex_lock(%struct.halide_mutex* %5) #8, !dbg !1946
  ret i32 0, !dbg !1947
}

; Function Attrs: nounwind mustprogress
define weak dso_local i32 @halide_mutex_array_unlock(%struct.halide_mutex_array* %0, i32 %1) local_unnamed_addr #0 !dbg !1948 {
  call void @llvm.dbg.value(metadata i32 %1, metadata !1950, metadata !DIExpression()), !dbg !1952
  call void @llvm.dbg.value(metadata %struct.halide_mutex_array* %0, metadata !1951, metadata !DIExpression()), !dbg !1952
  %3 = getelementptr inbounds %struct.halide_mutex_array, %struct.halide_mutex_array* %0, i32 0, i32 0, !dbg !1953
  %4 = load %struct.halide_mutex*, %struct.halide_mutex** %3, align 4, !dbg !1953, !tbaa !1918
  %5 = getelementptr inbounds %struct.halide_mutex, %struct.halide_mutex* %4, i32 %1, !dbg !1953
  tail call void @halide_mutex_unlock(%struct.halide_mutex* %5) #8, !dbg !1953
  ret i32 0, !dbg !1954
}

; Function Attrs: nounwind willreturn mustprogress
define weak dso_local i32 @"?clamp_num_threads@Internal@Runtime@Halide@@YAHH@Z"(i32 %0) local_unnamed_addr #5 !dbg !1955 {
  call void @llvm.dbg.value(metadata i32 %0, metadata !1959, metadata !DIExpression()), !dbg !1960
  %2 = icmp sgt i32 %0, 256, !dbg !1961
  br i1 %2, label %6, label %3, !dbg !1961

3:                                                ; preds = %1
  %4 = icmp sgt i32 %0, 1, !dbg !1962
  %5 = select i1 %4, i32 %0, i32 1, !dbg !1962
  ret i32 %5, !dbg !1962

6:                                                ; preds = %1
  call void @llvm.dbg.value(metadata i32 256, metadata !1959, metadata !DIExpression()), !dbg !1960
  ret i32 256, !dbg !1964
}

; Function Attrs: nounwind mustprogress
define weak dso_local i32 @"?default_desired_num_threads@Internal@Runtime@Halide@@YAHXZ"() local_unnamed_addr #0 !dbg !1965 {
  call void @llvm.dbg.value(metadata i32 0, metadata !1967, metadata !DIExpression()), !dbg !1969
  %1 = tail call i8* @getenv(i8* getelementptr inbounds ([15 x i8], [15 x i8]* @"??_C@_0P@MMIMHEHB@HL_NUM_THREADS?$AA@", i32 0, i32 0)) #6, !dbg !1970
  call void @llvm.dbg.value(metadata i8* %1, metadata !1968, metadata !DIExpression()), !dbg !1969
  %2 = icmp eq i8* %1, null, !dbg !1971
  br i1 %2, label %3, label %6, !dbg !1971

3:                                                ; preds = %0
  %4 = tail call i8* @getenv(i8* getelementptr inbounds ([14 x i8], [14 x i8]* @"??_C@_0O@HDNCLFFD@HL_NUMTHREADS?$AA@", i32 0, i32 0)) #6, !dbg !1972
  call void @llvm.dbg.value(metadata i8* %4, metadata !1968, metadata !DIExpression()), !dbg !1969
  %5 = icmp eq i8* %4, null, !dbg !1975
  br i1 %5, label %9, label %6, !dbg !1975

6:                                                ; preds = %0, %3
  %7 = phi i8* [ %4, %3 ], [ %1, %0 ]
  %8 = tail call i32 @atoi(i8* nonnull %7) #6, !dbg !1976
  call void @llvm.dbg.value(metadata i32 %8, metadata !1967, metadata !DIExpression()), !dbg !1969
  br label %11, !dbg !1979

9:                                                ; preds = %3
  %10 = tail call i32 @halide_host_cpu_count() #8, !dbg !1980
  call void @llvm.dbg.value(metadata i32 %10, metadata !1967, metadata !DIExpression()), !dbg !1969
  br label %11, !dbg !1982

11:                                               ; preds = %9, %6
  %12 = phi i32 [ %8, %6 ], [ %10, %9 ], !dbg !1983
  call void @llvm.dbg.value(metadata i32 %12, metadata !1967, metadata !DIExpression()), !dbg !1969
  ret i32 %12, !dbg !1984
}

; Function Attrs: nounwind mustprogress
define weak dso_local void @"?worker_thread_already_locked@Internal@Runtime@Halide@@YAXPAUwork@123@@Z"(%"struct.Halide::Runtime::Internal::work"* %0) local_unnamed_addr #0 !dbg !1985 {
  call void @llvm.dbg.value(metadata %"struct.Halide::Runtime::Internal::work"* %0, metadata !1989, metadata !DIExpression()), !dbg !2015
  call void @llvm.dbg.value(metadata i32 0, metadata !1990, metadata !DIExpression()), !dbg !2015
  call void @llvm.dbg.value(metadata i32 40, metadata !1991, metadata !DIExpression()), !dbg !2015
  %2 = getelementptr inbounds %"struct.Halide::Runtime::Internal::work", %"struct.Halide::Runtime::Internal::work"* %0, i32 0, i32 8, !dbg !2016
  %3 = icmp eq %"struct.Halide::Runtime::Internal::work"* %0, null
  %4 = getelementptr inbounds %"struct.Halide::Runtime::Internal::work", %"struct.Halide::Runtime::Internal::work"* %0, i32 0, i32 0, i32 6
  %5 = getelementptr inbounds %"struct.Halide::Runtime::Internal::work", %"struct.Halide::Runtime::Internal::work"* %0, i32 0, i32 9
  %6 = getelementptr inbounds %"struct.Halide::Runtime::Internal::work", %"struct.Halide::Runtime::Internal::work"* %0, i32 0, i32 5
  %7 = getelementptr inbounds %"struct.Halide::Runtime::Internal::work", %"struct.Halide::Runtime::Internal::work"* %0, i32 0, i32 3
  %8 = getelementptr inbounds %"struct.Halide::Runtime::Internal::work", %"struct.Halide::Runtime::Internal::work"* %0, i32 0, i32 11
  %9 = getelementptr inbounds %"struct.Halide::Runtime::Internal::work", %"struct.Halide::Runtime::Internal::work"* %0, i32 0, i32 2
  br label %10, !dbg !2022

10:                                               ; preds = %388, %1
  %11 = phi i32 [ 0, %1 ], [ %389, %388 ], !dbg !2023
  call void @llvm.dbg.value(metadata i32 %11, metadata !1990, metadata !DIExpression()), !dbg !2015
  br i1 %3, label %15, label %12, !dbg !2022

12:                                               ; preds = %10
  call void @llvm.dbg.value(metadata %"struct.Halide::Runtime::Internal::work"* %0, metadata !2019, metadata !DIExpression()), !dbg !2024
  %13 = load i32, i32* %4, align 4, !dbg !2016, !tbaa !2025
  %14 = icmp eq i32 %13, 0, !dbg !2016
  br i1 %14, label %18, label %21, !dbg !2016

15:                                               ; preds = %10
  %16 = load i8, i8* getelementptr inbounds (%"struct.Halide::Runtime::Internal::work_queue_t", %"struct.Halide::Runtime::Internal::work_queue_t"* @"?work_queue@Internal@Runtime@Halide@@3Uwork_queue_t@123@A", i32 0, i32 13), align 4, !dbg !2022, !tbaa !2028, !range !580
  %17 = icmp eq i8 %16, 0, !dbg !2022
  br i1 %17, label %50, label %403, !dbg !2022

18:                                               ; preds = %12
  %19 = load i32, i32* %2, align 4, !dbg !2016, !tbaa !2032
  %20 = icmp eq i32 %19, 0, !dbg !2016
  br i1 %20, label %403, label %21, !dbg !2022

21:                                               ; preds = %12, %18
  %22 = load %"struct.Halide::Runtime::Internal::work"*, %"struct.Halide::Runtime::Internal::work"** getelementptr inbounds (%"struct.Halide::Runtime::Internal::work_queue_t", %"struct.Halide::Runtime::Internal::work_queue_t"* @"?work_queue@Internal@Runtime@Halide@@3Uwork_queue_t@123@A", i32 0, i32 3), align 4, !dbg !2033, !tbaa !2034
  call void @llvm.dbg.value(metadata %"struct.Halide::Runtime::Internal::work"* %51, metadata !1993, metadata !DIExpression()), !dbg !2035
  call void @llvm.dbg.value(metadata %"struct.Halide::Runtime::Internal::work"** getelementptr inbounds (%"struct.Halide::Runtime::Internal::work_queue_t", %"struct.Halide::Runtime::Internal::work_queue_t"* @"?work_queue@Internal@Runtime@Halide@@3Uwork_queue_t@123@A", i32 0, i32 3), metadata !1995, metadata !DIExpression()), !dbg !2035
  %23 = load i32, i32* %5, align 4, !dbg !2036, !tbaa !2039
  %24 = icmp eq i32 %23, 0, !dbg !2036
  br i1 %24, label %40, label %25, !dbg !2036

25:                                               ; preds = %21
  %26 = load i32, i32* %2, align 4, !dbg !2040, !tbaa !2032
  %27 = icmp eq i32 %26, 0, !dbg !2040
  br i1 %27, label %28, label %48, !dbg !2040

28:                                               ; preds = %25
  call void @llvm.dbg.value(metadata %"struct.Halide::Runtime::Internal::work"* %22, metadata !1993, metadata !DIExpression()), !dbg !2035
  call void @llvm.dbg.value(metadata %"struct.Halide::Runtime::Internal::work"** getelementptr inbounds (%"struct.Halide::Runtime::Internal::work_queue_t", %"struct.Halide::Runtime::Internal::work_queue_t"* @"?work_queue@Internal@Runtime@Halide@@3Uwork_queue_t@123@A", i32 0, i32 3), metadata !1995, metadata !DIExpression()), !dbg !2035
  %29 = icmp eq %"struct.Halide::Runtime::Internal::work"* %22, %0, !dbg !2043
  br i1 %29, label %37, label %30, !dbg !2043

30:                                               ; preds = %28, %30
  %31 = phi %"struct.Halide::Runtime::Internal::work"* [ %33, %30 ], [ %22, %28 ]
  call void @llvm.dbg.value(metadata %"struct.Halide::Runtime::Internal::work"* %31, metadata !1993, metadata !DIExpression()), !dbg !2035
  %32 = getelementptr inbounds %"struct.Halide::Runtime::Internal::work", %"struct.Halide::Runtime::Internal::work"* %31, i32 0, i32 2, !dbg !2046
  call void @llvm.dbg.value(metadata %"struct.Halide::Runtime::Internal::work"** %32, metadata !1995, metadata !DIExpression()), !dbg !2035
  %33 = load %"struct.Halide::Runtime::Internal::work"*, %"struct.Halide::Runtime::Internal::work"** %32, align 4, !dbg !2048, !tbaa !2049
  call void @llvm.dbg.value(metadata %"struct.Halide::Runtime::Internal::work"* %33, metadata !1993, metadata !DIExpression()), !dbg !2035
  %34 = icmp eq %"struct.Halide::Runtime::Internal::work"* %33, %0, !dbg !2043
  br i1 %34, label %35, label %30, !dbg !2043, !llvm.loop !2050

35:                                               ; preds = %30
  %36 = getelementptr inbounds %"struct.Halide::Runtime::Internal::work", %"struct.Halide::Runtime::Internal::work"* %31, i32 0, i32 2, !dbg !2046
  br label %37, !dbg !2052

37:                                               ; preds = %35, %28
  %38 = phi %"struct.Halide::Runtime::Internal::work"** [ getelementptr inbounds (%"struct.Halide::Runtime::Internal::work_queue_t", %"struct.Halide::Runtime::Internal::work_queue_t"* @"?work_queue@Internal@Runtime@Halide@@3Uwork_queue_t@123@A", i32 0, i32 3), %28 ], [ %36, %35 ], !dbg !2035
  %39 = load %"struct.Halide::Runtime::Internal::work"*, %"struct.Halide::Runtime::Internal::work"** %9, align 4, !dbg !2052, !tbaa !2049
  store %"struct.Halide::Runtime::Internal::work"* %39, %"struct.Halide::Runtime::Internal::work"** %38, align 4, !dbg !2052, !tbaa !880
  store i32 0, i32* %4, align 4, !dbg !2053, !tbaa !2025
  br label %388, !dbg !2054

40:                                               ; preds = %21
  %41 = load %"struct.Halide::Runtime::Internal::work"*, %"struct.Halide::Runtime::Internal::work"** %6, align 4, !dbg !2055, !tbaa !2056
  %42 = icmp eq %"struct.Halide::Runtime::Internal::work"* %41, null, !dbg !2055
  br i1 %42, label %48, label %43, !dbg !2055

43:                                               ; preds = %40
  %44 = getelementptr inbounds %"struct.Halide::Runtime::Internal::work", %"struct.Halide::Runtime::Internal::work"* %41, i32 0, i32 9, !dbg !2055
  %45 = load i32, i32* %44, align 4, !dbg !2055, !tbaa !2039
  %46 = icmp eq i32 %45, 0, !dbg !2055
  br i1 %46, label %48, label %47, !dbg !2055

47:                                               ; preds = %43
  store i32 %45, i32* %5, align 4, !dbg !2057, !tbaa !2039
  tail call void @halide_cond_broadcast(%struct.halide_cond* getelementptr inbounds (%"struct.Halide::Runtime::Internal::work_queue_t", %"struct.Halide::Runtime::Internal::work_queue_t"* @"?work_queue@Internal@Runtime@Halide@@3Uwork_queue_t@123@A", i32 0, i32 9)) #8, !dbg !2060
  br label %388, !dbg !2061

48:                                               ; preds = %25, %43, %40
  call void @llvm.dbg.value(metadata %"struct.Halide::Runtime::Internal::work"* %22, metadata !1993, metadata !DIExpression()), !dbg !2035
  call void @llvm.dbg.value(metadata %"struct.Halide::Runtime::Internal::work"** getelementptr inbounds (%"struct.Halide::Runtime::Internal::work_queue_t", %"struct.Halide::Runtime::Internal::work_queue_t"* @"?work_queue@Internal@Runtime@Halide@@3Uwork_queue_t@123@A", i32 0, i32 3), metadata !1995, metadata !DIExpression()), !dbg !2035
  %49 = icmp eq %"struct.Halide::Runtime::Internal::work"* %22, null, !dbg !2062
  br i1 %49, label %190, label %53, !dbg !2062

50:                                               ; preds = %15
  %51 = load %"struct.Halide::Runtime::Internal::work"*, %"struct.Halide::Runtime::Internal::work"** getelementptr inbounds (%"struct.Halide::Runtime::Internal::work_queue_t", %"struct.Halide::Runtime::Internal::work_queue_t"* @"?work_queue@Internal@Runtime@Halide@@3Uwork_queue_t@123@A", i32 0, i32 3), align 4, !dbg !2033, !tbaa !2034
  call void @llvm.dbg.value(metadata %"struct.Halide::Runtime::Internal::work"* %22, metadata !1993, metadata !DIExpression()), !dbg !2035
  call void @llvm.dbg.value(metadata %"struct.Halide::Runtime::Internal::work"** getelementptr inbounds (%"struct.Halide::Runtime::Internal::work_queue_t", %"struct.Halide::Runtime::Internal::work_queue_t"* @"?work_queue@Internal@Runtime@Halide@@3Uwork_queue_t@123@A", i32 0, i32 3), metadata !1995, metadata !DIExpression()), !dbg !2035
  %52 = icmp eq %"struct.Halide::Runtime::Internal::work"* %51, null, !dbg !2062
  br i1 %52, label %200, label %54, !dbg !2062

53:                                               ; preds = %48
  br i1 %3, label %54, label %119, !dbg !2062

54:                                               ; preds = %50, %53
  %55 = phi %"struct.Halide::Runtime::Internal::work"* [ %51, %50 ], [ %22, %53 ]
  br label %56, !dbg !2063

56:                                               ; preds = %54, %115
  %57 = phi %"struct.Halide::Runtime::Internal::work"* [ %117, %115 ], [ %55, %54 ]
  %58 = phi %"struct.Halide::Runtime::Internal::work"** [ %116, %115 ], [ getelementptr inbounds (%"struct.Halide::Runtime::Internal::work_queue_t", %"struct.Halide::Runtime::Internal::work_queue_t"* @"?work_queue@Internal@Runtime@Halide@@3Uwork_queue_t@123@A", i32 0, i32 3), %54 ]
  call void @llvm.dbg.value(metadata %"struct.Halide::Runtime::Internal::work"* %57, metadata !1993, metadata !DIExpression()), !dbg !2035
  call void @llvm.dbg.value(metadata %"struct.Halide::Runtime::Internal::work"** %58, metadata !1995, metadata !DIExpression()), !dbg !2035
  %59 = getelementptr inbounds %"struct.Halide::Runtime::Internal::work", %"struct.Halide::Runtime::Internal::work"* %57, i32 0, i32 5, !dbg !2064
  %60 = load %"struct.Halide::Runtime::Internal::work"*, %"struct.Halide::Runtime::Internal::work"** %59, align 4, !dbg !2064, !tbaa !2056
  call void @llvm.dbg.value(metadata %"struct.Halide::Runtime::Internal::work"* %60, metadata !1999, metadata !DIExpression()), !dbg !2065
  %61 = icmp eq %"struct.Halide::Runtime::Internal::work"* %60, null, !dbg !2063
  br i1 %61, label %73, label %62, !dbg !2063

62:                                               ; preds = %56
  %63 = getelementptr inbounds %"struct.Halide::Runtime::Internal::work", %"struct.Halide::Runtime::Internal::work"* %60, i32 0, i32 8, !dbg !2066
  %64 = load i32, i32* %63, align 4, !dbg !2066, !tbaa !2032
  %65 = icmp eq i32 %64, 0, !dbg !2066
  %66 = getelementptr inbounds %"struct.Halide::Runtime::Internal::work", %"struct.Halide::Runtime::Internal::work"* %60, i32 0, i32 0, i32 7, !dbg !2069
  %67 = load i32, i32* %66, align 4, !dbg !2069, !tbaa !2071
  br i1 %65, label %71, label %68, !dbg !2066

68:                                               ; preds = %62
  %69 = mul nsw i32 %67, %64, !dbg !2072
  %70 = getelementptr inbounds %"struct.Halide::Runtime::Internal::work", %"struct.Halide::Runtime::Internal::work"* %60, i32 0, i32 6, !dbg !2072
  call void @llvm.dbg.value(metadata i32 undef, metadata !2000, metadata !DIExpression()), !dbg !2065
  br label %76, !dbg !2074

71:                                               ; preds = %62
  %72 = getelementptr inbounds %"struct.Halide::Runtime::Internal::work", %"struct.Halide::Runtime::Internal::work"* %60, i32 0, i32 6, !dbg !2075
  call void @llvm.dbg.value(metadata i32 undef, metadata !2000, metadata !DIExpression()), !dbg !2065
  br label %76, !dbg !2077

73:                                               ; preds = %56
  %74 = load i32, i32* getelementptr inbounds (%"struct.Halide::Runtime::Internal::work_queue_t", %"struct.Halide::Runtime::Internal::work_queue_t"* @"?work_queue@Internal@Runtime@Halide@@3Uwork_queue_t@123@A", i32 0, i32 4), align 4, !dbg !2078, !tbaa !2080
  %75 = add nsw i32 %74, 1, !dbg !2078
  call void @llvm.dbg.value(metadata i32 %80, metadata !2000, metadata !DIExpression()), !dbg !2065
  br label %76, !dbg !2081

76:                                               ; preds = %73, %71, %68
  %77 = phi i32* [ getelementptr inbounds (%"struct.Halide::Runtime::Internal::work_queue_t", %"struct.Halide::Runtime::Internal::work_queue_t"* @"?work_queue@Internal@Runtime@Halide@@3Uwork_queue_t@123@A", i32 0, i32 15), %73 ], [ %72, %71 ], [ %70, %68 ]
  %78 = phi i32 [ %75, %73 ], [ %67, %71 ], [ %69, %68 ]
  %79 = load i32, i32* %77, align 4, !dbg !2082, !tbaa !468
  %80 = sub i32 %78, %79, !dbg !2082
  call void @llvm.dbg.value(metadata i32 %80, metadata !2000, metadata !DIExpression()), !dbg !2065
  %81 = getelementptr inbounds %"struct.Halide::Runtime::Internal::work", %"struct.Halide::Runtime::Internal::work"* %57, i32 0, i32 0, i32 7, !dbg !2083
  %82 = load i32, i32* %81, align 4, !dbg !2083, !tbaa !2071
  %83 = icmp sge i32 %80, %82, !dbg !2083
  call void @llvm.dbg.value(metadata i1 %83, metadata !1997, metadata !DIExpression(DW_OP_LLVM_convert, 1, DW_ATE_unsigned, DW_OP_LLVM_convert, 8, DW_ATE_unsigned, DW_OP_stack_value)), !dbg !2065
  call void @llvm.dbg.value(metadata i1 true, metadata !2001, metadata !DIExpression(DW_OP_LLVM_convert, 1, DW_ATE_unsigned, DW_OP_LLVM_convert, 8, DW_ATE_unsigned, DW_OP_stack_value)), !dbg !2065
  %84 = getelementptr inbounds %"struct.Halide::Runtime::Internal::work", %"struct.Halide::Runtime::Internal::work"* %57, i32 0, i32 0, i32 8, !dbg !2084
  %85 = load i8, i8* %84, align 4, !dbg !2084, !tbaa !2085, !range !580
  %86 = icmp eq i8 %85, 0, !dbg !2084
  br i1 %86, label %91, label %87, !dbg !2084

87:                                               ; preds = %76
  %88 = getelementptr inbounds %"struct.Halide::Runtime::Internal::work", %"struct.Halide::Runtime::Internal::work"* %57, i32 0, i32 8, !dbg !2084
  %89 = load i32, i32* %88, align 4, !dbg !2084, !tbaa !2032
  %90 = icmp eq i32 %89, 0, !dbg !2084
  br label %91, !dbg !2084

91:                                               ; preds = %87, %76
  %92 = phi i1 [ true, %76 ], [ %90, %87 ]
  call void @llvm.dbg.value(metadata i1 %92, metadata !2002, metadata !DIExpression(DW_OP_LLVM_convert, 1, DW_ATE_unsigned, DW_OP_LLVM_convert, 8, DW_ATE_unsigned, DW_OP_stack_value)), !dbg !2065
  %93 = and i1 %92, %83, !dbg !2086
  br i1 %93, label %94, label %115, !dbg !2086

94:                                               ; preds = %91
