; ModuleID = '/media/maaz/Data/Repos/rake/Halide-master-d48fbde/src/runtime/opencl.cpp'
source_filename = "/media/maaz/Data/Repos/rake/Halide-master-d48fbde/src/runtime/opencl.cpp"
target datalayout = "e-m:e-v128:32-v16:16-v32:32-v96:32-n8:16:32:64-S128"
target triple = "le64-unknown-unknown-unknown"

%struct._cl_platform_id = type opaque
%struct._cl_device_id = type opaque
%struct._cl_context = type opaque
%struct._cl_command_queue = type opaque
%struct._cl_mem = type opaque
%struct._cl_image_format = type { i32, i32 }
%struct._cl_image_desc = type { i32, [4 x i8], i64, i64, i64, i64, i64, i64, i32, i32, %struct._cl_mem* }
%struct._cl_program = type opaque
%struct._cl_kernel = type opaque
%struct._cl_event = type opaque
%"class.Halide::Internal::GPUCompilationCache" = type { %struct.halide_mutex, i32, %"struct.Halide::Internal::GPUCompilationCache<_cl_context *, _cl_program *>::CachedCompilation"*, i32, i32 }
%struct.halide_mutex = type { [1 x i64] }
%"struct.Halide::Internal::GPUCompilationCache<_cl_context *, _cl_program *>::CachedCompilation" = type { %struct._cl_context*, %struct._cl_program*, i32, i32 }
%struct.halide_device_interface_t = type { i32 (i8*, %struct.halide_buffer_t*, %struct.halide_device_interface_t*)*, i32 (i8*, %struct.halide_buffer_t*)*, i32 (i8*, %struct.halide_buffer_t*)*, void (i8*, %struct.halide_device_interface_t*)*, i32 (i8*, %struct.halide_buffer_t*)*, i32 (i8*, %struct.halide_buffer_t*, %struct.halide_device_interface_t*)*, i32 (i8*, %struct.halide_buffer_t*, %struct.halide_device_interface_t*)*, i32 (i8*, %struct.halide_buffer_t*)*, i32 (i8*, %struct.halide_buffer_t*, %struct.halide_device_interface_t*, %struct.halide_buffer_t*)*, i32 (i8*, %struct.halide_buffer_t*, %struct.halide_buffer_t*)*, i32 (i8*, %struct.halide_buffer_t*, i32, i32, %struct.halide_buffer_t*)*, i32 (i8*, %struct.halide_buffer_t*)*, i32 (i8*, %struct.halide_buffer_t*, i64, %struct.halide_device_interface_t*)*, i32 (i8*, %struct.halide_buffer_t*)*, i32 (i8*, i32*, i32*)*, %struct.halide_device_interface_impl_t* }
%struct.halide_buffer_t = type { i64, %struct.halide_device_interface_t*, i8*, i64, %struct.halide_type_t, i32, %struct.halide_dimension_t*, i8* }
%struct.halide_type_t = type { i8, i8, i16 }
%struct.halide_dimension_t = type { i32, i32, i32, i32 }
%struct.halide_device_interface_impl_t = type { void ()*, void ()*, i32 (i8*, %struct.halide_buffer_t*)*, i32 (i8*, %struct.halide_buffer_t*)*, i32 (i8*, %struct.halide_buffer_t*)*, i32 (i8*)*, i32 (i8*, %struct.halide_buffer_t*)*, i32 (i8*, %struct.halide_buffer_t*)*, i32 (i8*, %struct.halide_buffer_t*)*, i32 (i8*, %struct.halide_buffer_t*)*, i32 (i8*, %struct.halide_buffer_t*, %struct.halide_device_interface_t*, %struct.halide_buffer_t*)*, i32 (i8*, %struct.halide_buffer_t*, %struct.halide_buffer_t*)*, i32 (i8*, %struct.halide_buffer_t*, i32, i32, %struct.halide_buffer_t*)*, i32 (i8*, %struct.halide_buffer_t*)*, i32 (i8*, %struct.halide_buffer_t*, i64)*, i32 (i8*, %struct.halide_buffer_t*)* }
%"struct.Halide::Runtime::Internal::device_copy" = type { i64, i64, i64, [16 x i64], [16 x i64], [16 x i64], i64 }
%"class.Halide::Runtime::Internal::(anonymous namespace)::Printer" = type <{ i8*, i8*, i8*, i8*, i8, [1 x i8], [6 x i8] }>
%"class.Halide::Runtime::Internal::(anonymous namespace)::Printer.0" = type <{ i8*, i8*, i8*, i8*, i8, [1 x i8], [6 x i8] }>
%"struct.Halide::Runtime::Internal::ScopedSpinLock" = type { i8* }
%struct.anon = type { i8*, i64, i32, [4 x i8] }
%"struct.Halide::Runtime::Internal::OpenCL::device_handle" = type { i64, %struct._cl_mem* }
%"class.Halide::Runtime::Internal::(anonymous namespace)::Printer.2" = type <{ i8*, i8*, i8*, i8*, i8, [1 x i8], [6 x i8] }>
%"class.Halide::Runtime::Internal::(anonymous namespace)::Printer.4" = type <{ i8*, i8*, i8*, i8*, i8, [1 x i8], [6 x i8] }>
%"class.Halide::Runtime::Internal::OpenCL::ClContext" = type <{ i8*, %struct._cl_context*, %struct._cl_command_queue*, i32, [4 x i8] }>
%"struct.Halide::Runtime::Internal::ScopedMutexLock" = type { %struct.halide_mutex* }
%struct._cl_buffer_region = type { i64, i64 }

$_ZN6Halide8Internal19GPUCompilationCacheIP11_cl_contextP11_cl_programE18kernel_state_setupIPFS5_PvS3_PKciEJS8_S3_SA_iEEEbS8_PS8_S3_RS5_T_DpT0_ = comdat any

$_ZN6Halide8Internal19GPUCompilationCacheIP11_cl_contextP11_cl_programE6insertERKNS6_17CachedCompilationE = comdat any

$_ZN6Halide8Internal19GPUCompilationCacheIP11_cl_contextP11_cl_programE12resize_tableEi = comdat any

$_ZN6Halide8Internal19GPUCompilationCacheIP11_cl_contextP11_cl_programE15release_contextIPFiS5_EEEvPvbS3_RT_ = comdat any

$_ZGVN6Halide7Runtime8Internal6OpenCL17compilation_cacheE = comdat any

@.str = private unnamed_addr constant [55 x i8] c"copy_memory: no copy needed as pointers are the same.\0A\00", align 1
@_ZN6Halide7Runtime8Internal6OpenCL16clGetPlatformIDsE = weak dso_local local_unnamed_addr global i32 (i32, %struct._cl_platform_id**, i32*)* null, align 8, !dbg !0
@_ZN6Halide7Runtime8Internal6OpenCL17clGetPlatformInfoE = weak dso_local local_unnamed_addr global i32 (%struct._cl_platform_id*, i32, i64, i8*, i64*)* null, align 8, !dbg !23
@_ZN6Halide7Runtime8Internal6OpenCL14clGetDeviceIDsE = weak dso_local local_unnamed_addr global i32 (%struct._cl_platform_id*, i64, i32, %struct._cl_device_id**, i32*)* null, align 8, !dbg !33
@_ZN6Halide7Runtime8Internal6OpenCL15clGetDeviceInfoE = weak dso_local local_unnamed_addr global i32 (%struct._cl_device_id*, i32, i64, i8*, i64*)* null, align 8, !dbg !47
@_ZN6Halide7Runtime8Internal6OpenCL18clCreateSubDevicesE = weak dso_local local_unnamed_addr global i32 (%struct._cl_device_id*, i64*, i32, %struct._cl_device_id**, i32*)* null, align 8, !dbg !53
@_ZN6Halide7Runtime8Internal6OpenCL14clRetainDeviceE = weak dso_local local_unnamed_addr global i32 (%struct._cl_device_id*)* null, align 8, !dbg !64
@_ZN6Halide7Runtime8Internal6OpenCL15clReleaseDeviceE = weak dso_local local_unnamed_addr global i32 (%struct._cl_device_id*)* null, align 8, !dbg !69
@_ZN6Halide7Runtime8Internal6OpenCL15clCreateContextE = weak dso_local local_unnamed_addr global %struct._cl_context* (i64*, i32, %struct._cl_device_id**, void (i8*, i8*, i64, i8*)*, i8*, i32*)* null, align 8, !dbg !71
@_ZN6Halide7Runtime8Internal6OpenCL23clCreateContextFromTypeE = weak dso_local local_unnamed_addr global %struct._cl_context* (i64*, i64, void (i8*, i8*, i64, i8*)*, i8*, i32*)* null, align 8, !dbg !93
@_ZN6Halide7Runtime8Internal6OpenCL15clRetainContextE = weak dso_local local_unnamed_addr global i32 (%struct._cl_context*)* null, align 8, !dbg !98
@_ZN6Halide7Runtime8Internal6OpenCL16clReleaseContextE = weak dso_local local_unnamed_addr global i32 (%struct._cl_context*)* null, align 8, !dbg !103
@_ZN6Halide7Runtime8Internal6OpenCL16clGetContextInfoE = weak dso_local local_unnamed_addr global i32 (%struct._cl_context*, i32, i64, i8*, i64*)* null, align 8, !dbg !105
@_ZN6Halide7Runtime8Internal6OpenCL20clCreateCommandQueueE = weak dso_local local_unnamed_addr global %struct._cl_command_queue* (%struct._cl_context*, %struct._cl_device_id*, i64, i32*)* null, align 8, !dbg !111
@_ZN6Halide7Runtime8Internal6OpenCL20clRetainCommandQueueE = weak dso_local local_unnamed_addr global i32 (%struct._cl_command_queue*)* null, align 8, !dbg !120
@_ZN6Halide7Runtime8Internal6OpenCL21clReleaseCommandQueueE = weak dso_local local_unnamed_addr global i32 (%struct._cl_command_queue*)* null, align 8, !dbg !125
@_ZN6Halide7Runtime8Internal6OpenCL21clGetCommandQueueInfoE = weak dso_local local_unnamed_addr global i32 (%struct._cl_command_queue*, i32, i64, i8*, i64*)* null, align 8, !dbg !127
@_ZN6Halide7Runtime8Internal6OpenCL14clCreateBufferE = weak dso_local local_unnamed_addr global %struct._cl_mem* (%struct._cl_context*, i64, i64, i8*, i32*)* null, align 8, !dbg !133
@_ZN6Halide7Runtime8Internal6OpenCL17clCreateSubBufferE = weak dso_local local_unnamed_addr global %struct._cl_mem* (%struct._cl_mem*, i64, i32, i8*, i32*)* null, align 8, !dbg !142
@_ZN6Halide7Runtime8Internal6OpenCL13clCreateImageE = weak dso_local local_unnamed_addr global %struct._cl_mem* (%struct._cl_context*, i64, %struct._cl_image_format*, %struct._cl_image_desc*, i8*, i32*)* null, align 8, !dbg !148
@_ZN6Halide7Runtime8Internal6OpenCL17clRetainMemObjectE = weak dso_local local_unnamed_addr global i32 (%struct._cl_mem*)* null, align 8, !dbg !178
@_ZN6Halide7Runtime8Internal6OpenCL18clReleaseMemObjectE = weak dso_local local_unnamed_addr global i32 (%struct._cl_mem*)* null, align 8, !dbg !183
@_ZN6Halide7Runtime8Internal6OpenCL26clGetSupportedImageFormatsE = weak dso_local local_unnamed_addr global i32 (%struct._cl_context*, i64, i32, i32, %struct._cl_image_format*, i32*)* null, align 8, !dbg !185
@_ZN6Halide7Runtime8Internal6OpenCL18clGetMemObjectInfoE = weak dso_local local_unnamed_addr global i32 (%struct._cl_mem*, i32, i64, i8*, i64*)* null, align 8, !dbg !191
@_ZN6Halide7Runtime8Internal6OpenCL14clGetImageInfoE = weak dso_local local_unnamed_addr global i32 (%struct._cl_mem*, i32, i64, i8*, i64*)* null, align 8, !dbg !197
@_ZN6Halide7Runtime8Internal6OpenCL32clSetMemObjectDestructorCallbackE = weak dso_local local_unnamed_addr global i32 (%struct._cl_mem*, void (%struct._cl_mem*, i8*)*, i8*)* null, align 8, !dbg !203
@_ZN6Halide7Runtime8Internal6OpenCL25clCreateProgramWithSourceE = weak dso_local local_unnamed_addr global %struct._cl_program* (%struct._cl_context*, i32, i8**, i64*, i32*)* null, align 8, !dbg !211
@_ZN6Halide7Runtime8Internal6OpenCL15clRetainProgramE = weak dso_local local_unnamed_addr global i32 (%struct._cl_program*)* null, align 8, !dbg !222
@_ZN6Halide7Runtime8Internal6OpenCL16clReleaseProgramE = weak dso_local global i32 (%struct._cl_program*)* null, align 8, !dbg !227
@_ZN6Halide7Runtime8Internal6OpenCL14clBuildProgramE = weak dso_local local_unnamed_addr global i32 (%struct._cl_program*, i32, %struct._cl_device_id**, i8*, void (%struct._cl_program*, i8*)*, i8*)* null, align 8, !dbg !229
@_ZN6Halide7Runtime8Internal6OpenCL21clGetProgramBuildInfoE = weak dso_local local_unnamed_addr global i32 (%struct._cl_program*, %struct._cl_device_id*, i32, i64, i8*, i64*)* null, align 8, !dbg !237
@_ZN6Halide7Runtime8Internal6OpenCL14clCreateKernelE = weak dso_local local_unnamed_addr global %struct._cl_kernel* (%struct._cl_program*, i8*, i32*)* null, align 8, !dbg !243
@_ZN6Halide7Runtime8Internal6OpenCL14clRetainKernelE = weak dso_local local_unnamed_addr global i32 (%struct._cl_kernel*)* null, align 8, !dbg !251
@_ZN6Halide7Runtime8Internal6OpenCL15clReleaseKernelE = weak dso_local local_unnamed_addr global i32 (%struct._cl_kernel*)* null, align 8, !dbg !256
@_ZN6Halide7Runtime8Internal6OpenCL14clSetKernelArgE = weak dso_local local_unnamed_addr global i32 (%struct._cl_kernel*, i32, i64, i8*)* null, align 8, !dbg !258
@_ZN6Halide7Runtime8Internal6OpenCL7clFlushE = weak dso_local local_unnamed_addr global i32 (%struct._cl_command_queue*)* null, align 8, !dbg !263
@_ZN6Halide7Runtime8Internal6OpenCL8clFinishE = weak dso_local local_unnamed_addr global i32 (%struct._cl_command_queue*)* null, align 8, !dbg !265
@_ZN6Halide7Runtime8Internal6OpenCL19clEnqueueReadBufferE = weak dso_local local_unnamed_addr global i32 (%struct._cl_command_queue*, %struct._cl_mem*, i32, i64, i64, i8*, i32, %struct._cl_event**, %struct._cl_event**)* null, align 8, !dbg !267
@_ZN6Halide7Runtime8Internal6OpenCL23clEnqueueReadBufferRectE = weak dso_local local_unnamed_addr global i32 (%struct._cl_command_queue*, %struct._cl_mem*, i32, i64*, i64*, i64*, i64, i64, i64, i64, i8*, i32, %struct._cl_event**, %struct._cl_event**)* null, align 8, !dbg !279
@_ZN6Halide7Runtime8Internal6OpenCL20clEnqueueWriteBufferE = weak dso_local local_unnamed_addr global i32 (%struct._cl_command_queue*, %struct._cl_mem*, i32, i64, i64, i8*, i32, %struct._cl_event**, %struct._cl_event**)* null, align 8, !dbg !284
@_ZN6Halide7Runtime8Internal6OpenCL24clEnqueueWriteBufferRectE = weak dso_local local_unnamed_addr global i32 (%struct._cl_command_queue*, %struct._cl_mem*, i32, i64*, i64*, i64*, i64, i64, i64, i64, i8*, i32, %struct._cl_event**, %struct._cl_event**)* null, align 8, !dbg !289
@_ZN6Halide7Runtime8Internal6OpenCL19clEnqueueCopyBufferE = weak dso_local local_unnamed_addr global i32 (%struct._cl_command_queue*, %struct._cl_mem*, %struct._cl_mem*, i64, i64, i64, i32, %struct._cl_event**, %struct._cl_event**)* null, align 8, !dbg !294
@_ZN6Halide7Runtime8Internal6OpenCL18clEnqueueReadImageE = weak dso_local local_unnamed_addr global i32 (%struct._cl_command_queue*, %struct._cl_mem*, i32, i64*, i64*, i64, i64, i8*, i32, %struct._cl_event**, %struct._cl_event**)* null, align 8, !dbg !299
@_ZN6Halide7Runtime8Internal6OpenCL19clEnqueueWriteImageE = weak dso_local local_unnamed_addr global i32 (%struct._cl_command_queue*, %struct._cl_mem*, i32, i64*, i64*, i64, i64, i8*, i32, %struct._cl_event**, %struct._cl_event**)* null, align 8, !dbg !304
@_ZN6Halide7Runtime8Internal6OpenCL18clEnqueueMapBufferE = weak dso_local local_unnamed_addr global i8* (%struct._cl_command_queue*, %struct._cl_mem*, i32, i64, i64, i64, i32, %struct._cl_event**, %struct._cl_event**, i32*)* null, align 8, !dbg !309
@_ZN6Halide7Runtime8Internal6OpenCL17clEnqueueMapImageE = weak dso_local local_unnamed_addr global i8* (%struct._cl_command_queue*, %struct._cl_mem*, i32, i64, i64*, i64*, i64*, i64*, i32, %struct._cl_event**, %struct._cl_event**, i32*)* null, align 8, !dbg !315
@_ZN6Halide7Runtime8Internal6OpenCL23clEnqueueUnmapMemObjectE = weak dso_local local_unnamed_addr global i32 (%struct._cl_command_queue*, %struct._cl_mem*, i8*, i32, %struct._cl_event**, %struct._cl_event**)* null, align 8, !dbg !320
@_ZN6Halide7Runtime8Internal6OpenCL22clEnqueueNDRangeKernelE = weak dso_local local_unnamed_addr global i32 (%struct._cl_command_queue*, %struct._cl_kernel*, i32, i64*, i64*, i64*, i32, %struct._cl_event**, %struct._cl_event**)* null, align 8, !dbg !325
@_ZN6Halide7Runtime8Internal6OpenCL10lib_openclE = weak dso_local local_unnamed_addr global i8* null, align 8, !dbg !330
@.str.1 = private unnamed_addr constant [13 x i8] c"libOpenCL.so\00", align 1
@.str.2 = private unnamed_addr constant [51 x i8] c"/System/Library/Frameworks/OpenCL.framework/OpenCL\00", align 1
@.str.3 = private unnamed_addr constant [36 x i8] c"    Loaded OpenCL runtime library: \00", align 1
@.str.4 = private unnamed_addr constant [2 x i8] c"\0A\00", align 1
@.str.5 = private unnamed_addr constant [35 x i8] c"    load_libopencl (user_context: \00", align 1
@.str.6 = private unnamed_addr constant [3 x i8] c")\0A\00", align 1
@.str.7 = private unnamed_addr constant [119 x i8] c"/media/maaz/Data/Repos/rake/Halide-master-d48fbde/src/runtime/opencl.cpp:67 Assert failed: clCreateContext == nullptr\0A\00", align 1
@.str.8 = private unnamed_addr constant [17 x i8] c"clGetPlatformIDs\00", align 1
@.str.9 = private unnamed_addr constant [18 x i8] c"clGetPlatformInfo\00", align 1
@.str.10 = private unnamed_addr constant [15 x i8] c"clGetDeviceIDs\00", align 1
@.str.11 = private unnamed_addr constant [16 x i8] c"clGetDeviceInfo\00", align 1
@.str.12 = private unnamed_addr constant [19 x i8] c"clCreateSubDevices\00", align 1
@.str.13 = private unnamed_addr constant [15 x i8] c"clRetainDevice\00", align 1
@.str.14 = private unnamed_addr constant [16 x i8] c"clReleaseDevice\00", align 1
@.str.15 = private unnamed_addr constant [16 x i8] c"clCreateContext\00", align 1
@.str.16 = private unnamed_addr constant [24 x i8] c"clCreateContextFromType\00", align 1
@.str.17 = private unnamed_addr constant [16 x i8] c"clRetainContext\00", align 1
@.str.18 = private unnamed_addr constant [17 x i8] c"clReleaseContext\00", align 1
@.str.19 = private unnamed_addr constant [17 x i8] c"clGetContextInfo\00", align 1
@.str.20 = private unnamed_addr constant [21 x i8] c"clCreateCommandQueue\00", align 1
@.str.21 = private unnamed_addr constant [21 x i8] c"clRetainCommandQueue\00", align 1
@.str.22 = private unnamed_addr constant [22 x i8] c"clReleaseCommandQueue\00", align 1
@.str.23 = private unnamed_addr constant [22 x i8] c"clGetCommandQueueInfo\00", align 1
@.str.24 = private unnamed_addr constant [15 x i8] c"clCreateBuffer\00", align 1
@.str.25 = private unnamed_addr constant [18 x i8] c"clCreateSubBuffer\00", align 1
@.str.26 = private unnamed_addr constant [14 x i8] c"clCreateImage\00", align 1
@.str.27 = private unnamed_addr constant [18 x i8] c"clRetainMemObject\00", align 1
@.str.28 = private unnamed_addr constant [19 x i8] c"clReleaseMemObject\00", align 1
@.str.29 = private unnamed_addr constant [27 x i8] c"clGetSupportedImageFormats\00", align 1
@.str.30 = private unnamed_addr constant [19 x i8] c"clGetMemObjectInfo\00", align 1
@.str.31 = private unnamed_addr constant [15 x i8] c"clGetImageInfo\00", align 1
@.str.32 = private unnamed_addr constant [33 x i8] c"clSetMemObjectDestructorCallback\00", align 1
@.str.33 = private unnamed_addr constant [26 x i8] c"clCreateProgramWithSource\00", align 1
@.str.34 = private unnamed_addr constant [16 x i8] c"clRetainProgram\00", align 1
@.str.35 = private unnamed_addr constant [17 x i8] c"clReleaseProgram\00", align 1
@.str.36 = private unnamed_addr constant [15 x i8] c"clBuildProgram\00", align 1
@.str.37 = private unnamed_addr constant [22 x i8] c"clGetProgramBuildInfo\00", align 1
@.str.38 = private unnamed_addr constant [15 x i8] c"clCreateKernel\00", align 1
@.str.39 = private unnamed_addr constant [15 x i8] c"clRetainKernel\00", align 1
@.str.40 = private unnamed_addr constant [16 x i8] c"clReleaseKernel\00", align 1
@.str.41 = private unnamed_addr constant [15 x i8] c"clSetKernelArg\00", align 1
@.str.42 = private unnamed_addr constant [8 x i8] c"clFlush\00", align 1
@.str.43 = private unnamed_addr constant [9 x i8] c"clFinish\00", align 1
@.str.44 = private unnamed_addr constant [20 x i8] c"clEnqueueReadBuffer\00", align 1
@.str.45 = private unnamed_addr constant [24 x i8] c"clEnqueueReadBufferRect\00", align 1
@.str.46 = private unnamed_addr constant [21 x i8] c"clEnqueueWriteBuffer\00", align 1
@.str.47 = private unnamed_addr constant [25 x i8] c"clEnqueueWriteBufferRect\00", align 1
@.str.48 = private unnamed_addr constant [20 x i8] c"clEnqueueCopyBuffer\00", align 1
@.str.49 = private unnamed_addr constant [19 x i8] c"clEnqueueReadImage\00", align 1
@.str.50 = private unnamed_addr constant [20 x i8] c"clEnqueueWriteImage\00", align 1
@.str.51 = private unnamed_addr constant [19 x i8] c"clEnqueueMapBuffer\00", align 1
@.str.52 = private unnamed_addr constant [18 x i8] c"clEnqueueMapImage\00", align 1
@.str.53 = private unnamed_addr constant [24 x i8] c"clEnqueueUnmapMemObject\00", align 1
@.str.54 = private unnamed_addr constant [23 x i8] c"clEnqueueNDRangeKernel\00", align 1
@_ZN6Halide7Runtime8Internal6OpenCL7contextE = weak dso_local global %struct._cl_context* null, align 8, !dbg !333
@_ZN6Halide7Runtime8Internal6OpenCL13command_queueE = weak dso_local global %struct._cl_command_queue* null, align 8, !dbg !335
@_ZN6Halide7Runtime8Internal6OpenCL11thread_lockE = weak dso_local global i8 0, align 1, !dbg !337
@_ZN6Halide7Runtime8Internal6OpenCL13platform_nameE = weak dso_local global [256 x i8] zeroinitializer, align 1, !dbg !354
@_ZN6Halide7Runtime8Internal6OpenCL18platform_name_lockE = weak dso_local global i8 0, align 1, !dbg !359
@_ZN6Halide7Runtime8Internal6OpenCL25platform_name_initializedE = weak dso_local local_unnamed_addr global i8 0, align 1, !dbg !361
@_ZN6Halide7Runtime8Internal6OpenCL11device_typeE = weak dso_local global [256 x i8] zeroinitializer, align 1, !dbg !364
@_ZN6Halide7Runtime8Internal6OpenCL16device_type_lockE = weak dso_local global i8 0, align 1, !dbg !366
@_ZN6Halide7Runtime8Internal6OpenCL23device_type_initializedE = weak dso_local local_unnamed_addr global i8 0, align 1, !dbg !368
@_ZN6Halide7Runtime8Internal6OpenCL13build_optionsE = weak dso_local global [1024 x i8] zeroinitializer, align 1, !dbg !370
@_ZN6Halide7Runtime8Internal6OpenCL18build_options_lockE = weak dso_local global i8 0, align 1, !dbg !375
@_ZN6Halide7Runtime8Internal6OpenCL25build_options_initializedE = weak dso_local local_unnamed_addr global i8 0, align 1, !dbg !377
@.str.55 = private unnamed_addr constant [108 x i8] c"/media/maaz/Data/Repos/rake/Halide-master-d48fbde/src/runtime/opencl.cpp:215 Assert failed: ctx != nullptr\0A\00", align 1
@.str.56 = private unnamed_addr constant [106 x i8] c"/media/maaz/Data/Repos/rake/Halide-master-d48fbde/src/runtime/opencl.cpp:216 Assert failed: q != nullptr\0A\00", align 1
@_ZN6Halide7Runtime8Internal6OpenCL17compilation_cacheE = weak dso_local global %"class.Halide::Internal::GPUCompilationCache" zeroinitializer, align 8, !dbg !379
@_ZGVN6Halide7Runtime8Internal6OpenCL17compilation_cacheE = weak dso_local local_unnamed_addr global i64 0, comdat, align 4
@.str.60 = private unnamed_addr constant [24 x i8] c"CL: Bad device pointer \00", align 1
@.str.61 = private unnamed_addr constant [31 x i8] c": clGetMemObjectInfo returned \00", align 1
@.str.62 = private unnamed_addr constant [14 x i8] c"CL: validate \00", align 1
@.str.63 = private unnamed_addr constant [10 x i8] c" offset: \00", align 1
@.str.64 = private unnamed_addr constant [13 x i8] c": asked for \00", align 1
@.str.65 = private unnamed_addr constant [20 x i8] c", actual allocated \00", align 1
@.str.66 = private unnamed_addr constant [169 x i8] c"/media/maaz/Data/Repos/rake/Halide-master-d48fbde/src/runtime/opencl.cpp:328 Assert failed: real_size >= (size + offset) && \22Validating pointer with insufficient size\22\0A\00", align 1
@.str.67 = private unnamed_addr constant [42 x i8] c"    create_opencl_context (user_context: \00", align 1
@.str.68 = private unnamed_addr constant [127 x i8] c"/media/maaz/Data/Repos/rake/Halide-master-d48fbde/src/runtime/opencl.cpp:339 Assert failed: ctx != nullptr && *ctx == nullptr\0A\00", align 1
@.str.69 = private unnamed_addr constant [123 x i8] c"/media/maaz/Data/Repos/rake/Halide-master-d48fbde/src/runtime/opencl.cpp:340 Assert failed: q != nullptr && *q == nullptr\0A\00", align 1
@.str.70 = private unnamed_addr constant [32 x i8] c"CL: clGetPlatformIDs not found\0A\00", align 1
@.str.71 = private unnamed_addr constant [30 x i8] c"CL: clGetPlatformIDs failed: \00", align 1
@.str.72 = private unnamed_addr constant [2 x i8] c" \00", align 1
@.str.73 = private unnamed_addr constant [14 x i8] c"CL: platform \00", align 1
@.str.74 = private unnamed_addr constant [29 x i8] c"CL: Failed to find platform\0A\00", align 1
@.str.75 = private unnamed_addr constant [49 x i8] c"    clGetPlatformInfo(CL_PLATFORM_NAME) failed: \00", align 1
@.str.76 = private unnamed_addr constant [19 x i8] c"    Got platform '\00", align 1
@.str.77 = private unnamed_addr constant [31 x i8] c"', about to create context (t=\00", align 1
@.str.78 = private unnamed_addr constant [4 x i8] c"cpu\00", align 1
@.str.79 = private unnamed_addr constant [4 x i8] c"gpu\00", align 1
@.str.80 = private unnamed_addr constant [4 x i8] c"acc\00", align 1
@.str.81 = private unnamed_addr constant [28 x i8] c"CL: clGetDeviceIDs failed: \00", align 1
@.str.82 = private unnamed_addr constant [74 x i8] c"    Multiple CL devices detected. Selecting the one with the most cores.\0A\00", align 1
@.str.83 = private unnamed_addr constant [36 x i8] c"      Failed to get info on device \00", align 1
@.str.84 = private unnamed_addr constant [14 x i8] c"      Device \00", align 1
@.str.85 = private unnamed_addr constant [6 x i8] c" has \00", align 1
@.str.86 = private unnamed_addr constant [8 x i8] c" cores\0A\00", align 1
@.str.87 = private unnamed_addr constant [21 x i8] c"    Selected device \00", align 1
@.str.88 = private unnamed_addr constant [27 x i8] c"CL: Failed to get device: \00", align 1
@.str.89 = private unnamed_addr constant [29 x i8] c"CL: clGetDeviceInfo failed: \00", align 1
@.str.90 = private unnamed_addr constant [20 x i8] c"      device name: \00", align 1
@.str.91 = private unnamed_addr constant [22 x i8] c"      device vendor: \00", align 1
@.str.92 = private unnamed_addr constant [23 x i8] c"      device profile: \00", align 1
@.str.93 = private unnamed_addr constant [24 x i8] c"      global mem size: \00", align 1
@.str.94 = private unnamed_addr constant [5 x i8] c" MB\0A\00", align 1
@.str.95 = private unnamed_addr constant [27 x i8] c"      max mem alloc size: \00", align 1
@.str.96 = private unnamed_addr constant [23 x i8] c"      local mem size: \00", align 1
@.str.97 = private unnamed_addr constant [26 x i8] c"      max compute units: \00", align 1
@.str.98 = private unnamed_addr constant [27 x i8] c"      max workgroup size: \00", align 1
@.str.99 = private unnamed_addr constant [33 x i8] c"      max work item dimensions: \00", align 1
@.str.100 = private unnamed_addr constant [28 x i8] c"      max work item sizes: \00", align 1
@.str.101 = private unnamed_addr constant [2 x i8] c"x\00", align 1
@.str.102 = private unnamed_addr constant [24 x i8] c"    clCreateContext -> \00", align 1
@.str.103 = private unnamed_addr constant [29 x i8] c"CL: clCreateContext failed: \00", align 1
@.str.104 = private unnamed_addr constant [2 x i8] c":\00", align 1
@.str.105 = private unnamed_addr constant [26 x i8] c"    clCreateCommandQueue \00", align 1
@.str.106 = private unnamed_addr constant [34 x i8] c"CL: clCreateCommandQueue failed: \00", align 1
@.str.107 = private unnamed_addr constant [50 x i8] c"CL: clGetContextInfo(CL_CONTEXT_DEVICES) failed: \00", align 1
@.str.108 = private unnamed_addr constant [66 x i8] c"CL: clGetDeviceInfo (CL_DEVICE_MAX_CONSTANT_BUFFER_SIZE) failed: \00", align 1
@.str.109 = private unnamed_addr constant [59 x i8] c"CL: clGetDeviceInfo (CL_DEVICE_MAX_CONSTANT_ARGS) failed: \00", align 1
@.str.110 = private unnamed_addr constant [29 x i8] c"-D MAX_CONSTANT_BUFFER_SIZE=\00", align 1
@.str.111 = private unnamed_addr constant [23 x i8] c" -D MAX_CONSTANT_ARGS=\00", align 1
@.str.112 = private unnamed_addr constant [34 x i8] c"    clCreateProgramWithSource -> \00", align 1
@.str.113 = private unnamed_addr constant [39 x i8] c"CL: clCreateProgramWithSource failed: \00", align 1
@.str.114 = private unnamed_addr constant [20 x i8] c"    clBuildProgram \00", align 1
@.str.115 = private unnamed_addr constant [28 x i8] c"CL: clBuildProgram failed: \00", align 1
@.str.116 = private unnamed_addr constant [13 x i8] c"\0ABuild Log:\0A\00", align 1
@.str.117 = private unnamed_addr constant [57 x i8] c"clGetProgramBuildInfo failed (Printer buffer too small?)\00", align 1
@.str.118 = private unnamed_addr constant [213 x i8] c"/media/maaz/Data/Repos/rake/Halide-master-d48fbde/src/runtime/opencl.cpp:653 Assert failed: (((device_handle *)buf->device)->offset == 0) && \22halide_opencl_device_free on buffer obtained from halide_device_crop\22\0A\00", align 1
@.str.119 = private unnamed_addr constant [46 x i8] c"CL: halide_opencl_device_free (user_context: \00", align 1
@.str.120 = private unnamed_addr constant [8 x i8] c", buf: \00", align 1
@.str.121 = private unnamed_addr constant [11 x i8] c") cl_mem: \00", align 1
@.str.122 = private unnamed_addr constant [136 x i8] c"/media/maaz/Data/Repos/rake/Halide-master-d48fbde/src/runtime/opencl.cpp:668 Assert failed: validate_device_pointer(user_context, buf)\0A\00", align 1
@.str.123 = private unnamed_addr constant [24 x i8] c"    clReleaseMemObject \00", align 1
@.str.124 = private unnamed_addr constant [11 x i8] c"    Time: \00", align 1
@.str.125 = private unnamed_addr constant [5 x i8] c" ms\0A\00", align 1
@.str.126 = private unnamed_addr constant [30 x i8] c"CL: clGetContextInfo failed: \00", align 1
@.str.127 = private unnamed_addr constant [53 x i8] c"CL: halide_opencl_initialize_kernels (user_context: \00", align 1
@.str.128 = private unnamed_addr constant [14 x i8] c", state_ptr: \00", align 1
@.str.129 = private unnamed_addr constant [12 x i8] c", program: \00", align 1
@.str.130 = private unnamed_addr constant [9 x i8] c", size: \00", align 1
@.str.131 = private unnamed_addr constant [61 x i8] c"halide_cuda_initialize_kernels got compilation_cache mutex.\0A\00", align 1
@.str.132 = private unnamed_addr constant [112 x i8] c"/media/maaz/Data/Repos/rake/Halide-master-d48fbde/src/runtime/opencl.cpp:762 Assert failed: program != nullptr\0A\00", align 1
@.str.133 = private unnamed_addr constant [51 x i8] c"CL: halide_opencl_finalize_kernels (user_context: \00", align 1
@.str.134 = private unnamed_addr constant [46 x i8] c"CL: halide_opencl_device_sync (user_context: \00", align 1
@.str.135 = private unnamed_addr constant [22 x i8] c"CL: clFinish failed: \00", align 1
@.str.136 = private unnamed_addr constant [49 x i8] c"CL: halide_opencl_device_release (user_context: \00", align 1
@.str.137 = private unnamed_addr constant [111 x i8] c"/media/maaz/Data/Repos/rake/Halide-master-d48fbde/src/runtime/opencl.cpp:825 Assert failed: err == CL_SUCCESS\0A\00", align 1
@.str.138 = private unnamed_addr constant [27 x i8] c"    clReleaseCommandQueue \00", align 1
@.str.139 = private unnamed_addr constant [111 x i8] c"/media/maaz/Data/Repos/rake/Halide-master-d48fbde/src/runtime/opencl.cpp:833 Assert failed: err == CL_SUCCESS\0A\00", align 1
@.str.140 = private unnamed_addr constant [22 x i8] c"    clReleaseContext \00", align 1
@.str.141 = private unnamed_addr constant [111 x i8] c"/media/maaz/Data/Repos/rake/Halide-master-d48fbde/src/runtime/opencl.cpp:838 Assert failed: err == CL_SUCCESS\0A\00", align 1
@.str.142 = private unnamed_addr constant [48 x i8] c"CL: halide_opencl_device_malloc (user_context: \00", align 1
@.str.143 = private unnamed_addr constant [103 x i8] c"/media/maaz/Data/Repos/rake/Halide-master-d48fbde/src/runtime/opencl.cpp:859 Assert failed: size != 0\0A\00", align 1
@.str.144 = private unnamed_addr constant [142 x i8] c"/media/maaz/Data/Repos/rake/Halide-master-d48fbde/src/runtime/opencl.cpp:861 Assert failed: validate_device_pointer(user_context, buf, size)\0A\00", align 1
@.str.145 = private unnamed_addr constant [117 x i8] c"/media/maaz/Data/Repos/rake/Halide-master-d48fbde/src/runtime/opencl.cpp:866 Assert failed: buf->dim[i].stride >= 0\0A\00", align 1
@.str.146 = private unnamed_addr constant [16 x i8] c"    allocating \00", align 1
@.str.147 = private unnamed_addr constant [23 x i8] c"    clCreateBuffer -> \00", align 1
@.str.148 = private unnamed_addr constant [28 x i8] c"CL: clCreateBuffer failed: \00", align 1
@.str.149 = private unnamed_addr constant [17 x i8] c" device_handle: \00", align 1
@_ZN6Halide7Runtime8Internal6OpenCL23opencl_device_interfaceE = weak dso_local global %struct.halide_device_interface_t { i32 (i8*, %struct.halide_buffer_t*, %struct.halide_device_interface_t*)* @halide_device_malloc, i32 (i8*, %struct.halide_buffer_t*)* @halide_device_free, i32 (i8*, %struct.halide_buffer_t*)* @halide_device_sync, void (i8*, %struct.halide_device_interface_t*)* @halide_device_release, i32 (i8*, %struct.halide_buffer_t*)* @halide_copy_to_host, i32 (i8*, %struct.halide_buffer_t*, %struct.halide_device_interface_t*)* @halide_copy_to_device, i32 (i8*, %struct.halide_buffer_t*, %struct.halide_device_interface_t*)* @halide_device_and_host_malloc, i32 (i8*, %struct.halide_buffer_t*)* @halide_device_and_host_free, i32 (i8*, %struct.halide_buffer_t*, %struct.halide_device_interface_t*, %struct.halide_buffer_t*)* @halide_buffer_copy, i32 (i8*, %struct.halide_buffer_t*, %struct.halide_buffer_t*)* @halide_device_crop, i32 (i8*, %struct.halide_buffer_t*, i32, i32, %struct.halide_buffer_t*)* @halide_device_slice, i32 (i8*, %struct.halide_buffer_t*)* @halide_device_release_crop, i32 (i8*, %struct.halide_buffer_t*, i64, %struct.halide_device_interface_t*)* @halide_device_wrap_native, i32 (i8*, %struct.halide_buffer_t*)* @halide_device_detach_native, i32 (i8*, i32*, i32*)* @halide_opencl_compute_capability, %struct.halide_device_interface_impl_t* @_ZN6Halide7Runtime8Internal6OpenCL28opencl_device_interface_implE }, align 8, !dbg !444
@.str.150 = private unnamed_addr constant [29 x i8] c"    Allocated device buffer \00", align 1
@.str.151 = private unnamed_addr constant [13 x i8] c" for buffer \00", align 1
@.str.152 = private unnamed_addr constant [142 x i8] c"/media/maaz/Data/Repos/rake/Halide-master-d48fbde/src/runtime/opencl.cpp:903 Assert failed: validate_device_pointer(user_context, buf, size)\0A\00", align 1
@.str.153 = private unnamed_addr constant [52 x i8] c"Buffer has too many dimensions to copy to/from GPU\0A\00", align 1
@.str.154 = private unnamed_addr constant [10 x i8] c"    from \00", align 1
@.str.155 = private unnamed_addr constant [5 x i8] c"host\00", align 1
@.str.156 = private unnamed_addr constant [7 x i8] c"device\00", align 1
@.str.157 = private unnamed_addr constant [5 x i8] c" to \00", align 1
@.str.158 = private unnamed_addr constant [3 x i8] c", \00", align 1
@.str.159 = private unnamed_addr constant [4 x i8] c" + \00", align 1
@.str.160 = private unnamed_addr constant [5 x i8] c" -> \00", align 1
@.str.161 = private unnamed_addr constant [8 x i8] c" bytes\0A\00", align 1
@.str.162 = private unnamed_addr constant [25 x i8] c"CL: buffer copy failed: \00", align 1
@.str.163 = private unnamed_addr constant [177 x i8] c"/media/maaz/Data/Repos/rake/Halide-master-d48fbde/src/runtime/opencl.cpp:974 Assert failed: dst_device_interface == nullptr || dst_device_interface == &opencl_device_interface\0A\00", align 1
@.str.164 = private unnamed_addr constant [142 x i8] c"/media/maaz/Data/Repos/rake/Halide-master-d48fbde/src/runtime/opencl.cpp:978 Assert failed: dst_device_interface == &opencl_device_interface\0A\00", align 1
@.str.166 = private unnamed_addr constant [116 x i8] c"/media/maaz/Data/Repos/rake/Halide-master-d48fbde/src/runtime/opencl.cpp:989 Assert failed: to_host || dst->device\0A\00", align 1
@.str.167 = private unnamed_addr constant [46 x i8] c"CL: halide_opencl_buffer_copy (user_context: \00", align 1
@.str.168 = private unnamed_addr constant [8 x i8] c", src: \00", align 1
@.str.169 = private unnamed_addr constant [8 x i8] c", dst: \00", align 1
@.str.170 = private unnamed_addr constant [137 x i8] c"/media/maaz/Data/Repos/rake/Halide-master-d48fbde/src/runtime/opencl.cpp:1007 Assert failed: validate_device_pointer(user_context, src)\0A\00", align 1
@.str.171 = private unnamed_addr constant [137 x i8] c"/media/maaz/Data/Repos/rake/Halide-master-d48fbde/src/runtime/opencl.cpp:1010 Assert failed: validate_device_pointer(user_context, dst)\0A\00", align 1
@.str.172 = private unnamed_addr constant [38 x i8] c"CL: halide_opencl_run (user_context: \00", align 1
@.str.173 = private unnamed_addr constant [8 x i8] c"entry: \00", align 1
@.str.174 = private unnamed_addr constant [9 x i8] c"blocks: \00", align 1
@.str.175 = private unnamed_addr constant [10 x i8] c"threads: \00", align 1
@.str.176 = private unnamed_addr constant [8 x i8] c"shmem: \00", align 1
@.str.177 = private unnamed_addr constant [104 x i8] c"/media/maaz/Data/Repos/rake/Halide-master-d48fbde/src/runtime/opencl.cpp:1069 Assert failed: state_ptr\0A\00", align 1
@.str.178 = private unnamed_addr constant [122 x i8] c"/media/maaz/Data/Repos/rake/Halide-master-d48fbde/src/runtime/opencl.cpp:1073 Assert failed: found && program != nullptr\0A\00", align 1
@.str.179 = private unnamed_addr constant [20 x i8] c"    clCreateKernel \00", align 1
@.str.180 = private unnamed_addr constant [20 x i8] c"CL: clCreateKernel \00", align 1
@.str.181 = private unnamed_addr constant [10 x i8] c" failed: \00", align 1
@.str.182 = private unnamed_addr constant [20 x i8] c"    clSetKernelArg \00", align 1
@.str.183 = private unnamed_addr constant [3 x i8] c" [\00", align 1
@.str.184 = private unnamed_addr constant [7 x i8] c" ...] \00", align 1
@.str.185 = private unnamed_addr constant [127 x i8] c"/media/maaz/Data/Repos/rake/Halide-master-d48fbde/src/runtime/opencl.cpp:1125 Assert failed: arg_sizes[i] == sizeof(uint64_t)\0A\00", align 1
@.str.186 = private unnamed_addr constant [23 x i8] c"Mapped dev handle is: \00", align 1
@.str.187 = private unnamed_addr constant [28 x i8] c"CL: clSetKernelArg failed: \00", align 1
@.str.188 = private unnamed_addr constant [12 x i8] c" [nullptr]\0A\00", align 1
@.str.189 = private unnamed_addr constant [27 x i8] c"CL: clSetKernelArg failed \00", align 1
@.str.190 = private unnamed_addr constant [28 x i8] c"    clEnqueueNDRangeKernel \00", align 1
@.str.191 = private unnamed_addr constant [36 x i8] c"CL: clEnqueueNDRangeKernel failed: \00", align 1
@.str.192 = private unnamed_addr constant [22 x i8] c"    Releasing kernel \00", align 1
@.str.193 = private unnamed_addr constant [29 x i8] c"    clReleaseKernel finished\00", align 1
@.str.194 = private unnamed_addr constant [22 x i8] c"CL: clFinish failed (\00", align 1
@.str.195 = private unnamed_addr constant [111 x i8] c"/media/maaz/Data/Repos/rake/Halide-master-d48fbde/src/runtime/opencl.cpp:1216 Assert failed: buf->device == 0\0A\00", align 1
@_ZN6Halide7Runtime8Internal6OpenCL29opencl_image_device_interfaceE = weak dso_local global %struct.halide_device_interface_t { i32 (i8*, %struct.halide_buffer_t*, %struct.halide_device_interface_t*)* @halide_device_malloc, i32 (i8*, %struct.halide_buffer_t*)* @halide_device_free, i32 (i8*, %struct.halide_buffer_t*)* @halide_device_sync, void (i8*, %struct.halide_device_interface_t*)* @halide_device_release, i32 (i8*, %struct.halide_buffer_t*)* @halide_copy_to_host, i32 (i8*, %struct.halide_buffer_t*, %struct.halide_device_interface_t*)* @halide_copy_to_device, i32 (i8*, %struct.halide_buffer_t*, %struct.halide_device_interface_t*)* @halide_device_and_host_malloc, i32 (i8*, %struct.halide_buffer_t*)* @halide_device_and_host_free, i32 (i8*, %struct.halide_buffer_t*, %struct.halide_device_interface_t*, %struct.halide_buffer_t*)* @halide_buffer_copy, i32 (i8*, %struct.halide_buffer_t*, %struct.halide_buffer_t*)* @halide_device_crop, i32 (i8*, %struct.halide_buffer_t*, i32, i32, %struct.halide_buffer_t*)* @halide_device_slice, i32 (i8*, %struct.halide_buffer_t*)* @halide_device_release_crop, i32 (i8*, %struct.halide_buffer_t*, i64, %struct.halide_device_interface_t*)* @halide_device_wrap_native, i32 (i8*, %struct.halide_buffer_t*)* @halide_device_detach_native, i32 (i8*, i32*, i32*)* @halide_opencl_compute_capability, %struct.halide_device_interface_impl_t* @_ZN6Halide7Runtime8Internal6OpenCL34opencl_image_device_interface_implE }, align 8, !dbg !635
@.str.196 = private unnamed_addr constant [203 x i8] c"/media/maaz/Data/Repos/rake/Halide-master-d48fbde/src/runtime/opencl.cpp:1246 Assert failed: buf->device_interface == &opencl_device_interface || buf->device_interface == &opencl_image_device_interface\0A\00", align 1
@.str.197 = private unnamed_addr constant [203 x i8] c"/media/maaz/Data/Repos/rake/Halide-master-d48fbde/src/runtime/opencl.cpp:1259 Assert failed: buf->device_interface == &opencl_device_interface || buf->device_interface == &opencl_image_device_interface\0A\00", align 1
@.str.198 = private unnamed_addr constant [144 x i8] c"/media/maaz/Data/Repos/rake/Halide-master-d48fbde/src/runtime/opencl.cpp:1267 Assert failed: buf->device_interface == &opencl_device_interface\0A\00", align 1
@.str.199 = private unnamed_addr constant [50 x i8] c"CL: malloc failed making device handle for crop.\0A\00", align 1
@.str.200 = private unnamed_addr constant [53 x i8] c"CL: halide_opencl_device_release_crop(user_context: \00", align 1
@.str.201 = private unnamed_addr constant [137 x i8] c"/media/maaz/Data/Repos/rake/Halide-master-d48fbde/src/runtime/opencl.cpp:1336 Assert failed: validate_device_pointer(user_context, buf)\0A\00", align 1
@.str.202 = private unnamed_addr constant [11 x i8] c"CL_SUCCESS\00", align 1
@.str.203 = private unnamed_addr constant [20 x i8] c"CL_DEVICE_NOT_FOUND\00", align 1
@.str.204 = private unnamed_addr constant [24 x i8] c"CL_DEVICE_NOT_AVAILABLE\00", align 1
@.str.205 = private unnamed_addr constant [26 x i8] c"CL_COMPILER_NOT_AVAILABLE\00", align 1
@.str.206 = private unnamed_addr constant [33 x i8] c"CL_MEM_OBJECT_ALLOCATION_FAILURE\00", align 1
@.str.207 = private unnamed_addr constant [20 x i8] c"CL_OUT_OF_RESOURCES\00", align 1
@.str.208 = private unnamed_addr constant [22 x i8] c"CL_OUT_OF_HOST_MEMORY\00", align 1
@.str.209 = private unnamed_addr constant [32 x i8] c"CL_PROFILING_INFO_NOT_AVAILABLE\00", align 1
@.str.210 = private unnamed_addr constant [20 x i8] c"CL_MEM_COPY_OVERLAP\00", align 1
@.str.211 = private unnamed_addr constant [25 x i8] c"CL_IMAGE_FORMAT_MISMATCH\00", align 1
@.str.212 = private unnamed_addr constant [30 x i8] c"CL_IMAGE_FORMAT_NOT_SUPPORTED\00", align 1
@.str.213 = private unnamed_addr constant [25 x i8] c"CL_BUILD_PROGRAM_FAILURE\00", align 1
@.str.214 = private unnamed_addr constant [15 x i8] c"CL_MAP_FAILURE\00", align 1
@.str.215 = private unnamed_addr constant [32 x i8] c"CL_MISALIGNED_SUB_BUFFER_OFFSET\00", align 1
@.str.216 = private unnamed_addr constant [45 x i8] c"CL_EXEC_STATUS_ERROR_FOR_EVENTS_IN_WAIT_LIST\00", align 1
@.str.217 = private unnamed_addr constant [27 x i8] c"CL_COMPILE_PROGRAM_FAILURE\00", align 1
@.str.218 = private unnamed_addr constant [24 x i8] c"CL_LINKER_NOT_AVAILABLE\00", align 1
@.str.219 = private unnamed_addr constant [24 x i8] c"CL_LINK_PROGRAM_FAILURE\00", align 1
@.str.220 = private unnamed_addr constant [27 x i8] c"CL_DEVICE_PARTITION_FAILED\00", align 1
@.str.221 = private unnamed_addr constant [33 x i8] c"CL_KERNEL_ARG_INFO_NOT_AVAILABLE\00", align 1
@.str.222 = private unnamed_addr constant [17 x i8] c"CL_INVALID_VALUE\00", align 1
@.str.223 = private unnamed_addr constant [23 x i8] c"CL_INVALID_DEVICE_TYPE\00", align 1
@.str.224 = private unnamed_addr constant [20 x i8] c"CL_INVALID_PLATFORM\00", align 1
@.str.225 = private unnamed_addr constant [18 x i8] c"CL_INVALID_DEVICE\00", align 1
@.str.226 = private unnamed_addr constant [19 x i8] c"CL_INVALID_CONTEXT\00", align 1
@.str.227 = private unnamed_addr constant [28 x i8] c"CL_INVALID_QUEUE_PROPERTIES\00", align 1
@.str.228 = private unnamed_addr constant [25 x i8] c"CL_INVALID_COMMAND_QUEUE\00", align 1
@.str.229 = private unnamed_addr constant [20 x i8] c"CL_INVALID_HOST_PTR\00", align 1
@.str.230 = private unnamed_addr constant [22 x i8] c"CL_INVALID_MEM_OBJECT\00", align 1
@.str.231 = private unnamed_addr constant [35 x i8] c"CL_INVALID_IMAGE_FORMAT_DESCRIPTOR\00", align 1
@.str.232 = private unnamed_addr constant [22 x i8] c"CL_INVALID_IMAGE_SIZE\00", align 1
@.str.233 = private unnamed_addr constant [19 x i8] c"CL_INVALID_SAMPLER\00", align 1
@.str.234 = private unnamed_addr constant [18 x i8] c"CL_INVALID_BINARY\00", align 1
@.str.235 = private unnamed_addr constant [25 x i8] c"CL_INVALID_BUILD_OPTIONS\00", align 1
@.str.236 = private unnamed_addr constant [19 x i8] c"CL_INVALID_PROGRAM\00", align 1
@.str.237 = private unnamed_addr constant [30 x i8] c"CL_INVALID_PROGRAM_EXECUTABLE\00", align 1
@.str.238 = private unnamed_addr constant [23 x i8] c"CL_INVALID_KERNEL_NAME\00", align 1
@.str.239 = private unnamed_addr constant [29 x i8] c"CL_INVALID_KERNEL_DEFINITION\00", align 1
@.str.240 = private unnamed_addr constant [18 x i8] c"CL_INVALID_KERNEL\00", align 1
@.str.241 = private unnamed_addr constant [21 x i8] c"CL_INVALID_ARG_INDEX\00", align 1
@.str.242 = private unnamed_addr constant [21 x i8] c"CL_INVALID_ARG_VALUE\00", align 1
@.str.243 = private unnamed_addr constant [20 x i8] c"CL_INVALID_ARG_SIZE\00", align 1
@.str.244 = private unnamed_addr constant [23 x i8] c"CL_INVALID_KERNEL_ARGS\00", align 1
@.str.245 = private unnamed_addr constant [26 x i8] c"CL_INVALID_WORK_DIMENSION\00", align 1
@.str.246 = private unnamed_addr constant [27 x i8] c"CL_INVALID_WORK_GROUP_SIZE\00", align 1
@.str.247 = private unnamed_addr constant [26 x i8] c"CL_INVALID_WORK_ITEM_SIZE\00", align 1
@.str.248 = private unnamed_addr constant [25 x i8] c"CL_INVALID_GLOBAL_OFFSET\00", align 1
@.str.249 = private unnamed_addr constant [27 x i8] c"CL_INVALID_EVENT_WAIT_LIST\00", align 1
@.str.250 = private unnamed_addr constant [17 x i8] c"CL_INVALID_EVENT\00", align 1
@.str.251 = private unnamed_addr constant [21 x i8] c"CL_INVALID_OPERATION\00", align 1
@.str.252 = private unnamed_addr constant [21 x i8] c"CL_INVALID_GL_OBJECT\00", align 1
@.str.253 = private unnamed_addr constant [23 x i8] c"CL_INVALID_BUFFER_SIZE\00", align 1
@.str.254 = private unnamed_addr constant [21 x i8] c"CL_INVALID_MIP_LEVEL\00", align 1
@.str.255 = private unnamed_addr constant [28 x i8] c"CL_INVALID_GLOBAL_WORK_SIZE\00", align 1
@.str.256 = private unnamed_addr constant [20 x i8] c"CL_INVALID_PROPERTY\00", align 1
@.str.257 = private unnamed_addr constant [28 x i8] c"CL_INVALID_IMAGE_DESCRIPTOR\00", align 1
@.str.258 = private unnamed_addr constant [28 x i8] c"CL_INVALID_COMPILER_OPTIONS\00", align 1
@.str.259 = private unnamed_addr constant [26 x i8] c"CL_INVALID_LINKER_OPTIONS\00", align 1
@.str.260 = private unnamed_addr constant [34 x i8] c"CL_INVALID_DEVICE_PARTITION_COUNT\00", align 1
@.str.261 = private unnamed_addr constant [16 x i8] c"<Unknown error>\00", align 1
@_ZN6Halide7Runtime8Internal6OpenCL28opencl_device_interface_implE = weak dso_local global %struct.halide_device_interface_impl_t { void ()* @halide_use_jit_module, void ()* @halide_release_jit_module, i32 (i8*, %struct.halide_buffer_t*)* @halide_opencl_device_malloc, i32 (i8*, %struct.halide_buffer_t*)* @halide_opencl_device_free, i32 (i8*, %struct.halide_buffer_t*)* @halide_opencl_device_sync, i32 (i8*)* @halide_opencl_device_release, i32 (i8*, %struct.halide_buffer_t*)* @halide_opencl_copy_to_host, i32 (i8*, %struct.halide_buffer_t*)* @halide_opencl_copy_to_device, i32 (i8*, %struct.halide_buffer_t*)* @halide_opencl_device_and_host_malloc, i32 (i8*, %struct.halide_buffer_t*)* @halide_opencl_device_and_host_free, i32 (i8*, %struct.halide_buffer_t*, %struct.halide_device_interface_t*, %struct.halide_buffer_t*)* @halide_opencl_buffer_copy, i32 (i8*, %struct.halide_buffer_t*, %struct.halide_buffer_t*)* @halide_opencl_device_crop, i32 (i8*, %struct.halide_buffer_t*, i32, i32, %struct.halide_buffer_t*)* @halide_opencl_device_slice, i32 (i8*, %struct.halide_buffer_t*)* @halide_opencl_device_release_crop, i32 (i8*, %struct.halide_buffer_t*, i64)* @halide_opencl_wrap_cl_mem, i32 (i8*, %struct.halide_buffer_t*)* @halide_opencl_detach_cl_mem }, align 8, !dbg !637
@.str.262 = private unnamed_addr constant [54 x i8] c"CL: halide_opencl_image_device_malloc (user_context: \00", align 1
@.str.263 = private unnamed_addr constant [104 x i8] c"/media/maaz/Data/Repos/rake/Halide-master-d48fbde/src/runtime/opencl.cpp:1552 Assert failed: size != 0\0A\00", align 1
@.str.264 = private unnamed_addr constant [143 x i8] c"/media/maaz/Data/Repos/rake/Halide-master-d48fbde/src/runtime/opencl.cpp:1554 Assert failed: validate_device_pointer(user_context, buf, size)\0A\00", align 1
@.str.265 = private unnamed_addr constant [118 x i8] c"/media/maaz/Data/Repos/rake/Halide-master-d48fbde/src/runtime/opencl.cpp:1559 Assert failed: buf->dim[i].stride >= 0\0A\00", align 1
@.str.266 = private unnamed_addr constant [47 x i8] c"Unhandled datatype for opencl texture object: \00", align 1
@.str.267 = private unnamed_addr constant [15 x i8] c"      format=(\00", align 1
@.str.268 = private unnamed_addr constant [46 x i8] c"image buffer must be dense on inner dimension\00", align 1
@.str.269 = private unnamed_addr constant [38 x i8] c"image buffer must have 1-3 dimensions\00", align 1
@.str.270 = private unnamed_addr constant [13 x i8] c"      desc=(\00", align 1
@.str.271 = private unnamed_addr constant [22 x i8] c"    clCreateImage -> \00", align 1
@.str.272 = private unnamed_addr constant [27 x i8] c"CL: clCreateImage failed: \00", align 1
@.str.273 = private unnamed_addr constant [143 x i8] c"/media/maaz/Data/Repos/rake/Halide-master-d48fbde/src/runtime/opencl.cpp:1671 Assert failed: validate_device_pointer(user_context, buf, size)\0A\00", align 1
@.str.274 = private unnamed_addr constant [52 x i8] c"CL: halide_opencl_image_buffer_copy (user_context: \00", align 1
@.str.275 = private unnamed_addr constant [184 x i8] c"/media/maaz/Data/Repos/rake/Halide-master-d48fbde/src/runtime/opencl.cpp:1690 Assert failed: dst_device_interface == nullptr || dst_device_interface == &opencl_image_device_interface\0A\00", align 1
@.str.276 = private unnamed_addr constant [149 x i8] c"/media/maaz/Data/Repos/rake/Halide-master-d48fbde/src/runtime/opencl.cpp:1694 Assert failed: dst_device_interface == &opencl_image_device_interface\0A\00", align 1
@.str.278 = private unnamed_addr constant [117 x i8] c"/media/maaz/Data/Repos/rake/Halide-master-d48fbde/src/runtime/opencl.cpp:1705 Assert failed: to_host || dst->device\0A\00", align 1
@.str.279 = private unnamed_addr constant [137 x i8] c"/media/maaz/Data/Repos/rake/Halide-master-d48fbde/src/runtime/opencl.cpp:1719 Assert failed: validate_device_pointer(user_context, src)\0A\00", align 1
@.str.280 = private unnamed_addr constant [137 x i8] c"/media/maaz/Data/Repos/rake/Halide-master-d48fbde/src/runtime/opencl.cpp:1722 Assert failed: validate_device_pointer(user_context, dst)\0A\00", align 1
@.str.281 = private unnamed_addr constant [45 x i8] c"image buffer copies must be for whole buffer\00", align 1
@.str.282 = private unnamed_addr constant [53 x i8] c"image buffer copies must be dense on inner dimension\00", align 1
@.str.283 = private unnamed_addr constant [38 x i8] c"image to image copies not implemented\00", align 1
@.str.284 = private unnamed_addr constant [29 x i8] c"CL: buffer transfer failed: \00", align 1
@.str.285 = private unnamed_addr constant [111 x i8] c"/media/maaz/Data/Repos/rake/Halide-master-d48fbde/src/runtime/opencl.cpp:1818 Assert failed: buf->device == 0\0A\00", align 1
@.str.286 = private unnamed_addr constant [67 x i8] c"CL: Bad device pointer passed to halide_opencl_image_wrap_cl_mem: \00", align 1
@.str.287 = private unnamed_addr constant [12 x i8] c" with type \00", align 1
@.str.288 = private unnamed_addr constant [43 x i8] c"crop not supported on opencl image objects\00", align 1
@.str.289 = private unnamed_addr constant [44 x i8] c"slice not supported on opencl image objects\00", align 1
@_ZN6Halide7Runtime8Internal6OpenCL34opencl_image_device_interface_implE = weak dso_local global %struct.halide_device_interface_impl_t { void ()* @halide_use_jit_module, void ()* @halide_release_jit_module, i32 (i8*, %struct.halide_buffer_t*)* @halide_opencl_image_device_malloc, i32 (i8*, %struct.halide_buffer_t*)* @halide_opencl_device_free, i32 (i8*, %struct.halide_buffer_t*)* @halide_opencl_device_sync, i32 (i8*)* @halide_opencl_device_release, i32 (i8*, %struct.halide_buffer_t*)* @halide_opencl_image_copy_to_host, i32 (i8*, %struct.halide_buffer_t*)* @halide_opencl_image_copy_to_device, i32 (i8*, %struct.halide_buffer_t*)* @halide_opencl_image_device_and_host_malloc, i32 (i8*, %struct.halide_buffer_t*)* @halide_opencl_image_device_and_host_free, i32 (i8*, %struct.halide_buffer_t*, %struct.halide_device_interface_t*, %struct.halide_buffer_t*)* @halide_opencl_image_buffer_copy, i32 (i8*, %struct.halide_buffer_t*, %struct.halide_buffer_t*)* @halide_opencl_image_device_crop, i32 (i8*, %struct.halide_buffer_t*, i32, i32, %struct.halide_buffer_t*)* @halide_opencl_image_device_slice, i32 (i8*, %struct.halide_buffer_t*)* @halide_opencl_image_device_release_crop, i32 (i8*, %struct.halide_buffer_t*, i64)* @halide_opencl_image_wrap_cl_mem, i32 (i8*, %struct.halide_buffer_t*)* @halide_opencl_detach_cl_mem }, align 8, !dbg !639
@.str.290 = private unnamed_addr constant [21 x i8] c"HL_OCL_PLATFORM_NAME\00", align 1
@.str.291 = private unnamed_addr constant [19 x i8] c"HL_OCL_DEVICE_TYPE\00", align 1
@.str.292 = private unnamed_addr constant [21 x i8] c"HL_OCL_BUILD_OPTIONS\00", align 1
@.str.293 = private unnamed_addr constant [34 x i8] c"OpenCL: null context or cmd_queue\00", align 1
@.str.294 = private unnamed_addr constant [35 x i8] c"Printer buffer allocation failed.\0A\00", align 1
@.str.295 = private unnamed_addr constant [10 x i8] c"<nullptr>\00", align 1
@.str.296 = private unnamed_addr constant [23 x i8] c"OpenCL API not found: \00", align 1
@.str.297 = private unnamed_addr constant [26 x i8] c"Caching compiled kernel: \00", align 1
@.str.298 = private unnamed_addr constant [5 x i8] c" id \00", align 1
@.str.299 = private unnamed_addr constant [10 x i8] c" context \00", align 1
@.str.300 = private unnamed_addr constant [108 x i8] c"/media/maaz/Data/Repos/rake/Halide-master-d48fbde/src/runtime/gpu_context_common.h:69 Assert failed: false\0A\00", align 1
@.str.301 = private unnamed_addr constant [110 x i8] c"/media/maaz/Data/Repos/rake/Halide-master-d48fbde/src/runtime/gpu_context_common.h:127 Assert failed: result\0A\00", align 1
@.str.302 = private unnamed_addr constant [110 x i8] c"/media/maaz/Data/Repos/rake/Halide-master-d48fbde/src/runtime/gpu_context_common.h:215 Assert failed: result\0A\00", align 1
@.str.303 = private unnamed_addr constant [31 x i8] c"Releasing cached compilation: \00", align 1
@llvm.global_ctors = appending global [1 x { i32, void ()*, i8* }] [{ i32, void ()*, i8* } { i32 65535, void ()* @_GLOBAL__sub_I_opencl.cpp, i8* null }]
@llvm.global_dtors = appending global [1 x { i32, void ()*, i8* }] [{ i32, void ()*, i8* } { i32 65535, void ()* @halide_opencl_cleanup, i8* null }]

; Function Attrs: nounwind mustprogress
define weak dso_local void @_ZN6Halide7Runtime8Internal18copy_memory_helperERKNS1_11device_copyEixx(%"struct.Halide::Runtime::Internal::device_copy"* nonnull align 8 dereferenceable(416) %0, i32 %1, i64 %2, i64 %3) local_unnamed_addr #0 !dbg !996 {
  call void @llvm.dbg.value(metadata %"struct.Halide::Runtime::Internal::device_copy"* %0, metadata !1015, metadata !DIExpression()), !dbg !1026
  call void @llvm.dbg.value(metadata i32 %1, metadata !1016, metadata !DIExpression()), !dbg !1026
  call void @llvm.dbg.value(metadata i64 %2, metadata !1017, metadata !DIExpression()), !dbg !1026
  call void @llvm.dbg.value(metadata i64 %3, metadata !1018, metadata !DIExpression()), !dbg !1026
  %5 = icmp sgt i32 %1, -1, !dbg !1027
  br i1 %5, label %6, label %15, !dbg !1028

6:                                                ; preds = %4, %12
  %7 = phi i32 [ %13, %12 ], [ %1, %4 ]
  call void @llvm.dbg.value(metadata i32 %7, metadata !1016, metadata !DIExpression()), !dbg !1026
  %8 = zext i32 %7 to i64, !dbg !1029
  %9 = getelementptr inbounds %"struct.Halide::Runtime::Internal::device_copy", %"struct.Halide::Runtime::Internal::device_copy"* %0, i64 0, i32 3, i64 %8, !dbg !1029
  %10 = load i64, i64* %9, align 8, !dbg !1029, !tbaa !1030
  %11 = icmp eq i64 %10, 1, !dbg !1034
  br i1 %11, label %12, label %15, !dbg !1035

12:                                               ; preds = %6
  %13 = add nsw i32 %7, -1, !dbg !1036
  call void @llvm.dbg.value(metadata i32 %13, metadata !1016, metadata !DIExpression()), !dbg !1026
  %14 = icmp sgt i32 %7, 0, !dbg !1027
  br i1 %14, label %6, label %27, !dbg !1028, !llvm.loop !1038

15:                                               ; preds = %6, %4
  %16 = phi i32 [ %1, %4 ], [ %7, %6 ]
  %17 = icmp eq i32 %16, -1, !dbg !1041
  br i1 %17, label %27, label %18, !dbg !1042

18:                                               ; preds = %15
  call void @llvm.dbg.value(metadata i64 0, metadata !1023, metadata !DIExpression()), !dbg !1043
  call void @llvm.dbg.value(metadata i64 %2, metadata !1017, metadata !DIExpression()), !dbg !1026
  call void @llvm.dbg.value(metadata i64 %3, metadata !1018, metadata !DIExpression()), !dbg !1026
  %19 = sext i32 %16 to i64, !dbg !1044
  %20 = getelementptr inbounds %"struct.Halide::Runtime::Internal::device_copy", %"struct.Halide::Runtime::Internal::device_copy"* %0, i64 0, i32 3, i64 %19, !dbg !1044
  %21 = load i64, i64* %20, align 8, !dbg !1044, !tbaa !1030
  %22 = icmp eq i64 %21, 0, !dbg !1046
  br i1 %22, label %50, label %23, !dbg !1047

23:                                               ; preds = %18
  %24 = add nsw i32 %16, -1
  %25 = getelementptr inbounds %"struct.Halide::Runtime::Internal::device_copy", %"struct.Halide::Runtime::Internal::device_copy"* %0, i64 0, i32 4, i64 %19
  %26 = getelementptr inbounds %"struct.Halide::Runtime::Internal::device_copy", %"struct.Halide::Runtime::Internal::device_copy"* %0, i64 0, i32 5, i64 %19
  br label %39, !dbg !1047

27:                                               ; preds = %12, %15
  %28 = getelementptr inbounds %"struct.Halide::Runtime::Internal::device_copy", %"struct.Halide::Runtime::Internal::device_copy"* %0, i64 0, i32 0, !dbg !1048
  %29 = load i64, i64* %28, align 8, !dbg !1048, !tbaa !1049
  %30 = add i64 %29, %2, !dbg !1051
  %31 = inttoptr i64 %30 to i8*, !dbg !1052
  call void @llvm.dbg.value(metadata i8* %31, metadata !1019, metadata !DIExpression()), !dbg !1053
  %32 = getelementptr inbounds %"struct.Halide::Runtime::Internal::device_copy", %"struct.Halide::Runtime::Internal::device_copy"* %0, i64 0, i32 1, !dbg !1054
  %33 = load i64, i64* %32, align 8, !dbg !1054, !tbaa !1055
  %34 = add i64 %33, %3, !dbg !1056
  %35 = inttoptr i64 %34 to i8*, !dbg !1057
  call void @llvm.dbg.value(metadata i8* %35, metadata !1022, metadata !DIExpression()), !dbg !1053
  %36 = getelementptr inbounds %"struct.Halide::Runtime::Internal::device_copy", %"struct.Halide::Runtime::Internal::device_copy"* %0, i64 0, i32 6, !dbg !1058
  %37 = load i64, i64* %36, align 8, !dbg !1058, !tbaa !1059
  %38 = tail call i8* @memcpy(i8* %35, i8* %31, i64 %37) #8, !dbg !1060
  br label %50, !dbg !1061

39:                                               ; preds = %23, %39
  %40 = phi i64 [ 0, %23 ], [ %47, %39 ]
  %41 = phi i64 [ %2, %23 ], [ %44, %39 ]
  %42 = phi i64 [ %3, %23 ], [ %46, %39 ]
  call void @llvm.dbg.value(metadata i64 %40, metadata !1023, metadata !DIExpression()), !dbg !1043
  call void @llvm.dbg.value(metadata i64 %41, metadata !1017, metadata !DIExpression()), !dbg !1026
  call void @llvm.dbg.value(metadata i64 %42, metadata !1018, metadata !DIExpression()), !dbg !1026
  tail call void @_ZN6Halide7Runtime8Internal18copy_memory_helperERKNS1_11device_copyEixx(%"struct.Halide::Runtime::Internal::device_copy"* nonnull align 8 dereferenceable(416) %0, i32 %24, i64 %41, i64 %42) #9, !dbg !1062
  %43 = load i64, i64* %25, align 8, !dbg !1064, !tbaa !1030
  %44 = add i64 %43, %41, !dbg !1065
  call void @llvm.dbg.value(metadata i64 %44, metadata !1017, metadata !DIExpression()), !dbg !1026
  %45 = load i64, i64* %26, align 8, !dbg !1066, !tbaa !1030
  %46 = add i64 %45, %42, !dbg !1067
  call void @llvm.dbg.value(metadata i64 %46, metadata !1018, metadata !DIExpression()), !dbg !1026
  %47 = add nuw i64 %40, 1, !dbg !1068
  call void @llvm.dbg.value(metadata i64 %47, metadata !1023, metadata !DIExpression()), !dbg !1043
  %48 = load i64, i64* %20, align 8, !dbg !1044, !tbaa !1030
  %49 = icmp ult i64 %47, %48, !dbg !1046
  br i1 %49, label %39, label %50, !dbg !1047, !llvm.loop !1069

50:                                               ; preds = %39, %18, %27
  ret void, !dbg !1071
}

; Function Attrs: nofree nosync nounwind readnone speculatable willreturn
declare void @llvm.dbg.declare(metadata, metadata, metadata) #1

; Function Attrs: argmemonly nofree nosync nounwind willreturn
declare void @llvm.lifetime.start.p0i8(i64 immarg, i8* nocapture) #2

declare !dbg !1072 dso_local i8* @memcpy(i8*, i8*, i64) local_unnamed_addr #3

; Function Attrs: argmemonly nofree nosync nounwind willreturn
declare void @llvm.lifetime.end.p0i8(i64 immarg, i8* nocapture) #2

; Function Attrs: nounwind
define weak dso_local void @_ZN6Halide7Runtime8Internal11copy_memoryERKNS1_11device_copyEPv(%"struct.Halide::Runtime::Internal::device_copy"* nonnull align 8 dereferenceable(416) %0, i8* %1) local_unnamed_addr #4 !dbg !1076 {
  call void @llvm.dbg.value(metadata %"struct.Halide::Runtime::Internal::device_copy"* %0, metadata !1080, metadata !DIExpression()), !dbg !1082
  call void @llvm.dbg.value(metadata i8* %1, metadata !1081, metadata !DIExpression()), !dbg !1082
  %3 = getelementptr inbounds %"struct.Halide::Runtime::Internal::device_copy", %"struct.Halide::Runtime::Internal::device_copy"* %0, i64 0, i32 0, !dbg !1083
  %4 = load i64, i64* %3, align 8, !dbg !1083, !tbaa !1049
  %5 = getelementptr inbounds %"struct.Halide::Runtime::Internal::device_copy", %"struct.Halide::Runtime::Internal::device_copy"* %0, i64 0, i32 1, !dbg !1085
  %6 = load i64, i64* %5, align 8, !dbg !1085, !tbaa !1055
  %7 = icmp eq i64 %4, %6, !dbg !1086
  br i1 %7, label %11, label %8, !dbg !1087

8:                                                ; preds = %2
  %9 = getelementptr inbounds %"struct.Halide::Runtime::Internal::device_copy", %"struct.Halide::Runtime::Internal::device_copy"* %0, i64 0, i32 2, !dbg !1088
  %10 = load i64, i64* %9, align 8, !dbg !1088, !tbaa !1090
  tail call void @_ZN6Halide7Runtime8Internal18copy_memory_helperERKNS1_11device_copyEixx(%"struct.Halide::Runtime::Internal::device_copy"* nonnull align 8 dereferenceable(416) %0, i32 15, i64 %10, i64 0) #9, !dbg !1091
  br label %25, !dbg !1092

11:                                               ; preds = %2
  call void @llvm.dbg.value(metadata %"class.Halide::Runtime::Internal::(anonymous namespace)::Printer"* undef, metadata !1093, metadata !DIExpression()) #10, !dbg !1099
  call void @llvm.dbg.value(metadata i8* %1, metadata !1096, metadata !DIExpression()) #10, !dbg !1099
  call void @llvm.dbg.value(metadata i8* null, metadata !1097, metadata !DIExpression()) #10, !dbg !1099
  %12 = tail call i8* @malloc(i64 1024) #8, !dbg !1102
  %13 = icmp eq i8* %12, null, !dbg !1107
  br i1 %13, label %14, label %16, !dbg !1109

14:                                               ; preds = %11
  call void @llvm.dbg.value(metadata %"class.Halide::Runtime::Internal::(anonymous namespace)::Printer"* undef, metadata !1110, metadata !DIExpression()) #10, !dbg !1114
  call void @llvm.dbg.value(metadata i8* getelementptr inbounds ([55 x i8], [55 x i8]* @.str, i64 0, i64 0), metadata !1113, metadata !DIExpression()) #10, !dbg !1114
  %15 = tail call i8* @halide_string_to_string(i8* %12, i8* null, i8* nonnull getelementptr inbounds ([55 x i8], [55 x i8]* @.str, i64 0, i64 0)) #8, !dbg !1116
  call void @llvm.dbg.value(metadata %"class.Halide::Runtime::Internal::(anonymous namespace)::Printer"* undef, metadata !1119, metadata !DIExpression()) #10, !dbg !1122
  tail call void @halide_error(i8* %1, i8* getelementptr inbounds ([35 x i8], [35 x i8]* @.str.294, i64 0, i64 0)) #8, !dbg !1124
  br label %24, !dbg !1128

16:                                               ; preds = %11
  %17 = getelementptr inbounds i8, i8* %12, i64 1023, !dbg !1129
  store i8 0, i8* %17, align 1, !dbg !1131, !tbaa !1132
  call void @llvm.dbg.value(metadata %"class.Halide::Runtime::Internal::(anonymous namespace)::Printer"* undef, metadata !1110, metadata !DIExpression()) #10, !dbg !1114
  call void @llvm.dbg.value(metadata i8* getelementptr inbounds ([55 x i8], [55 x i8]* @.str, i64 0, i64 0), metadata !1113, metadata !DIExpression()) #10, !dbg !1114
  %18 = tail call i8* @halide_string_to_string(i8* nonnull %12, i8* nonnull %17, i8* nonnull getelementptr inbounds ([55 x i8], [55 x i8]* @.str, i64 0, i64 0)) #8, !dbg !1116
  call void @llvm.dbg.value(metadata %"class.Halide::Runtime::Internal::(anonymous namespace)::Printer"* undef, metadata !1119, metadata !DIExpression()) #10, !dbg !1122
  call void @llvm.dbg.value(metadata %"class.Halide::Runtime::Internal::(anonymous namespace)::Printer"* undef, metadata !1133, metadata !DIExpression()) #10, !dbg !1136
  %19 = ptrtoint i8* %18 to i64, !dbg !1139
  %20 = ptrtoint i8* %12 to i64, !dbg !1139
  %21 = add i64 %19, 1, !dbg !1139
  %22 = sub i64 %21, %20, !dbg !1140
  %23 = tail call i32 @halide_msan_annotate_memory_is_initialized(i8* %1, i8* nonnull %12, i64 %22) #8, !dbg !1141
  tail call void @halide_print(i8* %1, i8* nonnull %12) #8, !dbg !1142
  br label %24

24:                                               ; preds = %16, %14
  tail call void @free(i8* %12) #8, !dbg !1146
  br label %25

25:                                               ; preds = %24, %8
  ret void, !dbg !1149
}

; Function Attrs: nounwind mustprogress
define weak dso_local void @_ZN6Halide7Runtime8Internal16make_buffer_copyEPK15halide_buffer_tbS4_b(%"struct.Halide::Runtime::Internal::device_copy"* noalias sret(%"struct.Halide::Runtime::Internal::device_copy") align 8 %0, %struct.halide_buffer_t* %1, i1 zeroext %2, %struct.halide_buffer_t* %3, i1 zeroext %4) local_unnamed_addr #0 !dbg !1150 {
  %6 = alloca %"struct.Halide::Runtime::Internal::device_copy", align 8
  call void @llvm.dbg.value(metadata %struct.halide_buffer_t* %1, metadata !1155, metadata !DIExpression()), !dbg !1182
  call void @llvm.dbg.value(metadata i1 %2, metadata !1156, metadata !DIExpression(DW_OP_LLVM_convert, 1, DW_ATE_unsigned, DW_OP_LLVM_convert, 8, DW_ATE_unsigned, DW_OP_stack_value)), !dbg !1182
  call void @llvm.dbg.value(metadata %struct.halide_buffer_t* %3, metadata !1157, metadata !DIExpression()), !dbg !1182
  call void @llvm.dbg.value(metadata i1 %4, metadata !1158, metadata !DIExpression(DW_OP_LLVM_convert, 1, DW_ATE_unsigned, DW_OP_LLVM_convert, 8, DW_ATE_unsigned, DW_OP_stack_value)), !dbg !1182
  %7 = bitcast %"struct.Halide::Runtime::Internal::device_copy"* %6 to i8*, !dbg !1183
  call void @llvm.lifetime.start.p0i8(i64 416, i8* nonnull %7) #10, !dbg !1183
  call void @llvm.dbg.declare(metadata %"struct.Halide::Runtime::Internal::device_copy"* %6, metadata !1159, metadata !DIExpression()), !dbg !1184
  br i1 %2, label %8, label %12, !dbg !1185

8:                                                ; preds = %5
  %9 = getelementptr inbounds %struct.halide_buffer_t, %struct.halide_buffer_t* %1, i64 0, i32 2, !dbg !1186
  %10 = load i8*, i8** %9, align 8, !dbg !1186, !tbaa !1187
  %11 = ptrtoint i8* %10 to i64, !dbg !1194
  br label %15, !dbg !1185

12:                                               ; preds = %5
  %13 = getelementptr inbounds %struct.halide_buffer_t, %struct.halide_buffer_t* %1, i64 0, i32 0, !dbg !1195
  %14 = load i64, i64* %13, align 8, !dbg !1195, !tbaa !1196
  br label %15, !dbg !1185

15:                                               ; preds = %12, %8
  %16 = phi i64 [ %11, %8 ], [ %14, %12 ], !dbg !1185
  %17 = getelementptr inbounds %"struct.Halide::Runtime::Internal::device_copy", %"struct.Halide::Runtime::Internal::device_copy"* %6, i64 0, i32 0, !dbg !1197
  store i64 %16, i64* %17, align 8, !dbg !1198, !tbaa !1049
  br i1 %4, label %18, label %22, !dbg !1199

18:                                               ; preds = %15
  %19 = getelementptr inbounds %struct.halide_buffer_t, %struct.halide_buffer_t* %3, i64 0, i32 2, !dbg !1200
  %20 = load i8*, i8** %19, align 8, !dbg !1200, !tbaa !1187
  %21 = ptrtoint i8* %20 to i64, !dbg !1201
  br label %25, !dbg !1199

22:                                               ; preds = %15
  %23 = getelementptr inbounds %struct.halide_buffer_t, %struct.halide_buffer_t* %3, i64 0, i32 0, !dbg !1202
  %24 = load i64, i64* %23, align 8, !dbg !1202, !tbaa !1196
  br label %25, !dbg !1199

25:                                               ; preds = %22, %18
  %26 = phi i64 [ %21, %18 ], [ %24, %22 ], !dbg !1199
  %27 = getelementptr inbounds %"struct.Halide::Runtime::Internal::device_copy", %"struct.Halide::Runtime::Internal::device_copy"* %6, i64 0, i32 1, !dbg !1203
  store i64 %26, i64* %27, align 8, !dbg !1204, !tbaa !1055
  call void @llvm.dbg.value(metadata %struct.halide_buffer_t* %1, metadata !1205, metadata !DIExpression(DW_OP_plus_uconst, 32, DW_OP_stack_value)), !dbg !1209
  %28 = getelementptr inbounds %struct.halide_buffer_t, %struct.halide_buffer_t* %1, i64 0, i32 4, i32 1, !dbg !1211
  %29 = load i8, i8* %28, align 1, !dbg !1211, !tbaa !1212
  %30 = zext i8 %29 to i32, !dbg !1211
  %31 = add nuw nsw i32 %30, 7, !dbg !1213
  %32 = lshr i32 %31, 3, !dbg !1214
  %33 = zext i32 %32 to i64, !dbg !1215
  %34 = getelementptr inbounds %"struct.Halide::Runtime::Internal::device_copy", %"struct.Halide::Runtime::Internal::device_copy"* %6, i64 0, i32 6, !dbg !1216
  store i64 %33, i64* %34, align 8, !dbg !1217, !tbaa !1059
  call void @llvm.dbg.value(metadata i32 0, metadata !1160, metadata !DIExpression()), !dbg !1218
  call void @llvm.dbg.value(metadata i64 0, metadata !1160, metadata !DIExpression()), !dbg !1218
  %35 = getelementptr inbounds %"struct.Halide::Runtime::Internal::device_copy", %"struct.Halide::Runtime::Internal::device_copy"* %6, i64 0, i32 3, i64 0, !dbg !1219
  store i64 1, i64* %35, align 8, !dbg !1222, !tbaa !1030
  %36 = getelementptr inbounds %"struct.Halide::Runtime::Internal::device_copy", %"struct.Halide::Runtime::Internal::device_copy"* %6, i64 0, i32 4, i64 0, !dbg !1223
  store i64 0, i64* %36, align 8, !dbg !1224, !tbaa !1030
  %37 = getelementptr inbounds %"struct.Halide::Runtime::Internal::device_copy", %"struct.Halide::Runtime::Internal::device_copy"* %6, i64 0, i32 5, i64 0, !dbg !1225
  store i64 0, i64* %37, align 8, !dbg !1226, !tbaa !1030
  call void @llvm.dbg.value(metadata i64 1, metadata !1160, metadata !DIExpression()), !dbg !1218
  call void @llvm.dbg.value(metadata i64 1, metadata !1160, metadata !DIExpression()), !dbg !1218
  %38 = getelementptr inbounds %"struct.Halide::Runtime::Internal::device_copy", %"struct.Halide::Runtime::Internal::device_copy"* %6, i64 0, i32 3, i64 1, !dbg !1219
  store i64 1, i64* %38, align 8, !dbg !1222, !tbaa !1030
  %39 = getelementptr inbounds %"struct.Halide::Runtime::Internal::device_copy", %"struct.Halide::Runtime::Internal::device_copy"* %6, i64 0, i32 4, i64 1, !dbg !1223
  store i64 0, i64* %39, align 8, !dbg !1224, !tbaa !1030
  %40 = getelementptr inbounds %"struct.Halide::Runtime::Internal::device_copy", %"struct.Halide::Runtime::Internal::device_copy"* %6, i64 0, i32 5, i64 1, !dbg !1225
  store i64 0, i64* %40, align 8, !dbg !1226, !tbaa !1030
  call void @llvm.dbg.value(metadata i64 2, metadata !1160, metadata !DIExpression()), !dbg !1218
  call void @llvm.dbg.value(metadata i64 2, metadata !1160, metadata !DIExpression()), !dbg !1218
  %41 = getelementptr inbounds %"struct.Halide::Runtime::Internal::device_copy", %"struct.Halide::Runtime::Internal::device_copy"* %6, i64 0, i32 3, i64 2, !dbg !1219
  store i64 1, i64* %41, align 8, !dbg !1222, !tbaa !1030
  %42 = getelementptr inbounds %"struct.Halide::Runtime::Internal::device_copy", %"struct.Halide::Runtime::Internal::device_copy"* %6, i64 0, i32 4, i64 2, !dbg !1223
  store i64 0, i64* %42, align 8, !dbg !1224, !tbaa !1030
  %43 = getelementptr inbounds %"struct.Halide::Runtime::Internal::device_copy", %"struct.Halide::Runtime::Internal::device_copy"* %6, i64 0, i32 5, i64 2, !dbg !1225
  store i64 0, i64* %43, align 8, !dbg !1226, !tbaa !1030
  call void @llvm.dbg.value(metadata i64 3, metadata !1160, metadata !DIExpression()), !dbg !1218
  call void @llvm.dbg.value(metadata i64 3, metadata !1160, metadata !DIExpression()), !dbg !1218
  %44 = getelementptr inbounds %"struct.Halide::Runtime::Internal::device_copy", %"struct.Halide::Runtime::Internal::device_copy"* %6, i64 0, i32 3, i64 3, !dbg !1219
  store i64 1, i64* %44, align 8, !dbg !1222, !tbaa !1030
  %45 = getelementptr inbounds %"struct.Halide::Runtime::Internal::device_copy", %"struct.Halide::Runtime::Internal::device_copy"* %6, i64 0, i32 4, i64 3, !dbg !1223
  store i64 0, i64* %45, align 8, !dbg !1224, !tbaa !1030
  %46 = getelementptr inbounds %"struct.Halide::Runtime::Internal::device_copy", %"struct.Halide::Runtime::Internal::device_copy"* %6, i64 0, i32 5, i64 3, !dbg !1225
  store i64 0, i64* %46, align 8, !dbg !1226, !tbaa !1030
  call void @llvm.dbg.value(metadata i64 4, metadata !1160, metadata !DIExpression()), !dbg !1218
  call void @llvm.dbg.value(metadata i64 4, metadata !1160, metadata !DIExpression()), !dbg !1218
  %47 = getelementptr inbounds %"struct.Halide::Runtime::Internal::device_copy", %"struct.Halide::Runtime::Internal::device_copy"* %6, i64 0, i32 3, i64 4, !dbg !1219
  store i64 1, i64* %47, align 8, !dbg !1222, !tbaa !1030
  %48 = getelementptr inbounds %"struct.Halide::Runtime::Internal::device_copy", %"struct.Halide::Runtime::Internal::device_copy"* %6, i64 0, i32 4, i64 4, !dbg !1223
  store i64 0, i64* %48, align 8, !dbg !1224, !tbaa !1030
  %49 = getelementptr inbounds %"struct.Halide::Runtime::Internal::device_copy", %"struct.Halide::Runtime::Internal::device_copy"* %6, i64 0, i32 5, i64 4, !dbg !1225
  store i64 0, i64* %49, align 8, !dbg !1226, !tbaa !1030
  call void @llvm.dbg.value(metadata i64 5, metadata !1160, metadata !DIExpression()), !dbg !1218
  call void @llvm.dbg.value(metadata i64 5, metadata !1160, metadata !DIExpression()), !dbg !1218
  %50 = getelementptr inbounds %"struct.Halide::Runtime::Internal::device_copy", %"struct.Halide::Runtime::Internal::device_copy"* %6, i64 0, i32 3, i64 5, !dbg !1219
  store i64 1, i64* %50, align 8, !dbg !1222, !tbaa !1030
  %51 = getelementptr inbounds %"struct.Halide::Runtime::Internal::device_copy", %"struct.Halide::Runtime::Internal::device_copy"* %6, i64 0, i32 4, i64 5, !dbg !1223
  store i64 0, i64* %51, align 8, !dbg !1224, !tbaa !1030
  %52 = getelementptr inbounds %"struct.Halide::Runtime::Internal::device_copy", %"struct.Halide::Runtime::Internal::device_copy"* %6, i64 0, i32 5, i64 5, !dbg !1225
  store i64 0, i64* %52, align 8, !dbg !1226, !tbaa !1030
  call void @llvm.dbg.value(metadata i64 6, metadata !1160, metadata !DIExpression()), !dbg !1218
  call void @llvm.dbg.value(metadata i64 6, metadata !1160, metadata !DIExpression()), !dbg !1218
  %53 = getelementptr inbounds %"struct.Halide::Runtime::Internal::device_copy", %"struct.Halide::Runtime::Internal::device_copy"* %6, i64 0, i32 3, i64 6, !dbg !1219
  store i64 1, i64* %53, align 8, !dbg !1222, !tbaa !1030
  %54 = getelementptr inbounds %"struct.Halide::Runtime::Internal::device_copy", %"struct.Halide::Runtime::Internal::device_copy"* %6, i64 0, i32 4, i64 6, !dbg !1223
  store i64 0, i64* %54, align 8, !dbg !1224, !tbaa !1030
  %55 = getelementptr inbounds %"struct.Halide::Runtime::Internal::device_copy", %"struct.Halide::Runtime::Internal::device_copy"* %6, i64 0, i32 5, i64 6, !dbg !1225
  store i64 0, i64* %55, align 8, !dbg !1226, !tbaa !1030
  call void @llvm.dbg.value(metadata i64 7, metadata !1160, metadata !DIExpression()), !dbg !1218
  call void @llvm.dbg.value(metadata i64 7, metadata !1160, metadata !DIExpression()), !dbg !1218
  %56 = getelementptr inbounds %"struct.Halide::Runtime::Internal::device_copy", %"struct.Halide::Runtime::Internal::device_copy"* %6, i64 0, i32 3, i64 7, !dbg !1219
  store i64 1, i64* %56, align 8, !dbg !1222, !tbaa !1030
  %57 = getelementptr inbounds %"struct.Halide::Runtime::Internal::device_copy", %"struct.Halide::Runtime::Internal::device_copy"* %6, i64 0, i32 4, i64 7, !dbg !1223
  store i64 0, i64* %57, align 8, !dbg !1224, !tbaa !1030
  %58 = getelementptr inbounds %"struct.Halide::Runtime::Internal::device_copy", %"struct.Halide::Runtime::Internal::device_copy"* %6, i64 0, i32 5, i64 7, !dbg !1225
  store i64 0, i64* %58, align 8, !dbg !1226, !tbaa !1030
  call void @llvm.dbg.value(metadata i64 8, metadata !1160, metadata !DIExpression()), !dbg !1218
  call void @llvm.dbg.value(metadata i64 8, metadata !1160, metadata !DIExpression()), !dbg !1218
  %59 = getelementptr inbounds %"struct.Halide::Runtime::Internal::device_copy", %"struct.Halide::Runtime::Internal::device_copy"* %6, i64 0, i32 3, i64 8, !dbg !1219
  store i64 1, i64* %59, align 8, !dbg !1222, !tbaa !1030
  %60 = getelementptr inbounds %"struct.Halide::Runtime::Internal::device_copy", %"struct.Halide::Runtime::Internal::device_copy"* %6, i64 0, i32 4, i64 8, !dbg !1223
  store i64 0, i64* %60, align 8, !dbg !1224, !tbaa !1030
  %61 = getelementptr inbounds %"struct.Halide::Runtime::Internal::device_copy", %"struct.Halide::Runtime::Internal::device_copy"* %6, i64 0, i32 5, i64 8, !dbg !1225
  store i64 0, i64* %61, align 8, !dbg !1226, !tbaa !1030
  call void @llvm.dbg.value(metadata i64 9, metadata !1160, metadata !DIExpression()), !dbg !1218
  call void @llvm.dbg.value(metadata i64 9, metadata !1160, metadata !DIExpression()), !dbg !1218
  %62 = getelementptr inbounds %"struct.Halide::Runtime::Internal::device_copy", %"struct.Halide::Runtime::Internal::device_copy"* %6, i64 0, i32 3, i64 9, !dbg !1219
  store i64 1, i64* %62, align 8, !dbg !1222, !tbaa !1030
  %63 = getelementptr inbounds %"struct.Halide::Runtime::Internal::device_copy", %"struct.Halide::Runtime::Internal::device_copy"* %6, i64 0, i32 4, i64 9, !dbg !1223
  store i64 0, i64* %63, align 8, !dbg !1224, !tbaa !1030
  %64 = getelementptr inbounds %"struct.Halide::Runtime::Internal::device_copy", %"struct.Halide::Runtime::Internal::device_copy"* %6, i64 0, i32 5, i64 9, !dbg !1225
  store i64 0, i64* %64, align 8, !dbg !1226, !tbaa !1030
  call void @llvm.dbg.value(metadata i64 10, metadata !1160, metadata !DIExpression()), !dbg !1218
  call void @llvm.dbg.value(metadata i64 10, metadata !1160, metadata !DIExpression()), !dbg !1218
  %65 = getelementptr inbounds %"struct.Halide::Runtime::Internal::device_copy", %"struct.Halide::Runtime::Internal::device_copy"* %6, i64 0, i32 3, i64 10, !dbg !1219
  store i64 1, i64* %65, align 8, !dbg !1222, !tbaa !1030
  %66 = getelementptr inbounds %"struct.Halide::Runtime::Internal::device_copy", %"struct.Halide::Runtime::Internal::device_copy"* %6, i64 0, i32 4, i64 10, !dbg !1223
  store i64 0, i64* %66, align 8, !dbg !1224, !tbaa !1030
  %67 = getelementptr inbounds %"struct.Halide::Runtime::Internal::device_copy", %"struct.Halide::Runtime::Internal::device_copy"* %6, i64 0, i32 5, i64 10, !dbg !1225
  store i64 0, i64* %67, align 8, !dbg !1226, !tbaa !1030
  call void @llvm.dbg.value(metadata i64 11, metadata !1160, metadata !DIExpression()), !dbg !1218
  call void @llvm.dbg.value(metadata i64 11, metadata !1160, metadata !DIExpression()), !dbg !1218
  %68 = getelementptr inbounds %"struct.Halide::Runtime::Internal::device_copy", %"struct.Halide::Runtime::Internal::device_copy"* %6, i64 0, i32 3, i64 11, !dbg !1219
  store i64 1, i64* %68, align 8, !dbg !1222, !tbaa !1030
  %69 = getelementptr inbounds %"struct.Halide::Runtime::Internal::device_copy", %"struct.Halide::Runtime::Internal::device_copy"* %6, i64 0, i32 4, i64 11, !dbg !1223
  store i64 0, i64* %69, align 8, !dbg !1224, !tbaa !1030
  %70 = getelementptr inbounds %"struct.Halide::Runtime::Internal::device_copy", %"struct.Halide::Runtime::Internal::device_copy"* %6, i64 0, i32 5, i64 11, !dbg !1225
  store i64 0, i64* %70, align 8, !dbg !1226, !tbaa !1030
  call void @llvm.dbg.value(metadata i64 12, metadata !1160, metadata !DIExpression()), !dbg !1218
  call void @llvm.dbg.value(metadata i64 12, metadata !1160, metadata !DIExpression()), !dbg !1218
  %71 = getelementptr inbounds %"struct.Halide::Runtime::Internal::device_copy", %"struct.Halide::Runtime::Internal::device_copy"* %6, i64 0, i32 3, i64 12, !dbg !1219
  store i64 1, i64* %71, align 8, !dbg !1222, !tbaa !1030
  %72 = getelementptr inbounds %"struct.Halide::Runtime::Internal::device_copy", %"struct.Halide::Runtime::Internal::device_copy"* %6, i64 0, i32 4, i64 12, !dbg !1223
  store i64 0, i64* %72, align 8, !dbg !1224, !tbaa !1030
  %73 = getelementptr inbounds %"struct.Halide::Runtime::Internal::device_copy", %"struct.Halide::Runtime::Internal::device_copy"* %6, i64 0, i32 5, i64 12, !dbg !1225
  store i64 0, i64* %73, align 8, !dbg !1226, !tbaa !1030
  call void @llvm.dbg.value(metadata i64 13, metadata !1160, metadata !DIExpression()), !dbg !1218
  call void @llvm.dbg.value(metadata i64 13, metadata !1160, metadata !DIExpression()), !dbg !1218
  %74 = getelementptr inbounds %"struct.Halide::Runtime::Internal::device_copy", %"struct.Halide::Runtime::Internal::device_copy"* %6, i64 0, i32 3, i64 13, !dbg !1219
  store i64 1, i64* %74, align 8, !dbg !1222, !tbaa !1030
  %75 = getelementptr inbounds %"struct.Halide::Runtime::Internal::device_copy", %"struct.Halide::Runtime::Internal::device_copy"* %6, i64 0, i32 4, i64 13, !dbg !1223
  store i64 0, i64* %75, align 8, !dbg !1224, !tbaa !1030
  %76 = getelementptr inbounds %"struct.Halide::Runtime::Internal::device_copy", %"struct.Halide::Runtime::Internal::device_copy"* %6, i64 0, i32 5, i64 13, !dbg !1225
  store i64 0, i64* %76, align 8, !dbg !1226, !tbaa !1030
  call void @llvm.dbg.value(metadata i64 14, metadata !1160, metadata !DIExpression()), !dbg !1218
  call void @llvm.dbg.value(metadata i64 14, metadata !1160, metadata !DIExpression()), !dbg !1218
  %77 = getelementptr inbounds %"struct.Halide::Runtime::Internal::device_copy", %"struct.Halide::Runtime::Internal::device_copy"* %6, i64 0, i32 3, i64 14, !dbg !1219
  store i64 1, i64* %77, align 8, !dbg !1222, !tbaa !1030
  %78 = getelementptr inbounds %"struct.Halide::Runtime::Internal::device_copy", %"struct.Halide::Runtime::Internal::device_copy"* %6, i64 0, i32 4, i64 14, !dbg !1223
  store i64 0, i64* %78, align 8, !dbg !1224, !tbaa !1030
  %79 = getelementptr inbounds %"struct.Halide::Runtime::Internal::device_copy", %"struct.Halide::Runtime::Internal::device_copy"* %6, i64 0, i32 5, i64 14, !dbg !1225
  store i64 0, i64* %79, align 8, !dbg !1226, !tbaa !1030
  call void @llvm.dbg.value(metadata i64 15, metadata !1160, metadata !DIExpression()), !dbg !1218
  call void @llvm.dbg.value(metadata i64 15, metadata !1160, metadata !DIExpression()), !dbg !1218
  %80 = getelementptr inbounds %"struct.Halide::Runtime::Internal::device_copy", %"struct.Halide::Runtime::Internal::device_copy"* %6, i64 0, i32 3, i64 15, !dbg !1219
  store i64 1, i64* %80, align 8, !dbg !1222, !tbaa !1030
  %81 = getelementptr inbounds %"struct.Halide::Runtime::Internal::device_copy", %"struct.Halide::Runtime::Internal::device_copy"* %6, i64 0, i32 4, i64 15, !dbg !1223
  store i64 0, i64* %81, align 8, !dbg !1224, !tbaa !1030
  %82 = getelementptr inbounds %"struct.Halide::Runtime::Internal::device_copy", %"struct.Halide::Runtime::Internal::device_copy"* %6, i64 0, i32 5, i64 15, !dbg !1225
  store i64 0, i64* %82, align 8, !dbg !1226, !tbaa !1030
  call void @llvm.dbg.value(metadata i64 16, metadata !1160, metadata !DIExpression()), !dbg !1218
  %83 = getelementptr inbounds %"struct.Halide::Runtime::Internal::device_copy", %"struct.Halide::Runtime::Internal::device_copy"* %6, i64 0, i32 2, !dbg !1227
  call void @llvm.dbg.value(metadata i32 0, metadata !1162, metadata !DIExpression()), !dbg !1228
  %84 = getelementptr inbounds %struct.halide_buffer_t, %struct.halide_buffer_t* %1, i64 0, i32 5, !dbg !1229
  %85 = load i32, i32* %84, align 4, !dbg !1229, !tbaa !1231
  %86 = icmp sgt i32 %85, 0, !dbg !1232
  br i1 %86, label %87, label %93, !dbg !1233

87:                                               ; preds = %25
  %88 = getelementptr inbounds %struct.halide_buffer_t, %struct.halide_buffer_t* %1, i64 0, i32 6
  %89 = load %struct.halide_dimension_t*, %struct.halide_dimension_t** %88, align 8, !tbaa !1234
  %90 = getelementptr inbounds %struct.halide_buffer_t, %struct.halide_buffer_t* %3, i64 0, i32 6
  %91 = load %struct.halide_dimension_t*, %struct.halide_dimension_t** %90, align 8, !tbaa !1234
  %92 = zext i32 %85 to i64, !dbg !1232
  br label %100, !dbg !1233

93:                                               ; preds = %100, %25
  %94 = phi i64 [ 0, %25 ], [ %113, %100 ], !dbg !1235
  %95 = load i64, i64* %34, align 8, !dbg !1236, !tbaa !1059
  %96 = mul i64 %94, %95, !dbg !1235
  store i64 %96, i64* %83, align 8, !dbg !1235, !tbaa !1090
  %97 = getelementptr inbounds %struct.halide_buffer_t, %struct.halide_buffer_t* %3, i64 0, i32 5, !dbg !1237
  %98 = load i32, i32* %97, align 4, !dbg !1237, !tbaa !1231
  %99 = icmp eq i32 %85, %98, !dbg !1238
  br i1 %99, label %116, label %125, !dbg !1239

100:                                              ; preds = %87, %100
  %101 = phi i64 [ 0, %87 ], [ %114, %100 ], !dbg !1228
  %102 = phi i64 [ 0, %87 ], [ %113, %100 ], !dbg !1228
  call void @llvm.dbg.value(metadata i64 %101, metadata !1162, metadata !DIExpression()), !dbg !1228
  %103 = getelementptr inbounds %struct.halide_dimension_t, %struct.halide_dimension_t* %89, i64 %101, i32 2, !dbg !1240
  %104 = load i32, i32* %103, align 4, !dbg !1240, !tbaa !1242
  %105 = sext i32 %104 to i64, !dbg !1244
  %106 = getelementptr inbounds %struct.halide_dimension_t, %struct.halide_dimension_t* %91, i64 %101, i32 0, !dbg !1245
  %107 = load i32, i32* %106, align 4, !dbg !1245, !tbaa !1246
  %108 = getelementptr inbounds %struct.halide_dimension_t, %struct.halide_dimension_t* %89, i64 %101, i32 0, !dbg !1247
  %109 = load i32, i32* %108, align 4, !dbg !1247, !tbaa !1246
  %110 = sub nsw i32 %107, %109, !dbg !1248
  %111 = sext i32 %110 to i64, !dbg !1249
  %112 = mul nsw i64 %111, %105, !dbg !1250
  %113 = add i64 %112, %102, !dbg !1251
  %114 = add nuw nsw i64 %101, 1, !dbg !1252
  call void @llvm.dbg.value(metadata i64 %114, metadata !1162, metadata !DIExpression()), !dbg !1228
  %115 = icmp eq i64 %114, %92, !dbg !1232
  br i1 %115, label %93, label %100, !dbg !1233, !llvm.loop !1253

116:                                              ; preds = %93
  call void @llvm.dbg.value(metadata %struct.halide_buffer_t* %1, metadata !1205, metadata !DIExpression(DW_OP_plus_uconst, 32, DW_OP_stack_value)), !dbg !1255
  call void @llvm.dbg.value(metadata %struct.halide_buffer_t* %3, metadata !1205, metadata !DIExpression(DW_OP_plus_uconst, 32, DW_OP_stack_value)), !dbg !1257
  %117 = getelementptr inbounds %struct.halide_buffer_t, %struct.halide_buffer_t* %3, i64 0, i32 4, i32 1, !dbg !1259
  %118 = load i8, i8* %117, align 1, !dbg !1259, !tbaa !1212
  %119 = zext i8 %118 to i32, !dbg !1259
  %120 = add nuw nsw i32 %119, 7, !dbg !1260
  %121 = lshr i32 %120, 3, !dbg !1261
  %122 = icmp ne i32 %32, %121, !dbg !1262
  %123 = icmp sgt i32 %85, 16
  %124 = or i1 %123, %122, !dbg !1263
  br i1 %124, label %125, label %127, !dbg !1263

125:                                              ; preds = %116, %93
  call void @llvm.dbg.declare(metadata %"struct.Halide::Runtime::Internal::device_copy"* %0, metadata !1164, metadata !DIExpression()), !dbg !1264
  %126 = bitcast %"struct.Halide::Runtime::Internal::device_copy"* %0 to i8*, !dbg !1264
  tail call void @llvm.memset.p0i8.i64(i8* nonnull align 8 dereferenceable(416) %126, i8 0, i64 416, i1 false), !dbg !1264
  br label %253, !dbg !1265

127:                                              ; preds = %116
  %128 = icmp eq i64 %95, 0, !dbg !1266
  br i1 %128, label %136, label %129, !dbg !1267

129:                                              ; preds = %127
  call void @llvm.dbg.value(metadata i32 0, metadata !1170, metadata !DIExpression()), !dbg !1268
  br i1 %86, label %130, label %251, !dbg !1269

130:                                              ; preds = %129
  %131 = getelementptr inbounds %struct.halide_buffer_t, %struct.halide_buffer_t* %3, i64 0, i32 6
  %132 = load %struct.halide_dimension_t*, %struct.halide_dimension_t** %131, align 8, !tbaa !1234
  %133 = getelementptr inbounds %struct.halide_buffer_t, %struct.halide_buffer_t* %1, i64 0, i32 6
  %134 = load %struct.halide_dimension_t*, %struct.halide_dimension_t** %133, align 8, !tbaa !1234
  %135 = zext i32 %85 to i64, !dbg !1270
  br label %144, !dbg !1269

136:                                              ; preds = %127
  call void @llvm.dbg.declare(metadata %"struct.Halide::Runtime::Internal::device_copy"* %0, metadata !1167, metadata !DIExpression()), !dbg !1271
  %137 = bitcast %"struct.Halide::Runtime::Internal::device_copy"* %0 to i8*, !dbg !1271
  tail call void @llvm.memset.p0i8.i64(i8* nonnull align 8 dereferenceable(416) %137, i8 0, i64 416, i1 false), !dbg !1271
  br label %253, !dbg !1272

138:                                              ; preds = %176
  %139 = load i64, i64* %34, align 8, !dbg !1273, !tbaa !1059
  %140 = load i64, i64* %36, align 8, !dbg !1274, !tbaa !1030
  %141 = icmp eq i64 %139, %140, !dbg !1275
  br i1 %141, label %142, label %251, !dbg !1276

142:                                              ; preds = %138
  %143 = load i64, i64* %37, align 8, !dbg !1277, !tbaa !1030
  br label %198, !dbg !1276

144:                                              ; preds = %130, %176
  %145 = phi i64 [ 0, %130 ], [ %183, %176 ]
  call void @llvm.dbg.value(metadata i64 %145, metadata !1170, metadata !DIExpression()), !dbg !1268
  %146 = getelementptr inbounds %struct.halide_dimension_t, %struct.halide_dimension_t* %132, i64 %145, i32 2, !dbg !1278
  %147 = load i32, i32* %146, align 4, !dbg !1278, !tbaa !1242
  %148 = sext i32 %147 to i64, !dbg !1279
  call void @llvm.dbg.value(metadata %struct.halide_buffer_t* %3, metadata !1205, metadata !DIExpression(DW_OP_plus_uconst, 32, DW_OP_stack_value)), !dbg !1280
  %149 = mul nsw i64 %148, %33, !dbg !1282
  call void @llvm.dbg.value(metadata i64 %149, metadata !1172, metadata !DIExpression()), !dbg !1283
  %150 = getelementptr inbounds %struct.halide_dimension_t, %struct.halide_dimension_t* %134, i64 %145, i32 2, !dbg !1284
  %151 = load i32, i32* %150, align 4, !dbg !1284, !tbaa !1242
  %152 = sext i32 %151 to i64, !dbg !1285
  call void @llvm.dbg.value(metadata %struct.halide_buffer_t* %1, metadata !1205, metadata !DIExpression(DW_OP_plus_uconst, 32, DW_OP_stack_value)), !dbg !1286
  %153 = mul nsw i64 %152, %33, !dbg !1288
  call void @llvm.dbg.value(metadata i64 %153, metadata !1175, metadata !DIExpression()), !dbg !1283
  call void @llvm.dbg.value(metadata i32 0, metadata !1176, metadata !DIExpression()), !dbg !1283
  %154 = icmp eq i64 %145, 0, !dbg !1289
  br i1 %154, label %170, label %155, !dbg !1292

155:                                              ; preds = %144
  %156 = icmp eq i64 %149, 0
  br i1 %156, label %157, label %159, !dbg !1292

157:                                              ; preds = %155
  call void @llvm.dbg.value(metadata i32 undef, metadata !1176, metadata !DIExpression(DW_OP_plus_uconst, 1, DW_OP_stack_value)), !dbg !1283
  %158 = trunc i64 %145 to i32, !dbg !1293
  br label %170, !dbg !1293

159:                                              ; preds = %155, %164
  %160 = phi i64 [ %165, %164 ], [ 0, %155 ]
  call void @llvm.dbg.value(metadata i64 %160, metadata !1176, metadata !DIExpression()), !dbg !1283
  %161 = getelementptr inbounds %"struct.Halide::Runtime::Internal::device_copy", %"struct.Halide::Runtime::Internal::device_copy"* %6, i64 0, i32 5, i64 %160, !dbg !1295
  %162 = load i64, i64* %161, align 8, !dbg !1295, !tbaa !1030
  %163 = icmp ult i64 %149, %162, !dbg !1298
  br i1 %163, label %167, label %164, !dbg !1299

164:                                              ; preds = %159
  %165 = add nuw nsw i64 %160, 1, !dbg !1300
  call void @llvm.dbg.value(metadata i64 %165, metadata !1176, metadata !DIExpression()), !dbg !1283
  %166 = icmp eq i64 %165, %145, !dbg !1289
  br i1 %166, label %167, label %159, !dbg !1292, !llvm.loop !1301

167:                                              ; preds = %159, %164
  %168 = phi i64 [ %145, %164 ], [ %160, %159 ]
  %169 = trunc i64 %168 to i32, !dbg !1303
  br label %170, !dbg !1293

170:                                              ; preds = %157, %167, %144
  %171 = phi i32 [ 0, %144 ], [ %169, %167 ], [ %158, %157 ], !dbg !1303
  call void @llvm.dbg.value(metadata i64 %145, metadata !1177, metadata !DIExpression()), !dbg !1304
  %172 = zext i32 %171 to i64, !dbg !1293
  %173 = icmp ugt i64 %145, %172, !dbg !1293
  br i1 %173, label %174, label %176, !dbg !1305

174:                                              ; preds = %170
  %175 = sext i32 %171 to i64, !dbg !1305
  br label %185, !dbg !1305

176:                                              ; preds = %185, %170
  %177 = getelementptr inbounds %struct.halide_dimension_t, %struct.halide_dimension_t* %132, i64 %145, i32 1, !dbg !1306
  %178 = load i32, i32* %177, align 4, !dbg !1306, !tbaa !1307
  %179 = sext i32 %178 to i64, !dbg !1308
  %180 = getelementptr inbounds %"struct.Halide::Runtime::Internal::device_copy", %"struct.Halide::Runtime::Internal::device_copy"* %6, i64 0, i32 3, i64 %172, !dbg !1309
  store i64 %179, i64* %180, align 8, !dbg !1310, !tbaa !1030
  %181 = getelementptr inbounds %"struct.Halide::Runtime::Internal::device_copy", %"struct.Halide::Runtime::Internal::device_copy"* %6, i64 0, i32 5, i64 %172, !dbg !1311
  store i64 %149, i64* %181, align 8, !dbg !1312, !tbaa !1030
  %182 = getelementptr inbounds %"struct.Halide::Runtime::Internal::device_copy", %"struct.Halide::Runtime::Internal::device_copy"* %6, i64 0, i32 4, i64 %172, !dbg !1313
  store i64 %153, i64* %182, align 8, !dbg !1314, !tbaa !1030
  %183 = add nuw nsw i64 %145, 1, !dbg !1315
  call void @llvm.dbg.value(metadata i64 %183, metadata !1170, metadata !DIExpression()), !dbg !1268
  %184 = icmp eq i64 %183, %135, !dbg !1270
  br i1 %184, label %138, label %144, !dbg !1269, !llvm.loop !1316

185:                                              ; preds = %174, %185
  %186 = phi i64 [ %145, %174 ], [ %187, %185 ]
  call void @llvm.dbg.value(metadata i64 %186, metadata !1177, metadata !DIExpression()), !dbg !1304
  %187 = add nsw i64 %186, -1, !dbg !1318
  %188 = getelementptr inbounds %"struct.Halide::Runtime::Internal::device_copy", %"struct.Halide::Runtime::Internal::device_copy"* %6, i64 0, i32 3, i64 %187, !dbg !1320
  %189 = load i64, i64* %188, align 8, !dbg !1320, !tbaa !1030
  %190 = getelementptr inbounds %"struct.Halide::Runtime::Internal::device_copy", %"struct.Halide::Runtime::Internal::device_copy"* %6, i64 0, i32 3, i64 %186, !dbg !1321
  store i64 %189, i64* %190, align 8, !dbg !1322, !tbaa !1030
  %191 = getelementptr inbounds %"struct.Halide::Runtime::Internal::device_copy", %"struct.Halide::Runtime::Internal::device_copy"* %6, i64 0, i32 5, i64 %187, !dbg !1323
  %192 = load i64, i64* %191, align 8, !dbg !1323, !tbaa !1030
  %193 = getelementptr inbounds %"struct.Halide::Runtime::Internal::device_copy", %"struct.Halide::Runtime::Internal::device_copy"* %6, i64 0, i32 5, i64 %186, !dbg !1324
  store i64 %192, i64* %193, align 8, !dbg !1325, !tbaa !1030
  %194 = getelementptr inbounds %"struct.Halide::Runtime::Internal::device_copy", %"struct.Halide::Runtime::Internal::device_copy"* %6, i64 0, i32 4, i64 %187, !dbg !1326
  %195 = load i64, i64* %194, align 8, !dbg !1326, !tbaa !1030
  %196 = getelementptr inbounds %"struct.Halide::Runtime::Internal::device_copy", %"struct.Halide::Runtime::Internal::device_copy"* %6, i64 0, i32 4, i64 %186, !dbg !1327
  store i64 %195, i64* %196, align 8, !dbg !1328, !tbaa !1030
  call void @llvm.dbg.value(metadata i64 %187, metadata !1177, metadata !DIExpression()), !dbg !1304
  %197 = icmp sgt i64 %187, %175, !dbg !1293
  br i1 %197, label %185, label %176, !dbg !1305, !llvm.loop !1329

198:                                              ; preds = %142, %202
  %199 = phi i64 [ %143, %142 ], [ %207, %202 ], !dbg !1277
  %200 = phi i64 [ %140, %142 ], [ %204, %202 ]
  %201 = icmp eq i64 %200, %199, !dbg !1331
  br i1 %201, label %202, label %251, !dbg !1332

202:                                              ; preds = %198
  %203 = load i64, i64* %35, align 8, !dbg !1333, !tbaa !1030
  %204 = mul i64 %203, %199, !dbg !1334
  store i64 %204, i64* %34, align 8, !dbg !1334, !tbaa !1059
  call void @llvm.dbg.value(metadata i64 1, metadata !1179, metadata !DIExpression()), !dbg !1335
  %205 = load i64, i64* %38, align 8, !dbg !1336, !tbaa !1030
  store i64 %205, i64* %35, align 8, !dbg !1339, !tbaa !1030
  %206 = load i64, i64* %39, align 8, !dbg !1340, !tbaa !1030
  store i64 %206, i64* %36, align 8, !dbg !1341, !tbaa !1030
  %207 = load i64, i64* %40, align 8, !dbg !1342, !tbaa !1030
  store i64 %207, i64* %37, align 8, !dbg !1343, !tbaa !1030
  call void @llvm.dbg.value(metadata i64 2, metadata !1179, metadata !DIExpression()), !dbg !1335
  %208 = load i64, i64* %41, align 8, !dbg !1336, !tbaa !1030
  store i64 %208, i64* %38, align 8, !dbg !1339, !tbaa !1030
  %209 = load i64, i64* %42, align 8, !dbg !1340, !tbaa !1030
  store i64 %209, i64* %39, align 8, !dbg !1341, !tbaa !1030
  %210 = load i64, i64* %43, align 8, !dbg !1342, !tbaa !1030
  store i64 %210, i64* %40, align 8, !dbg !1343, !tbaa !1030
  call void @llvm.dbg.value(metadata i64 3, metadata !1179, metadata !DIExpression()), !dbg !1335
  %211 = load i64, i64* %44, align 8, !dbg !1336, !tbaa !1030
  store i64 %211, i64* %41, align 8, !dbg !1339, !tbaa !1030
  %212 = load i64, i64* %45, align 8, !dbg !1340, !tbaa !1030
  store i64 %212, i64* %42, align 8, !dbg !1341, !tbaa !1030
  %213 = load i64, i64* %46, align 8, !dbg !1342, !tbaa !1030
  store i64 %213, i64* %43, align 8, !dbg !1343, !tbaa !1030
  call void @llvm.dbg.value(metadata i64 4, metadata !1179, metadata !DIExpression()), !dbg !1335
  %214 = load i64, i64* %47, align 8, !dbg !1336, !tbaa !1030
  store i64 %214, i64* %44, align 8, !dbg !1339, !tbaa !1030
  %215 = load i64, i64* %48, align 8, !dbg !1340, !tbaa !1030
  store i64 %215, i64* %45, align 8, !dbg !1341, !tbaa !1030
  %216 = load i64, i64* %49, align 8, !dbg !1342, !tbaa !1030
  store i64 %216, i64* %46, align 8, !dbg !1343, !tbaa !1030
  call void @llvm.dbg.value(metadata i64 5, metadata !1179, metadata !DIExpression()), !dbg !1335
  %217 = load i64, i64* %50, align 8, !dbg !1336, !tbaa !1030
  store i64 %217, i64* %47, align 8, !dbg !1339, !tbaa !1030
  %218 = load i64, i64* %51, align 8, !dbg !1340, !tbaa !1030
  store i64 %218, i64* %48, align 8, !dbg !1341, !tbaa !1030
  %219 = load i64, i64* %52, align 8, !dbg !1342, !tbaa !1030
  store i64 %219, i64* %49, align 8, !dbg !1343, !tbaa !1030
  call void @llvm.dbg.value(metadata i64 6, metadata !1179, metadata !DIExpression()), !dbg !1335
  %220 = load i64, i64* %53, align 8, !dbg !1336, !tbaa !1030
  store i64 %220, i64* %50, align 8, !dbg !1339, !tbaa !1030
  %221 = load i64, i64* %54, align 8, !dbg !1340, !tbaa !1030
  store i64 %221, i64* %51, align 8, !dbg !1341, !tbaa !1030
  %222 = load i64, i64* %55, align 8, !dbg !1342, !tbaa !1030
  store i64 %222, i64* %52, align 8, !dbg !1343, !tbaa !1030
  call void @llvm.dbg.value(metadata i64 7, metadata !1179, metadata !DIExpression()), !dbg !1335
  %223 = load i64, i64* %56, align 8, !dbg !1336, !tbaa !1030
  store i64 %223, i64* %53, align 8, !dbg !1339, !tbaa !1030
  %224 = load i64, i64* %57, align 8, !dbg !1340, !tbaa !1030
  store i64 %224, i64* %54, align 8, !dbg !1341, !tbaa !1030
  %225 = load i64, i64* %58, align 8, !dbg !1342, !tbaa !1030
  store i64 %225, i64* %55, align 8, !dbg !1343, !tbaa !1030
  call void @llvm.dbg.value(metadata i64 8, metadata !1179, metadata !DIExpression()), !dbg !1335
  %226 = load i64, i64* %59, align 8, !dbg !1336, !tbaa !1030
  store i64 %226, i64* %56, align 8, !dbg !1339, !tbaa !1030
  %227 = load i64, i64* %60, align 8, !dbg !1340, !tbaa !1030
  store i64 %227, i64* %57, align 8, !dbg !1341, !tbaa !1030
  %228 = load i64, i64* %61, align 8, !dbg !1342, !tbaa !1030
  store i64 %228, i64* %58, align 8, !dbg !1343, !tbaa !1030
  call void @llvm.dbg.value(metadata i64 9, metadata !1179, metadata !DIExpression()), !dbg !1335
  %229 = load i64, i64* %62, align 8, !dbg !1336, !tbaa !1030
  store i64 %229, i64* %59, align 8, !dbg !1339, !tbaa !1030
  %230 = load i64, i64* %63, align 8, !dbg !1340, !tbaa !1030
  store i64 %230, i64* %60, align 8, !dbg !1341, !tbaa !1030
  %231 = load i64, i64* %64, align 8, !dbg !1342, !tbaa !1030
  store i64 %231, i64* %61, align 8, !dbg !1343, !tbaa !1030
  call void @llvm.dbg.value(metadata i64 10, metadata !1179, metadata !DIExpression()), !dbg !1335
  %232 = load i64, i64* %65, align 8, !dbg !1336, !tbaa !1030
  store i64 %232, i64* %62, align 8, !dbg !1339, !tbaa !1030
  %233 = load i64, i64* %66, align 8, !dbg !1340, !tbaa !1030
  store i64 %233, i64* %63, align 8, !dbg !1341, !tbaa !1030
  %234 = load i64, i64* %67, align 8, !dbg !1342, !tbaa !1030
  store i64 %234, i64* %64, align 8, !dbg !1343, !tbaa !1030
  call void @llvm.dbg.value(metadata i64 11, metadata !1179, metadata !DIExpression()), !dbg !1335
  %235 = load i64, i64* %68, align 8, !dbg !1336, !tbaa !1030
  store i64 %235, i64* %65, align 8, !dbg !1339, !tbaa !1030
  %236 = load i64, i64* %69, align 8, !dbg !1340, !tbaa !1030
  store i64 %236, i64* %66, align 8, !dbg !1341, !tbaa !1030
  %237 = load i64, i64* %70, align 8, !dbg !1342, !tbaa !1030
  store i64 %237, i64* %67, align 8, !dbg !1343, !tbaa !1030
  call void @llvm.dbg.value(metadata i64 12, metadata !1179, metadata !DIExpression()), !dbg !1335
  %238 = load i64, i64* %71, align 8, !dbg !1336, !tbaa !1030
  store i64 %238, i64* %68, align 8, !dbg !1339, !tbaa !1030
  %239 = load i64, i64* %72, align 8, !dbg !1340, !tbaa !1030
  store i64 %239, i64* %69, align 8, !dbg !1341, !tbaa !1030
  %240 = load i64, i64* %73, align 8, !dbg !1342, !tbaa !1030
  store i64 %240, i64* %70, align 8, !dbg !1343, !tbaa !1030
  call void @llvm.dbg.value(metadata i64 13, metadata !1179, metadata !DIExpression()), !dbg !1335
  %241 = load i64, i64* %74, align 8, !dbg !1336, !tbaa !1030
  store i64 %241, i64* %71, align 8, !dbg !1339, !tbaa !1030
  %242 = load i64, i64* %75, align 8, !dbg !1340, !tbaa !1030
  store i64 %242, i64* %72, align 8, !dbg !1341, !tbaa !1030
  %243 = load i64, i64* %76, align 8, !dbg !1342, !tbaa !1030
  store i64 %243, i64* %73, align 8, !dbg !1343, !tbaa !1030
  call void @llvm.dbg.value(metadata i64 14, metadata !1179, metadata !DIExpression()), !dbg !1335
  %244 = load i64, i64* %77, align 8, !dbg !1336, !tbaa !1030
  store i64 %244, i64* %74, align 8, !dbg !1339, !tbaa !1030
  %245 = load i64, i64* %78, align 8, !dbg !1340, !tbaa !1030
  store i64 %245, i64* %75, align 8, !dbg !1341, !tbaa !1030
  %246 = load i64, i64* %79, align 8, !dbg !1342, !tbaa !1030
  store i64 %246, i64* %76, align 8, !dbg !1343, !tbaa !1030
  call void @llvm.dbg.value(metadata i64 15, metadata !1179, metadata !DIExpression()), !dbg !1335
  %247 = load i64, i64* %80, align 8, !dbg !1336, !tbaa !1030
  store i64 %247, i64* %77, align 8, !dbg !1339, !tbaa !1030
  %248 = load i64, i64* %81, align 8, !dbg !1340, !tbaa !1030
  store i64 %248, i64* %78, align 8, !dbg !1341, !tbaa !1030
  %249 = load i64, i64* %82, align 8, !dbg !1342, !tbaa !1030
  store i64 %249, i64* %79, align 8, !dbg !1343, !tbaa !1030
  call void @llvm.dbg.value(metadata i64 16, metadata !1179, metadata !DIExpression()), !dbg !1335
  store i64 1, i64* %80, align 8, !dbg !1344, !tbaa !1030
  store i64 0, i64* %81, align 8, !dbg !1345, !tbaa !1030
  store i64 0, i64* %82, align 8, !dbg !1346, !tbaa !1030
  %250 = icmp eq i64 %204, %206, !dbg !1275
  br i1 %250, label %198, label %251, !dbg !1276, !llvm.loop !1347

251:                                              ; preds = %198, %202, %129, %138
  %252 = bitcast %"struct.Halide::Runtime::Internal::device_copy"* %0 to i8*, !dbg !1349
  call void @llvm.memcpy.p0i8.p0i8.i64(i8* nonnull align 8 dereferenceable(416) %252, i8* nonnull align 8 dereferenceable(416) %7, i64 416, i1 false), !dbg !1349, !tbaa.struct !1350
  br label %253, !dbg !1351

253:                                              ; preds = %251, %136, %125
  call void @llvm.lifetime.end.p0i8(i64 416, i8* nonnull %7) #10, !dbg !1352
  ret void, !dbg !1352
}

; Function Attrs: argmemonly nofree nosync nounwind willreturn writeonly
declare void @llvm.memset.p0i8.i64(i8* nocapture writeonly, i8, i64, i1 immarg) #5

; Function Attrs: argmemonly nofree nosync nounwind willreturn
declare void @llvm.memcpy.p0i8.p0i8.i64(i8* noalias nocapture writeonly, i8* noalias nocapture readonly, i64, i1 immarg) #2

; Function Attrs: nounwind mustprogress
define weak dso_local void @_ZN6Halide7Runtime8Internal24make_host_to_device_copyEPK15halide_buffer_t(%"struct.Halide::Runtime::Internal::device_copy"* noalias sret(%"struct.Halide::Runtime::Internal::device_copy") align 8 %0, %struct.halide_buffer_t* %1) local_unnamed_addr #0 !dbg !1353 {
  call void @llvm.dbg.value(metadata %struct.halide_buffer_t* %1, metadata !1357, metadata !DIExpression()), !dbg !1358
  tail call void @_ZN6Halide7Runtime8Internal16make_buffer_copyEPK15halide_buffer_tbS4_b(%"struct.Halide::Runtime::Internal::device_copy"* sret(%"struct.Halide::Runtime::Internal::device_copy") align 8 %0, %struct.halide_buffer_t* %1, i1 zeroext true, %struct.halide_buffer_t* %1, i1 zeroext false) #9, !dbg !1359
  ret void, !dbg !1360
}

; Function Attrs: nounwind mustprogress
define weak dso_local void @_ZN6Halide7Runtime8Internal24make_device_to_host_copyEPK15halide_buffer_t(%"struct.Halide::Runtime::Internal::device_copy"* noalias sret(%"struct.Halide::Runtime::Internal::device_copy") align 8 %0, %struct.halide_buffer_t* %1) local_unnamed_addr #0 !dbg !1361 {
  call void @llvm.dbg.value(metadata %struct.halide_buffer_t* %1, metadata !1363, metadata !DIExpression()), !dbg !1364
  tail call void @_ZN6Halide7Runtime8Internal16make_buffer_copyEPK15halide_buffer_tbS4_b(%"struct.Halide::Runtime::Internal::device_copy"* sret(%"struct.Halide::Runtime::Internal::device_copy") align 8 %0, %struct.halide_buffer_t* %1, i1 zeroext false, %struct.halide_buffer_t* %1, i1 zeroext true) #9, !dbg !1365
  ret void, !dbg !1366
}

; Function Attrs: nounwind
define weak dso_local i8* @halide_opencl_get_symbol(i8* %0, i8* %1) local_unnamed_addr #4 !dbg !1367 {
  call void @llvm.dbg.value(metadata i8* %0, metadata !1371, metadata !DIExpression()), !dbg !1380
  call void @llvm.dbg.value(metadata i8* %1, metadata !1372, metadata !DIExpression()), !dbg !1380
  %3 = load i8*, i8** @_ZN6Halide7Runtime8Internal6OpenCL10lib_openclE, align 8, !dbg !1381, !tbaa !1382
  %4 = tail call i8* @halide_get_library_symbol(i8* %3, i8* %1) #8, !dbg !1383
  call void @llvm.dbg.value(metadata i8* %4, metadata !1373, metadata !DIExpression()), !dbg !1380
  %5 = icmp eq i8* %4, null, !dbg !1384
  br i1 %5, label %6, label %35, !dbg !1386

6:                                                ; preds = %2
  call void @llvm.dbg.value(metadata i64 0, metadata !1378, metadata !DIExpression()), !dbg !1387
  %7 = tail call i8* @halide_load_library(i8* getelementptr inbounds ([13 x i8], [13 x i8]* @.str.1, i64 0, i64 0)) #8, !dbg !1388
  store i8* %7, i8** @_ZN6Halide7Runtime8Internal6OpenCL10lib_openclE, align 8, !dbg !1391, !tbaa !1382
  %8 = icmp eq i8* %7, null, !dbg !1392
  call void @llvm.dbg.value(metadata i64 0, metadata !1378, metadata !DIExpression(DW_OP_plus_uconst, 1, DW_OP_stack_value)), !dbg !1387
  br i1 %8, label %9, label %12, !dbg !1394

9:                                                ; preds = %6
  call void @llvm.dbg.value(metadata i64 1, metadata !1378, metadata !DIExpression()), !dbg !1387
  call void @llvm.dbg.value(metadata i64 0, metadata !1378, metadata !DIExpression(DW_OP_plus_uconst, 1, DW_OP_stack_value)), !dbg !1387
  call void @llvm.dbg.value(metadata i64 1, metadata !1378, metadata !DIExpression()), !dbg !1387
  %10 = tail call i8* @halide_load_library(i8* getelementptr inbounds ([51 x i8], [51 x i8]* @.str.2, i64 0, i64 0)) #8, !dbg !1388
  store i8* %10, i8** @_ZN6Halide7Runtime8Internal6OpenCL10lib_openclE, align 8, !dbg !1391, !tbaa !1382
  %11 = icmp eq i8* %10, null, !dbg !1392
  call void @llvm.dbg.value(metadata i64 1, metadata !1378, metadata !DIExpression(DW_OP_plus_uconst, 1, DW_OP_stack_value)), !dbg !1387
  br i1 %11, label %32, label %12, !dbg !1394

12:                                               ; preds = %9, %6
  %13 = phi i8* [ getelementptr inbounds ([13 x i8], [13 x i8]* @.str.1, i64 0, i64 0), %6 ], [ getelementptr inbounds ([51 x i8], [51 x i8]* @.str.2, i64 0, i64 0), %9 ], !dbg !1395
  call void @llvm.dbg.value(metadata %"class.Halide::Runtime::Internal::(anonymous namespace)::Printer"* undef, metadata !1093, metadata !DIExpression()) #10, !dbg !1396
  call void @llvm.dbg.value(metadata i8* %0, metadata !1096, metadata !DIExpression()) #10, !dbg !1396
  call void @llvm.dbg.value(metadata i8* null, metadata !1097, metadata !DIExpression()) #10, !dbg !1396
  %14 = tail call i8* @malloc(i64 1024) #8, !dbg !1399
  %15 = icmp eq i8* %14, null, !dbg !1400
  br i1 %15, label %18, label %16, !dbg !1401

16:                                               ; preds = %12
  %17 = getelementptr inbounds i8, i8* %14, i64 1023, !dbg !1402
  store i8 0, i8* %17, align 1, !dbg !1403, !tbaa !1132
  br label %18, !dbg !1404

18:                                               ; preds = %12, %16
  %19 = phi i8* [ %17, %16 ], [ null, %12 ], !dbg !1405
  call void @llvm.dbg.value(metadata %"class.Halide::Runtime::Internal::(anonymous namespace)::Printer"* undef, metadata !1110, metadata !DIExpression()) #10, !dbg !1406
  call void @llvm.dbg.value(metadata i8* getelementptr inbounds ([36 x i8], [36 x i8]* @.str.3, i64 0, i64 0), metadata !1113, metadata !DIExpression()) #10, !dbg !1406
  %20 = tail call i8* @halide_string_to_string(i8* %14, i8* %19, i8* nonnull getelementptr inbounds ([36 x i8], [36 x i8]* @.str.3, i64 0, i64 0)) #8, !dbg !1408
  call void @llvm.dbg.value(metadata %"class.Halide::Runtime::Internal::(anonymous namespace)::Printer"* undef, metadata !1110, metadata !DIExpression()) #10, !dbg !1409
  call void @llvm.dbg.value(metadata i8* %13, metadata !1113, metadata !DIExpression()) #10, !dbg !1409
  %21 = tail call i8* @halide_string_to_string(i8* %20, i8* %19, i8* nonnull %13) #8, !dbg !1411
  call void @llvm.dbg.value(metadata %"class.Halide::Runtime::Internal::(anonymous namespace)::Printer"* undef, metadata !1110, metadata !DIExpression()) #10, !dbg !1412
  call void @llvm.dbg.value(metadata i8* getelementptr inbounds ([2 x i8], [2 x i8]* @.str.4, i64 0, i64 0), metadata !1113, metadata !DIExpression()) #10, !dbg !1412
  %22 = tail call i8* @halide_string_to_string(i8* %21, i8* %19, i8* nonnull getelementptr inbounds ([2 x i8], [2 x i8]* @.str.4, i64 0, i64 0)) #8, !dbg !1414
  call void @llvm.dbg.value(metadata %"class.Halide::Runtime::Internal::(anonymous namespace)::Printer"* undef, metadata !1119, metadata !DIExpression()) #10, !dbg !1415
  br i1 %15, label %23, label %24, !dbg !1417

23:                                               ; preds = %18
  tail call void @halide_error(i8* %0, i8* getelementptr inbounds ([35 x i8], [35 x i8]* @.str.294, i64 0, i64 0)) #8, !dbg !1418
  br label %30, !dbg !1419

24:                                               ; preds = %18
  call void @llvm.dbg.value(metadata %"class.Halide::Runtime::Internal::(anonymous namespace)::Printer"* undef, metadata !1133, metadata !DIExpression()) #10, !dbg !1420
  %25 = ptrtoint i8* %22 to i64, !dbg !1422
  %26 = ptrtoint i8* %14 to i64, !dbg !1422
  %27 = add i64 %25, 1, !dbg !1422
  %28 = sub i64 %27, %26, !dbg !1423
  %29 = tail call i32 @halide_msan_annotate_memory_is_initialized(i8* %0, i8* nonnull %14, i64 %28) #8, !dbg !1424
  tail call void @halide_print(i8* %0, i8* nonnull %14) #8, !dbg !1425
  br label %30

30:                                               ; preds = %24, %23
  tail call void @free(i8* %14) #8, !dbg !1426
  %31 = load i8*, i8** @_ZN6Halide7Runtime8Internal6OpenCL10lib_openclE, align 8, !dbg !1427, !tbaa !1382
  br label %32, !dbg !1428

32:                                               ; preds = %9, %30
  %33 = phi i8* [ %31, %30 ], [ null, %9 ], !dbg !1427
  %34 = tail call i8* @halide_get_library_symbol(i8* %33, i8* %1) #8, !dbg !1429
  br label %35

35:                                               ; preds = %2, %32
  %36 = phi i8* [ %34, %32 ], [ %4, %2 ], !dbg !1380
  ret i8* %36, !dbg !1430
}

declare !dbg !1431 extern_weak dso_local i8* @halide_get_library_symbol(i8*, i8*) local_unnamed_addr #3

declare !dbg !1432 extern_weak dso_local i8* @halide_load_library(i8*) local_unnamed_addr #3

; Function Attrs: nounwind
define weak dso_local void @_ZN6Halide7Runtime8Internal6OpenCL14load_libopenclEPv(i8* %0) local_unnamed_addr #4 !dbg !1435 {
  call void @llvm.dbg.value(metadata i8* %0, metadata !1439, metadata !DIExpression()), !dbg !1440
  call void @llvm.dbg.value(metadata %"class.Halide::Runtime::Internal::(anonymous namespace)::Printer"* undef, metadata !1093, metadata !DIExpression()) #10, !dbg !1441
  call void @llvm.dbg.value(metadata i8* %0, metadata !1096, metadata !DIExpression()) #10, !dbg !1441
  call void @llvm.dbg.value(metadata i8* null, metadata !1097, metadata !DIExpression()) #10, !dbg !1441
  %2 = tail call i8* @malloc(i64 1024) #8, !dbg !1443
  %3 = icmp eq i8* %2, null, !dbg !1444
  br i1 %3, label %6, label %4, !dbg !1445

4:                                                ; preds = %1
  %5 = getelementptr inbounds i8, i8* %2, i64 1023, !dbg !1446
  store i8 0, i8* %5, align 1, !dbg !1447, !tbaa !1132
  br label %6, !dbg !1448

6:                                                ; preds = %1, %4
  %7 = phi i8* [ %5, %4 ], [ null, %1 ], !dbg !1449
  call void @llvm.dbg.value(metadata %"class.Halide::Runtime::Internal::(anonymous namespace)::Printer"* undef, metadata !1110, metadata !DIExpression()) #10, !dbg !1450
  call void @llvm.dbg.value(metadata i8* getelementptr inbounds ([35 x i8], [35 x i8]* @.str.5, i64 0, i64 0), metadata !1113, metadata !DIExpression()) #10, !dbg !1450
  %8 = tail call i8* @halide_string_to_string(i8* %2, i8* %7, i8* nonnull getelementptr inbounds ([35 x i8], [35 x i8]* @.str.5, i64 0, i64 0)) #8, !dbg !1452
  call void @llvm.dbg.value(metadata %"class.Halide::Runtime::Internal::(anonymous namespace)::Printer"* undef, metadata !1453, metadata !DIExpression()) #10, !dbg !1457
  call void @llvm.dbg.value(metadata i8* %0, metadata !1456, metadata !DIExpression()) #10, !dbg !1457
  %9 = tail call i8* @halide_pointer_to_string(i8* %8, i8* %7, i8* %0) #8, !dbg !1459
  call void @llvm.dbg.value(metadata %"class.Halide::Runtime::Internal::(anonymous namespace)::Printer"* undef, metadata !1110, metadata !DIExpression()) #10, !dbg !1460
  call void @llvm.dbg.value(metadata i8* getelementptr inbounds ([3 x i8], [3 x i8]* @.str.6, i64 0, i64 0), metadata !1113, metadata !DIExpression()) #10, !dbg !1460
  %10 = tail call i8* @halide_string_to_string(i8* %9, i8* %7, i8* nonnull getelementptr inbounds ([3 x i8], [3 x i8]* @.str.6, i64 0, i64 0)) #8, !dbg !1462
  call void @llvm.dbg.value(metadata %"class.Halide::Runtime::Internal::(anonymous namespace)::Printer"* undef, metadata !1119, metadata !DIExpression()) #10, !dbg !1463
  br i1 %3, label %11, label %12, !dbg !1465

11:                                               ; preds = %6
  tail call void @halide_error(i8* %0, i8* getelementptr inbounds ([35 x i8], [35 x i8]* @.str.294, i64 0, i64 0)) #8, !dbg !1466
  br label %18, !dbg !1467

12:                                               ; preds = %6
  call void @llvm.dbg.value(metadata %"class.Halide::Runtime::Internal::(anonymous namespace)::Printer"* undef, metadata !1133, metadata !DIExpression()) #10, !dbg !1468
  %13 = ptrtoint i8* %10 to i64, !dbg !1470
  %14 = ptrtoint i8* %2 to i64, !dbg !1470
  %15 = add i64 %13, 1, !dbg !1470
  %16 = sub i64 %15, %14, !dbg !1471
  %17 = tail call i32 @halide_msan_annotate_memory_is_initialized(i8* %0, i8* nonnull %2, i64 %16) #8, !dbg !1472
  tail call void @halide_print(i8* %0, i8* nonnull %2) #8, !dbg !1473
  br label %18

18:                                               ; preds = %12, %11
  tail call void @free(i8* %2) #8, !dbg !1474
  %19 = load %struct._cl_context* (i64*, i32, %struct._cl_device_id**, void (i8*, i8*, i64, i8*)*, i8*, i32*)*, %struct._cl_context* (i64*, i32, %struct._cl_device_id**, void (i8*, i8*, i64, i8*)*, i8*, i32*)** @_ZN6Halide7Runtime8Internal6OpenCL15clCreateContextE, align 8, !dbg !1475, !tbaa !1382
  %20 = icmp eq %struct._cl_context* (i64*, i32, %struct._cl_device_id**, void (i8*, i8*, i64, i8*)*, i8*, i32*)* %19, null, !dbg !1475
  br i1 %20, label %22, label %21, !dbg !1478

21:                                               ; preds = %18
  tail call void @halide_print(i8* %0, i8* getelementptr inbounds ([119 x i8], [119 x i8]* @.str.7, i64 0, i64 0)) #8, !dbg !1479
  tail call void @abort() #8, !dbg !1479
  br label %22, !dbg !1479

22:                                               ; preds = %18, %21
  call void @llvm.dbg.value(metadata i8* %0, metadata !1481, metadata !DIExpression()) #10, !dbg !1491
  call void @llvm.dbg.value(metadata i8* getelementptr inbounds ([17 x i8], [17 x i8]* @.str.8, i64 0, i64 0), metadata !1486, metadata !DIExpression()) #10, !dbg !1491
  call void @llvm.dbg.value(metadata i1 true, metadata !1487, metadata !DIExpression(DW_OP_LLVM_convert, 1, DW_ATE_unsigned, DW_OP_LLVM_convert, 8, DW_ATE_unsigned, DW_OP_stack_value)) #10, !dbg !1491
  %23 = tail call i8* @halide_opencl_get_symbol(i8* %0, i8* getelementptr inbounds ([17 x i8], [17 x i8]* @.str.8, i64 0, i64 0)) #8, !dbg !1494
  call void @llvm.dbg.value(metadata i8* %23, metadata !1488, metadata !DIExpression()) #10, !dbg !1491
  %24 = icmp eq i8* %23, null, !dbg !1495
  br i1 %24, label %25, label %43, !dbg !1497

25:                                               ; preds = %22
  call void @llvm.dbg.value(metadata %"class.Halide::Runtime::Internal::(anonymous namespace)::Printer.0"* undef, metadata !1498, metadata !DIExpression()) #10, !dbg !1504
  call void @llvm.dbg.value(metadata i8* %0, metadata !1501, metadata !DIExpression()) #10, !dbg !1504
  call void @llvm.dbg.value(metadata i8* null, metadata !1502, metadata !DIExpression()) #10, !dbg !1504
  %26 = tail call i8* @malloc(i64 1024) #8, !dbg !1507
  %27 = icmp eq i8* %26, null, !dbg !1512
  br i1 %27, label %30, label %28, !dbg !1514

28:                                               ; preds = %25
  %29 = getelementptr inbounds i8, i8* %26, i64 1023, !dbg !1515
  store i8 0, i8* %29, align 1, !dbg !1517, !tbaa !1132
  br label %30, !dbg !1518

30:                                               ; preds = %28, %25
  %31 = phi i8* [ %29, %28 ], [ null, %25 ], !dbg !1519
  call void @llvm.dbg.value(metadata %"class.Halide::Runtime::Internal::(anonymous namespace)::Printer.0"* undef, metadata !1520, metadata !DIExpression()) #10, !dbg !1524
  call void @llvm.dbg.value(metadata i8* getelementptr inbounds ([23 x i8], [23 x i8]* @.str.296, i64 0, i64 0), metadata !1523, metadata !DIExpression()) #10, !dbg !1524
  %32 = tail call i8* @halide_string_to_string(i8* %26, i8* %31, i8* nonnull getelementptr inbounds ([23 x i8], [23 x i8]* @.str.296, i64 0, i64 0)) #8, !dbg !1526
  call void @llvm.dbg.value(metadata %"class.Halide::Runtime::Internal::(anonymous namespace)::Printer.0"* undef, metadata !1520, metadata !DIExpression()) #10, !dbg !1529
  call void @llvm.dbg.value(metadata i8* getelementptr inbounds ([17 x i8], [17 x i8]* @.str.8, i64 0, i64 0), metadata !1523, metadata !DIExpression()) #10, !dbg !1529
  %33 = tail call i8* @halide_string_to_string(i8* %32, i8* %31, i8* nonnull getelementptr inbounds ([17 x i8], [17 x i8]* @.str.8, i64 0, i64 0)) #8, !dbg !1531
  call void @llvm.dbg.value(metadata %"class.Halide::Runtime::Internal::(anonymous namespace)::Printer.0"* undef, metadata !1520, metadata !DIExpression()) #10, !dbg !1532
  call void @llvm.dbg.value(metadata i8* getelementptr inbounds ([2 x i8], [2 x i8]* @.str.4, i64 0, i64 0), metadata !1523, metadata !DIExpression()) #10, !dbg !1532
  %34 = tail call i8* @halide_string_to_string(i8* %33, i8* %31, i8* nonnull getelementptr inbounds ([2 x i8], [2 x i8]* @.str.4, i64 0, i64 0)) #8, !dbg !1534
  call void @llvm.dbg.value(metadata %"class.Halide::Runtime::Internal::(anonymous namespace)::Printer.0"* undef, metadata !1535, metadata !DIExpression()) #10, !dbg !1538
  br i1 %27, label %35, label %36, !dbg !1540

35:                                               ; preds = %30
  tail call void @halide_error(i8* %0, i8* getelementptr inbounds ([35 x i8], [35 x i8]* @.str.294, i64 0, i64 0)) #8, !dbg !1542
  br label %42, !dbg !1545

36:                                               ; preds = %30
  call void @llvm.dbg.value(metadata %"class.Halide::Runtime::Internal::(anonymous namespace)::Printer.0"* undef, metadata !1546, metadata !DIExpression()) #10, !dbg !1549
  %37 = ptrtoint i8* %34 to i64, !dbg !1552
  %38 = ptrtoint i8* %26 to i64, !dbg !1552
  %39 = sub i64 1, %38, !dbg !1552
  %40 = add i64 %39, %37, !dbg !1553
  %41 = tail call i32 @halide_msan_annotate_memory_is_initialized(i8* %0, i8* nonnull %26, i64 %40) #8, !dbg !1554
  tail call void @halide_error(i8* %0, i8* nonnull %26) #8, !dbg !1555
  br label %42

42:                                               ; preds = %36, %35
  tail call void @free(i8* %26) #8, !dbg !1558
  br label %43, !dbg !1561

43:                                               ; preds = %22, %42
  call void @llvm.dbg.value(metadata i8* %23, metadata !1488, metadata !DIExpression()) #10, !dbg !1491
  store i8* %23, i8** bitcast (i32 (i32, %struct._cl_platform_id**, i32*)** @_ZN6Halide7Runtime8Internal6OpenCL16clGetPlatformIDsE to i8**), align 8, !dbg !1562, !tbaa !1382
  call void @llvm.dbg.value(metadata i8* %0, metadata !1563, metadata !DIExpression()) #10, !dbg !1573
  call void @llvm.dbg.value(metadata i8* getelementptr inbounds ([18 x i8], [18 x i8]* @.str.9, i64 0, i64 0), metadata !1568, metadata !DIExpression()) #10, !dbg !1573
  call void @llvm.dbg.value(metadata i1 true, metadata !1569, metadata !DIExpression(DW_OP_LLVM_convert, 1, DW_ATE_unsigned, DW_OP_LLVM_convert, 8, DW_ATE_unsigned, DW_OP_stack_value)) #10, !dbg !1573
  %44 = tail call i8* @halide_opencl_get_symbol(i8* %0, i8* getelementptr inbounds ([18 x i8], [18 x i8]* @.str.9, i64 0, i64 0)) #8, !dbg !1575
  call void @llvm.dbg.value(metadata i8* %44, metadata !1570, metadata !DIExpression()) #10, !dbg !1573
  %45 = icmp eq i8* %44, null, !dbg !1576
  br i1 %45, label %46, label %64, !dbg !1578

46:                                               ; preds = %43
  call void @llvm.dbg.value(metadata %"class.Halide::Runtime::Internal::(anonymous namespace)::Printer.0"* undef, metadata !1498, metadata !DIExpression()) #10, !dbg !1579
  call void @llvm.dbg.value(metadata i8* %0, metadata !1501, metadata !DIExpression()) #10, !dbg !1579
  call void @llvm.dbg.value(metadata i8* null, metadata !1502, metadata !DIExpression()) #10, !dbg !1579
  %47 = tail call i8* @malloc(i64 1024) #8, !dbg !1582
  %48 = icmp eq i8* %47, null, !dbg !1583
  br i1 %48, label %51, label %49, !dbg !1584

49:                                               ; preds = %46
  %50 = getelementptr inbounds i8, i8* %47, i64 1023, !dbg !1585
  store i8 0, i8* %50, align 1, !dbg !1586, !tbaa !1132
  br label %51, !dbg !1587

51:                                               ; preds = %49, %46
  %52 = phi i8* [ %50, %49 ], [ null, %46 ], !dbg !1588
  call void @llvm.dbg.value(metadata %"class.Halide::Runtime::Internal::(anonymous namespace)::Printer.0"* undef, metadata !1520, metadata !DIExpression()) #10, !dbg !1589
  call void @llvm.dbg.value(metadata i8* getelementptr inbounds ([23 x i8], [23 x i8]* @.str.296, i64 0, i64 0), metadata !1523, metadata !DIExpression()) #10, !dbg !1589
  %53 = tail call i8* @halide_string_to_string(i8* %47, i8* %52, i8* nonnull getelementptr inbounds ([23 x i8], [23 x i8]* @.str.296, i64 0, i64 0)) #8, !dbg !1591
  call void @llvm.dbg.value(metadata %"class.Halide::Runtime::Internal::(anonymous namespace)::Printer.0"* undef, metadata !1520, metadata !DIExpression()) #10, !dbg !1592
  call void @llvm.dbg.value(metadata i8* getelementptr inbounds ([18 x i8], [18 x i8]* @.str.9, i64 0, i64 0), metadata !1523, metadata !DIExpression()) #10, !dbg !1592
  %54 = tail call i8* @halide_string_to_string(i8* %53, i8* %52, i8* nonnull getelementptr inbounds ([18 x i8], [18 x i8]* @.str.9, i64 0, i64 0)) #8, !dbg !1594
  call void @llvm.dbg.value(metadata %"class.Halide::Runtime::Internal::(anonymous namespace)::Printer.0"* undef, metadata !1520, metadata !DIExpression()) #10, !dbg !1595
  call void @llvm.dbg.value(metadata i8* getelementptr inbounds ([2 x i8], [2 x i8]* @.str.4, i64 0, i64 0), metadata !1523, metadata !DIExpression()) #10, !dbg !1595
  %55 = tail call i8* @halide_string_to_string(i8* %54, i8* %52, i8* nonnull getelementptr inbounds ([2 x i8], [2 x i8]* @.str.4, i64 0, i64 0)) #8, !dbg !1597
  call void @llvm.dbg.value(metadata %"class.Halide::Runtime::Internal::(anonymous namespace)::Printer.0"* undef, metadata !1535, metadata !DIExpression()) #10, !dbg !1598
  br i1 %48, label %56, label %57, !dbg !1600

56:                                               ; preds = %51
  tail call void @halide_error(i8* %0, i8* getelementptr inbounds ([35 x i8], [35 x i8]* @.str.294, i64 0, i64 0)) #8, !dbg !1601
  br label %63, !dbg !1602

57:                                               ; preds = %51
  call void @llvm.dbg.value(metadata %"class.Halide::Runtime::Internal::(anonymous namespace)::Printer.0"* undef, metadata !1546, metadata !DIExpression()) #10, !dbg !1603
  %58 = ptrtoint i8* %55 to i64, !dbg !1605
  %59 = ptrtoint i8* %47 to i64, !dbg !1605
  %60 = sub i64 1, %59, !dbg !1605
  %61 = add i64 %60, %58, !dbg !1606
  %62 = tail call i32 @halide_msan_annotate_memory_is_initialized(i8* %0, i8* nonnull %47, i64 %61) #8, !dbg !1607
  tail call void @halide_error(i8* %0, i8* nonnull %47) #8, !dbg !1608
  br label %63

63:                                               ; preds = %57, %56
  tail call void @free(i8* %47) #8, !dbg !1609
  br label %64, !dbg !1610

64:                                               ; preds = %43, %63
  call void @llvm.dbg.value(metadata i8* %44, metadata !1570, metadata !DIExpression()) #10, !dbg !1573
  store i8* %44, i8** bitcast (i32 (%struct._cl_platform_id*, i32, i64, i8*, i64*)** @_ZN6Halide7Runtime8Internal6OpenCL17clGetPlatformInfoE to i8**), align 8, !dbg !1611, !tbaa !1382
  call void @llvm.dbg.value(metadata i8* %0, metadata !1612, metadata !DIExpression()) #10, !dbg !1622
  call void @llvm.dbg.value(metadata i8* getelementptr inbounds ([15 x i8], [15 x i8]* @.str.10, i64 0, i64 0), metadata !1617, metadata !DIExpression()) #10, !dbg !1622
  call void @llvm.dbg.value(metadata i1 true, metadata !1618, metadata !DIExpression(DW_OP_LLVM_convert, 1, DW_ATE_unsigned, DW_OP_LLVM_convert, 8, DW_ATE_unsigned, DW_OP_stack_value)) #10, !dbg !1622
  %65 = tail call i8* @halide_opencl_get_symbol(i8* %0, i8* getelementptr inbounds ([15 x i8], [15 x i8]* @.str.10, i64 0, i64 0)) #8, !dbg !1624
  call void @llvm.dbg.value(metadata i8* %65, metadata !1619, metadata !DIExpression()) #10, !dbg !1622
  %66 = icmp eq i8* %65, null, !dbg !1625
  br i1 %66, label %67, label %85, !dbg !1627

67:                                               ; preds = %64
  call void @llvm.dbg.value(metadata %"class.Halide::Runtime::Internal::(anonymous namespace)::Printer.0"* undef, metadata !1498, metadata !DIExpression()) #10, !dbg !1628
  call void @llvm.dbg.value(metadata i8* %0, metadata !1501, metadata !DIExpression()) #10, !dbg !1628
  call void @llvm.dbg.value(metadata i8* null, metadata !1502, metadata !DIExpression()) #10, !dbg !1628
  %68 = tail call i8* @malloc(i64 1024) #8, !dbg !1631
  %69 = icmp eq i8* %68, null, !dbg !1632
  br i1 %69, label %72, label %70, !dbg !1633

70:                                               ; preds = %67
  %71 = getelementptr inbounds i8, i8* %68, i64 1023, !dbg !1634
  store i8 0, i8* %71, align 1, !dbg !1635, !tbaa !1132
  br label %72, !dbg !1636

72:                                               ; preds = %70, %67
  %73 = phi i8* [ %71, %70 ], [ null, %67 ], !dbg !1637
  call void @llvm.dbg.value(metadata %"class.Halide::Runtime::Internal::(anonymous namespace)::Printer.0"* undef, metadata !1520, metadata !DIExpression()) #10, !dbg !1638
  call void @llvm.dbg.value(metadata i8* getelementptr inbounds ([23 x i8], [23 x i8]* @.str.296, i64 0, i64 0), metadata !1523, metadata !DIExpression()) #10, !dbg !1638
  %74 = tail call i8* @halide_string_to_string(i8* %68, i8* %73, i8* nonnull getelementptr inbounds ([23 x i8], [23 x i8]* @.str.296, i64 0, i64 0)) #8, !dbg !1640
  call void @llvm.dbg.value(metadata %"class.Halide::Runtime::Internal::(anonymous namespace)::Printer.0"* undef, metadata !1520, metadata !DIExpression()) #10, !dbg !1641
  call void @llvm.dbg.value(metadata i8* getelementptr inbounds ([15 x i8], [15 x i8]* @.str.10, i64 0, i64 0), metadata !1523, metadata !DIExpression()) #10, !dbg !1641
  %75 = tail call i8* @halide_string_to_string(i8* %74, i8* %73, i8* nonnull getelementptr inbounds ([15 x i8], [15 x i8]* @.str.10, i64 0, i64 0)) #8, !dbg !1643
  call void @llvm.dbg.value(metadata %"class.Halide::Runtime::Internal::(anonymous namespace)::Printer.0"* undef, metadata !1520, metadata !DIExpression()) #10, !dbg !1644
  call void @llvm.dbg.value(metadata i8* getelementptr inbounds ([2 x i8], [2 x i8]* @.str.4, i64 0, i64 0), metadata !1523, metadata !DIExpression()) #10, !dbg !1644
  %76 = tail call i8* @halide_string_to_string(i8* %75, i8* %73, i8* nonnull getelementptr inbounds ([2 x i8], [2 x i8]* @.str.4, i64 0, i64 0)) #8, !dbg !1646
  call void @llvm.dbg.value(metadata %"class.Halide::Runtime::Internal::(anonymous namespace)::Printer.0"* undef, metadata !1535, metadata !DIExpression()) #10, !dbg !1647
  br i1 %69, label %77, label %78, !dbg !1649

77:                                               ; preds = %72
  tail call void @halide_error(i8* %0, i8* getelementptr inbounds ([35 x i8], [35 x i8]* @.str.294, i64 0, i64 0)) #8, !dbg !1650
  br label %84, !dbg !1651

78:                                               ; preds = %72
  call void @llvm.dbg.value(metadata %"class.Halide::Runtime::Internal::(anonymous namespace)::Printer.0"* undef, metadata !1546, metadata !DIExpression()) #10, !dbg !1652
  %79 = ptrtoint i8* %76 to i64, !dbg !1654
  %80 = ptrtoint i8* %68 to i64, !dbg !1654
  %81 = sub i64 1, %80, !dbg !1654
  %82 = add i64 %81, %79, !dbg !1655
  %83 = tail call i32 @halide_msan_annotate_memory_is_initialized(i8* %0, i8* nonnull %68, i64 %82) #8, !dbg !1656
  tail call void @halide_error(i8* %0, i8* nonnull %68) #8, !dbg !1657
  br label %84

84:                                               ; preds = %78, %77
  tail call void @free(i8* %68) #8, !dbg !1658
  br label %85, !dbg !1659

85:                                               ; preds = %64, %84
  call void @llvm.dbg.value(metadata i8* %65, metadata !1619, metadata !DIExpression()) #10, !dbg !1622
  store i8* %65, i8** bitcast (i32 (%struct._cl_platform_id*, i64, i32, %struct._cl_device_id**, i32*)** @_ZN6Halide7Runtime8Internal6OpenCL14clGetDeviceIDsE to i8**), align 8, !dbg !1660, !tbaa !1382
  call void @llvm.dbg.value(metadata i8* %0, metadata !1661, metadata !DIExpression()) #10, !dbg !1671
  call void @llvm.dbg.value(metadata i8* getelementptr inbounds ([16 x i8], [16 x i8]* @.str.11, i64 0, i64 0), metadata !1666, metadata !DIExpression()) #10, !dbg !1671
  call void @llvm.dbg.value(metadata i1 true, metadata !1667, metadata !DIExpression(DW_OP_LLVM_convert, 1, DW_ATE_unsigned, DW_OP_LLVM_convert, 8, DW_ATE_unsigned, DW_OP_stack_value)) #10, !dbg !1671
  %86 = tail call i8* @halide_opencl_get_symbol(i8* %0, i8* getelementptr inbounds ([16 x i8], [16 x i8]* @.str.11, i64 0, i64 0)) #8, !dbg !1673
  call void @llvm.dbg.value(metadata i8* %86, metadata !1668, metadata !DIExpression()) #10, !dbg !1671
  %87 = icmp eq i8* %86, null, !dbg !1674
  br i1 %87, label %88, label %106, !dbg !1676

88:                                               ; preds = %85
  call void @llvm.dbg.value(metadata %"class.Halide::Runtime::Internal::(anonymous namespace)::Printer.0"* undef, metadata !1498, metadata !DIExpression()) #10, !dbg !1677
  call void @llvm.dbg.value(metadata i8* %0, metadata !1501, metadata !DIExpression()) #10, !dbg !1677
  call void @llvm.dbg.value(metadata i8* null, metadata !1502, metadata !DIExpression()) #10, !dbg !1677
  %89 = tail call i8* @malloc(i64 1024) #8, !dbg !1680
  %90 = icmp eq i8* %89, null, !dbg !1681
  br i1 %90, label %93, label %91, !dbg !1682

91:                                               ; preds = %88
  %92 = getelementptr inbounds i8, i8* %89, i64 1023, !dbg !1683
  store i8 0, i8* %92, align 1, !dbg !1684, !tbaa !1132
  br label %93, !dbg !1685

93:                                               ; preds = %91, %88
  %94 = phi i8* [ %92, %91 ], [ null, %88 ], !dbg !1686
  call void @llvm.dbg.value(metadata %"class.Halide::Runtime::Internal::(anonymous namespace)::Printer.0"* undef, metadata !1520, metadata !DIExpression()) #10, !dbg !1687
  call void @llvm.dbg.value(metadata i8* getelementptr inbounds ([23 x i8], [23 x i8]* @.str.296, i64 0, i64 0), metadata !1523, metadata !DIExpression()) #10, !dbg !1687
  %95 = tail call i8* @halide_string_to_string(i8* %89, i8* %94, i8* nonnull getelementptr inbounds ([23 x i8], [23 x i8]* @.str.296, i64 0, i64 0)) #8, !dbg !1689
  call void @llvm.dbg.value(metadata %"class.Halide::Runtime::Internal::(anonymous namespace)::Printer.0"* undef, metadata !1520, metadata !DIExpression()) #10, !dbg !1690
  call void @llvm.dbg.value(metadata i8* getelementptr inbounds ([16 x i8], [16 x i8]* @.str.11, i64 0, i64 0), metadata !1523, metadata !DIExpression()) #10, !dbg !1690
  %96 = tail call i8* @halide_string_to_string(i8* %95, i8* %94, i8* nonnull getelementptr inbounds ([16 x i8], [16 x i8]* @.str.11, i64 0, i64 0)) #8, !dbg !1692
  call void @llvm.dbg.value(metadata %"class.Halide::Runtime::Internal::(anonymous namespace)::Printer.0"* undef, metadata !1520, metadata !DIExpression()) #10, !dbg !1693
  call void @llvm.dbg.value(metadata i8* getelementptr inbounds ([2 x i8], [2 x i8]* @.str.4, i64 0, i64 0), metadata !1523, metadata !DIExpression()) #10, !dbg !1693
  %97 = tail call i8* @halide_string_to_string(i8* %96, i8* %94, i8* nonnull getelementptr inbounds ([2 x i8], [2 x i8]* @.str.4, i64 0, i64 0)) #8, !dbg !1695
  call void @llvm.dbg.value(metadata %"class.Halide::Runtime::Internal::(anonymous namespace)::Printer.0"* undef, metadata !1535, metadata !DIExpression()) #10, !dbg !1696
  br i1 %90, label %98, label %99, !dbg !1698

98:                                               ; preds = %93
  tail call void @halide_error(i8* %0, i8* getelementptr inbounds ([35 x i8], [35 x i8]* @.str.294, i64 0, i64 0)) #8, !dbg !1699
  br label %105, !dbg !1700

99:                                               ; preds = %93
  call void @llvm.dbg.value(metadata %"class.Halide::Runtime::Internal::(anonymous namespace)::Printer.0"* undef, metadata !1546, metadata !DIExpression()) #10, !dbg !1701
  %100 = ptrtoint i8* %97 to i64, !dbg !1703
  %101 = ptrtoint i8* %89 to i64, !dbg !1703
  %102 = sub i64 1, %101, !dbg !1703
  %103 = add i64 %102, %100, !dbg !1704
  %104 = tail call i32 @halide_msan_annotate_memory_is_initialized(i8* %0, i8* nonnull %89, i64 %103) #8, !dbg !1705
  tail call void @halide_error(i8* %0, i8* nonnull %89) #8, !dbg !1706
  br label %105

105:                                              ; preds = %99, %98
  tail call void @free(i8* %89) #8, !dbg !1707
  br label %106, !dbg !1708

106:                                              ; preds = %85, %105
  call void @llvm.dbg.value(metadata i8* %86, metadata !1668, metadata !DIExpression()) #10, !dbg !1671
  store i8* %86, i8** bitcast (i32 (%struct._cl_device_id*, i32, i64, i8*, i64*)** @_ZN6Halide7Runtime8Internal6OpenCL15clGetDeviceInfoE to i8**), align 8, !dbg !1709, !tbaa !1382
  call void @llvm.dbg.value(metadata i8* %0, metadata !1710, metadata !DIExpression()) #10, !dbg !1720
  call void @llvm.dbg.value(metadata i8* getelementptr inbounds ([19 x i8], [19 x i8]* @.str.12, i64 0, i64 0), metadata !1715, metadata !DIExpression()) #10, !dbg !1720
  call void @llvm.dbg.value(metadata i1 false, metadata !1716, metadata !DIExpression(DW_OP_LLVM_convert, 1, DW_ATE_unsigned, DW_OP_LLVM_convert, 8, DW_ATE_unsigned, DW_OP_stack_value)) #10, !dbg !1720
  %107 = tail call i8* @halide_opencl_get_symbol(i8* %0, i8* getelementptr inbounds ([19 x i8], [19 x i8]* @.str.12, i64 0, i64 0)) #8, !dbg !1722
  call void @llvm.dbg.value(metadata i8* %107, metadata !1717, metadata !DIExpression()) #10, !dbg !1720
  store i8* %107, i8** bitcast (i32 (%struct._cl_device_id*, i64*, i32, %struct._cl_device_id**, i32*)** @_ZN6Halide7Runtime8Internal6OpenCL18clCreateSubDevicesE to i8**), align 8, !dbg !1723, !tbaa !1382
  call void @llvm.dbg.value(metadata i8* %0, metadata !1724, metadata !DIExpression()) #10, !dbg !1734
  call void @llvm.dbg.value(metadata i8* getelementptr inbounds ([15 x i8], [15 x i8]* @.str.13, i64 0, i64 0), metadata !1729, metadata !DIExpression()) #10, !dbg !1734
  call void @llvm.dbg.value(metadata i1 false, metadata !1730, metadata !DIExpression(DW_OP_LLVM_convert, 1, DW_ATE_unsigned, DW_OP_LLVM_convert, 8, DW_ATE_unsigned, DW_OP_stack_value)) #10, !dbg !1734
  %108 = tail call i8* @halide_opencl_get_symbol(i8* %0, i8* getelementptr inbounds ([15 x i8], [15 x i8]* @.str.13, i64 0, i64 0)) #8, !dbg !1736
  call void @llvm.dbg.value(metadata i8* %108, metadata !1731, metadata !DIExpression()) #10, !dbg !1734
  store i8* %108, i8** bitcast (i32 (%struct._cl_device_id*)** @_ZN6Halide7Runtime8Internal6OpenCL14clRetainDeviceE to i8**), align 8, !dbg !1737, !tbaa !1382
  call void @llvm.dbg.value(metadata i8* %0, metadata !1724, metadata !DIExpression()) #10, !dbg !1738
  call void @llvm.dbg.value(metadata i8* getelementptr inbounds ([16 x i8], [16 x i8]* @.str.14, i64 0, i64 0), metadata !1729, metadata !DIExpression()) #10, !dbg !1738
  call void @llvm.dbg.value(metadata i1 false, metadata !1730, metadata !DIExpression(DW_OP_LLVM_convert, 1, DW_ATE_unsigned, DW_OP_LLVM_convert, 8, DW_ATE_unsigned, DW_OP_stack_value)) #10, !dbg !1738
  %109 = tail call i8* @halide_opencl_get_symbol(i8* %0, i8* getelementptr inbounds ([16 x i8], [16 x i8]* @.str.14, i64 0, i64 0)) #8, !dbg !1740
  call void @llvm.dbg.value(metadata i8* %109, metadata !1731, metadata !DIExpression()) #10, !dbg !1738
  store i8* %109, i8** bitcast (i32 (%struct._cl_device_id*)** @_ZN6Halide7Runtime8Internal6OpenCL15clReleaseDeviceE to i8**), align 8, !dbg !1741, !tbaa !1382
  call void @llvm.dbg.value(metadata i8* %0, metadata !1742, metadata !DIExpression()) #10, !dbg !1752
  call void @llvm.dbg.value(metadata i8* getelementptr inbounds ([16 x i8], [16 x i8]* @.str.15, i64 0, i64 0), metadata !1747, metadata !DIExpression()) #10, !dbg !1752
  call void @llvm.dbg.value(metadata i1 true, metadata !1748, metadata !DIExpression(DW_OP_LLVM_convert, 1, DW_ATE_unsigned, DW_OP_LLVM_convert, 8, DW_ATE_unsigned, DW_OP_stack_value)) #10, !dbg !1752
  %110 = tail call i8* @halide_opencl_get_symbol(i8* %0, i8* getelementptr inbounds ([16 x i8], [16 x i8]* @.str.15, i64 0, i64 0)) #8, !dbg !1754
  call void @llvm.dbg.value(metadata i8* %110, metadata !1749, metadata !DIExpression()) #10, !dbg !1752
  %111 = icmp eq i8* %110, null, !dbg !1755
  br i1 %111, label %112, label %130, !dbg !1757

112:                                              ; preds = %106
  call void @llvm.dbg.value(metadata %"class.Halide::Runtime::Internal::(anonymous namespace)::Printer.0"* undef, metadata !1498, metadata !DIExpression()) #10, !dbg !1758
  call void @llvm.dbg.value(metadata i8* %0, metadata !1501, metadata !DIExpression()) #10, !dbg !1758
  call void @llvm.dbg.value(metadata i8* null, metadata !1502, metadata !DIExpression()) #10, !dbg !1758
  %113 = tail call i8* @malloc(i64 1024) #8, !dbg !1761
  %114 = icmp eq i8* %113, null, !dbg !1762
  br i1 %114, label %117, label %115, !dbg !1763

115:                                              ; preds = %112
  %116 = getelementptr inbounds i8, i8* %113, i64 1023, !dbg !1764
  store i8 0, i8* %116, align 1, !dbg !1765, !tbaa !1132
  br label %117, !dbg !1766

117:                                              ; preds = %115, %112
  %118 = phi i8* [ %116, %115 ], [ null, %112 ], !dbg !1767
  call void @llvm.dbg.value(metadata %"class.Halide::Runtime::Internal::(anonymous namespace)::Printer.0"* undef, metadata !1520, metadata !DIExpression()) #10, !dbg !1768
  call void @llvm.dbg.value(metadata i8* getelementptr inbounds ([23 x i8], [23 x i8]* @.str.296, i64 0, i64 0), metadata !1523, metadata !DIExpression()) #10, !dbg !1768
  %119 = tail call i8* @halide_string_to_string(i8* %113, i8* %118, i8* nonnull getelementptr inbounds ([23 x i8], [23 x i8]* @.str.296, i64 0, i64 0)) #8, !dbg !1770
  call void @llvm.dbg.value(metadata %"class.Halide::Runtime::Internal::(anonymous namespace)::Printer.0"* undef, metadata !1520, metadata !DIExpression()) #10, !dbg !1771
  call void @llvm.dbg.value(metadata i8* getelementptr inbounds ([16 x i8], [16 x i8]* @.str.15, i64 0, i64 0), metadata !1523, metadata !DIExpression()) #10, !dbg !1771
  %120 = tail call i8* @halide_string_to_string(i8* %119, i8* %118, i8* nonnull getelementptr inbounds ([16 x i8], [16 x i8]* @.str.15, i64 0, i64 0)) #8, !dbg !1773
  call void @llvm.dbg.value(metadata %"class.Halide::Runtime::Internal::(anonymous namespace)::Printer.0"* undef, metadata !1520, metadata !DIExpression()) #10, !dbg !1774
  call void @llvm.dbg.value(metadata i8* getelementptr inbounds ([2 x i8], [2 x i8]* @.str.4, i64 0, i64 0), metadata !1523, metadata !DIExpression()) #10, !dbg !1774
  %121 = tail call i8* @halide_string_to_string(i8* %120, i8* %118, i8* nonnull getelementptr inbounds ([2 x i8], [2 x i8]* @.str.4, i64 0, i64 0)) #8, !dbg !1776
  call void @llvm.dbg.value(metadata %"class.Halide::Runtime::Internal::(anonymous namespace)::Printer.0"* undef, metadata !1535, metadata !DIExpression()) #10, !dbg !1777
  br i1 %114, label %122, label %123, !dbg !1779

122:                                              ; preds = %117
  tail call void @halide_error(i8* %0, i8* getelementptr inbounds ([35 x i8], [35 x i8]* @.str.294, i64 0, i64 0)) #8, !dbg !1780
  br label %129, !dbg !1781

123:                                              ; preds = %117
  call void @llvm.dbg.value(metadata %"class.Halide::Runtime::Internal::(anonymous namespace)::Printer.0"* undef, metadata !1546, metadata !DIExpression()) #10, !dbg !1782
  %124 = ptrtoint i8* %121 to i64, !dbg !1784
  %125 = ptrtoint i8* %113 to i64, !dbg !1784
  %126 = sub i64 1, %125, !dbg !1784
  %127 = add i64 %126, %124, !dbg !1785
  %128 = tail call i32 @halide_msan_annotate_memory_is_initialized(i8* %0, i8* nonnull %113, i64 %127) #8, !dbg !1786
  tail call void @halide_error(i8* %0, i8* nonnull %113) #8, !dbg !1787
  br label %129

129:                                              ; preds = %123, %122
  tail call void @free(i8* %113) #8, !dbg !1788
  br label %130, !dbg !1789

130:                                              ; preds = %106, %129
  call void @llvm.dbg.value(metadata i8* %110, metadata !1749, metadata !DIExpression()) #10, !dbg !1752
  store i8* %110, i8** bitcast (%struct._cl_context* (i64*, i32, %struct._cl_device_id**, void (i8*, i8*, i64, i8*)*, i8*, i32*)** @_ZN6Halide7Runtime8Internal6OpenCL15clCreateContextE to i8**), align 8, !dbg !1790, !tbaa !1382
  call void @llvm.dbg.value(metadata i8* %0, metadata !1791, metadata !DIExpression()) #10, !dbg !1801
  call void @llvm.dbg.value(metadata i8* getelementptr inbounds ([24 x i8], [24 x i8]* @.str.16, i64 0, i64 0), metadata !1796, metadata !DIExpression()) #10, !dbg !1801
  call void @llvm.dbg.value(metadata i1 true, metadata !1797, metadata !DIExpression(DW_OP_LLVM_convert, 1, DW_ATE_unsigned, DW_OP_LLVM_convert, 8, DW_ATE_unsigned, DW_OP_stack_value)) #10, !dbg !1801
  %131 = tail call i8* @halide_opencl_get_symbol(i8* %0, i8* getelementptr inbounds ([24 x i8], [24 x i8]* @.str.16, i64 0, i64 0)) #8, !dbg !1803
  call void @llvm.dbg.value(metadata i8* %131, metadata !1798, metadata !DIExpression()) #10, !dbg !1801
  %132 = icmp eq i8* %131, null, !dbg !1804
  br i1 %132, label %133, label %151, !dbg !1806

133:                                              ; preds = %130
  call void @llvm.dbg.value(metadata %"class.Halide::Runtime::Internal::(anonymous namespace)::Printer.0"* undef, metadata !1498, metadata !DIExpression()) #10, !dbg !1807
  call void @llvm.dbg.value(metadata i8* %0, metadata !1501, metadata !DIExpression()) #10, !dbg !1807
  call void @llvm.dbg.value(metadata i8* null, metadata !1502, metadata !DIExpression()) #10, !dbg !1807
  %134 = tail call i8* @malloc(i64 1024) #8, !dbg !1810
  %135 = icmp eq i8* %134, null, !dbg !1811
  br i1 %135, label %138, label %136, !dbg !1812

136:                                              ; preds = %133
  %137 = getelementptr inbounds i8, i8* %134, i64 1023, !dbg !1813
  store i8 0, i8* %137, align 1, !dbg !1814, !tbaa !1132
  br label %138, !dbg !1815

138:                                              ; preds = %136, %133
  %139 = phi i8* [ %137, %136 ], [ null, %133 ], !dbg !1816
  call void @llvm.dbg.value(metadata %"class.Halide::Runtime::Internal::(anonymous namespace)::Printer.0"* undef, metadata !1520, metadata !DIExpression()) #10, !dbg !1817
  call void @llvm.dbg.value(metadata i8* getelementptr inbounds ([23 x i8], [23 x i8]* @.str.296, i64 0, i64 0), metadata !1523, metadata !DIExpression()) #10, !dbg !1817
  %140 = tail call i8* @halide_string_to_string(i8* %134, i8* %139, i8* nonnull getelementptr inbounds ([23 x i8], [23 x i8]* @.str.296, i64 0, i64 0)) #8, !dbg !1819
  call void @llvm.dbg.value(metadata %"class.Halide::Runtime::Internal::(anonymous namespace)::Printer.0"* undef, metadata !1520, metadata !DIExpression()) #10, !dbg !1820
  call void @llvm.dbg.value(metadata i8* getelementptr inbounds ([24 x i8], [24 x i8]* @.str.16, i64 0, i64 0), metadata !1523, metadata !DIExpression()) #10, !dbg !1820
  %141 = tail call i8* @halide_string_to_string(i8* %140, i8* %139, i8* nonnull getelementptr inbounds ([24 x i8], [24 x i8]* @.str.16, i64 0, i64 0)) #8, !dbg !1822
  call void @llvm.dbg.value(metadata %"class.Halide::Runtime::Internal::(anonymous namespace)::Printer.0"* undef, metadata !1520, metadata !DIExpression()) #10, !dbg !1823
  call void @llvm.dbg.value(metadata i8* getelementptr inbounds ([2 x i8], [2 x i8]* @.str.4, i64 0, i64 0), metadata !1523, metadata !DIExpression()) #10, !dbg !1823
  %142 = tail call i8* @halide_string_to_string(i8* %141, i8* %139, i8* nonnull getelementptr inbounds ([2 x i8], [2 x i8]* @.str.4, i64 0, i64 0)) #8, !dbg !1825
  call void @llvm.dbg.value(metadata %"class.Halide::Runtime::Internal::(anonymous namespace)::Printer.0"* undef, metadata !1535, metadata !DIExpression()) #10, !dbg !1826
  br i1 %135, label %143, label %144, !dbg !1828

143:                                              ; preds = %138
  tail call void @halide_error(i8* %0, i8* getelementptr inbounds ([35 x i8], [35 x i8]* @.str.294, i64 0, i64 0)) #8, !dbg !1829
  br label %150, !dbg !1830

144:                                              ; preds = %138
  call void @llvm.dbg.value(metadata %"class.Halide::Runtime::Internal::(anonymous namespace)::Printer.0"* undef, metadata !1546, metadata !DIExpression()) #10, !dbg !1831
  %145 = ptrtoint i8* %142 to i64, !dbg !1833
  %146 = ptrtoint i8* %134 to i64, !dbg !1833
  %147 = sub i64 1, %146, !dbg !1833
  %148 = add i64 %147, %145, !dbg !1834
  %149 = tail call i32 @halide_msan_annotate_memory_is_initialized(i8* %0, i8* nonnull %134, i64 %148) #8, !dbg !1835
  tail call void @halide_error(i8* %0, i8* nonnull %134) #8, !dbg !1836
  br label %150

150:                                              ; preds = %144, %143
  tail call void @free(i8* %134) #8, !dbg !1837
  br label %151, !dbg !1838

151:                                              ; preds = %130, %150
  call void @llvm.dbg.value(metadata i8* %131, metadata !1798, metadata !DIExpression()) #10, !dbg !1801
  store i8* %131, i8** bitcast (%struct._cl_context* (i64*, i64, void (i8*, i8*, i64, i8*)*, i8*, i32*)** @_ZN6Halide7Runtime8Internal6OpenCL23clCreateContextFromTypeE to i8**), align 8, !dbg !1839, !tbaa !1382
  call void @llvm.dbg.value(metadata i8* %0, metadata !1840, metadata !DIExpression()) #10, !dbg !1850
  call void @llvm.dbg.value(metadata i8* getelementptr inbounds ([16 x i8], [16 x i8]* @.str.17, i64 0, i64 0), metadata !1845, metadata !DIExpression()) #10, !dbg !1850
  call void @llvm.dbg.value(metadata i1 true, metadata !1846, metadata !DIExpression(DW_OP_LLVM_convert, 1, DW_ATE_unsigned, DW_OP_LLVM_convert, 8, DW_ATE_unsigned, DW_OP_stack_value)) #10, !dbg !1850
  %152 = tail call i8* @halide_opencl_get_symbol(i8* %0, i8* getelementptr inbounds ([16 x i8], [16 x i8]* @.str.17, i64 0, i64 0)) #8, !dbg !1852
  call void @llvm.dbg.value(metadata i8* %152, metadata !1847, metadata !DIExpression()) #10, !dbg !1850
  %153 = icmp eq i8* %152, null, !dbg !1853
  br i1 %153, label %154, label %172, !dbg !1855

154:                                              ; preds = %151
  call void @llvm.dbg.value(metadata %"class.Halide::Runtime::Internal::(anonymous namespace)::Printer.0"* undef, metadata !1498, metadata !DIExpression()) #10, !dbg !1856
  call void @llvm.dbg.value(metadata i8* %0, metadata !1501, metadata !DIExpression()) #10, !dbg !1856
  call void @llvm.dbg.value(metadata i8* null, metadata !1502, metadata !DIExpression()) #10, !dbg !1856
  %155 = tail call i8* @malloc(i64 1024) #8, !dbg !1859
  %156 = icmp eq i8* %155, null, !dbg !1860
  br i1 %156, label %159, label %157, !dbg !1861

157:                                              ; preds = %154
  %158 = getelementptr inbounds i8, i8* %155, i64 1023, !dbg !1862
  store i8 0, i8* %158, align 1, !dbg !1863, !tbaa !1132
  br label %159, !dbg !1864

159:                                              ; preds = %157, %154
  %160 = phi i8* [ %158, %157 ], [ null, %154 ], !dbg !1865
  call void @llvm.dbg.value(metadata %"class.Halide::Runtime::Internal::(anonymous namespace)::Printer.0"* undef, metadata !1520, metadata !DIExpression()) #10, !dbg !1866
  call void @llvm.dbg.value(metadata i8* getelementptr inbounds ([23 x i8], [23 x i8]* @.str.296, i64 0, i64 0), metadata !1523, metadata !DIExpression()) #10, !dbg !1866
  %161 = tail call i8* @halide_string_to_string(i8* %155, i8* %160, i8* nonnull getelementptr inbounds ([23 x i8], [23 x i8]* @.str.296, i64 0, i64 0)) #8, !dbg !1868
  call void @llvm.dbg.value(metadata %"class.Halide::Runtime::Internal::(anonymous namespace)::Printer.0"* undef, metadata !1520, metadata !DIExpression()) #10, !dbg !1869
  call void @llvm.dbg.value(metadata i8* getelementptr inbounds ([16 x i8], [16 x i8]* @.str.17, i64 0, i64 0), metadata !1523, metadata !DIExpression()) #10, !dbg !1869
  %162 = tail call i8* @halide_string_to_string(i8* %161, i8* %160, i8* nonnull getelementptr inbounds ([16 x i8], [16 x i8]* @.str.17, i64 0, i64 0)) #8, !dbg !1871
  call void @llvm.dbg.value(metadata %"class.Halide::Runtime::Internal::(anonymous namespace)::Printer.0"* undef, metadata !1520, metadata !DIExpression()) #10, !dbg !1872
  call void @llvm.dbg.value(metadata i8* getelementptr inbounds ([2 x i8], [2 x i8]* @.str.4, i64 0, i64 0), metadata !1523, metadata !DIExpression()) #10, !dbg !1872
  %163 = tail call i8* @halide_string_to_string(i8* %162, i8* %160, i8* nonnull getelementptr inbounds ([2 x i8], [2 x i8]* @.str.4, i64 0, i64 0)) #8, !dbg !1874
  call void @llvm.dbg.value(metadata %"class.Halide::Runtime::Internal::(anonymous namespace)::Printer.0"* undef, metadata !1535, metadata !DIExpression()) #10, !dbg !1875
  br i1 %156, label %164, label %165, !dbg !1877

164:                                              ; preds = %159
  tail call void @halide_error(i8* %0, i8* getelementptr inbounds ([35 x i8], [35 x i8]* @.str.294, i64 0, i64 0)) #8, !dbg !1878
  br label %171, !dbg !1879

165:                                              ; preds = %159
  call void @llvm.dbg.value(metadata %"class.Halide::Runtime::Internal::(anonymous namespace)::Printer.0"* undef, metadata !1546, metadata !DIExpression()) #10, !dbg !1880
  %166 = ptrtoint i8* %163 to i64, !dbg !1882
  %167 = ptrtoint i8* %155 to i64, !dbg !1882
  %168 = sub i64 1, %167, !dbg !1882
  %169 = add i64 %168, %166, !dbg !1883
  %170 = tail call i32 @halide_msan_annotate_memory_is_initialized(i8* %0, i8* nonnull %155, i64 %169) #8, !dbg !1884
  tail call void @halide_error(i8* %0, i8* nonnull %155) #8, !dbg !1885
  br label %171

171:                                              ; preds = %165, %164
  tail call void @free(i8* %155) #8, !dbg !1886
  br label %172, !dbg !1887

172:                                              ; preds = %151, %171
  call void @llvm.dbg.value(metadata i8* %152, metadata !1847, metadata !DIExpression()) #10, !dbg !1850
  store i8* %152, i8** bitcast (i32 (%struct._cl_context*)** @_ZN6Halide7Runtime8Internal6OpenCL15clRetainContextE to i8**), align 8, !dbg !1888, !tbaa !1382
  call void @llvm.dbg.value(metadata i8* %0, metadata !1840, metadata !DIExpression()) #10, !dbg !1889
  call void @llvm.dbg.value(metadata i8* getelementptr inbounds ([17 x i8], [17 x i8]* @.str.18, i64 0, i64 0), metadata !1845, metadata !DIExpression()) #10, !dbg !1889
  call void @llvm.dbg.value(metadata i1 true, metadata !1846, metadata !DIExpression(DW_OP_LLVM_convert, 1, DW_ATE_unsigned, DW_OP_LLVM_convert, 8, DW_ATE_unsigned, DW_OP_stack_value)) #10, !dbg !1889
  %173 = tail call i8* @halide_opencl_get_symbol(i8* %0, i8* getelementptr inbounds ([17 x i8], [17 x i8]* @.str.18, i64 0, i64 0)) #8, !dbg !1891
  call void @llvm.dbg.value(metadata i8* %173, metadata !1847, metadata !DIExpression()) #10, !dbg !1889
  %174 = icmp eq i8* %173, null, !dbg !1892
  br i1 %174, label %175, label %193, !dbg !1893

175:                                              ; preds = %172
  call void @llvm.dbg.value(metadata %"class.Halide::Runtime::Internal::(anonymous namespace)::Printer.0"* undef, metadata !1498, metadata !DIExpression()) #10, !dbg !1894
  call void @llvm.dbg.value(metadata i8* %0, metadata !1501, metadata !DIExpression()) #10, !dbg !1894
  call void @llvm.dbg.value(metadata i8* null, metadata !1502, metadata !DIExpression()) #10, !dbg !1894
  %176 = tail call i8* @malloc(i64 1024) #8, !dbg !1896
  %177 = icmp eq i8* %176, null, !dbg !1897
  br i1 %177, label %180, label %178, !dbg !1898

178:                                              ; preds = %175
  %179 = getelementptr inbounds i8, i8* %176, i64 1023, !dbg !1899
  store i8 0, i8* %179, align 1, !dbg !1900, !tbaa !1132
  br label %180, !dbg !1901

180:                                              ; preds = %178, %175
  %181 = phi i8* [ %179, %178 ], [ null, %175 ], !dbg !1902
  call void @llvm.dbg.value(metadata %"class.Halide::Runtime::Internal::(anonymous namespace)::Printer.0"* undef, metadata !1520, metadata !DIExpression()) #10, !dbg !1903
  call void @llvm.dbg.value(metadata i8* getelementptr inbounds ([23 x i8], [23 x i8]* @.str.296, i64 0, i64 0), metadata !1523, metadata !DIExpression()) #10, !dbg !1903
  %182 = tail call i8* @halide_string_to_string(i8* %176, i8* %181, i8* nonnull getelementptr inbounds ([23 x i8], [23 x i8]* @.str.296, i64 0, i64 0)) #8, !dbg !1905
  call void @llvm.dbg.value(metadata %"class.Halide::Runtime::Internal::(anonymous namespace)::Printer.0"* undef, metadata !1520, metadata !DIExpression()) #10, !dbg !1906
  call void @llvm.dbg.value(metadata i8* getelementptr inbounds ([17 x i8], [17 x i8]* @.str.18, i64 0, i64 0), metadata !1523, metadata !DIExpression()) #10, !dbg !1906
  %183 = tail call i8* @halide_string_to_string(i8* %182, i8* %181, i8* nonnull getelementptr inbounds ([17 x i8], [17 x i8]* @.str.18, i64 0, i64 0)) #8, !dbg !1908
  call void @llvm.dbg.value(metadata %"class.Halide::Runtime::Internal::(anonymous namespace)::Printer.0"* undef, metadata !1520, metadata !DIExpression()) #10, !dbg !1909
  call void @llvm.dbg.value(metadata i8* getelementptr inbounds ([2 x i8], [2 x i8]* @.str.4, i64 0, i64 0), metadata !1523, metadata !DIExpression()) #10, !dbg !1909
  %184 = tail call i8* @halide_string_to_string(i8* %183, i8* %181, i8* nonnull getelementptr inbounds ([2 x i8], [2 x i8]* @.str.4, i64 0, i64 0)) #8, !dbg !1911
  call void @llvm.dbg.value(metadata %"class.Halide::Runtime::Internal::(anonymous namespace)::Printer.0"* undef, metadata !1535, metadata !DIExpression()) #10, !dbg !1912
  br i1 %177, label %185, label %186, !dbg !1914

185:                                              ; preds = %180
  tail call void @halide_error(i8* %0, i8* getelementptr inbounds ([35 x i8], [35 x i8]* @.str.294, i64 0, i64 0)) #8, !dbg !1915
  br label %192, !dbg !1916

186:                                              ; preds = %180
  call void @llvm.dbg.value(metadata %"class.Halide::Runtime::Internal::(anonymous namespace)::Printer.0"* undef, metadata !1546, metadata !DIExpression()) #10, !dbg !1917
  %187 = ptrtoint i8* %184 to i64, !dbg !1919
  %188 = ptrtoint i8* %176 to i64, !dbg !1919
  %189 = sub i64 1, %188, !dbg !1919
  %190 = add i64 %189, %187, !dbg !1920
  %191 = tail call i32 @halide_msan_annotate_memory_is_initialized(i8* %0, i8* nonnull %176, i64 %190) #8, !dbg !1921
  tail call void @halide_error(i8* %0, i8* nonnull %176) #8, !dbg !1922
  br label %192

192:                                              ; preds = %186, %185
  tail call void @free(i8* %176) #8, !dbg !1923
  br label %193, !dbg !1924

193:                                              ; preds = %172, %192
  call void @llvm.dbg.value(metadata i8* %173, metadata !1847, metadata !DIExpression()) #10, !dbg !1889
  store i8* %173, i8** bitcast (i32 (%struct._cl_context*)** @_ZN6Halide7Runtime8Internal6OpenCL16clReleaseContextE to i8**), align 8, !dbg !1925, !tbaa !1382
  call void @llvm.dbg.value(metadata i8* %0, metadata !1926, metadata !DIExpression()) #10, !dbg !1936
  call void @llvm.dbg.value(metadata i8* getelementptr inbounds ([17 x i8], [17 x i8]* @.str.19, i64 0, i64 0), metadata !1931, metadata !DIExpression()) #10, !dbg !1936
  call void @llvm.dbg.value(metadata i1 true, metadata !1932, metadata !DIExpression(DW_OP_LLVM_convert, 1, DW_ATE_unsigned, DW_OP_LLVM_convert, 8, DW_ATE_unsigned, DW_OP_stack_value)) #10, !dbg !1936
  %194 = tail call i8* @halide_opencl_get_symbol(i8* %0, i8* getelementptr inbounds ([17 x i8], [17 x i8]* @.str.19, i64 0, i64 0)) #8, !dbg !1938
  call void @llvm.dbg.value(metadata i8* %194, metadata !1933, metadata !DIExpression()) #10, !dbg !1936
  %195 = icmp eq i8* %194, null, !dbg !1939
  br i1 %195, label %196, label %214, !dbg !1941

196:                                              ; preds = %193
  call void @llvm.dbg.value(metadata %"class.Halide::Runtime::Internal::(anonymous namespace)::Printer.0"* undef, metadata !1498, metadata !DIExpression()) #10, !dbg !1942
  call void @llvm.dbg.value(metadata i8* %0, metadata !1501, metadata !DIExpression()) #10, !dbg !1942
  call void @llvm.dbg.value(metadata i8* null, metadata !1502, metadata !DIExpression()) #10, !dbg !1942
  %197 = tail call i8* @malloc(i64 1024) #8, !dbg !1945
  %198 = icmp eq i8* %197, null, !dbg !1946
  br i1 %198, label %201, label %199, !dbg !1947

199:                                              ; preds = %196
  %200 = getelementptr inbounds i8, i8* %197, i64 1023, !dbg !1948
  store i8 0, i8* %200, align 1, !dbg !1949, !tbaa !1132
  br label %201, !dbg !1950

201:                                              ; preds = %199, %196
  %202 = phi i8* [ %200, %199 ], [ null, %196 ], !dbg !1951
  call void @llvm.dbg.value(metadata %"class.Halide::Runtime::Internal::(anonymous namespace)::Printer.0"* undef, metadata !1520, metadata !DIExpression()) #10, !dbg !1952
  call void @llvm.dbg.value(metadata i8* getelementptr inbounds ([23 x i8], [23 x i8]* @.str.296, i64 0, i64 0), metadata !1523, metadata !DIExpression()) #10, !dbg !1952
  %203 = tail call i8* @halide_string_to_string(i8* %197, i8* %202, i8* nonnull getelementptr inbounds ([23 x i8], [23 x i8]* @.str.296, i64 0, i64 0)) #8, !dbg !1954
  call void @llvm.dbg.value(metadata %"class.Halide::Runtime::Internal::(anonymous namespace)::Printer.0"* undef, metadata !1520, metadata !DIExpression()) #10, !dbg !1955
  call void @llvm.dbg.value(metadata i8* getelementptr inbounds ([17 x i8], [17 x i8]* @.str.19, i64 0, i64 0), metadata !1523, metadata !DIExpression()) #10, !dbg !1955
  %204 = tail call i8* @halide_string_to_string(i8* %203, i8* %202, i8* nonnull getelementptr inbounds ([17 x i8], [17 x i8]* @.str.19, i64 0, i64 0)) #8, !dbg !1957
  call void @llvm.dbg.value(metadata %"class.Halide::Runtime::Internal::(anonymous namespace)::Printer.0"* undef, metadata !1520, metadata !DIExpression()) #10, !dbg !1958
  call void @llvm.dbg.value(metadata i8* getelementptr inbounds ([2 x i8], [2 x i8]* @.str.4, i64 0, i64 0), metadata !1523, metadata !DIExpression()) #10, !dbg !1958
  %205 = tail call i8* @halide_string_to_string(i8* %204, i8* %202, i8* nonnull getelementptr inbounds ([2 x i8], [2 x i8]* @.str.4, i64 0, i64 0)) #8, !dbg !1960
  call void @llvm.dbg.value(metadata %"class.Halide::Runtime::Internal::(anonymous namespace)::Printer.0"* undef, metadata !1535, metadata !DIExpression()) #10, !dbg !1961
  br i1 %198, label %206, label %207, !dbg !1963

206:                                              ; preds = %201
  tail call void @halide_error(i8* %0, i8* getelementptr inbounds ([35 x i8], [35 x i8]* @.str.294, i64 0, i64 0)) #8, !dbg !1964
  br label %213, !dbg !1965

207:                                              ; preds = %201
  call void @llvm.dbg.value(metadata %"class.Halide::Runtime::Internal::(anonymous namespace)::Printer.0"* undef, metadata !1546, metadata !DIExpression()) #10, !dbg !1966
  %208 = ptrtoint i8* %205 to i64, !dbg !1968
  %209 = ptrtoint i8* %197 to i64, !dbg !1968
  %210 = sub i64 1, %209, !dbg !1968
  %211 = add i64 %210, %208, !dbg !1969
  %212 = tail call i32 @halide_msan_annotate_memory_is_initialized(i8* %0, i8* nonnull %197, i64 %211) #8, !dbg !1970
  tail call void @halide_error(i8* %0, i8* nonnull %197) #8, !dbg !1971
  br label %213

213:                                              ; preds = %207, %206
  tail call void @free(i8* %197) #8, !dbg !1972
  br label %214, !dbg !1973

214:                                              ; preds = %193, %213
  call void @llvm.dbg.value(metadata i8* %194, metadata !1933, metadata !DIExpression()) #10, !dbg !1936
  store i8* %194, i8** bitcast (i32 (%struct._cl_context*, i32, i64, i8*, i64*)** @_ZN6Halide7Runtime8Internal6OpenCL16clGetContextInfoE to i8**), align 8, !dbg !1974, !tbaa !1382
  call void @llvm.dbg.value(metadata i8* %0, metadata !1975, metadata !DIExpression()) #10, !dbg !1985
  call void @llvm.dbg.value(metadata i8* getelementptr inbounds ([21 x i8], [21 x i8]* @.str.20, i64 0, i64 0), metadata !1980, metadata !DIExpression()) #10, !dbg !1985
  call void @llvm.dbg.value(metadata i1 true, metadata !1981, metadata !DIExpression(DW_OP_LLVM_convert, 1, DW_ATE_unsigned, DW_OP_LLVM_convert, 8, DW_ATE_unsigned, DW_OP_stack_value)) #10, !dbg !1985
  %215 = tail call i8* @halide_opencl_get_symbol(i8* %0, i8* getelementptr inbounds ([21 x i8], [21 x i8]* @.str.20, i64 0, i64 0)) #8, !dbg !1987
  call void @llvm.dbg.value(metadata i8* %215, metadata !1982, metadata !DIExpression()) #10, !dbg !1985
  %216 = icmp eq i8* %215, null, !dbg !1988
  br i1 %216, label %217, label %235, !dbg !1990

217:                                              ; preds = %214
  call void @llvm.dbg.value(metadata %"class.Halide::Runtime::Internal::(anonymous namespace)::Printer.0"* undef, metadata !1498, metadata !DIExpression()) #10, !dbg !1991
  call void @llvm.dbg.value(metadata i8* %0, metadata !1501, metadata !DIExpression()) #10, !dbg !1991
  call void @llvm.dbg.value(metadata i8* null, metadata !1502, metadata !DIExpression()) #10, !dbg !1991
  %218 = tail call i8* @malloc(i64 1024) #8, !dbg !1994
  %219 = icmp eq i8* %218, null, !dbg !1995
  br i1 %219, label %222, label %220, !dbg !1996

220:                                              ; preds = %217
  %221 = getelementptr inbounds i8, i8* %218, i64 1023, !dbg !1997
  store i8 0, i8* %221, align 1, !dbg !1998, !tbaa !1132
  br label %222, !dbg !1999

222:                                              ; preds = %220, %217
  %223 = phi i8* [ %221, %220 ], [ null, %217 ], !dbg !2000
  call void @llvm.dbg.value(metadata %"class.Halide::Runtime::Internal::(anonymous namespace)::Printer.0"* undef, metadata !1520, metadata !DIExpression()) #10, !dbg !2001
  call void @llvm.dbg.value(metadata i8* getelementptr inbounds ([23 x i8], [23 x i8]* @.str.296, i64 0, i64 0), metadata !1523, metadata !DIExpression()) #10, !dbg !2001
  %224 = tail call i8* @halide_string_to_string(i8* %218, i8* %223, i8* nonnull getelementptr inbounds ([23 x i8], [23 x i8]* @.str.296, i64 0, i64 0)) #8, !dbg !2003
  call void @llvm.dbg.value(metadata %"class.Halide::Runtime::Internal::(anonymous namespace)::Printer.0"* undef, metadata !1520, metadata !DIExpression()) #10, !dbg !2004
  call void @llvm.dbg.value(metadata i8* getelementptr inbounds ([21 x i8], [21 x i8]* @.str.20, i64 0, i64 0), metadata !1523, metadata !DIExpression()) #10, !dbg !2004
  %225 = tail call i8* @halide_string_to_string(i8* %224, i8* %223, i8* nonnull getelementptr inbounds ([21 x i8], [21 x i8]* @.str.20, i64 0, i64 0)) #8, !dbg !2006
  call void @llvm.dbg.value(metadata %"class.Halide::Runtime::Internal::(anonymous namespace)::Printer.0"* undef, metadata !1520, metadata !DIExpression()) #10, !dbg !2007
  call void @llvm.dbg.value(metadata i8* getelementptr inbounds ([2 x i8], [2 x i8]* @.str.4, i64 0, i64 0), metadata !1523, metadata !DIExpression()) #10, !dbg !2007
  %226 = tail call i8* @halide_string_to_string(i8* %225, i8* %223, i8* nonnull getelementptr inbounds ([2 x i8], [2 x i8]* @.str.4, i64 0, i64 0)) #8, !dbg !2009
  call void @llvm.dbg.value(metadata %"class.Halide::Runtime::Internal::(anonymous namespace)::Printer.0"* undef, metadata !1535, metadata !DIExpression()) #10, !dbg !2010
  br i1 %219, label %227, label %228, !dbg !2012

227:                                              ; preds = %222
  tail call void @halide_error(i8* %0, i8* getelementptr inbounds ([35 x i8], [35 x i8]* @.str.294, i64 0, i64 0)) #8, !dbg !2013
  br label %234, !dbg !2014

228:                                              ; preds = %222
  call void @llvm.dbg.value(metadata %"class.Halide::Runtime::Internal::(anonymous namespace)::Printer.0"* undef, metadata !1546, metadata !DIExpression()) #10, !dbg !2015
  %229 = ptrtoint i8* %226 to i64, !dbg !2017
  %230 = ptrtoint i8* %218 to i64, !dbg !2017
  %231 = sub i64 1, %230, !dbg !2017
  %232 = add i64 %231, %229, !dbg !2018
  %233 = tail call i32 @halide_msan_annotate_memory_is_initialized(i8* %0, i8* nonnull %218, i64 %232) #8, !dbg !2019
  tail call void @halide_error(i8* %0, i8* nonnull %218) #8, !dbg !2020
  br label %234

234:                                              ; preds = %228, %227
  tail call void @free(i8* %218) #8, !dbg !2021
  br label %235, !dbg !2022

235:                                              ; preds = %214, %234
  call void @llvm.dbg.value(metadata i8* %215, metadata !1982, metadata !DIExpression()) #10, !dbg !1985
  store i8* %215, i8** bitcast (%struct._cl_command_queue* (%struct._cl_context*, %struct._cl_device_id*, i64, i32*)** @_ZN6Halide7Runtime8Internal6OpenCL20clCreateCommandQueueE to i8**), align 8, !dbg !2023, !tbaa !1382
  call void @llvm.dbg.value(metadata i8* %0, metadata !2024, metadata !DIExpression()) #10, !dbg !2034
  call void @llvm.dbg.value(metadata i8* getelementptr inbounds ([21 x i8], [21 x i8]* @.str.21, i64 0, i64 0), metadata !2029, metadata !DIExpression()) #10, !dbg !2034
  call void @llvm.dbg.value(metadata i1 true, metadata !2030, metadata !DIExpression(DW_OP_LLVM_convert, 1, DW_ATE_unsigned, DW_OP_LLVM_convert, 8, DW_ATE_unsigned, DW_OP_stack_value)) #10, !dbg !2034
  %236 = tail call i8* @halide_opencl_get_symbol(i8* %0, i8* getelementptr inbounds ([21 x i8], [21 x i8]* @.str.21, i64 0, i64 0)) #8, !dbg !2036
  call void @llvm.dbg.value(metadata i8* %236, metadata !2031, metadata !DIExpression()) #10, !dbg !2034
  %237 = icmp eq i8* %236, null, !dbg !2037
  br i1 %237, label %238, label %256, !dbg !2039

238:                                              ; preds = %235
  call void @llvm.dbg.value(metadata %"class.Halide::Runtime::Internal::(anonymous namespace)::Printer.0"* undef, metadata !1498, metadata !DIExpression()) #10, !dbg !2040
  call void @llvm.dbg.value(metadata i8* %0, metadata !1501, metadata !DIExpression()) #10, !dbg !2040
  call void @llvm.dbg.value(metadata i8* null, metadata !1502, metadata !DIExpression()) #10, !dbg !2040
  %239 = tail call i8* @malloc(i64 1024) #8, !dbg !2043
  %240 = icmp eq i8* %239, null, !dbg !2044
  br i1 %240, label %243, label %241, !dbg !2045

241:                                              ; preds = %238
  %242 = getelementptr inbounds i8, i8* %239, i64 1023, !dbg !2046
  store i8 0, i8* %242, align 1, !dbg !2047, !tbaa !1132
  br label %243, !dbg !2048

243:                                              ; preds = %241, %238
  %244 = phi i8* [ %242, %241 ], [ null, %238 ], !dbg !2049
  call void @llvm.dbg.value(metadata %"class.Halide::Runtime::Internal::(anonymous namespace)::Printer.0"* undef, metadata !1520, metadata !DIExpression()) #10, !dbg !2050
  call void @llvm.dbg.value(metadata i8* getelementptr inbounds ([23 x i8], [23 x i8]* @.str.296, i64 0, i64 0), metadata !1523, metadata !DIExpression()) #10, !dbg !2050
  %245 = tail call i8* @halide_string_to_string(i8* %239, i8* %244, i8* nonnull getelementptr inbounds ([23 x i8], [23 x i8]* @.str.296, i64 0, i64 0)) #8, !dbg !2052
  call void @llvm.dbg.value(metadata %"class.Halide::Runtime::Internal::(anonymous namespace)::Printer.0"* undef, metadata !1520, metadata !DIExpression()) #10, !dbg !2053
  call void @llvm.dbg.value(metadata i8* getelementptr inbounds ([21 x i8], [21 x i8]* @.str.21, i64 0, i64 0), metadata !1523, metadata !DIExpression()) #10, !dbg !2053
  %246 = tail call i8* @halide_string_to_string(i8* %245, i8* %244, i8* nonnull getelementptr inbounds ([21 x i8], [21 x i8]* @.str.21, i64 0, i64 0)) #8, !dbg !2055
  call void @llvm.dbg.value(metadata %"class.Halide::Runtime::Internal::(anonymous namespace)::Printer.0"* undef, metadata !1520, metadata !DIExpression()) #10, !dbg !2056
  call void @llvm.dbg.value(metadata i8* getelementptr inbounds ([2 x i8], [2 x i8]* @.str.4, i64 0, i64 0), metadata !1523, metadata !DIExpression()) #10, !dbg !2056
  %247 = tail call i8* @halide_string_to_string(i8* %246, i8* %244, i8* nonnull getelementptr inbounds ([2 x i8], [2 x i8]* @.str.4, i64 0, i64 0)) #8, !dbg !2058
  call void @llvm.dbg.value(metadata %"class.Halide::Runtime::Internal::(anonymous namespace)::Printer.0"* undef, metadata !1535, metadata !DIExpression()) #10, !dbg !2059
  br i1 %240, label %248, label %249, !dbg !2061

248:                                              ; preds = %243
  tail call void @halide_error(i8* %0, i8* getelementptr inbounds ([35 x i8], [35 x i8]* @.str.294, i64 0, i64 0)) #8, !dbg !2062
  br label %255, !dbg !2063

249:                                              ; preds = %243
  call void @llvm.dbg.value(metadata %"class.Halide::Runtime::Internal::(anonymous namespace)::Printer.0"* undef, metadata !1546, metadata !DIExpression()) #10, !dbg !2064
  %250 = ptrtoint i8* %247 to i64, !dbg !2066
  %251 = ptrtoint i8* %239 to i64, !dbg !2066
  %252 = sub i64 1, %251, !dbg !2066
  %253 = add i64 %252, %250, !dbg !2067
  %254 = tail call i32 @halide_msan_annotate_memory_is_initialized(i8* %0, i8* nonnull %239, i64 %253) #8, !dbg !2068
  tail call void @halide_error(i8* %0, i8* nonnull %239) #8, !dbg !2069
  br label %255

255:                                              ; preds = %249, %248
  tail call void @free(i8* %239) #8, !dbg !2070
  br label %256, !dbg !2071

256:                                              ; preds = %235, %255
  call void @llvm.dbg.value(metadata i8* %236, metadata !2031, metadata !DIExpression()) #10, !dbg !2034
  store i8* %236, i8** bitcast (i32 (%struct._cl_command_queue*)** @_ZN6Halide7Runtime8Internal6OpenCL20clRetainCommandQueueE to i8**), align 8, !dbg !2072, !tbaa !1382
  call void @llvm.dbg.value(metadata i8* %0, metadata !2024, metadata !DIExpression()) #10, !dbg !2073
  call void @llvm.dbg.value(metadata i8* getelementptr inbounds ([22 x i8], [22 x i8]* @.str.22, i64 0, i64 0), metadata !2029, metadata !DIExpression()) #10, !dbg !2073
  call void @llvm.dbg.value(metadata i1 true, metadata !2030, metadata !DIExpression(DW_OP_LLVM_convert, 1, DW_ATE_unsigned, DW_OP_LLVM_convert, 8, DW_ATE_unsigned, DW_OP_stack_value)) #10, !dbg !2073
  %257 = tail call i8* @halide_opencl_get_symbol(i8* %0, i8* getelementptr inbounds ([22 x i8], [22 x i8]* @.str.22, i64 0, i64 0)) #8, !dbg !2075
  call void @llvm.dbg.value(metadata i8* %257, metadata !2031, metadata !DIExpression()) #10, !dbg !2073
  %258 = icmp eq i8* %257, null, !dbg !2076
  br i1 %258, label %259, label %277, !dbg !2077

259:                                              ; preds = %256
  call void @llvm.dbg.value(metadata %"class.Halide::Runtime::Internal::(anonymous namespace)::Printer.0"* undef, metadata !1498, metadata !DIExpression()) #10, !dbg !2078
  call void @llvm.dbg.value(metadata i8* %0, metadata !1501, metadata !DIExpression()) #10, !dbg !2078
  call void @llvm.dbg.value(metadata i8* null, metadata !1502, metadata !DIExpression()) #10, !dbg !2078
  %260 = tail call i8* @malloc(i64 1024) #8, !dbg !2080
  %261 = icmp eq i8* %260, null, !dbg !2081
  br i1 %261, label %264, label %262, !dbg !2082

262:                                              ; preds = %259
  %263 = getelementptr inbounds i8, i8* %260, i64 1023, !dbg !2083
  store i8 0, i8* %263, align 1, !dbg !2084, !tbaa !1132
  br label %264, !dbg !2085

264:                                              ; preds = %262, %259
  %265 = phi i8* [ %263, %262 ], [ null, %259 ], !dbg !2086
  call void @llvm.dbg.value(metadata %"class.Halide::Runtime::Internal::(anonymous namespace)::Printer.0"* undef, metadata !1520, metadata !DIExpression()) #10, !dbg !2087
  call void @llvm.dbg.value(metadata i8* getelementptr inbounds ([23 x i8], [23 x i8]* @.str.296, i64 0, i64 0), metadata !1523, metadata !DIExpression()) #10, !dbg !2087
  %266 = tail call i8* @halide_string_to_string(i8* %260, i8* %265, i8* nonnull getelementptr inbounds ([23 x i8], [23 x i8]* @.str.296, i64 0, i64 0)) #8, !dbg !2089
  call void @llvm.dbg.value(metadata %"class.Halide::Runtime::Internal::(anonymous namespace)::Printer.0"* undef, metadata !1520, metadata !DIExpression()) #10, !dbg !2090
  call void @llvm.dbg.value(metadata i8* getelementptr inbounds ([22 x i8], [22 x i8]* @.str.22, i64 0, i64 0), metadata !1523, metadata !DIExpression()) #10, !dbg !2090
  %267 = tail call i8* @halide_string_to_string(i8* %266, i8* %265, i8* nonnull getelementptr inbounds ([22 x i8], [22 x i8]* @.str.22, i64 0, i64 0)) #8, !dbg !2092
  call void @llvm.dbg.value(metadata %"class.Halide::Runtime::Internal::(anonymous namespace)::Printer.0"* undef, metadata !1520, metadata !DIExpression()) #10, !dbg !2093
  call void @llvm.dbg.value(metadata i8* getelementptr inbounds ([2 x i8], [2 x i8]* @.str.4, i64 0, i64 0), metadata !1523, metadata !DIExpression()) #10, !dbg !2093
  %268 = tail call i8* @halide_string_to_string(i8* %267, i8* %265, i8* nonnull getelementptr inbounds ([2 x i8], [2 x i8]* @.str.4, i64 0, i64 0)) #8, !dbg !2095
  call void @llvm.dbg.value(metadata %"class.Halide::Runtime::Internal::(anonymous namespace)::Printer.0"* undef, metadata !1535, metadata !DIExpression()) #10, !dbg !2096
  br i1 %261, label %269, label %270, !dbg !2098

269:                                              ; preds = %264
  tail call void @halide_error(i8* %0, i8* getelementptr inbounds ([35 x i8], [35 x i8]* @.str.294, i64 0, i64 0)) #8, !dbg !2099
  br label %276, !dbg !2100

270:                                              ; preds = %264
  call void @llvm.dbg.value(metadata %"class.Halide::Runtime::Internal::(anonymous namespace)::Printer.0"* undef, metadata !1546, metadata !DIExpression()) #10, !dbg !2101
  %271 = ptrtoint i8* %268 to i64, !dbg !2103
  %272 = ptrtoint i8* %260 to i64, !dbg !2103
  %273 = sub i64 1, %272, !dbg !2103
  %274 = add i64 %273, %271, !dbg !2104
  %275 = tail call i32 @halide_msan_annotate_memory_is_initialized(i8* %0, i8* nonnull %260, i64 %274) #8, !dbg !2105
  tail call void @halide_error(i8* %0, i8* nonnull %260) #8, !dbg !2106
  br label %276

276:                                              ; preds = %270, %269
  tail call void @free(i8* %260) #8, !dbg !2107
  br label %277, !dbg !2108

277:                                              ; preds = %256, %276
  call void @llvm.dbg.value(metadata i8* %257, metadata !2031, metadata !DIExpression()) #10, !dbg !2073
  store i8* %257, i8** bitcast (i32 (%struct._cl_command_queue*)** @_ZN6Halide7Runtime8Internal6OpenCL21clReleaseCommandQueueE to i8**), align 8, !dbg !2109, !tbaa !1382
  call void @llvm.dbg.value(metadata i8* %0, metadata !2110, metadata !DIExpression()) #10, !dbg !2120
  call void @llvm.dbg.value(metadata i8* getelementptr inbounds ([22 x i8], [22 x i8]* @.str.23, i64 0, i64 0), metadata !2115, metadata !DIExpression()) #10, !dbg !2120
  call void @llvm.dbg.value(metadata i1 true, metadata !2116, metadata !DIExpression(DW_OP_LLVM_convert, 1, DW_ATE_unsigned, DW_OP_LLVM_convert, 8, DW_ATE_unsigned, DW_OP_stack_value)) #10, !dbg !2120
  %278 = tail call i8* @halide_opencl_get_symbol(i8* %0, i8* getelementptr inbounds ([22 x i8], [22 x i8]* @.str.23, i64 0, i64 0)) #8, !dbg !2122
  call void @llvm.dbg.value(metadata i8* %278, metadata !2117, metadata !DIExpression()) #10, !dbg !2120
  %279 = icmp eq i8* %278, null, !dbg !2123
  br i1 %279, label %280, label %298, !dbg !2125

280:                                              ; preds = %277
  call void @llvm.dbg.value(metadata %"class.Halide::Runtime::Internal::(anonymous namespace)::Printer.0"* undef, metadata !1498, metadata !DIExpression()) #10, !dbg !2126
  call void @llvm.dbg.value(metadata i8* %0, metadata !1501, metadata !DIExpression()) #10, !dbg !2126
  call void @llvm.dbg.value(metadata i8* null, metadata !1502, metadata !DIExpression()) #10, !dbg !2126
  %281 = tail call i8* @malloc(i64 1024) #8, !dbg !2129
  %282 = icmp eq i8* %281, null, !dbg !2130
  br i1 %282, label %285, label %283, !dbg !2131

283:                                              ; preds = %280
  %284 = getelementptr inbounds i8, i8* %281, i64 1023, !dbg !2132
  store i8 0, i8* %284, align 1, !dbg !2133, !tbaa !1132
  br label %285, !dbg !2134

285:                                              ; preds = %283, %280
  %286 = phi i8* [ %284, %283 ], [ null, %280 ], !dbg !2135
  call void @llvm.dbg.value(metadata %"class.Halide::Runtime::Internal::(anonymous namespace)::Printer.0"* undef, metadata !1520, metadata !DIExpression()) #10, !dbg !2136
  call void @llvm.dbg.value(metadata i8* getelementptr inbounds ([23 x i8], [23 x i8]* @.str.296, i64 0, i64 0), metadata !1523, metadata !DIExpression()) #10, !dbg !2136
  %287 = tail call i8* @halide_string_to_string(i8* %281, i8* %286, i8* nonnull getelementptr inbounds ([23 x i8], [23 x i8]* @.str.296, i64 0, i64 0)) #8, !dbg !2138
  call void @llvm.dbg.value(metadata %"class.Halide::Runtime::Internal::(anonymous namespace)::Printer.0"* undef, metadata !1520, metadata !DIExpression()) #10, !dbg !2139
  call void @llvm.dbg.value(metadata i8* getelementptr inbounds ([22 x i8], [22 x i8]* @.str.23, i64 0, i64 0), metadata !1523, metadata !DIExpression()) #10, !dbg !2139
  %288 = tail call i8* @halide_string_to_string(i8* %287, i8* %286, i8* nonnull getelementptr inbounds ([22 x i8], [22 x i8]* @.str.23, i64 0, i64 0)) #8, !dbg !2141
  call void @llvm.dbg.value(metadata %"class.Halide::Runtime::Internal::(anonymous namespace)::Printer.0"* undef, metadata !1520, metadata !DIExpression()) #10, !dbg !2142
  call void @llvm.dbg.value(metadata i8* getelementptr inbounds ([2 x i8], [2 x i8]* @.str.4, i64 0, i64 0), metadata !1523, metadata !DIExpression()) #10, !dbg !2142
  %289 = tail call i8* @halide_string_to_string(i8* %288, i8* %286, i8* nonnull getelementptr inbounds ([2 x i8], [2 x i8]* @.str.4, i64 0, i64 0)) #8, !dbg !2144
  call void @llvm.dbg.value(metadata %"class.Halide::Runtime::Internal::(anonymous namespace)::Printer.0"* undef, metadata !1535, metadata !DIExpression()) #10, !dbg !2145
  br i1 %282, label %290, label %291, !dbg !2147

290:                                              ; preds = %285
  tail call void @halide_error(i8* %0, i8* getelementptr inbounds ([35 x i8], [35 x i8]* @.str.294, i64 0, i64 0)) #8, !dbg !2148
  br label %297, !dbg !2149

291:                                              ; preds = %285
  call void @llvm.dbg.value(metadata %"class.Halide::Runtime::Internal::(anonymous namespace)::Printer.0"* undef, metadata !1546, metadata !DIExpression()) #10, !dbg !2150
  %292 = ptrtoint i8* %289 to i64, !dbg !2152
  %293 = ptrtoint i8* %281 to i64, !dbg !2152
  %294 = sub i64 1, %293, !dbg !2152
  %295 = add i64 %294, %292, !dbg !2153
  %296 = tail call i32 @halide_msan_annotate_memory_is_initialized(i8* %0, i8* nonnull %281, i64 %295) #8, !dbg !2154
  tail call void @halide_error(i8* %0, i8* nonnull %281) #8, !dbg !2155
  br label %297

297:                                              ; preds = %291, %290
  tail call void @free(i8* %281) #8, !dbg !2156
  br label %298, !dbg !2157

298:                                              ; preds = %277, %297
  call void @llvm.dbg.value(metadata i8* %278, metadata !2117, metadata !DIExpression()) #10, !dbg !2120
  store i8* %278, i8** bitcast (i32 (%struct._cl_command_queue*, i32, i64, i8*, i64*)** @_ZN6Halide7Runtime8Internal6OpenCL21clGetCommandQueueInfoE to i8**), align 8, !dbg !2158, !tbaa !1382
  call void @llvm.dbg.value(metadata i8* %0, metadata !2159, metadata !DIExpression()) #10, !dbg !2169
  call void @llvm.dbg.value(metadata i8* getelementptr inbounds ([15 x i8], [15 x i8]* @.str.24, i64 0, i64 0), metadata !2164, metadata !DIExpression()) #10, !dbg !2169
  call void @llvm.dbg.value(metadata i1 true, metadata !2165, metadata !DIExpression(DW_OP_LLVM_convert, 1, DW_ATE_unsigned, DW_OP_LLVM_convert, 8, DW_ATE_unsigned, DW_OP_stack_value)) #10, !dbg !2169
  %299 = tail call i8* @halide_opencl_get_symbol(i8* %0, i8* getelementptr inbounds ([15 x i8], [15 x i8]* @.str.24, i64 0, i64 0)) #8, !dbg !2171
  call void @llvm.dbg.value(metadata i8* %299, metadata !2166, metadata !DIExpression()) #10, !dbg !2169
  %300 = icmp eq i8* %299, null, !dbg !2172
  br i1 %300, label %301, label %319, !dbg !2174

301:                                              ; preds = %298
  call void @llvm.dbg.value(metadata %"class.Halide::Runtime::Internal::(anonymous namespace)::Printer.0"* undef, metadata !1498, metadata !DIExpression()) #10, !dbg !2175
  call void @llvm.dbg.value(metadata i8* %0, metadata !1501, metadata !DIExpression()) #10, !dbg !2175
  call void @llvm.dbg.value(metadata i8* null, metadata !1502, metadata !DIExpression()) #10, !dbg !2175
  %302 = tail call i8* @malloc(i64 1024) #8, !dbg !2178
  %303 = icmp eq i8* %302, null, !dbg !2179
  br i1 %303, label %306, label %304, !dbg !2180

304:                                              ; preds = %301
  %305 = getelementptr inbounds i8, i8* %302, i64 1023, !dbg !2181
  store i8 0, i8* %305, align 1, !dbg !2182, !tbaa !1132
  br label %306, !dbg !2183

306:                                              ; preds = %304, %301
  %307 = phi i8* [ %305, %304 ], [ null, %301 ], !dbg !2184
  call void @llvm.dbg.value(metadata %"class.Halide::Runtime::Internal::(anonymous namespace)::Printer.0"* undef, metadata !1520, metadata !DIExpression()) #10, !dbg !2185
  call void @llvm.dbg.value(metadata i8* getelementptr inbounds ([23 x i8], [23 x i8]* @.str.296, i64 0, i64 0), metadata !1523, metadata !DIExpression()) #10, !dbg !2185
  %308 = tail call i8* @halide_string_to_string(i8* %302, i8* %307, i8* nonnull getelementptr inbounds ([23 x i8], [23 x i8]* @.str.296, i64 0, i64 0)) #8, !dbg !2187
  call void @llvm.dbg.value(metadata %"class.Halide::Runtime::Internal::(anonymous namespace)::Printer.0"* undef, metadata !1520, metadata !DIExpression()) #10, !dbg !2188
  call void @llvm.dbg.value(metadata i8* getelementptr inbounds ([15 x i8], [15 x i8]* @.str.24, i64 0, i64 0), metadata !1523, metadata !DIExpression()) #10, !dbg !2188
  %309 = tail call i8* @halide_string_to_string(i8* %308, i8* %307, i8* nonnull getelementptr inbounds ([15 x i8], [15 x i8]* @.str.24, i64 0, i64 0)) #8, !dbg !2190
  call void @llvm.dbg.value(metadata %"class.Halide::Runtime::Internal::(anonymous namespace)::Printer.0"* undef, metadata !1520, metadata !DIExpression()) #10, !dbg !2191
  call void @llvm.dbg.value(metadata i8* getelementptr inbounds ([2 x i8], [2 x i8]* @.str.4, i64 0, i64 0), metadata !1523, metadata !DIExpression()) #10, !dbg !2191
  %310 = tail call i8* @halide_string_to_string(i8* %309, i8* %307, i8* nonnull getelementptr inbounds ([2 x i8], [2 x i8]* @.str.4, i64 0, i64 0)) #8, !dbg !2193
  call void @llvm.dbg.value(metadata %"class.Halide::Runtime::Internal::(anonymous namespace)::Printer.0"* undef, metadata !1535, metadata !DIExpression()) #10, !dbg !2194
  br i1 %303, label %311, label %312, !dbg !2196

311:                                              ; preds = %306
  tail call void @halide_error(i8* %0, i8* getelementptr inbounds ([35 x i8], [35 x i8]* @.str.294, i64 0, i64 0)) #8, !dbg !2197
  br label %318, !dbg !2198

312:                                              ; preds = %306
  call void @llvm.dbg.value(metadata %"class.Halide::Runtime::Internal::(anonymous namespace)::Printer.0"* undef, metadata !1546, metadata !DIExpression()) #10, !dbg !2199
  %313 = ptrtoint i8* %310 to i64, !dbg !2201
  %314 = ptrtoint i8* %302 to i64, !dbg !2201
  %315 = sub i64 1, %314, !dbg !2201
  %316 = add i64 %315, %313, !dbg !2202
  %317 = tail call i32 @halide_msan_annotate_memory_is_initialized(i8* %0, i8* nonnull %302, i64 %316) #8, !dbg !2203
  tail call void @halide_error(i8* %0, i8* nonnull %302) #8, !dbg !2204
  br label %318

318:                                              ; preds = %312, %311
  tail call void @free(i8* %302) #8, !dbg !2205
  br label %319, !dbg !2206

319:                                              ; preds = %298, %318
  call void @llvm.dbg.value(metadata i8* %299, metadata !2166, metadata !DIExpression()) #10, !dbg !2169
  store i8* %299, i8** bitcast (%struct._cl_mem* (%struct._cl_context*, i64, i64, i8*, i32*)** @_ZN6Halide7Runtime8Internal6OpenCL14clCreateBufferE to i8**), align 8, !dbg !2207, !tbaa !1382
  call void @llvm.dbg.value(metadata i8* %0, metadata !2208, metadata !DIExpression()) #10, !dbg !2218
  call void @llvm.dbg.value(metadata i8* getelementptr inbounds ([18 x i8], [18 x i8]* @.str.25, i64 0, i64 0), metadata !2213, metadata !DIExpression()) #10, !dbg !2218
  call void @llvm.dbg.value(metadata i1 true, metadata !2214, metadata !DIExpression(DW_OP_LLVM_convert, 1, DW_ATE_unsigned, DW_OP_LLVM_convert, 8, DW_ATE_unsigned, DW_OP_stack_value)) #10, !dbg !2218
  %320 = tail call i8* @halide_opencl_get_symbol(i8* %0, i8* getelementptr inbounds ([18 x i8], [18 x i8]* @.str.25, i64 0, i64 0)) #8, !dbg !2220
  call void @llvm.dbg.value(metadata i8* %320, metadata !2215, metadata !DIExpression()) #10, !dbg !2218
  %321 = icmp eq i8* %320, null, !dbg !2221
  br i1 %321, label %322, label %340, !dbg !2223

322:                                              ; preds = %319
  call void @llvm.dbg.value(metadata %"class.Halide::Runtime::Internal::(anonymous namespace)::Printer.0"* undef, metadata !1498, metadata !DIExpression()) #10, !dbg !2224
  call void @llvm.dbg.value(metadata i8* %0, metadata !1501, metadata !DIExpression()) #10, !dbg !2224
  call void @llvm.dbg.value(metadata i8* null, metadata !1502, metadata !DIExpression()) #10, !dbg !2224
  %323 = tail call i8* @malloc(i64 1024) #8, !dbg !2227
  %324 = icmp eq i8* %323, null, !dbg !2228
  br i1 %324, label %327, label %325, !dbg !2229

325:                                              ; preds = %322
  %326 = getelementptr inbounds i8, i8* %323, i64 1023, !dbg !2230
  store i8 0, i8* %326, align 1, !dbg !2231, !tbaa !1132
  br label %327, !dbg !2232

327:                                              ; preds = %325, %322
  %328 = phi i8* [ %326, %325 ], [ null, %322 ], !dbg !2233
  call void @llvm.dbg.value(metadata %"class.Halide::Runtime::Internal::(anonymous namespace)::Printer.0"* undef, metadata !1520, metadata !DIExpression()) #10, !dbg !2234
  call void @llvm.dbg.value(metadata i8* getelementptr inbounds ([23 x i8], [23 x i8]* @.str.296, i64 0, i64 0), metadata !1523, metadata !DIExpression()) #10, !dbg !2234
  %329 = tail call i8* @halide_string_to_string(i8* %323, i8* %328, i8* nonnull getelementptr inbounds ([23 x i8], [23 x i8]* @.str.296, i64 0, i64 0)) #8, !dbg !2236
  call void @llvm.dbg.value(metadata %"class.Halide::Runtime::Internal::(anonymous namespace)::Printer.0"* undef, metadata !1520, metadata !DIExpression()) #10, !dbg !2237
  call void @llvm.dbg.value(metadata i8* getelementptr inbounds ([18 x i8], [18 x i8]* @.str.25, i64 0, i64 0), metadata !1523, metadata !DIExpression()) #10, !dbg !2237
  %330 = tail call i8* @halide_string_to_string(i8* %329, i8* %328, i8* nonnull getelementptr inbounds ([18 x i8], [18 x i8]* @.str.25, i64 0, i64 0)) #8, !dbg !2239
  call void @llvm.dbg.value(metadata %"class.Halide::Runtime::Internal::(anonymous namespace)::Printer.0"* undef, metadata !1520, metadata !DIExpression()) #10, !dbg !2240
  call void @llvm.dbg.value(metadata i8* getelementptr inbounds ([2 x i8], [2 x i8]* @.str.4, i64 0, i64 0), metadata !1523, metadata !DIExpression()) #10, !dbg !2240
  %331 = tail call i8* @halide_string_to_string(i8* %330, i8* %328, i8* nonnull getelementptr inbounds ([2 x i8], [2 x i8]* @.str.4, i64 0, i64 0)) #8, !dbg !2242
  call void @llvm.dbg.value(metadata %"class.Halide::Runtime::Internal::(anonymous namespace)::Printer.0"* undef, metadata !1535, metadata !DIExpression()) #10, !dbg !2243
  br i1 %324, label %332, label %333, !dbg !2245

332:                                              ; preds = %327
  tail call void @halide_error(i8* %0, i8* getelementptr inbounds ([35 x i8], [35 x i8]* @.str.294, i64 0, i64 0)) #8, !dbg !2246
  br label %339, !dbg !2247

333:                                              ; preds = %327
  call void @llvm.dbg.value(metadata %"class.Halide::Runtime::Internal::(anonymous namespace)::Printer.0"* undef, metadata !1546, metadata !DIExpression()) #10, !dbg !2248
  %334 = ptrtoint i8* %331 to i64, !dbg !2250
  %335 = ptrtoint i8* %323 to i64, !dbg !2250
  %336 = sub i64 1, %335, !dbg !2250
  %337 = add i64 %336, %334, !dbg !2251
  %338 = tail call i32 @halide_msan_annotate_memory_is_initialized(i8* %0, i8* nonnull %323, i64 %337) #8, !dbg !2252
  tail call void @halide_error(i8* %0, i8* nonnull %323) #8, !dbg !2253
  br label %339

339:                                              ; preds = %333, %332
  tail call void @free(i8* %323) #8, !dbg !2254
  br label %340, !dbg !2255

340:                                              ; preds = %319, %339
  call void @llvm.dbg.value(metadata i8* %320, metadata !2215, metadata !DIExpression()) #10, !dbg !2218
  store i8* %320, i8** bitcast (%struct._cl_mem* (%struct._cl_mem*, i64, i32, i8*, i32*)** @_ZN6Halide7Runtime8Internal6OpenCL17clCreateSubBufferE to i8**), align 8, !dbg !2256, !tbaa !1382
  call void @llvm.dbg.value(metadata i8* %0, metadata !2257, metadata !DIExpression()) #10, !dbg !2267
  call void @llvm.dbg.value(metadata i8* getelementptr inbounds ([14 x i8], [14 x i8]* @.str.26, i64 0, i64 0), metadata !2262, metadata !DIExpression()) #10, !dbg !2267
  call void @llvm.dbg.value(metadata i1 false, metadata !2263, metadata !DIExpression(DW_OP_LLVM_convert, 1, DW_ATE_unsigned, DW_OP_LLVM_convert, 8, DW_ATE_unsigned, DW_OP_stack_value)) #10, !dbg !2267
  %341 = tail call i8* @halide_opencl_get_symbol(i8* %0, i8* getelementptr inbounds ([14 x i8], [14 x i8]* @.str.26, i64 0, i64 0)) #8, !dbg !2269
  call void @llvm.dbg.value(metadata i8* %341, metadata !2264, metadata !DIExpression()) #10, !dbg !2267
  store i8* %341, i8** bitcast (%struct._cl_mem* (%struct._cl_context*, i64, %struct._cl_image_format*, %struct._cl_image_desc*, i8*, i32*)** @_ZN6Halide7Runtime8Internal6OpenCL13clCreateImageE to i8**), align 8, !dbg !2270, !tbaa !1382
  call void @llvm.dbg.value(metadata i8* %0, metadata !2271, metadata !DIExpression()) #10, !dbg !2281
  call void @llvm.dbg.value(metadata i8* getelementptr inbounds ([18 x i8], [18 x i8]* @.str.27, i64 0, i64 0), metadata !2276, metadata !DIExpression()) #10, !dbg !2281
  call void @llvm.dbg.value(metadata i1 true, metadata !2277, metadata !DIExpression(DW_OP_LLVM_convert, 1, DW_ATE_unsigned, DW_OP_LLVM_convert, 8, DW_ATE_unsigned, DW_OP_stack_value)) #10, !dbg !2281
  %342 = tail call i8* @halide_opencl_get_symbol(i8* %0, i8* getelementptr inbounds ([18 x i8], [18 x i8]* @.str.27, i64 0, i64 0)) #8, !dbg !2283
  call void @llvm.dbg.value(metadata i8* %342, metadata !2278, metadata !DIExpression()) #10, !dbg !2281
  %343 = icmp eq i8* %342, null, !dbg !2284
  br i1 %343, label %344, label %362, !dbg !2286

344:                                              ; preds = %340
  call void @llvm.dbg.value(metadata %"class.Halide::Runtime::Internal::(anonymous namespace)::Printer.0"* undef, metadata !1498, metadata !DIExpression()) #10, !dbg !2287
  call void @llvm.dbg.value(metadata i8* %0, metadata !1501, metadata !DIExpression()) #10, !dbg !2287
  call void @llvm.dbg.value(metadata i8* null, metadata !1502, metadata !DIExpression()) #10, !dbg !2287
  %345 = tail call i8* @malloc(i64 1024) #8, !dbg !2290
  %346 = icmp eq i8* %345, null, !dbg !2291
  br i1 %346, label %349, label %347, !dbg !2292

347:                                              ; preds = %344
  %348 = getelementptr inbounds i8, i8* %345, i64 1023, !dbg !2293
  store i8 0, i8* %348, align 1, !dbg !2294, !tbaa !1132
  br label %349, !dbg !2295

349:                                              ; preds = %347, %344
  %350 = phi i8* [ %348, %347 ], [ null, %344 ], !dbg !2296
  call void @llvm.dbg.value(metadata %"class.Halide::Runtime::Internal::(anonymous namespace)::Printer.0"* undef, metadata !1520, metadata !DIExpression()) #10, !dbg !2297
  call void @llvm.dbg.value(metadata i8* getelementptr inbounds ([23 x i8], [23 x i8]* @.str.296, i64 0, i64 0), metadata !1523, metadata !DIExpression()) #10, !dbg !2297
  %351 = tail call i8* @halide_string_to_string(i8* %345, i8* %350, i8* nonnull getelementptr inbounds ([23 x i8], [23 x i8]* @.str.296, i64 0, i64 0)) #8, !dbg !2299
  call void @llvm.dbg.value(metadata %"class.Halide::Runtime::Internal::(anonymous namespace)::Printer.0"* undef, metadata !1520, metadata !DIExpression()) #10, !dbg !2300
  call void @llvm.dbg.value(metadata i8* getelementptr inbounds ([18 x i8], [18 x i8]* @.str.27, i64 0, i64 0), metadata !1523, metadata !DIExpression()) #10, !dbg !2300
  %352 = tail call i8* @halide_string_to_string(i8* %351, i8* %350, i8* nonnull getelementptr inbounds ([18 x i8], [18 x i8]* @.str.27, i64 0, i64 0)) #8, !dbg !2302
  call void @llvm.dbg.value(metadata %"class.Halide::Runtime::Internal::(anonymous namespace)::Printer.0"* undef, metadata !1520, metadata !DIExpression()) #10, !dbg !2303
  call void @llvm.dbg.value(metadata i8* getelementptr inbounds ([2 x i8], [2 x i8]* @.str.4, i64 0, i64 0), metadata !1523, metadata !DIExpression()) #10, !dbg !2303
  %353 = tail call i8* @halide_string_to_string(i8* %352, i8* %350, i8* nonnull getelementptr inbounds ([2 x i8], [2 x i8]* @.str.4, i64 0, i64 0)) #8, !dbg !2305
  call void @llvm.dbg.value(metadata %"class.Halide::Runtime::Internal::(anonymous namespace)::Printer.0"* undef, metadata !1535, metadata !DIExpression()) #10, !dbg !2306
  br i1 %346, label %354, label %355, !dbg !2308

354:                                              ; preds = %349
  tail call void @halide_error(i8* %0, i8* getelementptr inbounds ([35 x i8], [35 x i8]* @.str.294, i64 0, i64 0)) #8, !dbg !2309
  br label %361, !dbg !2310

355:                                              ; preds = %349
  call void @llvm.dbg.value(metadata %"class.Halide::Runtime::Internal::(anonymous namespace)::Printer.0"* undef, metadata !1546, metadata !DIExpression()) #10, !dbg !2311
  %356 = ptrtoint i8* %353 to i64, !dbg !2313
  %357 = ptrtoint i8* %345 to i64, !dbg !2313
  %358 = sub i64 1, %357, !dbg !2313
  %359 = add i64 %358, %356, !dbg !2314
  %360 = tail call i32 @halide_msan_annotate_memory_is_initialized(i8* %0, i8* nonnull %345, i64 %359) #8, !dbg !2315
  tail call void @halide_error(i8* %0, i8* nonnull %345) #8, !dbg !2316
  br label %361

361:                                              ; preds = %355, %354
  tail call void @free(i8* %345) #8, !dbg !2317
  br label %362, !dbg !2318

362:                                              ; preds = %340, %361
  call void @llvm.dbg.value(metadata i8* %342, metadata !2278, metadata !DIExpression()) #10, !dbg !2281
  store i8* %342, i8** bitcast (i32 (%struct._cl_mem*)** @_ZN6Halide7Runtime8Internal6OpenCL17clRetainMemObjectE to i8**), align 8, !dbg !2319, !tbaa !1382
  call void @llvm.dbg.value(metadata i8* %0, metadata !2271, metadata !DIExpression()) #10, !dbg !2320
  call void @llvm.dbg.value(metadata i8* getelementptr inbounds ([19 x i8], [19 x i8]* @.str.28, i64 0, i64 0), metadata !2276, metadata !DIExpression()) #10, !dbg !2320
  call void @llvm.dbg.value(metadata i1 true, metadata !2277, metadata !DIExpression(DW_OP_LLVM_convert, 1, DW_ATE_unsigned, DW_OP_LLVM_convert, 8, DW_ATE_unsigned, DW_OP_stack_value)) #10, !dbg !2320
  %363 = tail call i8* @halide_opencl_get_symbol(i8* %0, i8* getelementptr inbounds ([19 x i8], [19 x i8]* @.str.28, i64 0, i64 0)) #8, !dbg !2322
  call void @llvm.dbg.value(metadata i8* %363, metadata !2278, metadata !DIExpression()) #10, !dbg !2320
  %364 = icmp eq i8* %363, null, !dbg !2323
  br i1 %364, label %365, label %383, !dbg !2324

365:                                              ; preds = %362
  call void @llvm.dbg.value(metadata %"class.Halide::Runtime::Internal::(anonymous namespace)::Printer.0"* undef, metadata !1498, metadata !DIExpression()) #10, !dbg !2325
  call void @llvm.dbg.value(metadata i8* %0, metadata !1501, metadata !DIExpression()) #10, !dbg !2325
  call void @llvm.dbg.value(metadata i8* null, metadata !1502, metadata !DIExpression()) #10, !dbg !2325
  %366 = tail call i8* @malloc(i64 1024) #8, !dbg !2327
  %367 = icmp eq i8* %366, null, !dbg !2328
  br i1 %367, label %370, label %368, !dbg !2329

368:                                              ; preds = %365
  %369 = getelementptr inbounds i8, i8* %366, i64 1023, !dbg !2330
  store i8 0, i8* %369, align 1, !dbg !2331, !tbaa !1132
  br label %370, !dbg !2332

370:                                              ; preds = %368, %365
  %371 = phi i8* [ %369, %368 ], [ null, %365 ], !dbg !2333
  call void @llvm.dbg.value(metadata %"class.Halide::Runtime::Internal::(anonymous namespace)::Printer.0"* undef, metadata !1520, metadata !DIExpression()) #10, !dbg !2334
  call void @llvm.dbg.value(metadata i8* getelementptr inbounds ([23 x i8], [23 x i8]* @.str.296, i64 0, i64 0), metadata !1523, metadata !DIExpression()) #10, !dbg !2334
  %372 = tail call i8* @halide_string_to_string(i8* %366, i8* %371, i8* nonnull getelementptr inbounds ([23 x i8], [23 x i8]* @.str.296, i64 0, i64 0)) #8, !dbg !2336
  call void @llvm.dbg.value(metadata %"class.Halide::Runtime::Internal::(anonymous namespace)::Printer.0"* undef, metadata !1520, metadata !DIExpression()) #10, !dbg !2337
  call void @llvm.dbg.value(metadata i8* getelementptr inbounds ([19 x i8], [19 x i8]* @.str.28, i64 0, i64 0), metadata !1523, metadata !DIExpression()) #10, !dbg !2337
  %373 = tail call i8* @halide_string_to_string(i8* %372, i8* %371, i8* nonnull getelementptr inbounds ([19 x i8], [19 x i8]* @.str.28, i64 0, i64 0)) #8, !dbg !2339
  call void @llvm.dbg.value(metadata %"class.Halide::Runtime::Internal::(anonymous namespace)::Printer.0"* undef, metadata !1520, metadata !DIExpression()) #10, !dbg !2340
  call void @llvm.dbg.value(metadata i8* getelementptr inbounds ([2 x i8], [2 x i8]* @.str.4, i64 0, i64 0), metadata !1523, metadata !DIExpression()) #10, !dbg !2340
  %374 = tail call i8* @halide_string_to_string(i8* %373, i8* %371, i8* nonnull getelementptr inbounds ([2 x i8], [2 x i8]* @.str.4, i64 0, i64 0)) #8, !dbg !2342
  call void @llvm.dbg.value(metadata %"class.Halide::Runtime::Internal::(anonymous namespace)::Printer.0"* undef, metadata !1535, metadata !DIExpression()) #10, !dbg !2343
  br i1 %367, label %375, label %376, !dbg !2345

375:                                              ; preds = %370
  tail call void @halide_error(i8* %0, i8* getelementptr inbounds ([35 x i8], [35 x i8]* @.str.294, i64 0, i64 0)) #8, !dbg !2346
  br label %382, !dbg !2347

376:                                              ; preds = %370
  call void @llvm.dbg.value(metadata %"class.Halide::Runtime::Internal::(anonymous namespace)::Printer.0"* undef, metadata !1546, metadata !DIExpression()) #10, !dbg !2348
  %377 = ptrtoint i8* %374 to i64, !dbg !2350
  %378 = ptrtoint i8* %366 to i64, !dbg !2350
  %379 = sub i64 1, %378, !dbg !2350
  %380 = add i64 %379, %377, !dbg !2351
  %381 = tail call i32 @halide_msan_annotate_memory_is_initialized(i8* %0, i8* nonnull %366, i64 %380) #8, !dbg !2352
  tail call void @halide_error(i8* %0, i8* nonnull %366) #8, !dbg !2353
  br label %382

382:                                              ; preds = %376, %375
  tail call void @free(i8* %366) #8, !dbg !2354
  br label %383, !dbg !2355

383:                                              ; preds = %362, %382
  call void @llvm.dbg.value(metadata i8* %363, metadata !2278, metadata !DIExpression()) #10, !dbg !2320
  store i8* %363, i8** bitcast (i32 (%struct._cl_mem*)** @_ZN6Halide7Runtime8Internal6OpenCL18clReleaseMemObjectE to i8**), align 8, !dbg !2356, !tbaa !1382
  call void @llvm.dbg.value(metadata i8* %0, metadata !2357, metadata !DIExpression()) #10, !dbg !2367
  call void @llvm.dbg.value(metadata i8* getelementptr inbounds ([27 x i8], [27 x i8]* @.str.29, i64 0, i64 0), metadata !2362, metadata !DIExpression()) #10, !dbg !2367
  call void @llvm.dbg.value(metadata i1 true, metadata !2363, metadata !DIExpression(DW_OP_LLVM_convert, 1, DW_ATE_unsigned, DW_OP_LLVM_convert, 8, DW_ATE_unsigned, DW_OP_stack_value)) #10, !dbg !2367
  %384 = tail call i8* @halide_opencl_get_symbol(i8* %0, i8* getelementptr inbounds ([27 x i8], [27 x i8]* @.str.29, i64 0, i64 0)) #8, !dbg !2369
  call void @llvm.dbg.value(metadata i8* %384, metadata !2364, metadata !DIExpression()) #10, !dbg !2367
  %385 = icmp eq i8* %384, null, !dbg !2370
  br i1 %385, label %386, label %404, !dbg !2372

386:                                              ; preds = %383
  call void @llvm.dbg.value(metadata %"class.Halide::Runtime::Internal::(anonymous namespace)::Printer.0"* undef, metadata !1498, metadata !DIExpression()) #10, !dbg !2373
  call void @llvm.dbg.value(metadata i8* %0, metadata !1501, metadata !DIExpression()) #10, !dbg !2373
  call void @llvm.dbg.value(metadata i8* null, metadata !1502, metadata !DIExpression()) #10, !dbg !2373
  %387 = tail call i8* @malloc(i64 1024) #8, !dbg !2376
  %388 = icmp eq i8* %387, null, !dbg !2377
  br i1 %388, label %391, label %389, !dbg !2378

389:                                              ; preds = %386
  %390 = getelementptr inbounds i8, i8* %387, i64 1023, !dbg !2379
  store i8 0, i8* %390, align 1, !dbg !2380, !tbaa !1132
  br label %391, !dbg !2381

391:                                              ; preds = %389, %386
  %392 = phi i8* [ %390, %389 ], [ null, %386 ], !dbg !2382
  call void @llvm.dbg.value(metadata %"class.Halide::Runtime::Internal::(anonymous namespace)::Printer.0"* undef, metadata !1520, metadata !DIExpression()) #10, !dbg !2383
  call void @llvm.dbg.value(metadata i8* getelementptr inbounds ([23 x i8], [23 x i8]* @.str.296, i64 0, i64 0), metadata !1523, metadata !DIExpression()) #10, !dbg !2383
  %393 = tail call i8* @halide_string_to_string(i8* %387, i8* %392, i8* nonnull getelementptr inbounds ([23 x i8], [23 x i8]* @.str.296, i64 0, i64 0)) #8, !dbg !2385
  call void @llvm.dbg.value(metadata %"class.Halide::Runtime::Internal::(anonymous namespace)::Printer.0"* undef, metadata !1520, metadata !DIExpression()) #10, !dbg !2386
  call void @llvm.dbg.value(metadata i8* getelementptr inbounds ([27 x i8], [27 x i8]* @.str.29, i64 0, i64 0), metadata !1523, metadata !DIExpression()) #10, !dbg !2386
  %394 = tail call i8* @halide_string_to_string(i8* %393, i8* %392, i8* nonnull getelementptr inbounds ([27 x i8], [27 x i8]* @.str.29, i64 0, i64 0)) #8, !dbg !2388
  call void @llvm.dbg.value(metadata %"class.Halide::Runtime::Internal::(anonymous namespace)::Printer.0"* undef, metadata !1520, metadata !DIExpression()) #10, !dbg !2389
  call void @llvm.dbg.value(metadata i8* getelementptr inbounds ([2 x i8], [2 x i8]* @.str.4, i64 0, i64 0), metadata !1523, metadata !DIExpression()) #10, !dbg !2389
  %395 = tail call i8* @halide_string_to_string(i8* %394, i8* %392, i8* nonnull getelementptr inbounds ([2 x i8], [2 x i8]* @.str.4, i64 0, i64 0)) #8, !dbg !2391
  call void @llvm.dbg.value(metadata %"class.Halide::Runtime::Internal::(anonymous namespace)::Printer.0"* undef, metadata !1535, metadata !DIExpression()) #10, !dbg !2392
  br i1 %388, label %396, label %397, !dbg !2394

396:                                              ; preds = %391
  tail call void @halide_error(i8* %0, i8* getelementptr inbounds ([35 x i8], [35 x i8]* @.str.294, i64 0, i64 0)) #8, !dbg !2395
  br label %403, !dbg !2396

397:                                              ; preds = %391
  call void @llvm.dbg.value(metadata %"class.Halide::Runtime::Internal::(anonymous namespace)::Printer.0"* undef, metadata !1546, metadata !DIExpression()) #10, !dbg !2397
  %398 = ptrtoint i8* %395 to i64, !dbg !2399
  %399 = ptrtoint i8* %387 to i64, !dbg !2399
  %400 = sub i64 1, %399, !dbg !2399
  %401 = add i64 %400, %398, !dbg !2400
  %402 = tail call i32 @halide_msan_annotate_memory_is_initialized(i8* %0, i8* nonnull %387, i64 %401) #8, !dbg !2401
  tail call void @halide_error(i8* %0, i8* nonnull %387) #8, !dbg !2402
  br label %403

403:                                              ; preds = %397, %396
  tail call void @free(i8* %387) #8, !dbg !2403
  br label %404, !dbg !2404

404:                                              ; preds = %383, %403
  call void @llvm.dbg.value(metadata i8* %384, metadata !2364, metadata !DIExpression()) #10, !dbg !2367
  store i8* %384, i8** bitcast (i32 (%struct._cl_context*, i64, i32, i32, %struct._cl_image_format*, i32*)** @_ZN6Halide7Runtime8Internal6OpenCL26clGetSupportedImageFormatsE to i8**), align 8, !dbg !2405, !tbaa !1382
  call void @llvm.dbg.value(metadata i8* %0, metadata !2406, metadata !DIExpression()) #10, !dbg !2416
  call void @llvm.dbg.value(metadata i8* getelementptr inbounds ([19 x i8], [19 x i8]* @.str.30, i64 0, i64 0), metadata !2411, metadata !DIExpression()) #10, !dbg !2416
  call void @llvm.dbg.value(metadata i1 true, metadata !2412, metadata !DIExpression(DW_OP_LLVM_convert, 1, DW_ATE_unsigned, DW_OP_LLVM_convert, 8, DW_ATE_unsigned, DW_OP_stack_value)) #10, !dbg !2416
  %405 = tail call i8* @halide_opencl_get_symbol(i8* %0, i8* getelementptr inbounds ([19 x i8], [19 x i8]* @.str.30, i64 0, i64 0)) #8, !dbg !2418
  call void @llvm.dbg.value(metadata i8* %405, metadata !2413, metadata !DIExpression()) #10, !dbg !2416
  %406 = icmp eq i8* %405, null, !dbg !2419
  br i1 %406, label %407, label %425, !dbg !2421

407:                                              ; preds = %404
  call void @llvm.dbg.value(metadata %"class.Halide::Runtime::Internal::(anonymous namespace)::Printer.0"* undef, metadata !1498, metadata !DIExpression()) #10, !dbg !2422
  call void @llvm.dbg.value(metadata i8* %0, metadata !1501, metadata !DIExpression()) #10, !dbg !2422
  call void @llvm.dbg.value(metadata i8* null, metadata !1502, metadata !DIExpression()) #10, !dbg !2422
  %408 = tail call i8* @malloc(i64 1024) #8, !dbg !2425
  %409 = icmp eq i8* %408, null, !dbg !2426
  br i1 %409, label %412, label %410, !dbg !2427

410:                                              ; preds = %407
  %411 = getelementptr inbounds i8, i8* %408, i64 1023, !dbg !2428
  store i8 0, i8* %411, align 1, !dbg !2429, !tbaa !1132
  br label %412, !dbg !2430

412:                                              ; preds = %410, %407
  %413 = phi i8* [ %411, %410 ], [ null, %407 ], !dbg !2431
  call void @llvm.dbg.value(metadata %"class.Halide::Runtime::Internal::(anonymous namespace)::Printer.0"* undef, metadata !1520, metadata !DIExpression()) #10, !dbg !2432
  call void @llvm.dbg.value(metadata i8* getelementptr inbounds ([23 x i8], [23 x i8]* @.str.296, i64 0, i64 0), metadata !1523, metadata !DIExpression()) #10, !dbg !2432
  %414 = tail call i8* @halide_string_to_string(i8* %408, i8* %413, i8* nonnull getelementptr inbounds ([23 x i8], [23 x i8]* @.str.296, i64 0, i64 0)) #8, !dbg !2434
  call void @llvm.dbg.value(metadata %"class.Halide::Runtime::Internal::(anonymous namespace)::Printer.0"* undef, metadata !1520, metadata !DIExpression()) #10, !dbg !2435
  call void @llvm.dbg.value(metadata i8* getelementptr inbounds ([19 x i8], [19 x i8]* @.str.30, i64 0, i64 0), metadata !1523, metadata !DIExpression()) #10, !dbg !2435
  %415 = tail call i8* @halide_string_to_string(i8* %414, i8* %413, i8* nonnull getelementptr inbounds ([19 x i8], [19 x i8]* @.str.30, i64 0, i64 0)) #8, !dbg !2437
  call void @llvm.dbg.value(metadata %"class.Halide::Runtime::Internal::(anonymous namespace)::Printer.0"* undef, metadata !1520, metadata !DIExpression()) #10, !dbg !2438
  call void @llvm.dbg.value(metadata i8* getelementptr inbounds ([2 x i8], [2 x i8]* @.str.4, i64 0, i64 0), metadata !1523, metadata !DIExpression()) #10, !dbg !2438
  %416 = tail call i8* @halide_string_to_string(i8* %415, i8* %413, i8* nonnull getelementptr inbounds ([2 x i8], [2 x i8]* @.str.4, i64 0, i64 0)) #8, !dbg !2440
  call void @llvm.dbg.value(metadata %"class.Halide::Runtime::Internal::(anonymous namespace)::Printer.0"* undef, metadata !1535, metadata !DIExpression()) #10, !dbg !2441
  br i1 %409, label %417, label %418, !dbg !2443

417:                                              ; preds = %412
  tail call void @halide_error(i8* %0, i8* getelementptr inbounds ([35 x i8], [35 x i8]* @.str.294, i64 0, i64 0)) #8, !dbg !2444
  br label %424, !dbg !2445

418:                                              ; preds = %412
  call void @llvm.dbg.value(metadata %"class.Halide::Runtime::Internal::(anonymous namespace)::Printer.0"* undef, metadata !1546, metadata !DIExpression()) #10, !dbg !2446
  %419 = ptrtoint i8* %416 to i64, !dbg !2448
  %420 = ptrtoint i8* %408 to i64, !dbg !2448
  %421 = sub i64 1, %420, !dbg !2448
  %422 = add i64 %421, %419, !dbg !2449
  %423 = tail call i32 @halide_msan_annotate_memory_is_initialized(i8* %0, i8* nonnull %408, i64 %422) #8, !dbg !2450
  tail call void @halide_error(i8* %0, i8* nonnull %408) #8, !dbg !2451
  br label %424

424:                                              ; preds = %418, %417
  tail call void @free(i8* %408) #8, !dbg !2452
  br label %425, !dbg !2453

425:                                              ; preds = %404, %424
  call void @llvm.dbg.value(metadata i8* %405, metadata !2413, metadata !DIExpression()) #10, !dbg !2416
  store i8* %405, i8** bitcast (i32 (%struct._cl_mem*, i32, i64, i8*, i64*)** @_ZN6Halide7Runtime8Internal6OpenCL18clGetMemObjectInfoE to i8**), align 8, !dbg !2454, !tbaa !1382
  call void @llvm.dbg.value(metadata i8* %0, metadata !2406, metadata !DIExpression()) #10, !dbg !2455
  call void @llvm.dbg.value(metadata i8* getelementptr inbounds ([15 x i8], [15 x i8]* @.str.31, i64 0, i64 0), metadata !2411, metadata !DIExpression()) #10, !dbg !2455
  call void @llvm.dbg.value(metadata i1 true, metadata !2412, metadata !DIExpression(DW_OP_LLVM_convert, 1, DW_ATE_unsigned, DW_OP_LLVM_convert, 8, DW_ATE_unsigned, DW_OP_stack_value)) #10, !dbg !2455
  %426 = tail call i8* @halide_opencl_get_symbol(i8* %0, i8* getelementptr inbounds ([15 x i8], [15 x i8]* @.str.31, i64 0, i64 0)) #8, !dbg !2457
  call void @llvm.dbg.value(metadata i8* %426, metadata !2413, metadata !DIExpression()) #10, !dbg !2455
  %427 = icmp eq i8* %426, null, !dbg !2458
  br i1 %427, label %428, label %446, !dbg !2459

428:                                              ; preds = %425
  call void @llvm.dbg.value(metadata %"class.Halide::Runtime::Internal::(anonymous namespace)::Printer.0"* undef, metadata !1498, metadata !DIExpression()) #10, !dbg !2460
  call void @llvm.dbg.value(metadata i8* %0, metadata !1501, metadata !DIExpression()) #10, !dbg !2460
  call void @llvm.dbg.value(metadata i8* null, metadata !1502, metadata !DIExpression()) #10, !dbg !2460
  %429 = tail call i8* @malloc(i64 1024) #8, !dbg !2462
  %430 = icmp eq i8* %429, null, !dbg !2463
  br i1 %430, label %433, label %431, !dbg !2464

431:                                              ; preds = %428
  %432 = getelementptr inbounds i8, i8* %429, i64 1023, !dbg !2465
  store i8 0, i8* %432, align 1, !dbg !2466, !tbaa !1132
  br label %433, !dbg !2467

433:                                              ; preds = %431, %428
  %434 = phi i8* [ %432, %431 ], [ null, %428 ], !dbg !2468
  call void @llvm.dbg.value(metadata %"class.Halide::Runtime::Internal::(anonymous namespace)::Printer.0"* undef, metadata !1520, metadata !DIExpression()) #10, !dbg !2469
  call void @llvm.dbg.value(metadata i8* getelementptr inbounds ([23 x i8], [23 x i8]* @.str.296, i64 0, i64 0), metadata !1523, metadata !DIExpression()) #10, !dbg !2469
  %435 = tail call i8* @halide_string_to_string(i8* %429, i8* %434, i8* nonnull getelementptr inbounds ([23 x i8], [23 x i8]* @.str.296, i64 0, i64 0)) #8, !dbg !2471
  call void @llvm.dbg.value(metadata %"class.Halide::Runtime::Internal::(anonymous namespace)::Printer.0"* undef, metadata !1520, metadata !DIExpression()) #10, !dbg !2472
  call void @llvm.dbg.value(metadata i8* getelementptr inbounds ([15 x i8], [15 x i8]* @.str.31, i64 0, i64 0), metadata !1523, metadata !DIExpression()) #10, !dbg !2472
  %436 = tail call i8* @halide_string_to_string(i8* %435, i8* %434, i8* nonnull getelementptr inbounds ([15 x i8], [15 x i8]* @.str.31, i64 0, i64 0)) #8, !dbg !2474
  call void @llvm.dbg.value(metadata %"class.Halide::Runtime::Internal::(anonymous namespace)::Printer.0"* undef, metadata !1520, metadata !DIExpression()) #10, !dbg !2475
  call void @llvm.dbg.value(metadata i8* getelementptr inbounds ([2 x i8], [2 x i8]* @.str.4, i64 0, i64 0), metadata !1523, metadata !DIExpression()) #10, !dbg !2475
  %437 = tail call i8* @halide_string_to_string(i8* %436, i8* %434, i8* nonnull getelementptr inbounds ([2 x i8], [2 x i8]* @.str.4, i64 0, i64 0)) #8, !dbg !2477
  call void @llvm.dbg.value(metadata %"class.Halide::Runtime::Internal::(anonymous namespace)::Printer.0"* undef, metadata !1535, metadata !DIExpression()) #10, !dbg !2478
  br i1 %430, label %438, label %439, !dbg !2480

438:                                              ; preds = %433
  tail call void @halide_error(i8* %0, i8* getelementptr inbounds ([35 x i8], [35 x i8]* @.str.294, i64 0, i64 0)) #8, !dbg !2481
  br label %445, !dbg !2482

439:                                              ; preds = %433
  call void @llvm.dbg.value(metadata %"class.Halide::Runtime::Internal::(anonymous namespace)::Printer.0"* undef, metadata !1546, metadata !DIExpression()) #10, !dbg !2483
  %440 = ptrtoint i8* %437 to i64, !dbg !2485
  %441 = ptrtoint i8* %429 to i64, !dbg !2485
  %442 = sub i64 1, %441, !dbg !2485
  %443 = add i64 %442, %440, !dbg !2486
  %444 = tail call i32 @halide_msan_annotate_memory_is_initialized(i8* %0, i8* nonnull %429, i64 %443) #8, !dbg !2487
  tail call void @halide_error(i8* %0, i8* nonnull %429) #8, !dbg !2488
  br label %445

445:                                              ; preds = %439, %438
  tail call void @free(i8* %429) #8, !dbg !2489
  br label %446, !dbg !2490

446:                                              ; preds = %425, %445
  call void @llvm.dbg.value(metadata i8* %426, metadata !2413, metadata !DIExpression()) #10, !dbg !2455
  store i8* %426, i8** bitcast (i32 (%struct._cl_mem*, i32, i64, i8*, i64*)** @_ZN6Halide7Runtime8Internal6OpenCL14clGetImageInfoE to i8**), align 8, !dbg !2491, !tbaa !1382
  call void @llvm.dbg.value(metadata i8* %0, metadata !2492, metadata !DIExpression()) #10, !dbg !2502
  call void @llvm.dbg.value(metadata i8* getelementptr inbounds ([33 x i8], [33 x i8]* @.str.32, i64 0, i64 0), metadata !2497, metadata !DIExpression()) #10, !dbg !2502
  call void @llvm.dbg.value(metadata i1 true, metadata !2498, metadata !DIExpression(DW_OP_LLVM_convert, 1, DW_ATE_unsigned, DW_OP_LLVM_convert, 8, DW_ATE_unsigned, DW_OP_stack_value)) #10, !dbg !2502
  %447 = tail call i8* @halide_opencl_get_symbol(i8* %0, i8* getelementptr inbounds ([33 x i8], [33 x i8]* @.str.32, i64 0, i64 0)) #8, !dbg !2504
  call void @llvm.dbg.value(metadata i8* %447, metadata !2499, metadata !DIExpression()) #10, !dbg !2502
  %448 = icmp eq i8* %447, null, !dbg !2505
  br i1 %448, label %449, label %467, !dbg !2507

449:                                              ; preds = %446
  call void @llvm.dbg.value(metadata %"class.Halide::Runtime::Internal::(anonymous namespace)::Printer.0"* undef, metadata !1498, metadata !DIExpression()) #10, !dbg !2508
  call void @llvm.dbg.value(metadata i8* %0, metadata !1501, metadata !DIExpression()) #10, !dbg !2508
  call void @llvm.dbg.value(metadata i8* null, metadata !1502, metadata !DIExpression()) #10, !dbg !2508
  %450 = tail call i8* @malloc(i64 1024) #8, !dbg !2511
  %451 = icmp eq i8* %450, null, !dbg !2512
  br i1 %451, label %454, label %452, !dbg !2513

452:                                              ; preds = %449
  %453 = getelementptr inbounds i8, i8* %450, i64 1023, !dbg !2514
  store i8 0, i8* %453, align 1, !dbg !2515, !tbaa !1132
  br label %454, !dbg !2516

454:                                              ; preds = %452, %449
  %455 = phi i8* [ %453, %452 ], [ null, %449 ], !dbg !2517
  call void @llvm.dbg.value(metadata %"class.Halide::Runtime::Internal::(anonymous namespace)::Printer.0"* undef, metadata !1520, metadata !DIExpression()) #10, !dbg !2518
  call void @llvm.dbg.value(metadata i8* getelementptr inbounds ([23 x i8], [23 x i8]* @.str.296, i64 0, i64 0), metadata !1523, metadata !DIExpression()) #10, !dbg !2518
  %456 = tail call i8* @halide_string_to_string(i8* %450, i8* %455, i8* nonnull getelementptr inbounds ([23 x i8], [23 x i8]* @.str.296, i64 0, i64 0)) #8, !dbg !2520
  call void @llvm.dbg.value(metadata %"class.Halide::Runtime::Internal::(anonymous namespace)::Printer.0"* undef, metadata !1520, metadata !DIExpression()) #10, !dbg !2521
  call void @llvm.dbg.value(metadata i8* getelementptr inbounds ([33 x i8], [33 x i8]* @.str.32, i64 0, i64 0), metadata !1523, metadata !DIExpression()) #10, !dbg !2521
  %457 = tail call i8* @halide_string_to_string(i8* %456, i8* %455, i8* nonnull getelementptr inbounds ([33 x i8], [33 x i8]* @.str.32, i64 0, i64 0)) #8, !dbg !2523
  call void @llvm.dbg.value(metadata %"class.Halide::Runtime::Internal::(anonymous namespace)::Printer.0"* undef, metadata !1520, metadata !DIExpression()) #10, !dbg !2524
  call void @llvm.dbg.value(metadata i8* getelementptr inbounds ([2 x i8], [2 x i8]* @.str.4, i64 0, i64 0), metadata !1523, metadata !DIExpression()) #10, !dbg !2524
  %458 = tail call i8* @halide_string_to_string(i8* %457, i8* %455, i8* nonnull getelementptr inbounds ([2 x i8], [2 x i8]* @.str.4, i64 0, i64 0)) #8, !dbg !2526
  call void @llvm.dbg.value(metadata %"class.Halide::Runtime::Internal::(anonymous namespace)::Printer.0"* undef, metadata !1535, metadata !DIExpression()) #10, !dbg !2527
  br i1 %451, label %459, label %460, !dbg !2529

459:                                              ; preds = %454
  tail call void @halide_error(i8* %0, i8* getelementptr inbounds ([35 x i8], [35 x i8]* @.str.294, i64 0, i64 0)) #8, !dbg !2530
  br label %466, !dbg !2531

460:                                              ; preds = %454
  call void @llvm.dbg.value(metadata %"class.Halide::Runtime::Internal::(anonymous namespace)::Printer.0"* undef, metadata !1546, metadata !DIExpression()) #10, !dbg !2532
  %461 = ptrtoint i8* %458 to i64, !dbg !2534
  %462 = ptrtoint i8* %450 to i64, !dbg !2534
  %463 = sub i64 1, %462, !dbg !2534
  %464 = add i64 %463, %461, !dbg !2535
  %465 = tail call i32 @halide_msan_annotate_memory_is_initialized(i8* %0, i8* nonnull %450, i64 %464) #8, !dbg !2536
  tail call void @halide_error(i8* %0, i8* nonnull %450) #8, !dbg !2537
  br label %466

466:                                              ; preds = %460, %459
  tail call void @free(i8* %450) #8, !dbg !2538
  br label %467, !dbg !2539

467:                                              ; preds = %446, %466
  call void @llvm.dbg.value(metadata i8* %447, metadata !2499, metadata !DIExpression()) #10, !dbg !2502
  store i8* %447, i8** bitcast (i32 (%struct._cl_mem*, void (%struct._cl_mem*, i8*)*, i8*)** @_ZN6Halide7Runtime8Internal6OpenCL32clSetMemObjectDestructorCallbackE to i8**), align 8, !dbg !2540, !tbaa !1382
  call void @llvm.dbg.value(metadata i8* %0, metadata !2541, metadata !DIExpression()) #10, !dbg !2551
  call void @llvm.dbg.value(metadata i8* getelementptr inbounds ([26 x i8], [26 x i8]* @.str.33, i64 0, i64 0), metadata !2546, metadata !DIExpression()) #10, !dbg !2551
  call void @llvm.dbg.value(metadata i1 true, metadata !2547, metadata !DIExpression(DW_OP_LLVM_convert, 1, DW_ATE_unsigned, DW_OP_LLVM_convert, 8, DW_ATE_unsigned, DW_OP_stack_value)) #10, !dbg !2551
  %468 = tail call i8* @halide_opencl_get_symbol(i8* %0, i8* getelementptr inbounds ([26 x i8], [26 x i8]* @.str.33, i64 0, i64 0)) #8, !dbg !2553
  call void @llvm.dbg.value(metadata i8* %468, metadata !2548, metadata !DIExpression()) #10, !dbg !2551
  %469 = icmp eq i8* %468, null, !dbg !2554
  br i1 %469, label %470, label %488, !dbg !2556

470:                                              ; preds = %467
  call void @llvm.dbg.value(metadata %"class.Halide::Runtime::Internal::(anonymous namespace)::Printer.0"* undef, metadata !1498, metadata !DIExpression()) #10, !dbg !2557
  call void @llvm.dbg.value(metadata i8* %0, metadata !1501, metadata !DIExpression()) #10, !dbg !2557
  call void @llvm.dbg.value(metadata i8* null, metadata !1502, metadata !DIExpression()) #10, !dbg !2557
  %471 = tail call i8* @malloc(i64 1024) #8, !dbg !2560
  %472 = icmp eq i8* %471, null, !dbg !2561
  br i1 %472, label %475, label %473, !dbg !2562

473:                                              ; preds = %470
  %474 = getelementptr inbounds i8, i8* %471, i64 1023, !dbg !2563
  store i8 0, i8* %474, align 1, !dbg !2564, !tbaa !1132
  br label %475, !dbg !2565

475:                                              ; preds = %473, %470
  %476 = phi i8* [ %474, %473 ], [ null, %470 ], !dbg !2566
  call void @llvm.dbg.value(metadata %"class.Halide::Runtime::Internal::(anonymous namespace)::Printer.0"* undef, metadata !1520, metadata !DIExpression()) #10, !dbg !2567
  call void @llvm.dbg.value(metadata i8* getelementptr inbounds ([23 x i8], [23 x i8]* @.str.296, i64 0, i64 0), metadata !1523, metadata !DIExpression()) #10, !dbg !2567
  %477 = tail call i8* @halide_string_to_string(i8* %471, i8* %476, i8* nonnull getelementptr inbounds ([23 x i8], [23 x i8]* @.str.296, i64 0, i64 0)) #8, !dbg !2569
  call void @llvm.dbg.value(metadata %"class.Halide::Runtime::Internal::(anonymous namespace)::Printer.0"* undef, metadata !1520, metadata !DIExpression()) #10, !dbg !2570
  call void @llvm.dbg.value(metadata i8* getelementptr inbounds ([26 x i8], [26 x i8]* @.str.33, i64 0, i64 0), metadata !1523, metadata !DIExpression()) #10, !dbg !2570
  %478 = tail call i8* @halide_string_to_string(i8* %477, i8* %476, i8* nonnull getelementptr inbounds ([26 x i8], [26 x i8]* @.str.33, i64 0, i64 0)) #8, !dbg !2572
  call void @llvm.dbg.value(metadata %"class.Halide::Runtime::Internal::(anonymous namespace)::Printer.0"* undef, metadata !1520, metadata !DIExpression()) #10, !dbg !2573
  call void @llvm.dbg.value(metadata i8* getelementptr inbounds ([2 x i8], [2 x i8]* @.str.4, i64 0, i64 0), metadata !1523, metadata !DIExpression()) #10, !dbg !2573
  %479 = tail call i8* @halide_string_to_string(i8* %478, i8* %476, i8* nonnull getelementptr inbounds ([2 x i8], [2 x i8]* @.str.4, i64 0, i64 0)) #8, !dbg !2575
  call void @llvm.dbg.value(metadata %"class.Halide::Runtime::Internal::(anonymous namespace)::Printer.0"* undef, metadata !1535, metadata !DIExpression()) #10, !dbg !2576
  br i1 %472, label %480, label %481, !dbg !2578

480:                                              ; preds = %475
  tail call void @halide_error(i8* %0, i8* getelementptr inbounds ([35 x i8], [35 x i8]* @.str.294, i64 0, i64 0)) #8, !dbg !2579
  br label %487, !dbg !2580

481:                                              ; preds = %475
  call void @llvm.dbg.value(metadata %"class.Halide::Runtime::Internal::(anonymous namespace)::Printer.0"* undef, metadata !1546, metadata !DIExpression()) #10, !dbg !2581
  %482 = ptrtoint i8* %479 to i64, !dbg !2583
  %483 = ptrtoint i8* %471 to i64, !dbg !2583
  %484 = sub i64 1, %483, !dbg !2583
  %485 = add i64 %484, %482, !dbg !2584
  %486 = tail call i32 @halide_msan_annotate_memory_is_initialized(i8* %0, i8* nonnull %471, i64 %485) #8, !dbg !2585
  tail call void @halide_error(i8* %0, i8* nonnull %471) #8, !dbg !2586
  br label %487

487:                                              ; preds = %481, %480
  tail call void @free(i8* %471) #8, !dbg !2587
  br label %488, !dbg !2588

488:                                              ; preds = %467, %487
  call void @llvm.dbg.value(metadata i8* %468, metadata !2548, metadata !DIExpression()) #10, !dbg !2551
  store i8* %468, i8** bitcast (%struct._cl_program* (%struct._cl_context*, i32, i8**, i64*, i32*)** @_ZN6Halide7Runtime8Internal6OpenCL25clCreateProgramWithSourceE to i8**), align 8, !dbg !2589, !tbaa !1382
  call void @llvm.dbg.value(metadata i8* %0, metadata !2590, metadata !DIExpression()) #10, !dbg !2600
  call void @llvm.dbg.value(metadata i8* getelementptr inbounds ([16 x i8], [16 x i8]* @.str.34, i64 0, i64 0), metadata !2595, metadata !DIExpression()) #10, !dbg !2600
  call void @llvm.dbg.value(metadata i1 true, metadata !2596, metadata !DIExpression(DW_OP_LLVM_convert, 1, DW_ATE_unsigned, DW_OP_LLVM_convert, 8, DW_ATE_unsigned, DW_OP_stack_value)) #10, !dbg !2600
  %489 = tail call i8* @halide_opencl_get_symbol(i8* %0, i8* getelementptr inbounds ([16 x i8], [16 x i8]* @.str.34, i64 0, i64 0)) #8, !dbg !2602
  call void @llvm.dbg.value(metadata i8* %489, metadata !2597, metadata !DIExpression()) #10, !dbg !2600
  %490 = icmp eq i8* %489, null, !dbg !2603
  br i1 %490, label %491, label %509, !dbg !2605

491:                                              ; preds = %488
  call void @llvm.dbg.value(metadata %"class.Halide::Runtime::Internal::(anonymous namespace)::Printer.0"* undef, metadata !1498, metadata !DIExpression()) #10, !dbg !2606
  call void @llvm.dbg.value(metadata i8* %0, metadata !1501, metadata !DIExpression()) #10, !dbg !2606
  call void @llvm.dbg.value(metadata i8* null, metadata !1502, metadata !DIExpression()) #10, !dbg !2606
  %492 = tail call i8* @malloc(i64 1024) #8, !dbg !2609
  %493 = icmp eq i8* %492, null, !dbg !2610
  br i1 %493, label %496, label %494, !dbg !2611

494:                                              ; preds = %491
  %495 = getelementptr inbounds i8, i8* %492, i64 1023, !dbg !2612
  store i8 0, i8* %495, align 1, !dbg !2613, !tbaa !1132
  br label %496, !dbg !2614

496:                                              ; preds = %494, %491
  %497 = phi i8* [ %495, %494 ], [ null, %491 ], !dbg !2615
  call void @llvm.dbg.value(metadata %"class.Halide::Runtime::Internal::(anonymous namespace)::Printer.0"* undef, metadata !1520, metadata !DIExpression()) #10, !dbg !2616
  call void @llvm.dbg.value(metadata i8* getelementptr inbounds ([23 x i8], [23 x i8]* @.str.296, i64 0, i64 0), metadata !1523, metadata !DIExpression()) #10, !dbg !2616
  %498 = tail call i8* @halide_string_to_string(i8* %492, i8* %497, i8* nonnull getelementptr inbounds ([23 x i8], [23 x i8]* @.str.296, i64 0, i64 0)) #8, !dbg !2618
  call void @llvm.dbg.value(metadata %"class.Halide::Runtime::Internal::(anonymous namespace)::Printer.0"* undef, metadata !1520, metadata !DIExpression()) #10, !dbg !2619
  call void @llvm.dbg.value(metadata i8* getelementptr inbounds ([16 x i8], [16 x i8]* @.str.34, i64 0, i64 0), metadata !1523, metadata !DIExpression()) #10, !dbg !2619
  %499 = tail call i8* @halide_string_to_string(i8* %498, i8* %497, i8* nonnull getelementptr inbounds ([16 x i8], [16 x i8]* @.str.34, i64 0, i64 0)) #8, !dbg !2621
  call void @llvm.dbg.value(metadata %"class.Halide::Runtime::Internal::(anonymous namespace)::Printer.0"* undef, metadata !1520, metadata !DIExpression()) #10, !dbg !2622
  call void @llvm.dbg.value(metadata i8* getelementptr inbounds ([2 x i8], [2 x i8]* @.str.4, i64 0, i64 0), metadata !1523, metadata !DIExpression()) #10, !dbg !2622
  %500 = tail call i8* @halide_string_to_string(i8* %499, i8* %497, i8* nonnull getelementptr inbounds ([2 x i8], [2 x i8]* @.str.4, i64 0, i64 0)) #8, !dbg !2624
  call void @llvm.dbg.value(metadata %"class.Halide::Runtime::Internal::(anonymous namespace)::Printer.0"* undef, metadata !1535, metadata !DIExpression()) #10, !dbg !2625
  br i1 %493, label %501, label %502, !dbg !2627

501:                                              ; preds = %496
  tail call void @halide_error(i8* %0, i8* getelementptr inbounds ([35 x i8], [35 x i8]* @.str.294, i64 0, i64 0)) #8, !dbg !2628
  br label %508, !dbg !2629

502:                                              ; preds = %496
  call void @llvm.dbg.value(metadata %"class.Halide::Runtime::Internal::(anonymous namespace)::Printer.0"* undef, metadata !1546, metadata !DIExpression()) #10, !dbg !2630
  %503 = ptrtoint i8* %500 to i64, !dbg !2632
  %504 = ptrtoint i8* %492 to i64, !dbg !2632
  %505 = sub i64 1, %504, !dbg !2632
  %506 = add i64 %505, %503, !dbg !2633
  %507 = tail call i32 @halide_msan_annotate_memory_is_initialized(i8* %0, i8* nonnull %492, i64 %506) #8, !dbg !2634
  tail call void @halide_error(i8* %0, i8* nonnull %492) #8, !dbg !2635
  br label %508

508:                                              ; preds = %502, %501
  tail call void @free(i8* %492) #8, !dbg !2636
  br label %509, !dbg !2637

509:                                              ; preds = %488, %508
  call void @llvm.dbg.value(metadata i8* %489, metadata !2597, metadata !DIExpression()) #10, !dbg !2600
  store i8* %489, i8** bitcast (i32 (%struct._cl_program*)** @_ZN6Halide7Runtime8Internal6OpenCL15clRetainProgramE to i8**), align 8, !dbg !2638, !tbaa !1382
  call void @llvm.dbg.value(metadata i8* %0, metadata !2590, metadata !DIExpression()) #10, !dbg !2639
  call void @llvm.dbg.value(metadata i8* getelementptr inbounds ([17 x i8], [17 x i8]* @.str.35, i64 0, i64 0), metadata !2595, metadata !DIExpression()) #10, !dbg !2639
  call void @llvm.dbg.value(metadata i1 true, metadata !2596, metadata !DIExpression(DW_OP_LLVM_convert, 1, DW_ATE_unsigned, DW_OP_LLVM_convert, 8, DW_ATE_unsigned, DW_OP_stack_value)) #10, !dbg !2639
  %510 = tail call i8* @halide_opencl_get_symbol(i8* %0, i8* getelementptr inbounds ([17 x i8], [17 x i8]* @.str.35, i64 0, i64 0)) #8, !dbg !2641
  call void @llvm.dbg.value(metadata i8* %510, metadata !2597, metadata !DIExpression()) #10, !dbg !2639
  %511 = icmp eq i8* %510, null, !dbg !2642
  br i1 %511, label %512, label %530, !dbg !2643

512:                                              ; preds = %509
  call void @llvm.dbg.value(metadata %"class.Halide::Runtime::Internal::(anonymous namespace)::Printer.0"* undef, metadata !1498, metadata !DIExpression()) #10, !dbg !2644
  call void @llvm.dbg.value(metadata i8* %0, metadata !1501, metadata !DIExpression()) #10, !dbg !2644
  call void @llvm.dbg.value(metadata i8* null, metadata !1502, metadata !DIExpression()) #10, !dbg !2644
  %513 = tail call i8* @malloc(i64 1024) #8, !dbg !2646
  %514 = icmp eq i8* %513, null, !dbg !2647
  br i1 %514, label %517, label %515, !dbg !2648

515:                                              ; preds = %512
  %516 = getelementptr inbounds i8, i8* %513, i64 1023, !dbg !2649
  store i8 0, i8* %516, align 1, !dbg !2650, !tbaa !1132
  br label %517, !dbg !2651

517:                                              ; preds = %515, %512
  %518 = phi i8* [ %516, %515 ], [ null, %512 ], !dbg !2652
  call void @llvm.dbg.value(metadata %"class.Halide::Runtime::Internal::(anonymous namespace)::Printer.0"* undef, metadata !1520, metadata !DIExpression()) #10, !dbg !2653
  call void @llvm.dbg.value(metadata i8* getelementptr inbounds ([23 x i8], [23 x i8]* @.str.296, i64 0, i64 0), metadata !1523, metadata !DIExpression()) #10, !dbg !2653
  %519 = tail call i8* @halide_string_to_string(i8* %513, i8* %518, i8* nonnull getelementptr inbounds ([23 x i8], [23 x i8]* @.str.296, i64 0, i64 0)) #8, !dbg !2655
  call void @llvm.dbg.value(metadata %"class.Halide::Runtime::Internal::(anonymous namespace)::Printer.0"* undef, metadata !1520, metadata !DIExpression()) #10, !dbg !2656
  call void @llvm.dbg.value(metadata i8* getelementptr inbounds ([17 x i8], [17 x i8]* @.str.35, i64 0, i64 0), metadata !1523, metadata !DIExpression()) #10, !dbg !2656
  %520 = tail call i8* @halide_string_to_string(i8* %519, i8* %518, i8* nonnull getelementptr inbounds ([17 x i8], [17 x i8]* @.str.35, i64 0, i64 0)) #8, !dbg !2658
  call void @llvm.dbg.value(metadata %"class.Halide::Runtime::Internal::(anonymous namespace)::Printer.0"* undef, metadata !1520, metadata !DIExpression()) #10, !dbg !2659
  call void @llvm.dbg.value(metadata i8* getelementptr inbounds ([2 x i8], [2 x i8]* @.str.4, i64 0, i64 0), metadata !1523, metadata !DIExpression()) #10, !dbg !2659
  %521 = tail call i8* @halide_string_to_string(i8* %520, i8* %518, i8* nonnull getelementptr inbounds ([2 x i8], [2 x i8]* @.str.4, i64 0, i64 0)) #8, !dbg !2661
  call void @llvm.dbg.value(metadata %"class.Halide::Runtime::Internal::(anonymous namespace)::Printer.0"* undef, metadata !1535, metadata !DIExpression()) #10, !dbg !2662
  br i1 %514, label %522, label %523, !dbg !2664

522:                                              ; preds = %517
  tail call void @halide_error(i8* %0, i8* getelementptr inbounds ([35 x i8], [35 x i8]* @.str.294, i64 0, i64 0)) #8, !dbg !2665
  br label %529, !dbg !2666

523:                                              ; preds = %517
  call void @llvm.dbg.value(metadata %"class.Halide::Runtime::Internal::(anonymous namespace)::Printer.0"* undef, metadata !1546, metadata !DIExpression()) #10, !dbg !2667
  %524 = ptrtoint i8* %521 to i64, !dbg !2669
  %525 = ptrtoint i8* %513 to i64, !dbg !2669
  %526 = sub i64 1, %525, !dbg !2669
  %527 = add i64 %526, %524, !dbg !2670
  %528 = tail call i32 @halide_msan_annotate_memory_is_initialized(i8* %0, i8* nonnull %513, i64 %527) #8, !dbg !2671
  tail call void @halide_error(i8* %0, i8* nonnull %513) #8, !dbg !2672
  br label %529

529:                                              ; preds = %523, %522
  tail call void @free(i8* %513) #8, !dbg !2673
  br label %530, !dbg !2674

530:                                              ; preds = %509, %529
  call void @llvm.dbg.value(metadata i8* %510, metadata !2597, metadata !DIExpression()) #10, !dbg !2639
  store i8* %510, i8** bitcast (i32 (%struct._cl_program*)** @_ZN6Halide7Runtime8Internal6OpenCL16clReleaseProgramE to i8**), align 8, !dbg !2675, !tbaa !1382
  call void @llvm.dbg.value(metadata i8* %0, metadata !2676, metadata !DIExpression()) #10, !dbg !2686
  call void @llvm.dbg.value(metadata i8* getelementptr inbounds ([15 x i8], [15 x i8]* @.str.36, i64 0, i64 0), metadata !2681, metadata !DIExpression()) #10, !dbg !2686
  call void @llvm.dbg.value(metadata i1 true, metadata !2682, metadata !DIExpression(DW_OP_LLVM_convert, 1, DW_ATE_unsigned, DW_OP_LLVM_convert, 8, DW_ATE_unsigned, DW_OP_stack_value)) #10, !dbg !2686
  %531 = tail call i8* @halide_opencl_get_symbol(i8* %0, i8* getelementptr inbounds ([15 x i8], [15 x i8]* @.str.36, i64 0, i64 0)) #8, !dbg !2688
  call void @llvm.dbg.value(metadata i8* %531, metadata !2683, metadata !DIExpression()) #10, !dbg !2686
  %532 = icmp eq i8* %531, null, !dbg !2689
  br i1 %532, label %533, label %551, !dbg !2691

533:                                              ; preds = %530
  call void @llvm.dbg.value(metadata %"class.Halide::Runtime::Internal::(anonymous namespace)::Printer.0"* undef, metadata !1498, metadata !DIExpression()) #10, !dbg !2692
  call void @llvm.dbg.value(metadata i8* %0, metadata !1501, metadata !DIExpression()) #10, !dbg !2692
  call void @llvm.dbg.value(metadata i8* null, metadata !1502, metadata !DIExpression()) #10, !dbg !2692
  %534 = tail call i8* @malloc(i64 1024) #8, !dbg !2695
  %535 = icmp eq i8* %534, null, !dbg !2696
  br i1 %535, label %538, label %536, !dbg !2697

536:                                              ; preds = %533
  %537 = getelementptr inbounds i8, i8* %534, i64 1023, !dbg !2698
  store i8 0, i8* %537, align 1, !dbg !2699, !tbaa !1132
  br label %538, !dbg !2700

538:                                              ; preds = %536, %533
  %539 = phi i8* [ %537, %536 ], [ null, %533 ], !dbg !2701
  call void @llvm.dbg.value(metadata %"class.Halide::Runtime::Internal::(anonymous namespace)::Printer.0"* undef, metadata !1520, metadata !DIExpression()) #10, !dbg !2702
  call void @llvm.dbg.value(metadata i8* getelementptr inbounds ([23 x i8], [23 x i8]* @.str.296, i64 0, i64 0), metadata !1523, metadata !DIExpression()) #10, !dbg !2702
  %540 = tail call i8* @halide_string_to_string(i8* %534, i8* %539, i8* nonnull getelementptr inbounds ([23 x i8], [23 x i8]* @.str.296, i64 0, i64 0)) #8, !dbg !2704
  call void @llvm.dbg.value(metadata %"class.Halide::Runtime::Internal::(anonymous namespace)::Printer.0"* undef, metadata !1520, metadata !DIExpression()) #10, !dbg !2705
  call void @llvm.dbg.value(metadata i8* getelementptr inbounds ([15 x i8], [15 x i8]* @.str.36, i64 0, i64 0), metadata !1523, metadata !DIExpression()) #10, !dbg !2705
  %541 = tail call i8* @halide_string_to_string(i8* %540, i8* %539, i8* nonnull getelementptr inbounds ([15 x i8], [15 x i8]* @.str.36, i64 0, i64 0)) #8, !dbg !2707
  call void @llvm.dbg.value(metadata %"class.Halide::Runtime::Internal::(anonymous namespace)::Printer.0"* undef, metadata !1520, metadata !DIExpression()) #10, !dbg !2708
  call void @llvm.dbg.value(metadata i8* getelementptr inbounds ([2 x i8], [2 x i8]* @.str.4, i64 0, i64 0), metadata !1523, metadata !DIExpression()) #10, !dbg !2708
  %542 = tail call i8* @halide_string_to_string(i8* %541, i8* %539, i8* nonnull getelementptr inbounds ([2 x i8], [2 x i8]* @.str.4, i64 0, i64 0)) #8, !dbg !2710
  call void @llvm.dbg.value(metadata %"class.Halide::Runtime::Internal::(anonymous namespace)::Printer.0"* undef, metadata !1535, metadata !DIExpression()) #10, !dbg !2711
  br i1 %535, label %543, label %544, !dbg !2713

543:                                              ; preds = %538
  tail call void @halide_error(i8* %0, i8* getelementptr inbounds ([35 x i8], [35 x i8]* @.str.294, i64 0, i64 0)) #8, !dbg !2714
  br label %550, !dbg !2715

544:                                              ; preds = %538
  call void @llvm.dbg.value(metadata %"class.Halide::Runtime::Internal::(anonymous namespace)::Printer.0"* undef, metadata !1546, metadata !DIExpression()) #10, !dbg !2716
  %545 = ptrtoint i8* %542 to i64, !dbg !2718
  %546 = ptrtoint i8* %534 to i64, !dbg !2718
  %547 = sub i64 1, %546, !dbg !2718
  %548 = add i64 %547, %545, !dbg !2719
  %549 = tail call i32 @halide_msan_annotate_memory_is_initialized(i8* %0, i8* nonnull %534, i64 %548) #8, !dbg !2720
  tail call void @halide_error(i8* %0, i8* nonnull %534) #8, !dbg !2721
  br label %550

550:                                              ; preds = %544, %543
  tail call void @free(i8* %534) #8, !dbg !2722
  br label %551, !dbg !2723

551:                                              ; preds = %530, %550
  call void @llvm.dbg.value(metadata i8* %531, metadata !2683, metadata !DIExpression()) #10, !dbg !2686
  store i8* %531, i8** bitcast (i32 (%struct._cl_program*, i32, %struct._cl_device_id**, i8*, void (%struct._cl_program*, i8*)*, i8*)** @_ZN6Halide7Runtime8Internal6OpenCL14clBuildProgramE to i8**), align 8, !dbg !2724, !tbaa !1382
  call void @llvm.dbg.value(metadata i8* %0, metadata !2725, metadata !DIExpression()) #10, !dbg !2735
  call void @llvm.dbg.value(metadata i8* getelementptr inbounds ([22 x i8], [22 x i8]* @.str.37, i64 0, i64 0), metadata !2730, metadata !DIExpression()) #10, !dbg !2735
  call void @llvm.dbg.value(metadata i1 true, metadata !2731, metadata !DIExpression(DW_OP_LLVM_convert, 1, DW_ATE_unsigned, DW_OP_LLVM_convert, 8, DW_ATE_unsigned, DW_OP_stack_value)) #10, !dbg !2735
  %552 = tail call i8* @halide_opencl_get_symbol(i8* %0, i8* getelementptr inbounds ([22 x i8], [22 x i8]* @.str.37, i64 0, i64 0)) #8, !dbg !2737
  call void @llvm.dbg.value(metadata i8* %552, metadata !2732, metadata !DIExpression()) #10, !dbg !2735
  %553 = icmp eq i8* %552, null, !dbg !2738
  br i1 %553, label %554, label %572, !dbg !2740

554:                                              ; preds = %551
  call void @llvm.dbg.value(metadata %"class.Halide::Runtime::Internal::(anonymous namespace)::Printer.0"* undef, metadata !1498, metadata !DIExpression()) #10, !dbg !2741
  call void @llvm.dbg.value(metadata i8* %0, metadata !1501, metadata !DIExpression()) #10, !dbg !2741
  call void @llvm.dbg.value(metadata i8* null, metadata !1502, metadata !DIExpression()) #10, !dbg !2741
  %555 = tail call i8* @malloc(i64 1024) #8, !dbg !2744
  %556 = icmp eq i8* %555, null, !dbg !2745
  br i1 %556, label %559, label %557, !dbg !2746

557:                                              ; preds = %554
  %558 = getelementptr inbounds i8, i8* %555, i64 1023, !dbg !2747
  store i8 0, i8* %558, align 1, !dbg !2748, !tbaa !1132
  br label %559, !dbg !2749

559:                                              ; preds = %557, %554
  %560 = phi i8* [ %558, %557 ], [ null, %554 ], !dbg !2750
  call void @llvm.dbg.value(metadata %"class.Halide::Runtime::Internal::(anonymous namespace)::Printer.0"* undef, metadata !1520, metadata !DIExpression()) #10, !dbg !2751
  call void @llvm.dbg.value(metadata i8* getelementptr inbounds ([23 x i8], [23 x i8]* @.str.296, i64 0, i64 0), metadata !1523, metadata !DIExpression()) #10, !dbg !2751
  %561 = tail call i8* @halide_string_to_string(i8* %555, i8* %560, i8* nonnull getelementptr inbounds ([23 x i8], [23 x i8]* @.str.296, i64 0, i64 0)) #8, !dbg !2753
  call void @llvm.dbg.value(metadata %"class.Halide::Runtime::Internal::(anonymous namespace)::Printer.0"* undef, metadata !1520, metadata !DIExpression()) #10, !dbg !2754
  call void @llvm.dbg.value(metadata i8* getelementptr inbounds ([22 x i8], [22 x i8]* @.str.37, i64 0, i64 0), metadata !1523, metadata !DIExpression()) #10, !dbg !2754
  %562 = tail call i8* @halide_string_to_string(i8* %561, i8* %560, i8* nonnull getelementptr inbounds ([22 x i8], [22 x i8]* @.str.37, i64 0, i64 0)) #8, !dbg !2756
  call void @llvm.dbg.value(metadata %"class.Halide::Runtime::Internal::(anonymous namespace)::Printer.0"* undef, metadata !1520, metadata !DIExpression()) #10, !dbg !2757
  call void @llvm.dbg.value(metadata i8* getelementptr inbounds ([2 x i8], [2 x i8]* @.str.4, i64 0, i64 0), metadata !1523, metadata !DIExpression()) #10, !dbg !2757
  %563 = tail call i8* @halide_string_to_string(i8* %562, i8* %560, i8* nonnull getelementptr inbounds ([2 x i8], [2 x i8]* @.str.4, i64 0, i64 0)) #8, !dbg !2759
  call void @llvm.dbg.value(metadata %"class.Halide::Runtime::Internal::(anonymous namespace)::Printer.0"* undef, metadata !1535, metadata !DIExpression()) #10, !dbg !2760
  br i1 %556, label %564, label %565, !dbg !2762

564:                                              ; preds = %559
  tail call void @halide_error(i8* %0, i8* getelementptr inbounds ([35 x i8], [35 x i8]* @.str.294, i64 0, i64 0)) #8, !dbg !2763
  br label %571, !dbg !2764

565:                                              ; preds = %559
  call void @llvm.dbg.value(metadata %"class.Halide::Runtime::Internal::(anonymous namespace)::Printer.0"* undef, metadata !1546, metadata !DIExpression()) #10, !dbg !2765
  %566 = ptrtoint i8* %563 to i64, !dbg !2767
  %567 = ptrtoint i8* %555 to i64, !dbg !2767
  %568 = sub i64 1, %567, !dbg !2767
  %569 = add i64 %568, %566, !dbg !2768
  %570 = tail call i32 @halide_msan_annotate_memory_is_initialized(i8* %0, i8* nonnull %555, i64 %569) #8, !dbg !2769
  tail call void @halide_error(i8* %0, i8* nonnull %555) #8, !dbg !2770
  br label %571

571:                                              ; preds = %565, %564
  tail call void @free(i8* %555) #8, !dbg !2771
  br label %572, !dbg !2772

572:                                              ; preds = %551, %571
  call void @llvm.dbg.value(metadata i8* %552, metadata !2732, metadata !DIExpression()) #10, !dbg !2735
  store i8* %552, i8** bitcast (i32 (%struct._cl_program*, %struct._cl_device_id*, i32, i64, i8*, i64*)** @_ZN6Halide7Runtime8Internal6OpenCL21clGetProgramBuildInfoE to i8**), align 8, !dbg !2773, !tbaa !1382
  call void @llvm.dbg.value(metadata i8* %0, metadata !2774, metadata !DIExpression()) #10, !dbg !2784
  call void @llvm.dbg.value(metadata i8* getelementptr inbounds ([15 x i8], [15 x i8]* @.str.38, i64 0, i64 0), metadata !2779, metadata !DIExpression()) #10, !dbg !2784
  call void @llvm.dbg.value(metadata i1 true, metadata !2780, metadata !DIExpression(DW_OP_LLVM_convert, 1, DW_ATE_unsigned, DW_OP_LLVM_convert, 8, DW_ATE_unsigned, DW_OP_stack_value)) #10, !dbg !2784
  %573 = tail call i8* @halide_opencl_get_symbol(i8* %0, i8* getelementptr inbounds ([15 x i8], [15 x i8]* @.str.38, i64 0, i64 0)) #8, !dbg !2786
  call void @llvm.dbg.value(metadata i8* %573, metadata !2781, metadata !DIExpression()) #10, !dbg !2784
  %574 = icmp eq i8* %573, null, !dbg !2787
  br i1 %574, label %575, label %593, !dbg !2789

575:                                              ; preds = %572
  call void @llvm.dbg.value(metadata %"class.Halide::Runtime::Internal::(anonymous namespace)::Printer.0"* undef, metadata !1498, metadata !DIExpression()) #10, !dbg !2790
  call void @llvm.dbg.value(metadata i8* %0, metadata !1501, metadata !DIExpression()) #10, !dbg !2790
  call void @llvm.dbg.value(metadata i8* null, metadata !1502, metadata !DIExpression()) #10, !dbg !2790
  %576 = tail call i8* @malloc(i64 1024) #8, !dbg !2793
  %577 = icmp eq i8* %576, null, !dbg !2794
  br i1 %577, label %580, label %578, !dbg !2795

578:                                              ; preds = %575
  %579 = getelementptr inbounds i8, i8* %576, i64 1023, !dbg !2796
  store i8 0, i8* %579, align 1, !dbg !2797, !tbaa !1132
  br label %580, !dbg !2798

580:                                              ; preds = %578, %575
  %581 = phi i8* [ %579, %578 ], [ null, %575 ], !dbg !2799
  call void @llvm.dbg.value(metadata %"class.Halide::Runtime::Internal::(anonymous namespace)::Printer.0"* undef, metadata !1520, metadata !DIExpression()) #10, !dbg !2800
  call void @llvm.dbg.value(metadata i8* getelementptr inbounds ([23 x i8], [23 x i8]* @.str.296, i64 0, i64 0), metadata !1523, metadata !DIExpression()) #10, !dbg !2800
  %582 = tail call i8* @halide_string_to_string(i8* %576, i8* %581, i8* nonnull getelementptr inbounds ([23 x i8], [23 x i8]* @.str.296, i64 0, i64 0)) #8, !dbg !2802
  call void @llvm.dbg.value(metadata %"class.Halide::Runtime::Internal::(anonymous namespace)::Printer.0"* undef, metadata !1520, metadata !DIExpression()) #10, !dbg !2803
  call void @llvm.dbg.value(metadata i8* getelementptr inbounds ([15 x i8], [15 x i8]* @.str.38, i64 0, i64 0), metadata !1523, metadata !DIExpression()) #10, !dbg !2803
  %583 = tail call i8* @halide_string_to_string(i8* %582, i8* %581, i8* nonnull getelementptr inbounds ([15 x i8], [15 x i8]* @.str.38, i64 0, i64 0)) #8, !dbg !2805
  call void @llvm.dbg.value(metadata %"class.Halide::Runtime::Internal::(anonymous namespace)::Printer.0"* undef, metadata !1520, metadata !DIExpression()) #10, !dbg !2806
  call void @llvm.dbg.value(metadata i8* getelementptr inbounds ([2 x i8], [2 x i8]* @.str.4, i64 0, i64 0), metadata !1523, metadata !DIExpression()) #10, !dbg !2806
  %584 = tail call i8* @halide_string_to_string(i8* %583, i8* %581, i8* nonnull getelementptr inbounds ([2 x i8], [2 x i8]* @.str.4, i64 0, i64 0)) #8, !dbg !2808
  call void @llvm.dbg.value(metadata %"class.Halide::Runtime::Internal::(anonymous namespace)::Printer.0"* undef, metadata !1535, metadata !DIExpression()) #10, !dbg !2809
  br i1 %577, label %585, label %586, !dbg !2811

585:                                              ; preds = %580
  tail call void @halide_error(i8* %0, i8* getelementptr inbounds ([35 x i8], [35 x i8]* @.str.294, i64 0, i64 0)) #8, !dbg !2812
  br label %592, !dbg !2813

586:                                              ; preds = %580
  call void @llvm.dbg.value(metadata %"class.Halide::Runtime::Internal::(anonymous namespace)::Printer.0"* undef, metadata !1546, metadata !DIExpression()) #10, !dbg !2814
  %587 = ptrtoint i8* %584 to i64, !dbg !2816
  %588 = ptrtoint i8* %576 to i64, !dbg !2816
  %589 = sub i64 1, %588, !dbg !2816
  %590 = add i64 %589, %587, !dbg !2817
  %591 = tail call i32 @halide_msan_annotate_memory_is_initialized(i8* %0, i8* nonnull %576, i64 %590) #8, !dbg !2818
