; ModuleID = '/media/maaz/Data/Repos/rake/Halide-master-d48fbde/src/runtime/hexagon_host.cpp'
source_filename = "/media/maaz/Data/Repos/rake/Halide-master-d48fbde/src/runtime/hexagon_host.cpp"
target datalayout = "e-p:32:32-i64:64"
target triple = "le32-unknown-nacl-unknown"

%struct.halide_mutex = type { [1 x i32] }
%"struct.Halide::Runtime::Internal::Hexagon::_remote_buffer__seq_octet" = type { i8*, i32 }
%"struct.Halide::Runtime::Internal::Hexagon::module_state" = type { i32, %"struct.Halide::Runtime::Internal::Hexagon::module_state"* }
%struct.halide_device_interface_t = type { i32 (i8*, %struct.halide_buffer_t*, %struct.halide_device_interface_t*)*, i32 (i8*, %struct.halide_buffer_t*)*, i32 (i8*, %struct.halide_buffer_t*)*, void (i8*, %struct.halide_device_interface_t*)*, i32 (i8*, %struct.halide_buffer_t*)*, i32 (i8*, %struct.halide_buffer_t*, %struct.halide_device_interface_t*)*, i32 (i8*, %struct.halide_buffer_t*, %struct.halide_device_interface_t*)*, i32 (i8*, %struct.halide_buffer_t*)*, i32 (i8*, %struct.halide_buffer_t*, %struct.halide_device_interface_t*, %struct.halide_buffer_t*)*, i32 (i8*, %struct.halide_buffer_t*, %struct.halide_buffer_t*)*, i32 (i8*, %struct.halide_buffer_t*, i32, i32, %struct.halide_buffer_t*)*, i32 (i8*, %struct.halide_buffer_t*)*, i32 (i8*, %struct.halide_buffer_t*, i64, %struct.halide_device_interface_t*)*, i32 (i8*, %struct.halide_buffer_t*)*, i32 (i8*, i32*, i32*)*, %struct.halide_device_interface_impl_t* }
%struct.halide_buffer_t = type { i64, %struct.halide_device_interface_t*, i8*, i64, %struct.halide_type_t, i32, %struct.halide_dimension_t*, i8* }
%struct.halide_type_t = type { i8, i8, i16 }
%struct.halide_dimension_t = type { i32, i32, i32, i32 }
%struct.halide_device_interface_impl_t = type { void ()*, void ()*, i32 (i8*, %struct.halide_buffer_t*)*, i32 (i8*, %struct.halide_buffer_t*)*, i32 (i8*, %struct.halide_buffer_t*)*, i32 (i8*)*, i32 (i8*, %struct.halide_buffer_t*)*, i32 (i8*, %struct.halide_buffer_t*)*, i32 (i8*, %struct.halide_buffer_t*)*, i32 (i8*, %struct.halide_buffer_t*)*, i32 (i8*, %struct.halide_buffer_t*, %struct.halide_device_interface_t*, %struct.halide_buffer_t*)*, i32 (i8*, %struct.halide_buffer_t*, %struct.halide_buffer_t*)*, i32 (i8*, %struct.halide_buffer_t*, i32, i32, %struct.halide_buffer_t*)*, i32 (i8*, %struct.halide_buffer_t*)*, i32 (i8*, %struct.halide_buffer_t*, i64)*, i32 (i8*, %struct.halide_buffer_t*)* }
%"struct.Halide::Runtime::Internal::device_copy" = type { i64, i64, i64, [16 x i64], [16 x i64], [16 x i64], i64 }
%"class.Halide::Runtime::Internal::(anonymous namespace)::Printer" = type <{ i8*, i8*, i8*, i8*, i8, [1 x i8], [2 x i8] }>
%"class.Halide::Runtime::Internal::(anonymous namespace)::Printer.0" = type <{ i8*, i8*, i8*, i8*, i8, [1 x i8], [2 x i8] }>
%"class.Halide::Runtime::Internal::(anonymous namespace)::Printer.2" = type <{ i8*, i8*, i8*, i8*, i8, [1 x i8], [2 x i8] }>
%"struct.Halide::Runtime::Internal::ScopedMutexLock" = type { %struct.halide_mutex* }
%struct.hexagon_device_pointer = type { i64, i8* }
%"struct.Halide::Runtime::Internal::Hexagon::ion_device_handle" = type { i8*, i32 }
%struct.halide_profiler_state = type { %struct.halide_mutex, i32, i32, i32, i32, %struct.halide_profiler_pipeline_stats*, void (i32*, i32*)*, %struct.halide_thread* }
%struct.halide_profiler_pipeline_stats = type { i64, i64, i64, i64, i64, i64, i8*, %struct.halide_profiler_func_stats*, i8*, i32, i32, i32, i32, i32 }
%struct.halide_profiler_func_stats = type { i64, i64, i64, i64, i64, i64, i64, i8*, i32 }
%struct.halide_thread = type opaque
%struct.halide_hexagon_power_t = type { i8, i32, i32, i8, i32, i16, i8, i32 }

@.str = private unnamed_addr constant [55 x i8] c"copy_memory: no copy needed as pointers are the same.\0A\00", align 1
@_ZN6Halide7Runtime8Internal7Hexagon11thread_lockE = weak dso_local global %struct.halide_mutex zeroinitializer, align 4, !dbg !0
@_ZN6Halide7Runtime8Internal7Hexagon19remote_load_libraryE = weak dso_local local_unnamed_addr global i32 (i8*, i32, i8*, i32, i32*)* null, align 4, !dbg !18
@_ZN6Halide7Runtime8Internal7Hexagon17remote_get_symbolE = weak dso_local local_unnamed_addr global i32 (i32, i8*, i32, i32*)* null, align 4, !dbg !34
@_ZN6Halide7Runtime8Internal7Hexagon10remote_runE = weak dso_local local_unnamed_addr global i32 (i32, i32, %"struct.Halide::Runtime::Internal::Hexagon::_remote_buffer__seq_octet"*, i32, %"struct.Halide::Runtime::Internal::Hexagon::_remote_buffer__seq_octet"*, i32, %"struct.Halide::Runtime::Internal::Hexagon::_remote_buffer__seq_octet"*, i32)* null, align 4, !dbg !40
@_ZN6Halide7Runtime8Internal7Hexagon22remote_release_libraryE = weak dso_local local_unnamed_addr global i32 (i32)* null, align 4, !dbg !56
@_ZN6Halide7Runtime8Internal7Hexagon15remote_poll_logE = weak dso_local local_unnamed_addr global i32 (i8*, i32, i32*)* null, align 4, !dbg !62
@_ZN6Halide7Runtime8Internal7Hexagon26remote_poll_profiler_stateE = weak dso_local local_unnamed_addr global void (i32*, i32*)* null, align 4, !dbg !70
@_ZN6Halide7Runtime8Internal7Hexagon32remote_profiler_set_current_funcE = weak dso_local local_unnamed_addr global i32 (i32)* null, align 4, !dbg !76
@_ZN6Halide7Runtime8Internal7Hexagon19remote_power_hvx_onE = weak dso_local local_unnamed_addr global i32 ()* null, align 4, !dbg !82
@_ZN6Halide7Runtime8Internal7Hexagon20remote_power_hvx_offE = weak dso_local local_unnamed_addr global i32 ()* null, align 4, !dbg !88
@_ZN6Halide7Runtime8Internal7Hexagon22remote_set_performanceE = weak dso_local local_unnamed_addr global i32 (i32, i32, i32, i32, i32, i32, i32, i32)* null, align 4, !dbg !90
@_ZN6Halide7Runtime8Internal7Hexagon27remote_set_performance_modeE = weak dso_local local_unnamed_addr global i32 (i32)* null, align 4, !dbg !96
@_ZN6Halide7Runtime8Internal7Hexagon26remote_set_thread_priorityE = weak dso_local local_unnamed_addr global i32 (i32)* null, align 4, !dbg !99
@_ZN6Halide7Runtime8Internal7Hexagon16host_malloc_initE = weak dso_local local_unnamed_addr global void ()* null, align 4, !dbg !102
@_ZN6Halide7Runtime8Internal7Hexagon18host_malloc_deinitE = weak dso_local local_unnamed_addr global void ()* null, align 4, !dbg !108
@_ZN6Halide7Runtime8Internal7Hexagon11host_mallocE = weak dso_local local_unnamed_addr global i8* (i32)* null, align 4, !dbg !110
@_ZN6Halide7Runtime8Internal7Hexagon9host_freeE = weak dso_local local_unnamed_addr global void (i8*)* null, align 4, !dbg !118
@.str.1 = private unnamed_addr constant [33 x i8] c"Hexagon: remote_poll_log failed \00", align 1
@.str.2 = private unnamed_addr constant [2 x i8] c"\0A\00", align 1
@.str.3 = private unnamed_addr constant [46 x i8] c"Hexagon: remote_poll_profiler_func not found\0A\00", align 1
@.str.4 = private unnamed_addr constant [26 x i8] c"libhalide_hexagon_host.so\00", align 1
@.str.5 = private unnamed_addr constant [27 x i8] c"libhalide_hexagon_host.dll\00", align 1
@.str.6 = private unnamed_addr constant [46 x i8] c"Hexagon: init_hexagon_runtime (user_context: \00", align 1
@.str.7 = private unnamed_addr constant [3 x i8] c")\0A\00", align 1
@.str.8 = private unnamed_addr constant [35 x i8] c"halide_hexagon_remote_load_library\00", align 1
@.str.9 = private unnamed_addr constant [36 x i8] c"halide_hexagon_remote_get_symbol_v4\00", align 1
@.str.10 = private unnamed_addr constant [26 x i8] c"halide_hexagon_remote_run\00", align 1
@.str.11 = private unnamed_addr constant [38 x i8] c"halide_hexagon_remote_release_library\00", align 1
@.str.12 = private unnamed_addr constant [32 x i8] c"halide_hexagon_host_malloc_init\00", align 1
@.str.13 = private unnamed_addr constant [34 x i8] c"halide_hexagon_host_malloc_deinit\00", align 1
@.str.14 = private unnamed_addr constant [27 x i8] c"halide_hexagon_host_malloc\00", align 1
@.str.15 = private unnamed_addr constant [25 x i8] c"halide_hexagon_host_free\00", align 1
@.str.16 = private unnamed_addr constant [31 x i8] c"halide_hexagon_remote_poll_log\00", align 1
@.str.17 = private unnamed_addr constant [42 x i8] c"halide_hexagon_remote_poll_profiler_state\00", align 1
@.str.18 = private unnamed_addr constant [48 x i8] c"halide_hexagon_remote_profiler_set_current_func\00", align 1
@.str.19 = private unnamed_addr constant [35 x i8] c"halide_hexagon_remote_power_hvx_on\00", align 1
@.str.20 = private unnamed_addr constant [36 x i8] c"halide_hexagon_remote_power_hvx_off\00", align 1
@.str.21 = private unnamed_addr constant [38 x i8] c"halide_hexagon_remote_set_performance\00", align 1
@.str.22 = private unnamed_addr constant [43 x i8] c"halide_hexagon_remote_set_performance_mode\00", align 1
@.str.23 = private unnamed_addr constant [42 x i8] c"halide_hexagon_remote_set_thread_priority\00", align 1
@_ZN6Halide7Runtime8Internal7Hexagon10state_listE = weak dso_local local_unnamed_addr global %"struct.Halide::Runtime::Internal::Hexagon::module_state"* null, align 4, !dbg !124
@_ZN6Halide7Runtime8Internal7Hexagon14shared_runtimeE = weak dso_local global i32 0, align 4, !dbg !131
@.str.24 = private unnamed_addr constant [3 x i8] c"wb\00", align 1
@.str.25 = private unnamed_addr constant [39 x i8] c"    failed to write shared object to '\00", align 1
@.str.26 = private unnamed_addr constant [3 x i8] c"'\0A\00", align 1
@.str.27 = private unnamed_addr constant [36 x i8] c"    bad write of shared object to '\00", align 1
@.str.28 = private unnamed_addr constant [59 x i8] c"Hexagon: halide_hexagon_initialize_kernels (user_context: \00", align 1
@.str.29 = private unnamed_addr constant [14 x i8] c", state_ptr: \00", align 1
@.str.30 = private unnamed_addr constant [15 x i8] c", *state_ptr: \00", align 1
@.str.31 = private unnamed_addr constant [9 x i8] c", code: \00", align 1
@.str.32 = private unnamed_addr constant [14 x i8] c", code_size: \00", align 1
@.str.34 = private unnamed_addr constant [33 x i8] c"    Initializing shared runtime\0A\00", align 1
@__const.halide_hexagon_initialize_kernels.soname = private unnamed_addr constant [28 x i8] c"libhalide_shared_runtime.so\00", align 1
@.str.35 = private unnamed_addr constant [28 x i8] c"    Writing shared object '\00", align 1
@.str.36 = private unnamed_addr constant [32 x i8] c"    halide_remote_load_library(\00", align 1
@.str.37 = private unnamed_addr constant [6 x i8] c") -> \00", align 1
@.str.38 = private unnamed_addr constant [9 x i8] c"        \00", align 1
@.str.39 = private unnamed_addr constant [119 x i8] c"/media/maaz/Data/Repos/rake/Halide-master-d48fbde/src/runtime/hexagon_host.cpp:280 Assert failed: shared_runtime != 0\0A\00", align 1
@.str.40 = private unnamed_addr constant [42 x i8] c"Initialization of Hexagon kernels failed\0A\00", align 1
@.str.41 = private unnamed_addr constant [38 x i8] c"    re-using existing shared runtime \00", align 1
@.str.42 = private unnamed_addr constant [33 x i8] c"    allocating module state -> \0A\00", align 1
@_ZZ33halide_hexagon_initialize_kernelsE9unique_id = internal unnamed_addr global i32 0, align 4, !dbg !133
@.str.43 = private unnamed_addr constant [18 x i8] c"libhalide_kernels\00", align 1
@.str.44 = private unnamed_addr constant [4 x i8] c".so\00", align 1
@.str.45 = private unnamed_addr constant [30 x i8] c"    re-using existing module \00", align 1
@.str.46 = private unnamed_addr constant [11 x i8] c"    Time: \00", align 1
@.str.47 = private unnamed_addr constant [5 x i8] c" ms\0A\00", align 1
@.str.48 = private unnamed_addr constant [3 x i8] c", \00", align 1
@.str.49 = private unnamed_addr constant [120 x i8] c"/media/maaz/Data/Repos/rake/Halide-master-d48fbde/src/runtime/hexagon_host.cpp:392 Assert failed: state_ptr != nullptr\0A\00", align 1
@.str.50 = private unnamed_addr constant [119 x i8] c"/media/maaz/Data/Repos/rake/Halide-master-d48fbde/src/runtime/hexagon_host.cpp:393 Assert failed: function != nullptr\0A\00", align 1
@.str.51 = private unnamed_addr constant [30 x i8] c"Hexagon: halide_hexagon_run (\00", align 1
@.str.52 = private unnamed_addr constant [15 x i8] c"user_context: \00", align 1
@.str.53 = private unnamed_addr constant [12 x i8] c"state_ptr: \00", align 1
@.str.54 = private unnamed_addr constant [3 x i8] c" (\00", align 1
@.str.55 = private unnamed_addr constant [4 x i8] c"), \00", align 1
@.str.56 = private unnamed_addr constant [7 x i8] c"name: \00", align 1
@.str.57 = private unnamed_addr constant [11 x i8] c"function: \00", align 1
@.str.58 = private unnamed_addr constant [4 x i8] c"))\0A\00", align 1
@.str.59 = private unnamed_addr constant [38 x i8] c"    halide_hexagon_remote_get_symbol \00", align 1
@.str.60 = private unnamed_addr constant [5 x i8] c" -> \00", align 1
@.str.61 = private unnamed_addr constant [25 x i8] c"Failed to find function \00", align 1
@.str.62 = private unnamed_addr constant [13 x i8] c" in module.\0A\00", align 1
@.str.63 = private unnamed_addr constant [34 x i8] c"    halide_hexagon_remote_run -> \00", align 1
@.str.64 = private unnamed_addr constant [26 x i8] c"Hexagon pipeline failed.\0A\00", align 1
@.str.65 = private unnamed_addr constant [55 x i8] c"Hexagon: halide_hexagon_device_release (user_context: \00", align 1
@.str.66 = private unnamed_addr constant [35 x i8] c"    halide_remote_release_library \00", align 1
@.str.67 = private unnamed_addr constant [30 x i8] c"    releasing shared runtime\0A\00", align 1
@.str.68 = private unnamed_addr constant [54 x i8] c"Hexagon: halide_hexagon_device_malloc (user_context: \00", align 1
@.str.69 = private unnamed_addr constant [8 x i8] c", buf: \00", align 1
@.str.70 = private unnamed_addr constant [109 x i8] c"/media/maaz/Data/Repos/rake/Halide-master-d48fbde/src/runtime/hexagon_host.cpp:549 Assert failed: size != 0\0A\00", align 1
@.str.71 = private unnamed_addr constant [123 x i8] c"/media/maaz/Data/Repos/rake/Halide-master-d48fbde/src/runtime/hexagon_host.cpp:557 Assert failed: buf->dim[i].stride >= 0\0A\00", align 1
@.str.72 = private unnamed_addr constant [26 x i8] c"    allocating buffer of \00", align 1
@.str.73 = private unnamed_addr constant [8 x i8] c" bytes\0A\00", align 1
@.str.74 = private unnamed_addr constant [21 x i8] c"    host_malloc len=\00", align 1
@.str.75 = private unnamed_addr constant [20 x i8] c"host_malloc failed\0A\00", align 1
@.str.76 = private unnamed_addr constant [24 x i8] c"    halide_malloc size=\00", align 1
@.str.77 = private unnamed_addr constant [22 x i8] c"halide_malloc failed\0A\00", align 1
@.str.78 = private unnamed_addr constant [13 x i8] c"    host <- \00", align 1
@.str.79 = private unnamed_addr constant [52 x i8] c"Hexagon: halide_hexagon_device_free (user_context: \00", align 1
@.str.80 = private unnamed_addr constant [19 x i8] c"    host_free ion=\00", align 1
@.str.81 = private unnamed_addr constant [21 x i8] c"    halide_free ion=\00", align 1
@.str.82 = private unnamed_addr constant [17 x i8] c"    host <- 0x0\0A\00", align 1
@.str.83 = private unnamed_addr constant [55 x i8] c"Hexagon: halide_hexagon_copy_to_device (user_context: \00", align 1
@.str.84 = private unnamed_addr constant [124 x i8] c"/media/maaz/Data/Repos/rake/Halide-master-d48fbde/src/runtime/hexagon_host.cpp:660 Assert failed: buf->host && buf->device\0A\00", align 1
@.str.85 = private unnamed_addr constant [53 x i8] c"Hexagon: halide_hexagon_copy_to_host (user_context: \00", align 1
@.str.86 = private unnamed_addr constant [124 x i8] c"/media/maaz/Data/Repos/rake/Halide-master-d48fbde/src/runtime/hexagon_host.cpp:684 Assert failed: buf->host && buf->device\0A\00", align 1
@.str.87 = private unnamed_addr constant [52 x i8] c"Hexagon: halide_hexagon_device_sync (user_context: \00", align 1
@.str.88 = private unnamed_addr constant [116 x i8] c"/media/maaz/Data/Repos/rake/Halide-master-d48fbde/src/runtime/hexagon_host.cpp:708 Assert failed: buf->device == 0\0A\00", align 1
@_ZN6Halide7Runtime8Internal7Hexagon24hexagon_device_interfaceE = weak dso_local global %struct.halide_device_interface_t { i32 (i8*, %struct.halide_buffer_t*, %struct.halide_device_interface_t*)* @halide_device_malloc, i32 (i8*, %struct.halide_buffer_t*)* @halide_device_free, i32 (i8*, %struct.halide_buffer_t*)* @halide_device_sync, void (i8*, %struct.halide_device_interface_t*)* @halide_device_release, i32 (i8*, %struct.halide_buffer_t*)* @halide_copy_to_host, i32 (i8*, %struct.halide_buffer_t*, %struct.halide_device_interface_t*)* @halide_copy_to_device, i32 (i8*, %struct.halide_buffer_t*, %struct.halide_device_interface_t*)* @halide_device_and_host_malloc, i32 (i8*, %struct.halide_buffer_t*)* @halide_device_and_host_free, i32 (i8*, %struct.halide_buffer_t*, %struct.halide_device_interface_t*, %struct.halide_buffer_t*)* @halide_buffer_copy, i32 (i8*, %struct.halide_buffer_t*, %struct.halide_buffer_t*)* @halide_device_crop, i32 (i8*, %struct.halide_buffer_t*, i32, i32, %struct.halide_buffer_t*)* @halide_device_slice, i32 (i8*, %struct.halide_buffer_t*)* @halide_device_release_crop, i32 (i8*, %struct.halide_buffer_t*, i64, %struct.halide_device_interface_t*)* @halide_device_wrap_native, i32 (i8*, %struct.halide_buffer_t*)* @halide_device_detach_native, i32 (i8*, i32*, i32*)* null, %struct.halide_device_interface_impl_t* @_ZN6Halide7Runtime8Internal7Hexagon29hexagon_device_interface_implE }, align 4, !dbg !606
@.str.89 = private unnamed_addr constant [150 x i8] c"/media/maaz/Data/Repos/rake/Halide-master-d48fbde/src/runtime/hexagon_host.cpp:729 Assert failed: buf->device_interface == &hexagon_device_interface\0A\00", align 1
@.str.90 = private unnamed_addr constant [150 x i8] c"/media/maaz/Data/Repos/rake/Halide-master-d48fbde/src/runtime/hexagon_host.cpp:743 Assert failed: buf->device_interface == &hexagon_device_interface\0A\00", align 1
@.str.91 = private unnamed_addr constant [150 x i8] c"/media/maaz/Data/Repos/rake/Halide-master-d48fbde/src/runtime/hexagon_host.cpp:752 Assert failed: buf->device_interface == &hexagon_device_interface\0A\00", align 1
@.str.92 = private unnamed_addr constant [47 x i8] c"halide_hexagon_device_and_host_malloc called.\0A\00", align 1
@.str.93 = private unnamed_addr constant [45 x i8] c"halide_hexagon_device_and_host_free called.\0A\00", align 1
@.str.94 = private unnamed_addr constant [184 x i8] c"/media/maaz/Data/Repos/rake/Halide-master-d48fbde/src/runtime/hexagon_host.cpp:778 Assert failed: dst_device_interface == nullptr || dst_device_interface == &hexagon_device_interface\0A\00", align 1
@.str.95 = private unnamed_addr constant [149 x i8] c"/media/maaz/Data/Repos/rake/Halide-master-d48fbde/src/runtime/hexagon_host.cpp:782 Assert failed: dst_device_interface == &hexagon_device_interface\0A\00", align 1
@.str.97 = private unnamed_addr constant [122 x i8] c"/media/maaz/Data/Repos/rake/Halide-master-d48fbde/src/runtime/hexagon_host.cpp:793 Assert failed: to_host || dst->device\0A\00", align 1
@.str.98 = private unnamed_addr constant [36 x i8] c"halide_hexagon_device_crop called.\0A\00", align 1
@.str.99 = private unnamed_addr constant [37 x i8] c"halide_hexagon_device_slice called.\0A\00", align 1
@.str.100 = private unnamed_addr constant [36 x i8] c"halide_hexagon_release_crop called\0A\00", align 1
@.str.101 = private unnamed_addr constant [29 x i8] c"halide_hexagon_power_hvx_on\0A\00", align 1
@.str.102 = private unnamed_addr constant [28 x i8] c"    remote_power_hvx_on -> \00", align 1
@.str.103 = private unnamed_addr constant [29 x i8] c"remote_power_hvx_on failed.\0A\00", align 1
@.str.104 = private unnamed_addr constant [30 x i8] c"halide_hexagon_power_hvx_off\0A\00", align 1
@.str.105 = private unnamed_addr constant [29 x i8] c"    remote_power_hvx_off -> \00", align 1
@.str.106 = private unnamed_addr constant [30 x i8] c"remote_power_hvx_off failed.\0A\00", align 1
@.str.107 = private unnamed_addr constant [37 x i8] c"halide_hexagon_set_performance_mode\0A\00", align 1
@.str.108 = private unnamed_addr constant [36 x i8] c"    remote_set_performance_mode -> \00", align 1
@.str.109 = private unnamed_addr constant [37 x i8] c"remote_set_performance_mode failed.\0A\00", align 1
@.str.110 = private unnamed_addr constant [32 x i8] c"halide_hexagon_set_performance\0A\00", align 1
@.str.111 = private unnamed_addr constant [31 x i8] c"    remote_set_performance -> \00", align 1
@.str.112 = private unnamed_addr constant [32 x i8] c"remote_set_performance failed.\0A\00", align 1
@.str.113 = private unnamed_addr constant [36 x i8] c"halide_hexagon_set_thread_priority\0A\00", align 1
@.str.114 = private unnamed_addr constant [35 x i8] c"    remote_set_thread_priority -> \00", align 1
@.str.115 = private unnamed_addr constant [36 x i8] c"remote_set_thread_priority failed.\0A\00", align 1
@_ZN6Halide7Runtime8Internal7Hexagon29hexagon_device_interface_implE = weak dso_local global %struct.halide_device_interface_impl_t { void ()* @halide_use_jit_module, void ()* @halide_release_jit_module, i32 (i8*, %struct.halide_buffer_t*)* @halide_hexagon_device_malloc, i32 (i8*, %struct.halide_buffer_t*)* @halide_hexagon_device_free, i32 (i8*, %struct.halide_buffer_t*)* @halide_hexagon_device_sync, i32 (i8*)* @halide_hexagon_device_release, i32 (i8*, %struct.halide_buffer_t*)* @halide_hexagon_copy_to_host, i32 (i8*, %struct.halide_buffer_t*)* @halide_hexagon_copy_to_device, i32 (i8*, %struct.halide_buffer_t*)* @halide_hexagon_device_and_host_malloc, i32 (i8*, %struct.halide_buffer_t*)* @halide_hexagon_device_and_host_free, i32 (i8*, %struct.halide_buffer_t*, %struct.halide_device_interface_t*, %struct.halide_buffer_t*)* @halide_hexagon_buffer_copy, i32 (i8*, %struct.halide_buffer_t*, %struct.halide_buffer_t*)* @halide_hexagon_device_crop, i32 (i8*, %struct.halide_buffer_t*, i32, i32, %struct.halide_buffer_t*)* @halide_hexagon_device_slice, i32 (i8*, %struct.halide_buffer_t*)* @halide_hexagon_device_release_crop, i32 (i8*, %struct.halide_buffer_t*, i64)* @halide_default_device_wrap_native, i32 (i8*, %struct.halide_buffer_t*)* @halide_default_device_detach_native }, align 4, !dbg !604
@.str.116 = private unnamed_addr constant [35 x i8] c"Printer buffer allocation failed.\0A\00", align 1
@.str.117 = private unnamed_addr constant [10 x i8] c"<nullptr>\00", align 1
@.str.118 = private unnamed_addr constant [32 x i8] c"    halide_get_library_symbol('\00", align 1
@.str.119 = private unnamed_addr constant [8 x i8] c"') -> \0A\00", align 1
@.str.120 = private unnamed_addr constant [34 x i8] c"Required Hexagon runtime symbol '\00", align 1
@.str.121 = private unnamed_addr constant [14 x i8] c"' not found.\0A\00", align 1
@llvm.global_dtors = appending global [1 x { i32, void ()*, i8* }] [{ i32, void ()*, i8* } { i32 65535, void ()* @halide_hexagon_cleanup, i8* null }]

; Function Attrs: nounwind mustprogress
define weak dso_local void @_ZN6Halide7Runtime8Internal18copy_memory_helperERKNS1_11device_copyEixx(%"struct.Halide::Runtime::Internal::device_copy"* nonnull align 8 dereferenceable(416) %0, i32 %1, i64 %2, i64 %3) local_unnamed_addr #0 !dbg !717 {
  call void @llvm.dbg.value(metadata %"struct.Halide::Runtime::Internal::device_copy"* %0, metadata !736, metadata !DIExpression()), !dbg !747
  call void @llvm.dbg.value(metadata i32 %1, metadata !737, metadata !DIExpression()), !dbg !747
  call void @llvm.dbg.value(metadata i64 %2, metadata !738, metadata !DIExpression()), !dbg !747
  call void @llvm.dbg.value(metadata i64 %3, metadata !739, metadata !DIExpression()), !dbg !747
  %5 = icmp sgt i32 %1, -1, !dbg !748
  br i1 %5, label %6, label %14, !dbg !749

6:                                                ; preds = %4, %11
  %7 = phi i32 [ %12, %11 ], [ %1, %4 ]
  call void @llvm.dbg.value(metadata i32 %7, metadata !737, metadata !DIExpression()), !dbg !747
  %8 = getelementptr inbounds %"struct.Halide::Runtime::Internal::device_copy", %"struct.Halide::Runtime::Internal::device_copy"* %0, i32 0, i32 3, i32 %7, !dbg !750
  %9 = load i64, i64* %8, align 8, !dbg !750, !tbaa !751
  %10 = icmp eq i64 %9, 1, !dbg !755
  br i1 %10, label %11, label %14, !dbg !756

11:                                               ; preds = %6
  %12 = add nsw i32 %7, -1, !dbg !757
  call void @llvm.dbg.value(metadata i32 %12, metadata !737, metadata !DIExpression()), !dbg !747
  %13 = icmp sgt i32 %7, 0, !dbg !748
  br i1 %13, label %6, label %25, !dbg !749, !llvm.loop !759

14:                                               ; preds = %6, %4
  %15 = phi i32 [ %1, %4 ], [ %7, %6 ]
  %16 = icmp eq i32 %15, -1, !dbg !762
  br i1 %16, label %25, label %17, !dbg !763

17:                                               ; preds = %14
  call void @llvm.dbg.value(metadata i64 0, metadata !744, metadata !DIExpression()), !dbg !764
  call void @llvm.dbg.value(metadata i64 %2, metadata !738, metadata !DIExpression()), !dbg !747
  call void @llvm.dbg.value(metadata i64 %3, metadata !739, metadata !DIExpression()), !dbg !747
  %18 = getelementptr inbounds %"struct.Halide::Runtime::Internal::device_copy", %"struct.Halide::Runtime::Internal::device_copy"* %0, i32 0, i32 3, i32 %15, !dbg !765
  %19 = load i64, i64* %18, align 8, !dbg !765, !tbaa !751
  %20 = icmp eq i64 %19, 0, !dbg !767
  br i1 %20, label %51, label %21, !dbg !768

21:                                               ; preds = %17
  %22 = add nsw i32 %15, -1
  %23 = getelementptr inbounds %"struct.Halide::Runtime::Internal::device_copy", %"struct.Halide::Runtime::Internal::device_copy"* %0, i32 0, i32 4, i32 %15
  %24 = getelementptr inbounds %"struct.Halide::Runtime::Internal::device_copy", %"struct.Halide::Runtime::Internal::device_copy"* %0, i32 0, i32 5, i32 %15
  br label %40, !dbg !768

25:                                               ; preds = %11, %14
  %26 = getelementptr inbounds %"struct.Halide::Runtime::Internal::device_copy", %"struct.Halide::Runtime::Internal::device_copy"* %0, i32 0, i32 0, !dbg !769
  %27 = load i64, i64* %26, align 8, !dbg !769, !tbaa !770
  %28 = add i64 %27, %2, !dbg !772
  %29 = trunc i64 %28 to i32, !dbg !773
  %30 = inttoptr i32 %29 to i8*, !dbg !773
  call void @llvm.dbg.value(metadata i8* %30, metadata !740, metadata !DIExpression()), !dbg !774
  %31 = getelementptr inbounds %"struct.Halide::Runtime::Internal::device_copy", %"struct.Halide::Runtime::Internal::device_copy"* %0, i32 0, i32 1, !dbg !775
  %32 = load i64, i64* %31, align 8, !dbg !775, !tbaa !776
  %33 = add i64 %32, %3, !dbg !777
  %34 = trunc i64 %33 to i32, !dbg !778
  %35 = inttoptr i32 %34 to i8*, !dbg !778
  call void @llvm.dbg.value(metadata i8* %35, metadata !743, metadata !DIExpression()), !dbg !774
  %36 = getelementptr inbounds %"struct.Halide::Runtime::Internal::device_copy", %"struct.Halide::Runtime::Internal::device_copy"* %0, i32 0, i32 6, !dbg !779
  %37 = load i64, i64* %36, align 8, !dbg !779, !tbaa !780
  %38 = trunc i64 %37 to i32, !dbg !781
  %39 = tail call i8* @memcpy(i8* %35, i8* %30, i32 %38) #7, !dbg !782
  br label %51, !dbg !783

40:                                               ; preds = %21, %40
  %41 = phi i64 [ 0, %21 ], [ %48, %40 ]
  %42 = phi i64 [ %2, %21 ], [ %45, %40 ]
  %43 = phi i64 [ %3, %21 ], [ %47, %40 ]
  call void @llvm.dbg.value(metadata i64 %41, metadata !744, metadata !DIExpression()), !dbg !764
  call void @llvm.dbg.value(metadata i64 %42, metadata !738, metadata !DIExpression()), !dbg !747
  call void @llvm.dbg.value(metadata i64 %43, metadata !739, metadata !DIExpression()), !dbg !747
  tail call void @_ZN6Halide7Runtime8Internal18copy_memory_helperERKNS1_11device_copyEixx(%"struct.Halide::Runtime::Internal::device_copy"* nonnull align 8 dereferenceable(416) %0, i32 %22, i64 %42, i64 %43) #8, !dbg !784
  %44 = load i64, i64* %23, align 8, !dbg !786, !tbaa !751
  %45 = add i64 %44, %42, !dbg !787
  call void @llvm.dbg.value(metadata i64 %45, metadata !738, metadata !DIExpression()), !dbg !747
  %46 = load i64, i64* %24, align 8, !dbg !788, !tbaa !751
  %47 = add i64 %46, %43, !dbg !789
  call void @llvm.dbg.value(metadata i64 %47, metadata !739, metadata !DIExpression()), !dbg !747
  %48 = add nuw i64 %41, 1, !dbg !790
  call void @llvm.dbg.value(metadata i64 %48, metadata !744, metadata !DIExpression()), !dbg !764
  %49 = load i64, i64* %18, align 8, !dbg !765, !tbaa !751
  %50 = icmp ult i64 %48, %49, !dbg !767
  br i1 %50, label %40, label %51, !dbg !768, !llvm.loop !791

51:                                               ; preds = %40, %17, %25
  ret void, !dbg !793
}

; Function Attrs: nofree nosync nounwind readnone speculatable willreturn
declare void @llvm.dbg.declare(metadata, metadata, metadata) #1

; Function Attrs: argmemonly nofree nosync nounwind willreturn
declare void @llvm.lifetime.start.p0i8(i64 immarg, i8* nocapture) #2

declare !dbg !794 dso_local i8* @memcpy(i8*, i8*, i32) local_unnamed_addr #3

; Function Attrs: argmemonly nofree nosync nounwind willreturn
declare void @llvm.lifetime.end.p0i8(i64 immarg, i8* nocapture) #2

; Function Attrs: nounwind
define weak dso_local void @_ZN6Halide7Runtime8Internal11copy_memoryERKNS1_11device_copyEPv(%"struct.Halide::Runtime::Internal::device_copy"* nonnull align 8 dereferenceable(416) %0, i8* %1) local_unnamed_addr #4 !dbg !798 {
  call void @llvm.dbg.value(metadata %"struct.Halide::Runtime::Internal::device_copy"* %0, metadata !802, metadata !DIExpression()), !dbg !804
  call void @llvm.dbg.value(metadata i8* %1, metadata !803, metadata !DIExpression()), !dbg !804
  %3 = getelementptr inbounds %"struct.Halide::Runtime::Internal::device_copy", %"struct.Halide::Runtime::Internal::device_copy"* %0, i32 0, i32 0, !dbg !805
  %4 = load i64, i64* %3, align 8, !dbg !805, !tbaa !770
  %5 = getelementptr inbounds %"struct.Halide::Runtime::Internal::device_copy", %"struct.Halide::Runtime::Internal::device_copy"* %0, i32 0, i32 1, !dbg !807
  %6 = load i64, i64* %5, align 8, !dbg !807, !tbaa !776
  %7 = icmp eq i64 %4, %6, !dbg !808
  br i1 %7, label %11, label %8, !dbg !809

8:                                                ; preds = %2
  %9 = getelementptr inbounds %"struct.Halide::Runtime::Internal::device_copy", %"struct.Halide::Runtime::Internal::device_copy"* %0, i32 0, i32 2, !dbg !810
  %10 = load i64, i64* %9, align 8, !dbg !810, !tbaa !812
  tail call void @_ZN6Halide7Runtime8Internal18copy_memory_helperERKNS1_11device_copyEixx(%"struct.Halide::Runtime::Internal::device_copy"* nonnull align 8 dereferenceable(416) %0, i32 15, i64 %10, i64 0) #8, !dbg !813
  br label %26, !dbg !814

11:                                               ; preds = %2
  call void @llvm.dbg.value(metadata %"class.Halide::Runtime::Internal::(anonymous namespace)::Printer"* undef, metadata !815, metadata !DIExpression()) #9, !dbg !821
  call void @llvm.dbg.value(metadata i8* %1, metadata !818, metadata !DIExpression()) #9, !dbg !821
  call void @llvm.dbg.value(metadata i8* null, metadata !819, metadata !DIExpression()) #9, !dbg !821
  %12 = tail call i8* @malloc(i32 1024) #7, !dbg !824
  %13 = icmp eq i8* %12, null, !dbg !829
  br i1 %13, label %14, label %16, !dbg !831

14:                                               ; preds = %11
  call void @llvm.dbg.value(metadata %"class.Halide::Runtime::Internal::(anonymous namespace)::Printer"* undef, metadata !832, metadata !DIExpression()) #9, !dbg !836
  call void @llvm.dbg.value(metadata i8* getelementptr inbounds ([55 x i8], [55 x i8]* @.str, i32 0, i32 0), metadata !835, metadata !DIExpression()) #9, !dbg !836
  %15 = tail call i8* @halide_string_to_string(i8* %12, i8* null, i8* nonnull getelementptr inbounds ([55 x i8], [55 x i8]* @.str, i32 0, i32 0)) #7, !dbg !838
  call void @llvm.dbg.value(metadata %"class.Halide::Runtime::Internal::(anonymous namespace)::Printer"* undef, metadata !841, metadata !DIExpression()) #9, !dbg !844
  tail call void @halide_error(i8* %1, i8* getelementptr inbounds ([35 x i8], [35 x i8]* @.str.116, i32 0, i32 0)) #7, !dbg !846
  br label %25, !dbg !850

16:                                               ; preds = %11
  %17 = getelementptr inbounds i8, i8* %12, i32 1023, !dbg !851
  store i8 0, i8* %17, align 1, !dbg !853, !tbaa !854
  call void @llvm.dbg.value(metadata %"class.Halide::Runtime::Internal::(anonymous namespace)::Printer"* undef, metadata !832, metadata !DIExpression()) #9, !dbg !836
  call void @llvm.dbg.value(metadata i8* getelementptr inbounds ([55 x i8], [55 x i8]* @.str, i32 0, i32 0), metadata !835, metadata !DIExpression()) #9, !dbg !836
  %18 = tail call i8* @halide_string_to_string(i8* nonnull %12, i8* nonnull %17, i8* nonnull getelementptr inbounds ([55 x i8], [55 x i8]* @.str, i32 0, i32 0)) #7, !dbg !838
  call void @llvm.dbg.value(metadata %"class.Halide::Runtime::Internal::(anonymous namespace)::Printer"* undef, metadata !841, metadata !DIExpression()) #9, !dbg !844
  call void @llvm.dbg.value(metadata %"class.Halide::Runtime::Internal::(anonymous namespace)::Printer"* undef, metadata !855, metadata !DIExpression()) #9, !dbg !858
  %19 = ptrtoint i8* %18 to i32, !dbg !861
  %20 = ptrtoint i8* %12 to i32, !dbg !861
  %21 = add i32 %19, 1, !dbg !861
  %22 = sub i32 %21, %20, !dbg !862
  %23 = sext i32 %22 to i64, !dbg !863
  %24 = tail call i32 @halide_msan_annotate_memory_is_initialized(i8* %1, i8* nonnull %12, i64 %23) #7, !dbg !864
  tail call void @halide_print(i8* %1, i8* nonnull %12) #7, !dbg !865
  br label %25

25:                                               ; preds = %16, %14
  tail call void @free(i8* %12) #7, !dbg !869
  br label %26

26:                                               ; preds = %25, %8
  ret void, !dbg !872
}

; Function Attrs: nounwind mustprogress
define weak dso_local void @_ZN6Halide7Runtime8Internal16make_buffer_copyEPK15halide_buffer_tbS4_b(%"struct.Halide::Runtime::Internal::device_copy"* noalias sret(%"struct.Halide::Runtime::Internal::device_copy") align 8 %0, %struct.halide_buffer_t* %1, i1 zeroext %2, %struct.halide_buffer_t* %3, i1 zeroext %4) local_unnamed_addr #0 !dbg !873 {
  %6 = alloca %"struct.Halide::Runtime::Internal::device_copy", align 8
  call void @llvm.dbg.value(metadata %struct.halide_buffer_t* %1, metadata !878, metadata !DIExpression()), !dbg !905
  call void @llvm.dbg.value(metadata i1 %2, metadata !879, metadata !DIExpression(DW_OP_LLVM_convert, 1, DW_ATE_unsigned, DW_OP_LLVM_convert, 8, DW_ATE_unsigned, DW_OP_stack_value)), !dbg !905
  call void @llvm.dbg.value(metadata %struct.halide_buffer_t* %3, metadata !880, metadata !DIExpression()), !dbg !905
  call void @llvm.dbg.value(metadata i1 %4, metadata !881, metadata !DIExpression(DW_OP_LLVM_convert, 1, DW_ATE_unsigned, DW_OP_LLVM_convert, 8, DW_ATE_unsigned, DW_OP_stack_value)), !dbg !905
  %7 = bitcast %"struct.Halide::Runtime::Internal::device_copy"* %6 to i8*, !dbg !906
  call void @llvm.lifetime.start.p0i8(i64 416, i8* nonnull %7) #9, !dbg !906
  call void @llvm.dbg.declare(metadata %"struct.Halide::Runtime::Internal::device_copy"* %6, metadata !882, metadata !DIExpression()), !dbg !907
  br i1 %2, label %8, label %13, !dbg !908

8:                                                ; preds = %5
  %9 = getelementptr inbounds %struct.halide_buffer_t, %struct.halide_buffer_t* %1, i32 0, i32 2, !dbg !909
  %10 = load i8*, i8** %9, align 4, !dbg !909, !tbaa !910
  %11 = ptrtoint i8* %10 to i32, !dbg !917
  %12 = zext i32 %11 to i64, !dbg !917
  br label %16, !dbg !908

13:                                               ; preds = %5
  %14 = getelementptr inbounds %struct.halide_buffer_t, %struct.halide_buffer_t* %1, i32 0, i32 0, !dbg !918
  %15 = load i64, i64* %14, align 8, !dbg !918, !tbaa !919
  br label %16, !dbg !908

16:                                               ; preds = %13, %8
  %17 = phi i64 [ %12, %8 ], [ %15, %13 ], !dbg !908
  %18 = getelementptr inbounds %"struct.Halide::Runtime::Internal::device_copy", %"struct.Halide::Runtime::Internal::device_copy"* %6, i32 0, i32 0, !dbg !920
  store i64 %17, i64* %18, align 8, !dbg !921, !tbaa !770
  br i1 %4, label %19, label %24, !dbg !922

19:                                               ; preds = %16
  %20 = getelementptr inbounds %struct.halide_buffer_t, %struct.halide_buffer_t* %3, i32 0, i32 2, !dbg !923
  %21 = load i8*, i8** %20, align 4, !dbg !923, !tbaa !910
  %22 = ptrtoint i8* %21 to i32, !dbg !924
  %23 = zext i32 %22 to i64, !dbg !924
  br label %27, !dbg !922

24:                                               ; preds = %16
  %25 = getelementptr inbounds %struct.halide_buffer_t, %struct.halide_buffer_t* %3, i32 0, i32 0, !dbg !925
  %26 = load i64, i64* %25, align 8, !dbg !925, !tbaa !919
  br label %27, !dbg !922

27:                                               ; preds = %24, %19
  %28 = phi i64 [ %23, %19 ], [ %26, %24 ], !dbg !922
  %29 = getelementptr inbounds %"struct.Halide::Runtime::Internal::device_copy", %"struct.Halide::Runtime::Internal::device_copy"* %6, i32 0, i32 1, !dbg !926
  store i64 %28, i64* %29, align 8, !dbg !927, !tbaa !776
  call void @llvm.dbg.value(metadata %struct.halide_buffer_t* %1, metadata !928, metadata !DIExpression(DW_OP_plus_uconst, 24, DW_OP_stack_value)), !dbg !932
  %30 = getelementptr inbounds %struct.halide_buffer_t, %struct.halide_buffer_t* %1, i32 0, i32 4, i32 1, !dbg !934
  %31 = load i8, i8* %30, align 1, !dbg !934, !tbaa !935
  %32 = zext i8 %31 to i32, !dbg !934
  %33 = add nuw nsw i32 %32, 7, !dbg !936
  %34 = lshr i32 %33, 3, !dbg !937
  %35 = zext i32 %34 to i64, !dbg !938
  %36 = getelementptr inbounds %"struct.Halide::Runtime::Internal::device_copy", %"struct.Halide::Runtime::Internal::device_copy"* %6, i32 0, i32 6, !dbg !939
  store i64 %35, i64* %36, align 8, !dbg !940, !tbaa !780
  call void @llvm.dbg.value(metadata i32 0, metadata !883, metadata !DIExpression()), !dbg !941
  call void @llvm.dbg.value(metadata i32 0, metadata !883, metadata !DIExpression()), !dbg !941
  %37 = getelementptr inbounds %"struct.Halide::Runtime::Internal::device_copy", %"struct.Halide::Runtime::Internal::device_copy"* %6, i32 0, i32 3, i32 0, !dbg !942
  store i64 1, i64* %37, align 8, !dbg !945, !tbaa !751
  %38 = getelementptr inbounds %"struct.Halide::Runtime::Internal::device_copy", %"struct.Halide::Runtime::Internal::device_copy"* %6, i32 0, i32 4, i32 0, !dbg !946
  store i64 0, i64* %38, align 8, !dbg !947, !tbaa !751
  %39 = getelementptr inbounds %"struct.Halide::Runtime::Internal::device_copy", %"struct.Halide::Runtime::Internal::device_copy"* %6, i32 0, i32 5, i32 0, !dbg !948
  store i64 0, i64* %39, align 8, !dbg !949, !tbaa !751
  call void @llvm.dbg.value(metadata i32 1, metadata !883, metadata !DIExpression()), !dbg !941
  call void @llvm.dbg.value(metadata i32 1, metadata !883, metadata !DIExpression()), !dbg !941
  %40 = getelementptr inbounds %"struct.Halide::Runtime::Internal::device_copy", %"struct.Halide::Runtime::Internal::device_copy"* %6, i32 0, i32 3, i32 1, !dbg !942
  store i64 1, i64* %40, align 8, !dbg !945, !tbaa !751
  %41 = getelementptr inbounds %"struct.Halide::Runtime::Internal::device_copy", %"struct.Halide::Runtime::Internal::device_copy"* %6, i32 0, i32 4, i32 1, !dbg !946
  store i64 0, i64* %41, align 8, !dbg !947, !tbaa !751
  %42 = getelementptr inbounds %"struct.Halide::Runtime::Internal::device_copy", %"struct.Halide::Runtime::Internal::device_copy"* %6, i32 0, i32 5, i32 1, !dbg !948
  store i64 0, i64* %42, align 8, !dbg !949, !tbaa !751
  call void @llvm.dbg.value(metadata i32 2, metadata !883, metadata !DIExpression()), !dbg !941
  call void @llvm.dbg.value(metadata i32 2, metadata !883, metadata !DIExpression()), !dbg !941
  %43 = getelementptr inbounds %"struct.Halide::Runtime::Internal::device_copy", %"struct.Halide::Runtime::Internal::device_copy"* %6, i32 0, i32 3, i32 2, !dbg !942
  store i64 1, i64* %43, align 8, !dbg !945, !tbaa !751
  %44 = getelementptr inbounds %"struct.Halide::Runtime::Internal::device_copy", %"struct.Halide::Runtime::Internal::device_copy"* %6, i32 0, i32 4, i32 2, !dbg !946
  store i64 0, i64* %44, align 8, !dbg !947, !tbaa !751
  %45 = getelementptr inbounds %"struct.Halide::Runtime::Internal::device_copy", %"struct.Halide::Runtime::Internal::device_copy"* %6, i32 0, i32 5, i32 2, !dbg !948
  store i64 0, i64* %45, align 8, !dbg !949, !tbaa !751
  call void @llvm.dbg.value(metadata i32 3, metadata !883, metadata !DIExpression()), !dbg !941
  call void @llvm.dbg.value(metadata i32 3, metadata !883, metadata !DIExpression()), !dbg !941
  %46 = getelementptr inbounds %"struct.Halide::Runtime::Internal::device_copy", %"struct.Halide::Runtime::Internal::device_copy"* %6, i32 0, i32 3, i32 3, !dbg !942
  store i64 1, i64* %46, align 8, !dbg !945, !tbaa !751
  %47 = getelementptr inbounds %"struct.Halide::Runtime::Internal::device_copy", %"struct.Halide::Runtime::Internal::device_copy"* %6, i32 0, i32 4, i32 3, !dbg !946
  store i64 0, i64* %47, align 8, !dbg !947, !tbaa !751
  %48 = getelementptr inbounds %"struct.Halide::Runtime::Internal::device_copy", %"struct.Halide::Runtime::Internal::device_copy"* %6, i32 0, i32 5, i32 3, !dbg !948
  store i64 0, i64* %48, align 8, !dbg !949, !tbaa !751
  call void @llvm.dbg.value(metadata i32 4, metadata !883, metadata !DIExpression()), !dbg !941
  call void @llvm.dbg.value(metadata i32 4, metadata !883, metadata !DIExpression()), !dbg !941
  %49 = getelementptr inbounds %"struct.Halide::Runtime::Internal::device_copy", %"struct.Halide::Runtime::Internal::device_copy"* %6, i32 0, i32 3, i32 4, !dbg !942
  store i64 1, i64* %49, align 8, !dbg !945, !tbaa !751
  %50 = getelementptr inbounds %"struct.Halide::Runtime::Internal::device_copy", %"struct.Halide::Runtime::Internal::device_copy"* %6, i32 0, i32 4, i32 4, !dbg !946
  store i64 0, i64* %50, align 8, !dbg !947, !tbaa !751
  %51 = getelementptr inbounds %"struct.Halide::Runtime::Internal::device_copy", %"struct.Halide::Runtime::Internal::device_copy"* %6, i32 0, i32 5, i32 4, !dbg !948
  store i64 0, i64* %51, align 8, !dbg !949, !tbaa !751
  call void @llvm.dbg.value(metadata i32 5, metadata !883, metadata !DIExpression()), !dbg !941
  call void @llvm.dbg.value(metadata i32 5, metadata !883, metadata !DIExpression()), !dbg !941
  %52 = getelementptr inbounds %"struct.Halide::Runtime::Internal::device_copy", %"struct.Halide::Runtime::Internal::device_copy"* %6, i32 0, i32 3, i32 5, !dbg !942
  store i64 1, i64* %52, align 8, !dbg !945, !tbaa !751
  %53 = getelementptr inbounds %"struct.Halide::Runtime::Internal::device_copy", %"struct.Halide::Runtime::Internal::device_copy"* %6, i32 0, i32 4, i32 5, !dbg !946
  store i64 0, i64* %53, align 8, !dbg !947, !tbaa !751
  %54 = getelementptr inbounds %"struct.Halide::Runtime::Internal::device_copy", %"struct.Halide::Runtime::Internal::device_copy"* %6, i32 0, i32 5, i32 5, !dbg !948
  store i64 0, i64* %54, align 8, !dbg !949, !tbaa !751
  call void @llvm.dbg.value(metadata i32 6, metadata !883, metadata !DIExpression()), !dbg !941
  call void @llvm.dbg.value(metadata i32 6, metadata !883, metadata !DIExpression()), !dbg !941
  %55 = getelementptr inbounds %"struct.Halide::Runtime::Internal::device_copy", %"struct.Halide::Runtime::Internal::device_copy"* %6, i32 0, i32 3, i32 6, !dbg !942
  store i64 1, i64* %55, align 8, !dbg !945, !tbaa !751
  %56 = getelementptr inbounds %"struct.Halide::Runtime::Internal::device_copy", %"struct.Halide::Runtime::Internal::device_copy"* %6, i32 0, i32 4, i32 6, !dbg !946
  store i64 0, i64* %56, align 8, !dbg !947, !tbaa !751
  %57 = getelementptr inbounds %"struct.Halide::Runtime::Internal::device_copy", %"struct.Halide::Runtime::Internal::device_copy"* %6, i32 0, i32 5, i32 6, !dbg !948
  store i64 0, i64* %57, align 8, !dbg !949, !tbaa !751
  call void @llvm.dbg.value(metadata i32 7, metadata !883, metadata !DIExpression()), !dbg !941
  call void @llvm.dbg.value(metadata i32 7, metadata !883, metadata !DIExpression()), !dbg !941
  %58 = getelementptr inbounds %"struct.Halide::Runtime::Internal::device_copy", %"struct.Halide::Runtime::Internal::device_copy"* %6, i32 0, i32 3, i32 7, !dbg !942
  store i64 1, i64* %58, align 8, !dbg !945, !tbaa !751
  %59 = getelementptr inbounds %"struct.Halide::Runtime::Internal::device_copy", %"struct.Halide::Runtime::Internal::device_copy"* %6, i32 0, i32 4, i32 7, !dbg !946
  store i64 0, i64* %59, align 8, !dbg !947, !tbaa !751
  %60 = getelementptr inbounds %"struct.Halide::Runtime::Internal::device_copy", %"struct.Halide::Runtime::Internal::device_copy"* %6, i32 0, i32 5, i32 7, !dbg !948
  store i64 0, i64* %60, align 8, !dbg !949, !tbaa !751
  call void @llvm.dbg.value(metadata i32 8, metadata !883, metadata !DIExpression()), !dbg !941
  call void @llvm.dbg.value(metadata i32 8, metadata !883, metadata !DIExpression()), !dbg !941
  %61 = getelementptr inbounds %"struct.Halide::Runtime::Internal::device_copy", %"struct.Halide::Runtime::Internal::device_copy"* %6, i32 0, i32 3, i32 8, !dbg !942
  store i64 1, i64* %61, align 8, !dbg !945, !tbaa !751
  %62 = getelementptr inbounds %"struct.Halide::Runtime::Internal::device_copy", %"struct.Halide::Runtime::Internal::device_copy"* %6, i32 0, i32 4, i32 8, !dbg !946
  store i64 0, i64* %62, align 8, !dbg !947, !tbaa !751
  %63 = getelementptr inbounds %"struct.Halide::Runtime::Internal::device_copy", %"struct.Halide::Runtime::Internal::device_copy"* %6, i32 0, i32 5, i32 8, !dbg !948
  store i64 0, i64* %63, align 8, !dbg !949, !tbaa !751
  call void @llvm.dbg.value(metadata i32 9, metadata !883, metadata !DIExpression()), !dbg !941
  call void @llvm.dbg.value(metadata i32 9, metadata !883, metadata !DIExpression()), !dbg !941
  %64 = getelementptr inbounds %"struct.Halide::Runtime::Internal::device_copy", %"struct.Halide::Runtime::Internal::device_copy"* %6, i32 0, i32 3, i32 9, !dbg !942
  store i64 1, i64* %64, align 8, !dbg !945, !tbaa !751
  %65 = getelementptr inbounds %"struct.Halide::Runtime::Internal::device_copy", %"struct.Halide::Runtime::Internal::device_copy"* %6, i32 0, i32 4, i32 9, !dbg !946
  store i64 0, i64* %65, align 8, !dbg !947, !tbaa !751
  %66 = getelementptr inbounds %"struct.Halide::Runtime::Internal::device_copy", %"struct.Halide::Runtime::Internal::device_copy"* %6, i32 0, i32 5, i32 9, !dbg !948
  store i64 0, i64* %66, align 8, !dbg !949, !tbaa !751
  call void @llvm.dbg.value(metadata i32 10, metadata !883, metadata !DIExpression()), !dbg !941
  call void @llvm.dbg.value(metadata i32 10, metadata !883, metadata !DIExpression()), !dbg !941
  %67 = getelementptr inbounds %"struct.Halide::Runtime::Internal::device_copy", %"struct.Halide::Runtime::Internal::device_copy"* %6, i32 0, i32 3, i32 10, !dbg !942
  store i64 1, i64* %67, align 8, !dbg !945, !tbaa !751
  %68 = getelementptr inbounds %"struct.Halide::Runtime::Internal::device_copy", %"struct.Halide::Runtime::Internal::device_copy"* %6, i32 0, i32 4, i32 10, !dbg !946
  store i64 0, i64* %68, align 8, !dbg !947, !tbaa !751
  %69 = getelementptr inbounds %"struct.Halide::Runtime::Internal::device_copy", %"struct.Halide::Runtime::Internal::device_copy"* %6, i32 0, i32 5, i32 10, !dbg !948
  store i64 0, i64* %69, align 8, !dbg !949, !tbaa !751
  call void @llvm.dbg.value(metadata i32 11, metadata !883, metadata !DIExpression()), !dbg !941
  call void @llvm.dbg.value(metadata i32 11, metadata !883, metadata !DIExpression()), !dbg !941
  %70 = getelementptr inbounds %"struct.Halide::Runtime::Internal::device_copy", %"struct.Halide::Runtime::Internal::device_copy"* %6, i32 0, i32 3, i32 11, !dbg !942
  store i64 1, i64* %70, align 8, !dbg !945, !tbaa !751
  %71 = getelementptr inbounds %"struct.Halide::Runtime::Internal::device_copy", %"struct.Halide::Runtime::Internal::device_copy"* %6, i32 0, i32 4, i32 11, !dbg !946
  store i64 0, i64* %71, align 8, !dbg !947, !tbaa !751
  %72 = getelementptr inbounds %"struct.Halide::Runtime::Internal::device_copy", %"struct.Halide::Runtime::Internal::device_copy"* %6, i32 0, i32 5, i32 11, !dbg !948
  store i64 0, i64* %72, align 8, !dbg !949, !tbaa !751
  call void @llvm.dbg.value(metadata i32 12, metadata !883, metadata !DIExpression()), !dbg !941
  call void @llvm.dbg.value(metadata i32 12, metadata !883, metadata !DIExpression()), !dbg !941
  %73 = getelementptr inbounds %"struct.Halide::Runtime::Internal::device_copy", %"struct.Halide::Runtime::Internal::device_copy"* %6, i32 0, i32 3, i32 12, !dbg !942
  store i64 1, i64* %73, align 8, !dbg !945, !tbaa !751
  %74 = getelementptr inbounds %"struct.Halide::Runtime::Internal::device_copy", %"struct.Halide::Runtime::Internal::device_copy"* %6, i32 0, i32 4, i32 12, !dbg !946
  store i64 0, i64* %74, align 8, !dbg !947, !tbaa !751
  %75 = getelementptr inbounds %"struct.Halide::Runtime::Internal::device_copy", %"struct.Halide::Runtime::Internal::device_copy"* %6, i32 0, i32 5, i32 12, !dbg !948
  store i64 0, i64* %75, align 8, !dbg !949, !tbaa !751
  call void @llvm.dbg.value(metadata i32 13, metadata !883, metadata !DIExpression()), !dbg !941
  call void @llvm.dbg.value(metadata i32 13, metadata !883, metadata !DIExpression()), !dbg !941
  %76 = getelementptr inbounds %"struct.Halide::Runtime::Internal::device_copy", %"struct.Halide::Runtime::Internal::device_copy"* %6, i32 0, i32 3, i32 13, !dbg !942
  store i64 1, i64* %76, align 8, !dbg !945, !tbaa !751
  %77 = getelementptr inbounds %"struct.Halide::Runtime::Internal::device_copy", %"struct.Halide::Runtime::Internal::device_copy"* %6, i32 0, i32 4, i32 13, !dbg !946
  store i64 0, i64* %77, align 8, !dbg !947, !tbaa !751
  %78 = getelementptr inbounds %"struct.Halide::Runtime::Internal::device_copy", %"struct.Halide::Runtime::Internal::device_copy"* %6, i32 0, i32 5, i32 13, !dbg !948
  store i64 0, i64* %78, align 8, !dbg !949, !tbaa !751
  call void @llvm.dbg.value(metadata i32 14, metadata !883, metadata !DIExpression()), !dbg !941
  call void @llvm.dbg.value(metadata i32 14, metadata !883, metadata !DIExpression()), !dbg !941
  %79 = getelementptr inbounds %"struct.Halide::Runtime::Internal::device_copy", %"struct.Halide::Runtime::Internal::device_copy"* %6, i32 0, i32 3, i32 14, !dbg !942
  store i64 1, i64* %79, align 8, !dbg !945, !tbaa !751
  %80 = getelementptr inbounds %"struct.Halide::Runtime::Internal::device_copy", %"struct.Halide::Runtime::Internal::device_copy"* %6, i32 0, i32 4, i32 14, !dbg !946
  store i64 0, i64* %80, align 8, !dbg !947, !tbaa !751
  %81 = getelementptr inbounds %"struct.Halide::Runtime::Internal::device_copy", %"struct.Halide::Runtime::Internal::device_copy"* %6, i32 0, i32 5, i32 14, !dbg !948
  store i64 0, i64* %81, align 8, !dbg !949, !tbaa !751
  call void @llvm.dbg.value(metadata i32 15, metadata !883, metadata !DIExpression()), !dbg !941
  call void @llvm.dbg.value(metadata i32 15, metadata !883, metadata !DIExpression()), !dbg !941
  %82 = getelementptr inbounds %"struct.Halide::Runtime::Internal::device_copy", %"struct.Halide::Runtime::Internal::device_copy"* %6, i32 0, i32 3, i32 15, !dbg !942
  store i64 1, i64* %82, align 8, !dbg !945, !tbaa !751
  %83 = getelementptr inbounds %"struct.Halide::Runtime::Internal::device_copy", %"struct.Halide::Runtime::Internal::device_copy"* %6, i32 0, i32 4, i32 15, !dbg !946
  store i64 0, i64* %83, align 8, !dbg !947, !tbaa !751
  %84 = getelementptr inbounds %"struct.Halide::Runtime::Internal::device_copy", %"struct.Halide::Runtime::Internal::device_copy"* %6, i32 0, i32 5, i32 15, !dbg !948
  store i64 0, i64* %84, align 8, !dbg !949, !tbaa !751
  call void @llvm.dbg.value(metadata i32 16, metadata !883, metadata !DIExpression()), !dbg !941
  %85 = getelementptr inbounds %"struct.Halide::Runtime::Internal::device_copy", %"struct.Halide::Runtime::Internal::device_copy"* %6, i32 0, i32 2, !dbg !950
  call void @llvm.dbg.value(metadata i32 0, metadata !885, metadata !DIExpression()), !dbg !951
  %86 = getelementptr inbounds %struct.halide_buffer_t, %struct.halide_buffer_t* %1, i32 0, i32 5, !dbg !952
  %87 = load i32, i32* %86, align 4, !dbg !952, !tbaa !954
  %88 = icmp sgt i32 %87, 0, !dbg !955
  br i1 %88, label %89, label %94, !dbg !956

89:                                               ; preds = %27
  %90 = getelementptr inbounds %struct.halide_buffer_t, %struct.halide_buffer_t* %1, i32 0, i32 6
  %91 = load %struct.halide_dimension_t*, %struct.halide_dimension_t** %90, align 8, !tbaa !957
  %92 = getelementptr inbounds %struct.halide_buffer_t, %struct.halide_buffer_t* %3, i32 0, i32 6
  %93 = load %struct.halide_dimension_t*, %struct.halide_dimension_t** %92, align 8, !tbaa !957
  br label %101, !dbg !956

94:                                               ; preds = %101, %27
  %95 = phi i64 [ 0, %27 ], [ %114, %101 ], !dbg !958
  %96 = load i64, i64* %36, align 8, !dbg !959, !tbaa !780
  %97 = mul i64 %95, %96, !dbg !958
  store i64 %97, i64* %85, align 8, !dbg !958, !tbaa !812
  %98 = getelementptr inbounds %struct.halide_buffer_t, %struct.halide_buffer_t* %3, i32 0, i32 5, !dbg !960
  %99 = load i32, i32* %98, align 4, !dbg !960, !tbaa !954
  %100 = icmp eq i32 %87, %99, !dbg !961
  br i1 %100, label %117, label %126, !dbg !962

101:                                              ; preds = %89, %101
  %102 = phi i64 [ 0, %89 ], [ %114, %101 ], !dbg !951
  %103 = phi i32 [ 0, %89 ], [ %115, %101 ]
  call void @llvm.dbg.value(metadata i32 %103, metadata !885, metadata !DIExpression()), !dbg !951
  %104 = getelementptr inbounds %struct.halide_dimension_t, %struct.halide_dimension_t* %91, i32 %103, i32 2, !dbg !963
  %105 = load i32, i32* %104, align 4, !dbg !963, !tbaa !965
  %106 = sext i32 %105 to i64, !dbg !967
  %107 = getelementptr inbounds %struct.halide_dimension_t, %struct.halide_dimension_t* %93, i32 %103, i32 0, !dbg !968
  %108 = load i32, i32* %107, align 4, !dbg !968, !tbaa !969
  %109 = getelementptr inbounds %struct.halide_dimension_t, %struct.halide_dimension_t* %91, i32 %103, i32 0, !dbg !970
  %110 = load i32, i32* %109, align 4, !dbg !970, !tbaa !969
  %111 = sub nsw i32 %108, %110, !dbg !971
  %112 = sext i32 %111 to i64, !dbg !972
  %113 = mul nsw i64 %112, %106, !dbg !973
  %114 = add i64 %113, %102, !dbg !974
  %115 = add nuw nsw i32 %103, 1, !dbg !975
  call void @llvm.dbg.value(metadata i32 %115, metadata !885, metadata !DIExpression()), !dbg !951
  %116 = icmp slt i32 %115, %87, !dbg !955
  br i1 %116, label %101, label %94, !dbg !956, !llvm.loop !976

117:                                              ; preds = %94
  call void @llvm.dbg.value(metadata %struct.halide_buffer_t* %1, metadata !928, metadata !DIExpression(DW_OP_plus_uconst, 24, DW_OP_stack_value)), !dbg !978
  call void @llvm.dbg.value(metadata %struct.halide_buffer_t* %3, metadata !928, metadata !DIExpression(DW_OP_plus_uconst, 24, DW_OP_stack_value)), !dbg !980
  %118 = getelementptr inbounds %struct.halide_buffer_t, %struct.halide_buffer_t* %3, i32 0, i32 4, i32 1, !dbg !982
  %119 = load i8, i8* %118, align 1, !dbg !982, !tbaa !935
  %120 = zext i8 %119 to i32, !dbg !982
  %121 = add nuw nsw i32 %120, 7, !dbg !983
  %122 = lshr i32 %121, 3, !dbg !984
  %123 = icmp ne i32 %34, %122, !dbg !985
  %124 = icmp sgt i32 %87, 16
  %125 = or i1 %124, %123, !dbg !986
  br i1 %125, label %126, label %128, !dbg !986

126:                                              ; preds = %117, %94
  call void @llvm.dbg.declare(metadata %"struct.Halide::Runtime::Internal::device_copy"* %0, metadata !887, metadata !DIExpression()), !dbg !987
  %127 = bitcast %"struct.Halide::Runtime::Internal::device_copy"* %0 to i8*, !dbg !987
  tail call void @llvm.memset.p0i8.i32(i8* nonnull align 8 dereferenceable(416) %127, i8 0, i32 416, i1 false), !dbg !987
  br label %245, !dbg !988

128:                                              ; preds = %117
  %129 = icmp eq i64 %96, 0, !dbg !989
  br i1 %129, label %136, label %130, !dbg !990

130:                                              ; preds = %128
  call void @llvm.dbg.value(metadata i32 0, metadata !893, metadata !DIExpression()), !dbg !991
  br i1 %88, label %131, label %243, !dbg !992

131:                                              ; preds = %130
  %132 = getelementptr inbounds %struct.halide_buffer_t, %struct.halide_buffer_t* %3, i32 0, i32 6
  %133 = load %struct.halide_dimension_t*, %struct.halide_dimension_t** %132, align 8, !tbaa !957
  %134 = getelementptr inbounds %struct.halide_buffer_t, %struct.halide_buffer_t* %1, i32 0, i32 6
  %135 = load %struct.halide_dimension_t*, %struct.halide_dimension_t** %134, align 8, !tbaa !957
  br label %144, !dbg !992

136:                                              ; preds = %128
  call void @llvm.dbg.declare(metadata %"struct.Halide::Runtime::Internal::device_copy"* %0, metadata !890, metadata !DIExpression()), !dbg !993
  %137 = bitcast %"struct.Halide::Runtime::Internal::device_copy"* %0 to i8*, !dbg !993
  tail call void @llvm.memset.p0i8.i32(i8* nonnull align 8 dereferenceable(416) %137, i8 0, i32 416, i1 false), !dbg !993
  br label %245, !dbg !994

138:                                              ; preds = %168
  %139 = load i64, i64* %36, align 8, !dbg !995, !tbaa !780
  %140 = load i64, i64* %38, align 8, !dbg !996, !tbaa !751
  %141 = icmp eq i64 %139, %140, !dbg !997
  br i1 %141, label %142, label %243, !dbg !998

142:                                              ; preds = %138
  %143 = load i64, i64* %39, align 8, !dbg !999, !tbaa !751
  br label %190, !dbg !998

144:                                              ; preds = %131, %168
  %145 = phi i32 [ 0, %131 ], [ %175, %168 ]
  call void @llvm.dbg.value(metadata i32 %145, metadata !893, metadata !DIExpression()), !dbg !991
  %146 = getelementptr inbounds %struct.halide_dimension_t, %struct.halide_dimension_t* %133, i32 %145, i32 2, !dbg !1000
  %147 = load i32, i32* %146, align 4, !dbg !1000, !tbaa !965
  %148 = sext i32 %147 to i64, !dbg !1001
  call void @llvm.dbg.value(metadata %struct.halide_buffer_t* %3, metadata !928, metadata !DIExpression(DW_OP_plus_uconst, 24, DW_OP_stack_value)), !dbg !1002
  %149 = mul nsw i64 %148, %35, !dbg !1004
  call void @llvm.dbg.value(metadata i64 %149, metadata !895, metadata !DIExpression()), !dbg !1005
  %150 = getelementptr inbounds %struct.halide_dimension_t, %struct.halide_dimension_t* %135, i32 %145, i32 2, !dbg !1006
  %151 = load i32, i32* %150, align 4, !dbg !1006, !tbaa !965
  %152 = sext i32 %151 to i64, !dbg !1007
  call void @llvm.dbg.value(metadata %struct.halide_buffer_t* %1, metadata !928, metadata !DIExpression(DW_OP_plus_uconst, 24, DW_OP_stack_value)), !dbg !1008
  %153 = mul nsw i64 %152, %35, !dbg !1010
  call void @llvm.dbg.value(metadata i64 %153, metadata !898, metadata !DIExpression()), !dbg !1005
  call void @llvm.dbg.value(metadata i32 0, metadata !899, metadata !DIExpression()), !dbg !1005
  %154 = icmp eq i32 %145, 0, !dbg !1011
  br i1 %154, label %165, label %155, !dbg !1014

155:                                              ; preds = %144
  %156 = icmp eq i64 %149, 0
  br i1 %156, label %165, label %157, !dbg !1014

157:                                              ; preds = %155, %162
  %158 = phi i32 [ %163, %162 ], [ 0, %155 ]
  call void @llvm.dbg.value(metadata i32 %158, metadata !899, metadata !DIExpression()), !dbg !1005
  %159 = getelementptr inbounds %"struct.Halide::Runtime::Internal::device_copy", %"struct.Halide::Runtime::Internal::device_copy"* %6, i32 0, i32 5, i32 %158, !dbg !1015
  %160 = load i64, i64* %159, align 8, !dbg !1015, !tbaa !751
  %161 = icmp ult i64 %149, %160, !dbg !1018
  br i1 %161, label %165, label %162, !dbg !1019

162:                                              ; preds = %157
  %163 = add nuw nsw i32 %158, 1, !dbg !1020
  call void @llvm.dbg.value(metadata i32 %163, metadata !899, metadata !DIExpression()), !dbg !1005
  %164 = icmp ult i32 %163, %145, !dbg !1011
  br i1 %164, label %157, label %165, !dbg !1014, !llvm.loop !1021

165:                                              ; preds = %162, %157, %155, %144
  %166 = phi i32 [ 0, %144 ], [ %145, %155 ], [ %158, %157 ], [ %145, %162 ], !dbg !1023
  call void @llvm.dbg.value(metadata i32 %145, metadata !900, metadata !DIExpression()), !dbg !1024
  %167 = icmp ugt i32 %145, %166, !dbg !1025
  br i1 %167, label %177, label %168, !dbg !1027

168:                                              ; preds = %177, %165
  %169 = getelementptr inbounds %struct.halide_dimension_t, %struct.halide_dimension_t* %133, i32 %145, i32 1, !dbg !1028
  %170 = load i32, i32* %169, align 4, !dbg !1028, !tbaa !1029
  %171 = sext i32 %170 to i64, !dbg !1030
  %172 = getelementptr inbounds %"struct.Halide::Runtime::Internal::device_copy", %"struct.Halide::Runtime::Internal::device_copy"* %6, i32 0, i32 3, i32 %166, !dbg !1031
  store i64 %171, i64* %172, align 8, !dbg !1032, !tbaa !751
  %173 = getelementptr inbounds %"struct.Halide::Runtime::Internal::device_copy", %"struct.Halide::Runtime::Internal::device_copy"* %6, i32 0, i32 5, i32 %166, !dbg !1033
  store i64 %149, i64* %173, align 8, !dbg !1034, !tbaa !751
  %174 = getelementptr inbounds %"struct.Halide::Runtime::Internal::device_copy", %"struct.Halide::Runtime::Internal::device_copy"* %6, i32 0, i32 4, i32 %166, !dbg !1035
  store i64 %153, i64* %174, align 8, !dbg !1036, !tbaa !751
  %175 = add nuw nsw i32 %145, 1, !dbg !1037
  call void @llvm.dbg.value(metadata i32 %175, metadata !893, metadata !DIExpression()), !dbg !991
  %176 = icmp slt i32 %175, %87, !dbg !1038
  br i1 %176, label %144, label %138, !dbg !992, !llvm.loop !1039

177:                                              ; preds = %165, %177
  %178 = phi i32 [ %179, %177 ], [ %145, %165 ]
  call void @llvm.dbg.value(metadata i32 %178, metadata !900, metadata !DIExpression()), !dbg !1024
  %179 = add nsw i32 %178, -1, !dbg !1041
  %180 = getelementptr inbounds %"struct.Halide::Runtime::Internal::device_copy", %"struct.Halide::Runtime::Internal::device_copy"* %6, i32 0, i32 3, i32 %179, !dbg !1043
  %181 = load i64, i64* %180, align 8, !dbg !1043, !tbaa !751
  %182 = getelementptr inbounds %"struct.Halide::Runtime::Internal::device_copy", %"struct.Halide::Runtime::Internal::device_copy"* %6, i32 0, i32 3, i32 %178, !dbg !1044
  store i64 %181, i64* %182, align 8, !dbg !1045, !tbaa !751
  %183 = getelementptr inbounds %"struct.Halide::Runtime::Internal::device_copy", %"struct.Halide::Runtime::Internal::device_copy"* %6, i32 0, i32 5, i32 %179, !dbg !1046
  %184 = load i64, i64* %183, align 8, !dbg !1046, !tbaa !751
  %185 = getelementptr inbounds %"struct.Halide::Runtime::Internal::device_copy", %"struct.Halide::Runtime::Internal::device_copy"* %6, i32 0, i32 5, i32 %178, !dbg !1047
  store i64 %184, i64* %185, align 8, !dbg !1048, !tbaa !751
  %186 = getelementptr inbounds %"struct.Halide::Runtime::Internal::device_copy", %"struct.Halide::Runtime::Internal::device_copy"* %6, i32 0, i32 4, i32 %179, !dbg !1049
  %187 = load i64, i64* %186, align 8, !dbg !1049, !tbaa !751
  %188 = getelementptr inbounds %"struct.Halide::Runtime::Internal::device_copy", %"struct.Halide::Runtime::Internal::device_copy"* %6, i32 0, i32 4, i32 %178, !dbg !1050
  store i64 %187, i64* %188, align 8, !dbg !1051, !tbaa !751
  call void @llvm.dbg.value(metadata i32 %179, metadata !900, metadata !DIExpression()), !dbg !1024
  %189 = icmp sgt i32 %179, %166, !dbg !1025
  br i1 %189, label %177, label %168, !dbg !1027, !llvm.loop !1052

190:                                              ; preds = %142, %194
  %191 = phi i64 [ %143, %142 ], [ %199, %194 ], !dbg !999
  %192 = phi i64 [ %140, %142 ], [ %196, %194 ]
  %193 = icmp eq i64 %192, %191, !dbg !1054
  br i1 %193, label %194, label %243, !dbg !1055

194:                                              ; preds = %190
  %195 = load i64, i64* %37, align 8, !dbg !1056, !tbaa !751
  %196 = mul i64 %195, %191, !dbg !1057
  store i64 %196, i64* %36, align 8, !dbg !1057, !tbaa !780
  call void @llvm.dbg.value(metadata i32 1, metadata !902, metadata !DIExpression()), !dbg !1058
  %197 = load i64, i64* %40, align 8, !dbg !1059, !tbaa !751
  store i64 %197, i64* %37, align 8, !dbg !1062, !tbaa !751
  %198 = load i64, i64* %41, align 8, !dbg !1063, !tbaa !751
  store i64 %198, i64* %38, align 8, !dbg !1064, !tbaa !751
  %199 = load i64, i64* %42, align 8, !dbg !1065, !tbaa !751
  store i64 %199, i64* %39, align 8, !dbg !1066, !tbaa !751
  call void @llvm.dbg.value(metadata i32 2, metadata !902, metadata !DIExpression()), !dbg !1058
  %200 = load i64, i64* %43, align 8, !dbg !1059, !tbaa !751
  store i64 %200, i64* %40, align 8, !dbg !1062, !tbaa !751
  %201 = load i64, i64* %44, align 8, !dbg !1063, !tbaa !751
  store i64 %201, i64* %41, align 8, !dbg !1064, !tbaa !751
  %202 = load i64, i64* %45, align 8, !dbg !1065, !tbaa !751
  store i64 %202, i64* %42, align 8, !dbg !1066, !tbaa !751
  call void @llvm.dbg.value(metadata i32 3, metadata !902, metadata !DIExpression()), !dbg !1058
  %203 = load i64, i64* %46, align 8, !dbg !1059, !tbaa !751
  store i64 %203, i64* %43, align 8, !dbg !1062, !tbaa !751
  %204 = load i64, i64* %47, align 8, !dbg !1063, !tbaa !751
  store i64 %204, i64* %44, align 8, !dbg !1064, !tbaa !751
  %205 = load i64, i64* %48, align 8, !dbg !1065, !tbaa !751
  store i64 %205, i64* %45, align 8, !dbg !1066, !tbaa !751
  call void @llvm.dbg.value(metadata i32 4, metadata !902, metadata !DIExpression()), !dbg !1058
  %206 = load i64, i64* %49, align 8, !dbg !1059, !tbaa !751
  store i64 %206, i64* %46, align 8, !dbg !1062, !tbaa !751
  %207 = load i64, i64* %50, align 8, !dbg !1063, !tbaa !751
  store i64 %207, i64* %47, align 8, !dbg !1064, !tbaa !751
  %208 = load i64, i64* %51, align 8, !dbg !1065, !tbaa !751
  store i64 %208, i64* %48, align 8, !dbg !1066, !tbaa !751
  call void @llvm.dbg.value(metadata i32 5, metadata !902, metadata !DIExpression()), !dbg !1058
  %209 = load i64, i64* %52, align 8, !dbg !1059, !tbaa !751
  store i64 %209, i64* %49, align 8, !dbg !1062, !tbaa !751
  %210 = load i64, i64* %53, align 8, !dbg !1063, !tbaa !751
  store i64 %210, i64* %50, align 8, !dbg !1064, !tbaa !751
  %211 = load i64, i64* %54, align 8, !dbg !1065, !tbaa !751
  store i64 %211, i64* %51, align 8, !dbg !1066, !tbaa !751
  call void @llvm.dbg.value(metadata i32 6, metadata !902, metadata !DIExpression()), !dbg !1058
  %212 = load i64, i64* %55, align 8, !dbg !1059, !tbaa !751
  store i64 %212, i64* %52, align 8, !dbg !1062, !tbaa !751
  %213 = load i64, i64* %56, align 8, !dbg !1063, !tbaa !751
  store i64 %213, i64* %53, align 8, !dbg !1064, !tbaa !751
  %214 = load i64, i64* %57, align 8, !dbg !1065, !tbaa !751
  store i64 %214, i64* %54, align 8, !dbg !1066, !tbaa !751
  call void @llvm.dbg.value(metadata i32 7, metadata !902, metadata !DIExpression()), !dbg !1058
  %215 = load i64, i64* %58, align 8, !dbg !1059, !tbaa !751
  store i64 %215, i64* %55, align 8, !dbg !1062, !tbaa !751
  %216 = load i64, i64* %59, align 8, !dbg !1063, !tbaa !751
  store i64 %216, i64* %56, align 8, !dbg !1064, !tbaa !751
  %217 = load i64, i64* %60, align 8, !dbg !1065, !tbaa !751
  store i64 %217, i64* %57, align 8, !dbg !1066, !tbaa !751
  call void @llvm.dbg.value(metadata i32 8, metadata !902, metadata !DIExpression()), !dbg !1058
  %218 = load i64, i64* %61, align 8, !dbg !1059, !tbaa !751
  store i64 %218, i64* %58, align 8, !dbg !1062, !tbaa !751
  %219 = load i64, i64* %62, align 8, !dbg !1063, !tbaa !751
  store i64 %219, i64* %59, align 8, !dbg !1064, !tbaa !751
  %220 = load i64, i64* %63, align 8, !dbg !1065, !tbaa !751
  store i64 %220, i64* %60, align 8, !dbg !1066, !tbaa !751
  call void @llvm.dbg.value(metadata i32 9, metadata !902, metadata !DIExpression()), !dbg !1058
  %221 = load i64, i64* %64, align 8, !dbg !1059, !tbaa !751
  store i64 %221, i64* %61, align 8, !dbg !1062, !tbaa !751
  %222 = load i64, i64* %65, align 8, !dbg !1063, !tbaa !751
  store i64 %222, i64* %62, align 8, !dbg !1064, !tbaa !751
  %223 = load i64, i64* %66, align 8, !dbg !1065, !tbaa !751
  store i64 %223, i64* %63, align 8, !dbg !1066, !tbaa !751
  call void @llvm.dbg.value(metadata i32 10, metadata !902, metadata !DIExpression()), !dbg !1058
  %224 = load i64, i64* %67, align 8, !dbg !1059, !tbaa !751
  store i64 %224, i64* %64, align 8, !dbg !1062, !tbaa !751
  %225 = load i64, i64* %68, align 8, !dbg !1063, !tbaa !751
  store i64 %225, i64* %65, align 8, !dbg !1064, !tbaa !751
  %226 = load i64, i64* %69, align 8, !dbg !1065, !tbaa !751
  store i64 %226, i64* %66, align 8, !dbg !1066, !tbaa !751
  call void @llvm.dbg.value(metadata i32 11, metadata !902, metadata !DIExpression()), !dbg !1058
  %227 = load i64, i64* %70, align 8, !dbg !1059, !tbaa !751
  store i64 %227, i64* %67, align 8, !dbg !1062, !tbaa !751
  %228 = load i64, i64* %71, align 8, !dbg !1063, !tbaa !751
  store i64 %228, i64* %68, align 8, !dbg !1064, !tbaa !751
  %229 = load i64, i64* %72, align 8, !dbg !1065, !tbaa !751
  store i64 %229, i64* %69, align 8, !dbg !1066, !tbaa !751
  call void @llvm.dbg.value(metadata i32 12, metadata !902, metadata !DIExpression()), !dbg !1058
  %230 = load i64, i64* %73, align 8, !dbg !1059, !tbaa !751
  store i64 %230, i64* %70, align 8, !dbg !1062, !tbaa !751
  %231 = load i64, i64* %74, align 8, !dbg !1063, !tbaa !751
  store i64 %231, i64* %71, align 8, !dbg !1064, !tbaa !751
  %232 = load i64, i64* %75, align 8, !dbg !1065, !tbaa !751
  store i64 %232, i64* %72, align 8, !dbg !1066, !tbaa !751
  call void @llvm.dbg.value(metadata i32 13, metadata !902, metadata !DIExpression()), !dbg !1058
  %233 = load i64, i64* %76, align 8, !dbg !1059, !tbaa !751
  store i64 %233, i64* %73, align 8, !dbg !1062, !tbaa !751
  %234 = load i64, i64* %77, align 8, !dbg !1063, !tbaa !751
  store i64 %234, i64* %74, align 8, !dbg !1064, !tbaa !751
  %235 = load i64, i64* %78, align 8, !dbg !1065, !tbaa !751
  store i64 %235, i64* %75, align 8, !dbg !1066, !tbaa !751
  call void @llvm.dbg.value(metadata i32 14, metadata !902, metadata !DIExpression()), !dbg !1058
  %236 = load i64, i64* %79, align 8, !dbg !1059, !tbaa !751
  store i64 %236, i64* %76, align 8, !dbg !1062, !tbaa !751
  %237 = load i64, i64* %80, align 8, !dbg !1063, !tbaa !751
  store i64 %237, i64* %77, align 8, !dbg !1064, !tbaa !751
  %238 = load i64, i64* %81, align 8, !dbg !1065, !tbaa !751
  store i64 %238, i64* %78, align 8, !dbg !1066, !tbaa !751
  call void @llvm.dbg.value(metadata i32 15, metadata !902, metadata !DIExpression()), !dbg !1058
  %239 = load i64, i64* %82, align 8, !dbg !1059, !tbaa !751
  store i64 %239, i64* %79, align 8, !dbg !1062, !tbaa !751
  %240 = load i64, i64* %83, align 8, !dbg !1063, !tbaa !751
  store i64 %240, i64* %80, align 8, !dbg !1064, !tbaa !751
  %241 = load i64, i64* %84, align 8, !dbg !1065, !tbaa !751
  store i64 %241, i64* %81, align 8, !dbg !1066, !tbaa !751
  call void @llvm.dbg.value(metadata i32 16, metadata !902, metadata !DIExpression()), !dbg !1058
  store i64 1, i64* %82, align 8, !dbg !1067, !tbaa !751
  store i64 0, i64* %83, align 8, !dbg !1068, !tbaa !751
  store i64 0, i64* %84, align 8, !dbg !1069, !tbaa !751
  %242 = icmp eq i64 %196, %198, !dbg !997
  br i1 %242, label %190, label %243, !dbg !998, !llvm.loop !1070

243:                                              ; preds = %190, %194, %130, %138
  %244 = bitcast %"struct.Halide::Runtime::Internal::device_copy"* %0 to i8*, !dbg !1072
  call void @llvm.memcpy.p0i8.p0i8.i32(i8* nonnull align 8 dereferenceable(416) %244, i8* nonnull align 8 dereferenceable(416) %7, i32 416, i1 false), !dbg !1072, !tbaa.struct !1073
  br label %245, !dbg !1074

245:                                              ; preds = %243, %136, %126
  call void @llvm.lifetime.end.p0i8(i64 416, i8* nonnull %7) #9, !dbg !1075
  ret void, !dbg !1075
}

; Function Attrs: argmemonly nofree nosync nounwind willreturn writeonly
declare void @llvm.memset.p0i8.i32(i8* nocapture writeonly, i8, i32, i1 immarg) #5

; Function Attrs: argmemonly nofree nosync nounwind willreturn
declare void @llvm.memcpy.p0i8.p0i8.i32(i8* noalias nocapture writeonly, i8* noalias nocapture readonly, i32, i1 immarg) #2

; Function Attrs: nounwind mustprogress
define weak dso_local void @_ZN6Halide7Runtime8Internal24make_host_to_device_copyEPK15halide_buffer_t(%"struct.Halide::Runtime::Internal::device_copy"* noalias sret(%"struct.Halide::Runtime::Internal::device_copy") align 8 %0, %struct.halide_buffer_t* %1) local_unnamed_addr #0 !dbg !1076 {
  call void @llvm.dbg.value(metadata %struct.halide_buffer_t* %1, metadata !1080, metadata !DIExpression()), !dbg !1081
  tail call void @_ZN6Halide7Runtime8Internal16make_buffer_copyEPK15halide_buffer_tbS4_b(%"struct.Halide::Runtime::Internal::device_copy"* sret(%"struct.Halide::Runtime::Internal::device_copy") align 8 %0, %struct.halide_buffer_t* %1, i1 zeroext true, %struct.halide_buffer_t* %1, i1 zeroext false) #8, !dbg !1082
  ret void, !dbg !1083
}

; Function Attrs: nounwind mustprogress
define weak dso_local void @_ZN6Halide7Runtime8Internal24make_device_to_host_copyEPK15halide_buffer_t(%"struct.Halide::Runtime::Internal::device_copy"* noalias sret(%"struct.Halide::Runtime::Internal::device_copy") align 8 %0, %struct.halide_buffer_t* %1) local_unnamed_addr #0 !dbg !1084 {
  call void @llvm.dbg.value(metadata %struct.halide_buffer_t* %1, metadata !1086, metadata !DIExpression()), !dbg !1087
  tail call void @_ZN6Halide7Runtime8Internal16make_buffer_copyEPK15halide_buffer_tbS4_b(%"struct.Halide::Runtime::Internal::device_copy"* sret(%"struct.Halide::Runtime::Internal::device_copy") align 8 %0, %struct.halide_buffer_t* %1, i1 zeroext false, %struct.halide_buffer_t* %1, i1 zeroext true) #8, !dbg !1088
  ret void, !dbg !1089
}

; Function Attrs: nounwind
define weak dso_local void @_ZN6Halide7Runtime8Internal7Hexagon8poll_logEPv(i8* %0) local_unnamed_addr #4 !dbg !1090 {
  %2 = alloca [1024 x i8], align 1
  %3 = alloca i32, align 4
  call void @llvm.dbg.value(metadata i8* %0, metadata !1092, metadata !DIExpression()), !dbg !1100
  %4 = load i32 (i8*, i32, i32*)*, i32 (i8*, i32, i32*)** @_ZN6Halide7Runtime8Internal7Hexagon15remote_poll_logE, align 4, !dbg !1101, !tbaa !1103
  %5 = icmp eq i32 (i8*, i32, i32*)* %4, null, !dbg !1101
  br i1 %5, label %40, label %6, !dbg !1104

6:                                                ; preds = %1
  %7 = getelementptr inbounds [1024 x i8], [1024 x i8]* %2, i32 0, i32 0, !dbg !1105
  call void @llvm.lifetime.start.p0i8(i64 1024, i8* nonnull %7) #9, !dbg !1105
  call void @llvm.dbg.declare(metadata [1024 x i8]* %2, metadata !1093, metadata !DIExpression()), !dbg !1106
  %8 = bitcast i32* %3 to i8*, !dbg !1107
  call void @llvm.lifetime.start.p0i8(i64 4, i8* nonnull %8) #9, !dbg !1107
  call void @llvm.dbg.value(metadata i32 0, metadata !1098, metadata !DIExpression()), !dbg !1108
  store i32 0, i32* %3, align 4, !dbg !1109, !tbaa !1110
  call void @llvm.dbg.value(metadata i32* %3, metadata !1098, metadata !DIExpression(DW_OP_deref)), !dbg !1108
  %9 = call i32 %4(i8* nonnull %7, i32 1024, i32* nonnull %3) #7, !dbg !1111
  call void @llvm.dbg.value(metadata i32 %9, metadata !1099, metadata !DIExpression()), !dbg !1108
  %10 = icmp eq i32 %9, 0, !dbg !1112
  br i1 %10, label %32, label %11, !dbg !1114

11:                                               ; preds = %35, %6
  %12 = phi i32 [ %9, %6 ], [ %37, %35 ], !dbg !1111
  call void @llvm.dbg.value(metadata %"class.Halide::Runtime::Internal::(anonymous namespace)::Printer"* undef, metadata !815, metadata !DIExpression()) #9, !dbg !1115
  call void @llvm.dbg.value(metadata i8* %0, metadata !818, metadata !DIExpression()) #9, !dbg !1115
  call void @llvm.dbg.value(metadata i8* null, metadata !819, metadata !DIExpression()) #9, !dbg !1115
  %13 = call i8* @malloc(i32 1024) #7, !dbg !1118
  %14 = icmp eq i8* %13, null, !dbg !1119
  br i1 %14, label %17, label %15, !dbg !1120

15:                                               ; preds = %11
  %16 = getelementptr inbounds i8, i8* %13, i32 1023, !dbg !1121
  store i8 0, i8* %16, align 1, !dbg !1122, !tbaa !854
  br label %17, !dbg !1123

17:                                               ; preds = %11, %15
  %18 = phi i8* [ %16, %15 ], [ null, %11 ], !dbg !1124
  call void @llvm.dbg.value(metadata %"class.Halide::Runtime::Internal::(anonymous namespace)::Printer"* undef, metadata !832, metadata !DIExpression()) #9, !dbg !1125
  call void @llvm.dbg.value(metadata i8* getelementptr inbounds ([33 x i8], [33 x i8]* @.str.1, i32 0, i32 0), metadata !835, metadata !DIExpression()) #9, !dbg !1125
  %19 = call i8* @halide_string_to_string(i8* %13, i8* %18, i8* nonnull getelementptr inbounds ([33 x i8], [33 x i8]* @.str.1, i32 0, i32 0)) #7, !dbg !1127
  call void @llvm.dbg.value(metadata %"class.Halide::Runtime::Internal::(anonymous namespace)::Printer"* undef, metadata !1128, metadata !DIExpression()) #9, !dbg !1132
  call void @llvm.dbg.value(metadata i32 %12, metadata !1131, metadata !DIExpression()) #9, !dbg !1132
  %20 = sext i32 %12 to i64, !dbg !1134
  %21 = call i8* @halide_int64_to_string(i8* %19, i8* %18, i64 %20, i32 1) #7, !dbg !1135
  call void @llvm.dbg.value(metadata %"class.Halide::Runtime::Internal::(anonymous namespace)::Printer"* undef, metadata !832, metadata !DIExpression()) #9, !dbg !1136
  call void @llvm.dbg.value(metadata i8* getelementptr inbounds ([2 x i8], [2 x i8]* @.str.2, i32 0, i32 0), metadata !835, metadata !DIExpression()) #9, !dbg !1136
  %22 = call i8* @halide_string_to_string(i8* %21, i8* %18, i8* nonnull getelementptr inbounds ([2 x i8], [2 x i8]* @.str.2, i32 0, i32 0)) #7, !dbg !1138
  call void @llvm.dbg.value(metadata %"class.Halide::Runtime::Internal::(anonymous namespace)::Printer"* undef, metadata !841, metadata !DIExpression()) #9, !dbg !1139
  br i1 %14, label %23, label %24, !dbg !1141

23:                                               ; preds = %17
  call void @halide_error(i8* %0, i8* getelementptr inbounds ([35 x i8], [35 x i8]* @.str.116, i32 0, i32 0)) #7, !dbg !1142
  br label %31, !dbg !1143

24:                                               ; preds = %17
  call void @llvm.dbg.value(metadata %"class.Halide::Runtime::Internal::(anonymous namespace)::Printer"* undef, metadata !855, metadata !DIExpression()) #9, !dbg !1144
  %25 = ptrtoint i8* %22 to i32, !dbg !1146
  %26 = ptrtoint i8* %13 to i32, !dbg !1146
  %27 = add i32 %25, 1, !dbg !1146
  %28 = sub i32 %27, %26, !dbg !1147
  %29 = sext i32 %28 to i64, !dbg !1148
  %30 = call i32 @halide_msan_annotate_memory_is_initialized(i8* %0, i8* nonnull %13, i64 %29) #7, !dbg !1149
  call void @halide_print(i8* %0, i8* nonnull %13) #7, !dbg !1150
  br label %31

31:                                               ; preds = %24, %23
  call void @free(i8* %13) #7, !dbg !1151
  br label %39, !dbg !1152

32:                                               ; preds = %6, %35
  %33 = load i32, i32* %3, align 4, !dbg !1153, !tbaa !1110
  call void @llvm.dbg.value(metadata i32 %33, metadata !1098, metadata !DIExpression()), !dbg !1108
  %34 = icmp sgt i32 %33, 0, !dbg !1155
  br i1 %34, label %35, label %39, !dbg !1156

35:                                               ; preds = %32
  call void @halide_print(i8* %0, i8* nonnull %7) #7, !dbg !1157
  call void @llvm.lifetime.end.p0i8(i64 4, i8* nonnull %8) #9, !dbg !1159
  call void @llvm.lifetime.end.p0i8(i64 1024, i8* nonnull %7) #9, !dbg !1159
  call void @llvm.lifetime.start.p0i8(i64 1024, i8* nonnull %7) #9, !dbg !1105
  call void @llvm.dbg.declare(metadata [1024 x i8]* %2, metadata !1093, metadata !DIExpression()), !dbg !1106
  call void @llvm.lifetime.start.p0i8(i64 4, i8* nonnull %8) #9, !dbg !1107
  call void @llvm.dbg.value(metadata i32 0, metadata !1098, metadata !DIExpression()), !dbg !1108
  store i32 0, i32* %3, align 4, !dbg !1109, !tbaa !1110
  %36 = load i32 (i8*, i32, i32*)*, i32 (i8*, i32, i32*)** @_ZN6Halide7Runtime8Internal7Hexagon15remote_poll_logE, align 4, !dbg !1111, !tbaa !1103
  call void @llvm.dbg.value(metadata i32* %3, metadata !1098, metadata !DIExpression(DW_OP_deref)), !dbg !1108
  %37 = call i32 %36(i8* nonnull %7, i32 1024, i32* nonnull %3) #7, !dbg !1111
  call void @llvm.dbg.value(metadata i32 %37, metadata !1099, metadata !DIExpression()), !dbg !1108
  %38 = icmp eq i32 %37, 0, !dbg !1112
  br i1 %38, label %32, label %11, !dbg !1114

39:                                               ; preds = %32, %31
  call void @llvm.lifetime.end.p0i8(i64 4, i8* nonnull %8) #9, !dbg !1159
  call void @llvm.lifetime.end.p0i8(i64 1024, i8* nonnull %7) #9, !dbg !1159
  br label %40

40:                                               ; preds = %39, %1
  ret void, !dbg !1160
}

declare !dbg !1161 extern_weak dso_local void @halide_print(i8*, i8*) local_unnamed_addr #3

; Function Attrs: nounwind
define weak dso_local void @_ZN6Halide7Runtime8Internal7Hexagon25get_remote_profiler_stateEPiS3_(i32* %0, i32* %1) #4 !dbg !1164 {
  call void @llvm.dbg.value(metadata i32* %0, metadata !1166, metadata !DIExpression()), !dbg !1168
  call void @llvm.dbg.value(metadata i32* %1, metadata !1167, metadata !DIExpression()), !dbg !1168
  %3 = load void (i32*, i32*)*, void (i32*, i32*)** @_ZN6Halide7Runtime8Internal7Hexagon26remote_poll_profiler_stateE, align 4, !dbg !1169, !tbaa !1103
  %4 = icmp eq void (i32*, i32*)* %3, null, !dbg !1169
  br i1 %4, label %5, label %21, !dbg !1171

5:                                                ; preds = %2
  call void @llvm.dbg.value(metadata %"class.Halide::Runtime::Internal::(anonymous namespace)::Printer.0"* undef, metadata !1172, metadata !DIExpression()) #9, !dbg !1178
  call void @llvm.dbg.value(metadata i8* null, metadata !1175, metadata !DIExpression()) #9, !dbg !1178
  call void @llvm.dbg.value(metadata i8* null, metadata !1176, metadata !DIExpression()) #9, !dbg !1178
  %6 = tail call i8* @malloc(i32 1024) #7, !dbg !1181
  %7 = icmp eq i8* %6, null, !dbg !1186
  br i1 %7, label %8, label %10, !dbg !1188

8:                                                ; preds = %5
  call void @llvm.dbg.value(metadata %"class.Halide::Runtime::Internal::(anonymous namespace)::Printer.0"* undef, metadata !1189, metadata !DIExpression()) #9, !dbg !1193
  call void @llvm.dbg.value(metadata i8* getelementptr inbounds ([46 x i8], [46 x i8]* @.str.3, i32 0, i32 0), metadata !1192, metadata !DIExpression()) #9, !dbg !1193
  %9 = tail call i8* @halide_string_to_string(i8* %6, i8* null, i8* nonnull getelementptr inbounds ([46 x i8], [46 x i8]* @.str.3, i32 0, i32 0)) #7, !dbg !1195
  call void @llvm.dbg.value(metadata %"class.Halide::Runtime::Internal::(anonymous namespace)::Printer.0"* undef, metadata !1198, metadata !DIExpression()) #9, !dbg !1201
  tail call void @halide_error(i8* null, i8* getelementptr inbounds ([35 x i8], [35 x i8]* @.str.116, i32 0, i32 0)) #7, !dbg !1203
  br label %19, !dbg !1207

10:                                               ; preds = %5
  %11 = getelementptr inbounds i8, i8* %6, i32 1023, !dbg !1208
  store i8 0, i8* %11, align 1, !dbg !1210, !tbaa !854
  call void @llvm.dbg.value(metadata %"class.Halide::Runtime::Internal::(anonymous namespace)::Printer.0"* undef, metadata !1189, metadata !DIExpression()) #9, !dbg !1193
  call void @llvm.dbg.value(metadata i8* getelementptr inbounds ([46 x i8], [46 x i8]* @.str.3, i32 0, i32 0), metadata !1192, metadata !DIExpression()) #9, !dbg !1193
  %12 = tail call i8* @halide_string_to_string(i8* nonnull %6, i8* nonnull %11, i8* nonnull getelementptr inbounds ([46 x i8], [46 x i8]* @.str.3, i32 0, i32 0)) #7, !dbg !1195
  call void @llvm.dbg.value(metadata %"class.Halide::Runtime::Internal::(anonymous namespace)::Printer.0"* undef, metadata !1198, metadata !DIExpression()) #9, !dbg !1201
  call void @llvm.dbg.value(metadata %"class.Halide::Runtime::Internal::(anonymous namespace)::Printer.0"* undef, metadata !1211, metadata !DIExpression()) #9, !dbg !1214
  %13 = ptrtoint i8* %12 to i32, !dbg !1217
  %14 = ptrtoint i8* %6 to i32, !dbg !1217
  %15 = add i32 %13, 1, !dbg !1217
  %16 = sub i32 %15, %14, !dbg !1218
  %17 = sext i32 %16 to i64, !dbg !1219
  %18 = tail call i32 @halide_msan_annotate_memory_is_initialized(i8* null, i8* nonnull %6, i64 %17) #7, !dbg !1220
  tail call void @halide_error(i8* null, i8* nonnull %6) #7, !dbg !1221
  br label %19

19:                                               ; preds = %10, %8
  tail call void @free(i8* %6) #7, !dbg !1224
  %20 = load void (i32*, i32*)*, void (i32*, i32*)** @_ZN6Halide7Runtime8Internal7Hexagon26remote_poll_profiler_stateE, align 4, !dbg !1227, !tbaa !1103
  br label %21, !dbg !1228

21:                                               ; preds = %19, %2
  %22 = phi void (i32*, i32*)* [ %20, %19 ], [ %3, %2 ], !dbg !1227
  tail call void %22(i32* %0, i32* %1) #7, !dbg !1227
  ret void, !dbg !1229
}

; Function Attrs: nounwind
define weak dso_local i32 @_ZN6Halide7Runtime8Internal7Hexagon20init_hexagon_runtimeEPv(i8* %0) local_unnamed_addr #4 !dbg !1230 {
  call void @llvm.dbg.value(metadata i8* %0, metadata !1232, metadata !DIExpression()), !dbg !1234
  %2 = load i32 (i8*, i32, i8*, i32, i32*)*, i32 (i8*, i32, i8*, i32, i32*)** @_ZN6Halide7Runtime8Internal7Hexagon19remote_load_libraryE, align 4, !dbg !1235, !tbaa !1103
  %3 = icmp ne i32 (i8*, i32, i8*, i32, i32*)* %2, null, !dbg !1235
  %4 = load i32 (i32, i32, %"struct.Halide::Runtime::Internal::Hexagon::_remote_buffer__seq_octet"*, i32, %"struct.Halide::Runtime::Internal::Hexagon::_remote_buffer__seq_octet"*, i32, %"struct.Halide::Runtime::Internal::Hexagon::_remote_buffer__seq_octet"*, i32)*, i32 (i32, i32, %"struct.Halide::Runtime::Internal::Hexagon::_remote_buffer__seq_octet"*, i32, %"struct.Halide::Runtime::Internal::Hexagon::_remote_buffer__seq_octet"*, i32, %"struct.Halide::Runtime::Internal::Hexagon::_remote_buffer__seq_octet"*, i32)** @_ZN6Halide7Runtime8Internal7Hexagon10remote_runE, align 4
  %5 = icmp ne i32 (i32, i32, %"struct.Halide::Runtime::Internal::Hexagon::_remote_buffer__seq_octet"*, i32, %"struct.Halide::Runtime::Internal::Hexagon::_remote_buffer__seq_octet"*, i32, %"struct.Halide::Runtime::Internal::Hexagon::_remote_buffer__seq_octet"*, i32)* %4, null
  %6 = and i1 %3, %5, !dbg !1237
  %7 = load i32 (i32)*, i32 (i32)** @_ZN6Halide7Runtime8Internal7Hexagon22remote_release_libraryE, align 4
  %8 = icmp ne i32 (i32)* %7, null
  %9 = and i1 %6, %8, !dbg !1237
  br i1 %9, label %836, label %10, !dbg !1237

10:                                               ; preds = %1
  %11 = tail call i8* @halide_load_library(i8* getelementptr inbounds ([26 x i8], [26 x i8]* @.str.4, i32 0, i32 0)) #7, !dbg !1238
  call void @llvm.dbg.value(metadata i8* %11, metadata !1233, metadata !DIExpression()), !dbg !1234
  %12 = icmp eq i8* %11, null, !dbg !1239
  br i1 %12, label %13, label %15, !dbg !1241

13:                                               ; preds = %10
  %14 = tail call i8* @halide_load_library(i8* getelementptr inbounds ([27 x i8], [27 x i8]* @.str.5, i32 0, i32 0)) #7, !dbg !1242
  call void @llvm.dbg.value(metadata i8* %14, metadata !1233, metadata !DIExpression()), !dbg !1234
  br label %15, !dbg !1244

15:                                               ; preds = %13, %10
  %16 = phi i8* [ %11, %10 ], [ %14, %13 ], !dbg !1234
  call void @llvm.dbg.value(metadata i8* %16, metadata !1233, metadata !DIExpression()), !dbg !1234
  call void @llvm.dbg.value(metadata %"class.Halide::Runtime::Internal::(anonymous namespace)::Printer"* undef, metadata !815, metadata !DIExpression()) #9, !dbg !1245
  call void @llvm.dbg.value(metadata i8* %0, metadata !818, metadata !DIExpression()) #9, !dbg !1245
  call void @llvm.dbg.value(metadata i8* null, metadata !819, metadata !DIExpression()) #9, !dbg !1245
  %17 = tail call i8* @malloc(i32 1024) #7, !dbg !1247
  %18 = icmp eq i8* %17, null, !dbg !1248
  br i1 %18, label %21, label %19, !dbg !1249

19:                                               ; preds = %15
  %20 = getelementptr inbounds i8, i8* %17, i32 1023, !dbg !1250
  store i8 0, i8* %20, align 1, !dbg !1251, !tbaa !854
  br label %21, !dbg !1252

21:                                               ; preds = %15, %19
  %22 = phi i8* [ %20, %19 ], [ null, %15 ], !dbg !1253
  call void @llvm.dbg.value(metadata %"class.Halide::Runtime::Internal::(anonymous namespace)::Printer"* undef, metadata !832, metadata !DIExpression()) #9, !dbg !1254
  call void @llvm.dbg.value(metadata i8* getelementptr inbounds ([46 x i8], [46 x i8]* @.str.6, i32 0, i32 0), metadata !835, metadata !DIExpression()) #9, !dbg !1254
  %23 = tail call i8* @halide_string_to_string(i8* %17, i8* %22, i8* nonnull getelementptr inbounds ([46 x i8], [46 x i8]* @.str.6, i32 0, i32 0)) #7, !dbg !1256
  call void @llvm.dbg.value(metadata %"class.Halide::Runtime::Internal::(anonymous namespace)::Printer"* undef, metadata !1257, metadata !DIExpression()) #9, !dbg !1261
  call void @llvm.dbg.value(metadata i8* %0, metadata !1260, metadata !DIExpression()) #9, !dbg !1261
  %24 = tail call i8* @halide_pointer_to_string(i8* %23, i8* %22, i8* %0) #7, !dbg !1263
  call void @llvm.dbg.value(metadata %"class.Halide::Runtime::Internal::(anonymous namespace)::Printer"* undef, metadata !832, metadata !DIExpression()) #9, !dbg !1264
  call void @llvm.dbg.value(metadata i8* getelementptr inbounds ([3 x i8], [3 x i8]* @.str.7, i32 0, i32 0), metadata !835, metadata !DIExpression()) #9, !dbg !1264
  %25 = tail call i8* @halide_string_to_string(i8* %24, i8* %22, i8* nonnull getelementptr inbounds ([3 x i8], [3 x i8]* @.str.7, i32 0, i32 0)) #7, !dbg !1266
  call void @llvm.dbg.value(metadata %"class.Halide::Runtime::Internal::(anonymous namespace)::Printer"* undef, metadata !841, metadata !DIExpression()) #9, !dbg !1267
  br i1 %18, label %26, label %27, !dbg !1269

26:                                               ; preds = %21
  tail call void @halide_error(i8* %0, i8* getelementptr inbounds ([35 x i8], [35 x i8]* @.str.116, i32 0, i32 0)) #7, !dbg !1270
  br label %34, !dbg !1271

27:                                               ; preds = %21
  call void @llvm.dbg.value(metadata %"class.Halide::Runtime::Internal::(anonymous namespace)::Printer"* undef, metadata !855, metadata !DIExpression()) #9, !dbg !1272
  %28 = ptrtoint i8* %25 to i32, !dbg !1274
  %29 = ptrtoint i8* %17 to i32, !dbg !1274
  %30 = add i32 %28, 1, !dbg !1274
  %31 = sub i32 %30, %29, !dbg !1275
  %32 = sext i32 %31 to i64, !dbg !1276
  %33 = tail call i32 @halide_msan_annotate_memory_is_initialized(i8* %0, i8* nonnull %17, i64 %32) #7, !dbg !1277
  tail call void @halide_print(i8* %0, i8* nonnull %17) #7, !dbg !1278
  br label %34

34:                                               ; preds = %27, %26
  tail call void @free(i8* %17) #7, !dbg !1279
  call void @llvm.dbg.value(metadata i8* %0, metadata !1280, metadata !DIExpression()) #9, !dbg !1292
  call void @llvm.dbg.value(metadata i8* %16, metadata !1286, metadata !DIExpression()) #9, !dbg !1292
  call void @llvm.dbg.value(metadata i8* getelementptr inbounds ([35 x i8], [35 x i8]* @.str.8, i32 0, i32 0), metadata !1287, metadata !DIExpression()) #9, !dbg !1292
  call void @llvm.dbg.value(metadata i32 (i8*, i32, i8*, i32, i32*)** @_ZN6Halide7Runtime8Internal7Hexagon19remote_load_libraryE, metadata !1288, metadata !DIExpression()) #9, !dbg !1292
  call void @llvm.dbg.value(metadata i1 true, metadata !1289, metadata !DIExpression(DW_OP_LLVM_convert, 1, DW_ATE_unsigned, DW_OP_LLVM_convert, 8, DW_ATE_unsigned, DW_OP_stack_value)) #9, !dbg !1292
  call void @llvm.dbg.value(metadata %"class.Halide::Runtime::Internal::(anonymous namespace)::Printer"* undef, metadata !815, metadata !DIExpression()) #9, !dbg !1294
  call void @llvm.dbg.value(metadata i8* %0, metadata !818, metadata !DIExpression()) #9, !dbg !1294
  call void @llvm.dbg.value(metadata i8* null, metadata !819, metadata !DIExpression()) #9, !dbg !1294
  %35 = tail call i8* @malloc(i32 1024) #7, !dbg !1296
  %36 = icmp eq i8* %35, null, !dbg !1297
  br i1 %36, label %39, label %37, !dbg !1298

37:                                               ; preds = %34
  %38 = getelementptr inbounds i8, i8* %35, i32 1023, !dbg !1299
  store i8 0, i8* %38, align 1, !dbg !1300, !tbaa !854
  br label %39, !dbg !1301

39:                                               ; preds = %37, %34
  %40 = phi i8* [ %38, %37 ], [ null, %34 ], !dbg !1302
  call void @llvm.dbg.value(metadata %"class.Halide::Runtime::Internal::(anonymous namespace)::Printer"* undef, metadata !832, metadata !DIExpression()) #9, !dbg !1303
  call void @llvm.dbg.value(metadata i8* getelementptr inbounds ([32 x i8], [32 x i8]* @.str.118, i32 0, i32 0), metadata !835, metadata !DIExpression()) #9, !dbg !1303
  %41 = tail call i8* @halide_string_to_string(i8* %35, i8* %40, i8* nonnull getelementptr inbounds ([32 x i8], [32 x i8]* @.str.118, i32 0, i32 0)) #7, !dbg !1305
  call void @llvm.dbg.value(metadata %"class.Halide::Runtime::Internal::(anonymous namespace)::Printer"* undef, metadata !832, metadata !DIExpression()) #9, !dbg !1306
  call void @llvm.dbg.value(metadata i8* getelementptr inbounds ([35 x i8], [35 x i8]* @.str.8, i32 0, i32 0), metadata !835, metadata !DIExpression()) #9, !dbg !1306
  %42 = tail call i8* @halide_string_to_string(i8* %41, i8* %40, i8* nonnull getelementptr inbounds ([35 x i8], [35 x i8]* @.str.8, i32 0, i32 0)) #7, !dbg !1308
  call void @llvm.dbg.value(metadata %"class.Halide::Runtime::Internal::(anonymous namespace)::Printer"* undef, metadata !832, metadata !DIExpression()) #9, !dbg !1309
  call void @llvm.dbg.value(metadata i8* getelementptr inbounds ([8 x i8], [8 x i8]* @.str.119, i32 0, i32 0), metadata !835, metadata !DIExpression()) #9, !dbg !1309
  %43 = tail call i8* @halide_string_to_string(i8* %42, i8* %40, i8* nonnull getelementptr inbounds ([8 x i8], [8 x i8]* @.str.119, i32 0, i32 0)) #7, !dbg !1311
  call void @llvm.dbg.value(metadata %"class.Halide::Runtime::Internal::(anonymous namespace)::Printer"* undef, metadata !841, metadata !DIExpression()) #9, !dbg !1312
  br i1 %36, label %44, label %45, !dbg !1314

44:                                               ; preds = %39
  tail call void @halide_error(i8* %0, i8* getelementptr inbounds ([35 x i8], [35 x i8]* @.str.116, i32 0, i32 0)) #7, !dbg !1315
  br label %52, !dbg !1316

45:                                               ; preds = %39
  call void @llvm.dbg.value(metadata %"class.Halide::Runtime::Internal::(anonymous namespace)::Printer"* undef, metadata !855, metadata !DIExpression()) #9, !dbg !1317
  %46 = ptrtoint i8* %43 to i32, !dbg !1319
  %47 = ptrtoint i8* %35 to i32, !dbg !1319
  %48 = sub i32 1, %47, !dbg !1319
  %49 = add i32 %48, %46, !dbg !1320
  %50 = sext i32 %49 to i64, !dbg !1321
  %51 = tail call i32 @halide_msan_annotate_memory_is_initialized(i8* %0, i8* nonnull %35, i64 %50) #7, !dbg !1322
  tail call void @halide_print(i8* %0, i8* nonnull %35) #7, !dbg !1323
  br label %52

52:                                               ; preds = %45, %44
  tail call void @free(i8* %35) #7, !dbg !1324
  %53 = tail call i8* @halide_get_library_symbol(i8* %16, i8* getelementptr inbounds ([35 x i8], [35 x i8]* @.str.8, i32 0, i32 0)) #7, !dbg !1325
  store i8* %53, i8** bitcast (i32 (i8*, i32, i8*, i32, i32*)** @_ZN6Halide7Runtime8Internal7Hexagon19remote_load_libraryE to i8**), align 4, !dbg !1326, !tbaa !1103
  call void @llvm.dbg.value(metadata %"class.Halide::Runtime::Internal::(anonymous namespace)::Printer"* undef, metadata !815, metadata !DIExpression()) #9, !dbg !1327
  call void @llvm.dbg.value(metadata i8* %0, metadata !818, metadata !DIExpression()) #9, !dbg !1327
  call void @llvm.dbg.value(metadata i8* null, metadata !819, metadata !DIExpression()) #9, !dbg !1327
  %54 = tail call i8* @malloc(i32 1024) #7, !dbg !1329
  %55 = icmp eq i8* %54, null, !dbg !1330
  br i1 %55, label %58, label %56, !dbg !1331

56:                                               ; preds = %52
  %57 = getelementptr inbounds i8, i8* %54, i32 1023, !dbg !1332
  store i8 0, i8* %57, align 1, !dbg !1333, !tbaa !854
  br label %58, !dbg !1334

58:                                               ; preds = %56, %52
  %59 = phi i8* [ %57, %56 ], [ null, %52 ], !dbg !1335
  call void @llvm.dbg.value(metadata %"class.Halide::Runtime::Internal::(anonymous namespace)::Printer"* undef, metadata !832, metadata !DIExpression()) #9, !dbg !1336
  call void @llvm.dbg.value(metadata i8* getelementptr inbounds ([9 x i8], [9 x i8]* @.str.38, i32 0, i32 0), metadata !835, metadata !DIExpression()) #9, !dbg !1336
  %60 = tail call i8* @halide_string_to_string(i8* %54, i8* %59, i8* nonnull getelementptr inbounds ([9 x i8], [9 x i8]* @.str.38, i32 0, i32 0)) #7, !dbg !1338
  %61 = load i8*, i8** bitcast (i32 (i8*, i32, i8*, i32, i32*)** @_ZN6Halide7Runtime8Internal7Hexagon19remote_load_libraryE to i8**), align 4, !dbg !1339, !tbaa !1103
  call void @llvm.dbg.value(metadata %"class.Halide::Runtime::Internal::(anonymous namespace)::Printer"* undef, metadata !1257, metadata !DIExpression()) #9, !dbg !1340
  call void @llvm.dbg.value(metadata i8* %61, metadata !1260, metadata !DIExpression()) #9, !dbg !1340
  %62 = tail call i8* @halide_pointer_to_string(i8* %60, i8* %59, i8* %61) #7, !dbg !1342
  call void @llvm.dbg.value(metadata %"class.Halide::Runtime::Internal::(anonymous namespace)::Printer"* undef, metadata !832, metadata !DIExpression()) #9, !dbg !1343
  call void @llvm.dbg.value(metadata i8* getelementptr inbounds ([2 x i8], [2 x i8]* @.str.2, i32 0, i32 0), metadata !835, metadata !DIExpression()) #9, !dbg !1343
  %63 = tail call i8* @halide_string_to_string(i8* %62, i8* %59, i8* nonnull getelementptr inbounds ([2 x i8], [2 x i8]* @.str.2, i32 0, i32 0)) #7, !dbg !1345
  call void @llvm.dbg.value(metadata %"class.Halide::Runtime::Internal::(anonymous namespace)::Printer"* undef, metadata !841, metadata !DIExpression()) #9, !dbg !1346
  br i1 %55, label %64, label %65, !dbg !1348

64:                                               ; preds = %58
  tail call void @halide_error(i8* %0, i8* getelementptr inbounds ([35 x i8], [35 x i8]* @.str.116, i32 0, i32 0)) #7, !dbg !1349
  br label %72, !dbg !1350

65:                                               ; preds = %58
  call void @llvm.dbg.value(metadata %"class.Halide::Runtime::Internal::(anonymous namespace)::Printer"* undef, metadata !855, metadata !DIExpression()) #9, !dbg !1351
  %66 = ptrtoint i8* %63 to i32, !dbg !1353
  %67 = ptrtoint i8* %54 to i32, !dbg !1353
  %68 = sub i32 1, %67, !dbg !1353
  %69 = add i32 %68, %66, !dbg !1354
  %70 = sext i32 %69 to i64, !dbg !1355
  %71 = tail call i32 @halide_msan_annotate_memory_is_initialized(i8* %0, i8* nonnull %54, i64 %70) #7, !dbg !1356
  tail call void @halide_print(i8* %0, i8* nonnull %54) #7, !dbg !1357
  br label %72

72:                                               ; preds = %65, %64
  tail call void @free(i8* %54) #7, !dbg !1358
  %73 = load i32 (i8*, i32, i8*, i32, i32*)*, i32 (i8*, i32, i8*, i32, i32*)** @_ZN6Halide7Runtime8Internal7Hexagon19remote_load_libraryE, align 4, !dbg !1359, !tbaa !1103
  %74 = icmp eq i32 (i8*, i32, i8*, i32, i32*)* %73, null, !dbg !1359
  br i1 %74, label %75, label %96, !dbg !1361

75:                                               ; preds = %72
  call void @llvm.dbg.value(metadata %"class.Halide::Runtime::Internal::(anonymous namespace)::Printer.0"* undef, metadata !1172, metadata !DIExpression()) #9, !dbg !1362
  call void @llvm.dbg.value(metadata i8* %0, metadata !1175, metadata !DIExpression()) #9, !dbg !1362
  call void @llvm.dbg.value(metadata i8* null, metadata !1176, metadata !DIExpression()) #9, !dbg !1362
  %76 = tail call i8* @malloc(i32 1024) #7, !dbg !1365
  %77 = icmp eq i8* %76, null, !dbg !1366
  br i1 %77, label %80, label %78, !dbg !1367

78:                                               ; preds = %75
  %79 = getelementptr inbounds i8, i8* %76, i32 1023, !dbg !1368
  store i8 0, i8* %79, align 1, !dbg !1369, !tbaa !854
  br label %80, !dbg !1370

80:                                               ; preds = %78, %75
  %81 = phi i8* [ %79, %78 ], [ null, %75 ], !dbg !1371
  call void @llvm.dbg.value(metadata %"class.Halide::Runtime::Internal::(anonymous namespace)::Printer.0"* undef, metadata !1189, metadata !DIExpression()) #9, !dbg !1372
  call void @llvm.dbg.value(metadata i8* getelementptr inbounds ([34 x i8], [34 x i8]* @.str.120, i32 0, i32 0), metadata !1192, metadata !DIExpression()) #9, !dbg !1372
  %82 = tail call i8* @halide_string_to_string(i8* %76, i8* %81, i8* nonnull getelementptr inbounds ([34 x i8], [34 x i8]* @.str.120, i32 0, i32 0)) #7, !dbg !1374
  call void @llvm.dbg.value(metadata %"class.Halide::Runtime::Internal::(anonymous namespace)::Printer.0"* undef, metadata !1189, metadata !DIExpression()) #9, !dbg !1375
  call void @llvm.dbg.value(metadata i8* getelementptr inbounds ([35 x i8], [35 x i8]* @.str.8, i32 0, i32 0), metadata !1192, metadata !DIExpression()) #9, !dbg !1375
  %83 = tail call i8* @halide_string_to_string(i8* %82, i8* %81, i8* nonnull getelementptr inbounds ([35 x i8], [35 x i8]* @.str.8, i32 0, i32 0)) #7, !dbg !1377
  call void @llvm.dbg.value(metadata %"class.Halide::Runtime::Internal::(anonymous namespace)::Printer.0"* undef, metadata !1189, metadata !DIExpression()) #9, !dbg !1378
  call void @llvm.dbg.value(metadata i8* getelementptr inbounds ([14 x i8], [14 x i8]* @.str.121, i32 0, i32 0), metadata !1192, metadata !DIExpression()) #9, !dbg !1378
  %84 = tail call i8* @halide_string_to_string(i8* %83, i8* %81, i8* nonnull getelementptr inbounds ([14 x i8], [14 x i8]* @.str.121, i32 0, i32 0)) #7, !dbg !1380
  call void @llvm.dbg.value(metadata %"class.Halide::Runtime::Internal::(anonymous namespace)::Printer.0"* undef, metadata !1198, metadata !DIExpression()) #9, !dbg !1381
  br i1 %77, label %85, label %86, !dbg !1383

85:                                               ; preds = %80
  tail call void @halide_error(i8* %0, i8* getelementptr inbounds ([35 x i8], [35 x i8]* @.str.116, i32 0, i32 0)) #7, !dbg !1384
  br label %93, !dbg !1385

86:                                               ; preds = %80
  call void @llvm.dbg.value(metadata %"class.Halide::Runtime::Internal::(anonymous namespace)::Printer.0"* undef, metadata !1211, metadata !DIExpression()) #9, !dbg !1386
  %87 = ptrtoint i8* %84 to i32, !dbg !1388
  %88 = ptrtoint i8* %76 to i32, !dbg !1388
  %89 = sub i32 1, %88, !dbg !1388
  %90 = add i32 %89, %87, !dbg !1389
  %91 = sext i32 %90 to i64, !dbg !1390
  %92 = tail call i32 @halide_msan_annotate_memory_is_initialized(i8* %0, i8* nonnull %76, i64 %91) #7, !dbg !1391
  tail call void @halide_error(i8* %0, i8* nonnull %76) #7, !dbg !1392
  br label %93

93:                                               ; preds = %85, %86
  tail call void @free(i8* %76) #7, !dbg !1393
  %94 = load i32 (i8*, i32, i8*, i32, i32*)*, i32 (i8*, i32, i8*, i32, i32*)** @_ZN6Halide7Runtime8Internal7Hexagon19remote_load_libraryE, align 4, !dbg !1394, !tbaa !1103
  %95 = icmp eq i32 (i8*, i32, i8*, i32, i32*)* %94, null, !dbg !1394
  br i1 %95, label %836, label %96, !dbg !1396

96:                                               ; preds = %72, %93
  call void @llvm.dbg.value(metadata i8* %0, metadata !1397, metadata !DIExpression()) #9, !dbg !1409
  call void @llvm.dbg.value(metadata i8* %16, metadata !1403, metadata !DIExpression()) #9, !dbg !1409
  call void @llvm.dbg.value(metadata i8* getelementptr inbounds ([36 x i8], [36 x i8]* @.str.9, i32 0, i32 0), metadata !1404, metadata !DIExpression()) #9, !dbg !1409
  call void @llvm.dbg.value(metadata i32 (i32, i8*, i32, i32*)** @_ZN6Halide7Runtime8Internal7Hexagon17remote_get_symbolE, metadata !1405, metadata !DIExpression()) #9, !dbg !1409
  call void @llvm.dbg.value(metadata i1 true, metadata !1406, metadata !DIExpression(DW_OP_LLVM_convert, 1, DW_ATE_unsigned, DW_OP_LLVM_convert, 8, DW_ATE_unsigned, DW_OP_stack_value)) #9, !dbg !1409
  call void @llvm.dbg.value(metadata %"class.Halide::Runtime::Internal::(anonymous namespace)::Printer"* undef, metadata !815, metadata !DIExpression()) #9, !dbg !1411
  call void @llvm.dbg.value(metadata i8* %0, metadata !818, metadata !DIExpression()) #9, !dbg !1411
  call void @llvm.dbg.value(metadata i8* null, metadata !819, metadata !DIExpression()) #9, !dbg !1411
  %97 = tail call i8* @malloc(i32 1024) #7, !dbg !1413
  %98 = icmp eq i8* %97, null, !dbg !1414
  br i1 %98, label %101, label %99, !dbg !1415

99:                                               ; preds = %96
  %100 = getelementptr inbounds i8, i8* %97, i32 1023, !dbg !1416
  store i8 0, i8* %100, align 1, !dbg !1417, !tbaa !854
  br label %101, !dbg !1418

101:                                              ; preds = %99, %96
  %102 = phi i8* [ %100, %99 ], [ null, %96 ], !dbg !1419
  call void @llvm.dbg.value(metadata %"class.Halide::Runtime::Internal::(anonymous namespace)::Printer"* undef, metadata !832, metadata !DIExpression()) #9, !dbg !1420
  call void @llvm.dbg.value(metadata i8* getelementptr inbounds ([32 x i8], [32 x i8]* @.str.118, i32 0, i32 0), metadata !835, metadata !DIExpression()) #9, !dbg !1420
  %103 = tail call i8* @halide_string_to_string(i8* %97, i8* %102, i8* nonnull getelementptr inbounds ([32 x i8], [32 x i8]* @.str.118, i32 0, i32 0)) #7, !dbg !1422
  call void @llvm.dbg.value(metadata %"class.Halide::Runtime::Internal::(anonymous namespace)::Printer"* undef, metadata !832, metadata !DIExpression()) #9, !dbg !1423
  call void @llvm.dbg.value(metadata i8* getelementptr inbounds ([36 x i8], [36 x i8]* @.str.9, i32 0, i32 0), metadata !835, metadata !DIExpression()) #9, !dbg !1423
  %104 = tail call i8* @halide_string_to_string(i8* %103, i8* %102, i8* nonnull getelementptr inbounds ([36 x i8], [36 x i8]* @.str.9, i32 0, i32 0)) #7, !dbg !1425
  call void @llvm.dbg.value(metadata %"class.Halide::Runtime::Internal::(anonymous namespace)::Printer"* undef, metadata !832, metadata !DIExpression()) #9, !dbg !1426
  call void @llvm.dbg.value(metadata i8* getelementptr inbounds ([8 x i8], [8 x i8]* @.str.119, i32 0, i32 0), metadata !835, metadata !DIExpression()) #9, !dbg !1426
  %105 = tail call i8* @halide_string_to_string(i8* %104, i8* %102, i8* nonnull getelementptr inbounds ([8 x i8], [8 x i8]* @.str.119, i32 0, i32 0)) #7, !dbg !1428
  call void @llvm.dbg.value(metadata %"class.Halide::Runtime::Internal::(anonymous namespace)::Printer"* undef, metadata !841, metadata !DIExpression()) #9, !dbg !1429
  br i1 %98, label %106, label %107, !dbg !1431

106:                                              ; preds = %101
  tail call void @halide_error(i8* %0, i8* getelementptr inbounds ([35 x i8], [35 x i8]* @.str.116, i32 0, i32 0)) #7, !dbg !1432
  br label %114, !dbg !1433

107:                                              ; preds = %101
  call void @llvm.dbg.value(metadata %"class.Halide::Runtime::Internal::(anonymous namespace)::Printer"* undef, metadata !855, metadata !DIExpression()) #9, !dbg !1434
  %108 = ptrtoint i8* %105 to i32, !dbg !1436
  %109 = ptrtoint i8* %97 to i32, !dbg !1436
  %110 = sub i32 1, %109, !dbg !1436
  %111 = add i32 %110, %108, !dbg !1437
  %112 = sext i32 %111 to i64, !dbg !1438
  %113 = tail call i32 @halide_msan_annotate_memory_is_initialized(i8* %0, i8* nonnull %97, i64 %112) #7, !dbg !1439
  tail call void @halide_print(i8* %0, i8* nonnull %97) #7, !dbg !1440
  br label %114

114:                                              ; preds = %107, %106
  tail call void @free(i8* %97) #7, !dbg !1441
  %115 = tail call i8* @halide_get_library_symbol(i8* %16, i8* getelementptr inbounds ([36 x i8], [36 x i8]* @.str.9, i32 0, i32 0)) #7, !dbg !1442
  store i8* %115, i8** bitcast (i32 (i32, i8*, i32, i32*)** @_ZN6Halide7Runtime8Internal7Hexagon17remote_get_symbolE to i8**), align 4, !dbg !1443, !tbaa !1103
  call void @llvm.dbg.value(metadata %"class.Halide::Runtime::Internal::(anonymous namespace)::Printer"* undef, metadata !815, metadata !DIExpression()) #9, !dbg !1444
  call void @llvm.dbg.value(metadata i8* %0, metadata !818, metadata !DIExpression()) #9, !dbg !1444
  call void @llvm.dbg.value(metadata i8* null, metadata !819, metadata !DIExpression()) #9, !dbg !1444
  %116 = tail call i8* @malloc(i32 1024) #7, !dbg !1446
  %117 = icmp eq i8* %116, null, !dbg !1447
  br i1 %117, label %120, label %118, !dbg !1448

118:                                              ; preds = %114
  %119 = getelementptr inbounds i8, i8* %116, i32 1023, !dbg !1449
  store i8 0, i8* %119, align 1, !dbg !1450, !tbaa !854
  br label %120, !dbg !1451

120:                                              ; preds = %118, %114
  %121 = phi i8* [ %119, %118 ], [ null, %114 ], !dbg !1452
  call void @llvm.dbg.value(metadata %"class.Halide::Runtime::Internal::(anonymous namespace)::Printer"* undef, metadata !832, metadata !DIExpression()) #9, !dbg !1453
  call void @llvm.dbg.value(metadata i8* getelementptr inbounds ([9 x i8], [9 x i8]* @.str.38, i32 0, i32 0), metadata !835, metadata !DIExpression()) #9, !dbg !1453
  %122 = tail call i8* @halide_string_to_string(i8* %116, i8* %121, i8* nonnull getelementptr inbounds ([9 x i8], [9 x i8]* @.str.38, i32 0, i32 0)) #7, !dbg !1455
  %123 = load i8*, i8** bitcast (i32 (i32, i8*, i32, i32*)** @_ZN6Halide7Runtime8Internal7Hexagon17remote_get_symbolE to i8**), align 4, !dbg !1456, !tbaa !1103
  call void @llvm.dbg.value(metadata %"class.Halide::Runtime::Internal::(anonymous namespace)::Printer"* undef, metadata !1257, metadata !DIExpression()) #9, !dbg !1457
  call void @llvm.dbg.value(metadata i8* %123, metadata !1260, metadata !DIExpression()) #9, !dbg !1457
  %124 = tail call i8* @halide_pointer_to_string(i8* %122, i8* %121, i8* %123) #7, !dbg !1459
  call void @llvm.dbg.value(metadata %"class.Halide::Runtime::Internal::(anonymous namespace)::Printer"* undef, metadata !832, metadata !DIExpression()) #9, !dbg !1460
  call void @llvm.dbg.value(metadata i8* getelementptr inbounds ([2 x i8], [2 x i8]* @.str.2, i32 0, i32 0), metadata !835, metadata !DIExpression()) #9, !dbg !1460
  %125 = tail call i8* @halide_string_to_string(i8* %124, i8* %121, i8* nonnull getelementptr inbounds ([2 x i8], [2 x i8]* @.str.2, i32 0, i32 0)) #7, !dbg !1462
  call void @llvm.dbg.value(metadata %"class.Halide::Runtime::Internal::(anonymous namespace)::Printer"* undef, metadata !841, metadata !DIExpression()) #9, !dbg !1463
  br i1 %117, label %126, label %127, !dbg !1465

126:                                              ; preds = %120
  tail call void @halide_error(i8* %0, i8* getelementptr inbounds ([35 x i8], [35 x i8]* @.str.116, i32 0, i32 0)) #7, !dbg !1466
  br label %134, !dbg !1467

127:                                              ; preds = %120
  call void @llvm.dbg.value(metadata %"class.Halide::Runtime::Internal::(anonymous namespace)::Printer"* undef, metadata !855, metadata !DIExpression()) #9, !dbg !1468
  %128 = ptrtoint i8* %125 to i32, !dbg !1470
  %129 = ptrtoint i8* %116 to i32, !dbg !1470
  %130 = sub i32 1, %129, !dbg !1470
  %131 = add i32 %130, %128, !dbg !1471
  %132 = sext i32 %131 to i64, !dbg !1472
  %133 = tail call i32 @halide_msan_annotate_memory_is_initialized(i8* %0, i8* nonnull %116, i64 %132) #7, !dbg !1473
  tail call void @halide_print(i8* %0, i8* nonnull %116) #7, !dbg !1474
  br label %134

134:                                              ; preds = %127, %126
  tail call void @free(i8* %116) #7, !dbg !1475
  %135 = load i32 (i32, i8*, i32, i32*)*, i32 (i32, i8*, i32, i32*)** @_ZN6Halide7Runtime8Internal7Hexagon17remote_get_symbolE, align 4, !dbg !1476, !tbaa !1103
  %136 = icmp eq i32 (i32, i8*, i32, i32*)* %135, null, !dbg !1476
  br i1 %136, label %137, label %158, !dbg !1478

137:                                              ; preds = %134
  call void @llvm.dbg.value(metadata %"class.Halide::Runtime::Internal::(anonymous namespace)::Printer.0"* undef, metadata !1172, metadata !DIExpression()) #9, !dbg !1479
  call void @llvm.dbg.value(metadata i8* %0, metadata !1175, metadata !DIExpression()) #9, !dbg !1479
  call void @llvm.dbg.value(metadata i8* null, metadata !1176, metadata !DIExpression()) #9, !dbg !1479
  %138 = tail call i8* @malloc(i32 1024) #7, !dbg !1482
  %139 = icmp eq i8* %138, null, !dbg !1483
  br i1 %139, label %142, label %140, !dbg !1484

140:                                              ; preds = %137
  %141 = getelementptr inbounds i8, i8* %138, i32 1023, !dbg !1485
  store i8 0, i8* %141, align 1, !dbg !1486, !tbaa !854
  br label %142, !dbg !1487

142:                                              ; preds = %140, %137
  %143 = phi i8* [ %141, %140 ], [ null, %137 ], !dbg !1488
  call void @llvm.dbg.value(metadata %"class.Halide::Runtime::Internal::(anonymous namespace)::Printer.0"* undef, metadata !1189, metadata !DIExpression()) #9, !dbg !1489
  call void @llvm.dbg.value(metadata i8* getelementptr inbounds ([34 x i8], [34 x i8]* @.str.120, i32 0, i32 0), metadata !1192, metadata !DIExpression()) #9, !dbg !1489
  %144 = tail call i8* @halide_string_to_string(i8* %138, i8* %143, i8* nonnull getelementptr inbounds ([34 x i8], [34 x i8]* @.str.120, i32 0, i32 0)) #7, !dbg !1491
  call void @llvm.dbg.value(metadata %"class.Halide::Runtime::Internal::(anonymous namespace)::Printer.0"* undef, metadata !1189, metadata !DIExpression()) #9, !dbg !1492
  call void @llvm.dbg.value(metadata i8* getelementptr inbounds ([36 x i8], [36 x i8]* @.str.9, i32 0, i32 0), metadata !1192, metadata !DIExpression()) #9, !dbg !1492
  %145 = tail call i8* @halide_string_to_string(i8* %144, i8* %143, i8* nonnull getelementptr inbounds ([36 x i8], [36 x i8]* @.str.9, i32 0, i32 0)) #7, !dbg !1494
  call void @llvm.dbg.value(metadata %"class.Halide::Runtime::Internal::(anonymous namespace)::Printer.0"* undef, metadata !1189, metadata !DIExpression()) #9, !dbg !1495
  call void @llvm.dbg.value(metadata i8* getelementptr inbounds ([14 x i8], [14 x i8]* @.str.121, i32 0, i32 0), metadata !1192, metadata !DIExpression()) #9, !dbg !1495
  %146 = tail call i8* @halide_string_to_string(i8* %145, i8* %143, i8* nonnull getelementptr inbounds ([14 x i8], [14 x i8]* @.str.121, i32 0, i32 0)) #7, !dbg !1497
  call void @llvm.dbg.value(metadata %"class.Halide::Runtime::Internal::(anonymous namespace)::Printer.0"* undef, metadata !1198, metadata !DIExpression()) #9, !dbg !1498
  br i1 %139, label %147, label %148, !dbg !1500

147:                                              ; preds = %142
  tail call void @halide_error(i8* %0, i8* getelementptr inbounds ([35 x i8], [35 x i8]* @.str.116, i32 0, i32 0)) #7, !dbg !1501
  br label %155, !dbg !1502

148:                                              ; preds = %142
  call void @llvm.dbg.value(metadata %"class.Halide::Runtime::Internal::(anonymous namespace)::Printer.0"* undef, metadata !1211, metadata !DIExpression()) #9, !dbg !1503
  %149 = ptrtoint i8* %146 to i32, !dbg !1505
  %150 = ptrtoint i8* %138 to i32, !dbg !1505
  %151 = sub i32 1, %150, !dbg !1505
  %152 = add i32 %151, %149, !dbg !1506
  %153 = sext i32 %152 to i64, !dbg !1507
  %154 = tail call i32 @halide_msan_annotate_memory_is_initialized(i8* %0, i8* nonnull %138, i64 %153) #7, !dbg !1508
  tail call void @halide_error(i8* %0, i8* nonnull %138) #7, !dbg !1509
  br label %155

155:                                              ; preds = %147, %148
  tail call void @free(i8* %138) #7, !dbg !1510
  %156 = load i32 (i32, i8*, i32, i32*)*, i32 (i32, i8*, i32, i32*)** @_ZN6Halide7Runtime8Internal7Hexagon17remote_get_symbolE, align 4, !dbg !1511, !tbaa !1103
  %157 = icmp eq i32 (i32, i8*, i32, i32*)* %156, null, !dbg !1511
  br i1 %157, label %836, label %158, !dbg !1513

158:                                              ; preds = %134, %155
  call void @llvm.dbg.value(metadata i8* %0, metadata !1514, metadata !DIExpression()) #9, !dbg !1526
  call void @llvm.dbg.value(metadata i8* %16, metadata !1520, metadata !DIExpression()) #9, !dbg !1526
  call void @llvm.dbg.value(metadata i8* getelementptr inbounds ([26 x i8], [26 x i8]* @.str.10, i32 0, i32 0), metadata !1521, metadata !DIExpression()) #9, !dbg !1526
  call void @llvm.dbg.value(metadata i32 (i32, i32, %"struct.Halide::Runtime::Internal::Hexagon::_remote_buffer__seq_octet"*, i32, %"struct.Halide::Runtime::Internal::Hexagon::_remote_buffer__seq_octet"*, i32, %"struct.Halide::Runtime::Internal::Hexagon::_remote_buffer__seq_octet"*, i32)** @_ZN6Halide7Runtime8Internal7Hexagon10remote_runE, metadata !1522, metadata !DIExpression()) #9, !dbg !1526
  call void @llvm.dbg.value(metadata i1 true, metadata !1523, metadata !DIExpression(DW_OP_LLVM_convert, 1, DW_ATE_unsigned, DW_OP_LLVM_convert, 8, DW_ATE_unsigned, DW_OP_stack_value)) #9, !dbg !1526
  call void @llvm.dbg.value(metadata %"class.Halide::Runtime::Internal::(anonymous namespace)::Printer"* undef, metadata !815, metadata !DIExpression()) #9, !dbg !1528
  call void @llvm.dbg.value(metadata i8* %0, metadata !818, metadata !DIExpression()) #9, !dbg !1528
  call void @llvm.dbg.value(metadata i8* null, metadata !819, metadata !DIExpression()) #9, !dbg !1528
  %159 = tail call i8* @malloc(i32 1024) #7, !dbg !1530
  %160 = icmp eq i8* %159, null, !dbg !1531
  br i1 %160, label %163, label %161, !dbg !1532

161:                                              ; preds = %158
  %162 = getelementptr inbounds i8, i8* %159, i32 1023, !dbg !1533
  store i8 0, i8* %162, align 1, !dbg !1534, !tbaa !854
  br label %163, !dbg !1535

163:                                              ; preds = %161, %158
  %164 = phi i8* [ %162, %161 ], [ null, %158 ], !dbg !1536
  call void @llvm.dbg.value(metadata %"class.Halide::Runtime::Internal::(anonymous namespace)::Printer"* undef, metadata !832, metadata !DIExpression()) #9, !dbg !1537
  call void @llvm.dbg.value(metadata i8* getelementptr inbounds ([32 x i8], [32 x i8]* @.str.118, i32 0, i32 0), metadata !835, metadata !DIExpression()) #9, !dbg !1537
  %165 = tail call i8* @halide_string_to_string(i8* %159, i8* %164, i8* nonnull getelementptr inbounds ([32 x i8], [32 x i8]* @.str.118, i32 0, i32 0)) #7, !dbg !1539
  call void @llvm.dbg.value(metadata %"class.Halide::Runtime::Internal::(anonymous namespace)::Printer"* undef, metadata !832, metadata !DIExpression()) #9, !dbg !1540
  call void @llvm.dbg.value(metadata i8* getelementptr inbounds ([26 x i8], [26 x i8]* @.str.10, i32 0, i32 0), metadata !835, metadata !DIExpression()) #9, !dbg !1540
  %166 = tail call i8* @halide_string_to_string(i8* %165, i8* %164, i8* nonnull getelementptr inbounds ([26 x i8], [26 x i8]* @.str.10, i32 0, i32 0)) #7, !dbg !1542
  call void @llvm.dbg.value(metadata %"class.Halide::Runtime::Internal::(anonymous namespace)::Printer"* undef, metadata !832, metadata !DIExpression()) #9, !dbg !1543
  call void @llvm.dbg.value(metadata i8* getelementptr inbounds ([8 x i8], [8 x i8]* @.str.119, i32 0, i32 0), metadata !835, metadata !DIExpression()) #9, !dbg !1543
  %167 = tail call i8* @halide_string_to_string(i8* %166, i8* %164, i8* nonnull getelementptr inbounds ([8 x i8], [8 x i8]* @.str.119, i32 0, i32 0)) #7, !dbg !1545
  call void @llvm.dbg.value(metadata %"class.Halide::Runtime::Internal::(anonymous namespace)::Printer"* undef, metadata !841, metadata !DIExpression()) #9, !dbg !1546
  br i1 %160, label %168, label %169, !dbg !1548

168:                                              ; preds = %163
  tail call void @halide_error(i8* %0, i8* getelementptr inbounds ([35 x i8], [35 x i8]* @.str.116, i32 0, i32 0)) #7, !dbg !1549
  br label %176, !dbg !1550

169:                                              ; preds = %163
  call void @llvm.dbg.value(metadata %"class.Halide::Runtime::Internal::(anonymous namespace)::Printer"* undef, metadata !855, metadata !DIExpression()) #9, !dbg !1551
  %170 = ptrtoint i8* %167 to i32, !dbg !1553
  %171 = ptrtoint i8* %159 to i32, !dbg !1553
  %172 = sub i32 1, %171, !dbg !1553
  %173 = add i32 %172, %170, !dbg !1554
  %174 = sext i32 %173 to i64, !dbg !1555
  %175 = tail call i32 @halide_msan_annotate_memory_is_initialized(i8* %0, i8* nonnull %159, i64 %174) #7, !dbg !1556
  tail call void @halide_print(i8* %0, i8* nonnull %159) #7, !dbg !1557
  br label %176

176:                                              ; preds = %169, %168
  tail call void @free(i8* %159) #7, !dbg !1558
  %177 = tail call i8* @halide_get_library_symbol(i8* %16, i8* getelementptr inbounds ([26 x i8], [26 x i8]* @.str.10, i32 0, i32 0)) #7, !dbg !1559
  store i8* %177, i8** bitcast (i32 (i32, i32, %"struct.Halide::Runtime::Internal::Hexagon::_remote_buffer__seq_octet"*, i32, %"struct.Halide::Runtime::Internal::Hexagon::_remote_buffer__seq_octet"*, i32, %"struct.Halide::Runtime::Internal::Hexagon::_remote_buffer__seq_octet"*, i32)** @_ZN6Halide7Runtime8Internal7Hexagon10remote_runE to i8**), align 4, !dbg !1560, !tbaa !1103
  call void @llvm.dbg.value(metadata %"class.Halide::Runtime::Internal::(anonymous namespace)::Printer"* undef, metadata !815, metadata !DIExpression()) #9, !dbg !1561
  call void @llvm.dbg.value(metadata i8* %0, metadata !818, metadata !DIExpression()) #9, !dbg !1561
  call void @llvm.dbg.value(metadata i8* null, metadata !819, metadata !DIExpression()) #9, !dbg !1561
  %178 = tail call i8* @malloc(i32 1024) #7, !dbg !1563
  %179 = icmp eq i8* %178, null, !dbg !1564
  br i1 %179, label %182, label %180, !dbg !1565

180:                                              ; preds = %176
  %181 = getelementptr inbounds i8, i8* %178, i32 1023, !dbg !1566
  store i8 0, i8* %181, align 1, !dbg !1567, !tbaa !854
  br label %182, !dbg !1568

182:                                              ; preds = %180, %176
  %183 = phi i8* [ %181, %180 ], [ null, %176 ], !dbg !1569
  call void @llvm.dbg.value(metadata %"class.Halide::Runtime::Internal::(anonymous namespace)::Printer"* undef, metadata !832, metadata !DIExpression()) #9, !dbg !1570
  call void @llvm.dbg.value(metadata i8* getelementptr inbounds ([9 x i8], [9 x i8]* @.str.38, i32 0, i32 0), metadata !835, metadata !DIExpression()) #9, !dbg !1570
  %184 = tail call i8* @halide_string_to_string(i8* %178, i8* %183, i8* nonnull getelementptr inbounds ([9 x i8], [9 x i8]* @.str.38, i32 0, i32 0)) #7, !dbg !1572
  %185 = load i8*, i8** bitcast (i32 (i32, i32, %"struct.Halide::Runtime::Internal::Hexagon::_remote_buffer__seq_octet"*, i32, %"struct.Halide::Runtime::Internal::Hexagon::_remote_buffer__seq_octet"*, i32, %"struct.Halide::Runtime::Internal::Hexagon::_remote_buffer__seq_octet"*, i32)** @_ZN6Halide7Runtime8Internal7Hexagon10remote_runE to i8**), align 4, !dbg !1573, !tbaa !1103
  call void @llvm.dbg.value(metadata %"class.Halide::Runtime::Internal::(anonymous namespace)::Printer"* undef, metadata !1257, metadata !DIExpression()) #9, !dbg !1574
  call void @llvm.dbg.value(metadata i8* %185, metadata !1260, metadata !DIExpression()) #9, !dbg !1574
  %186 = tail call i8* @halide_pointer_to_string(i8* %184, i8* %183, i8* %185) #7, !dbg !1576
  call void @llvm.dbg.value(metadata %"class.Halide::Runtime::Internal::(anonymous namespace)::Printer"* undef, metadata !832, metadata !DIExpression()) #9, !dbg !1577
  call void @llvm.dbg.value(metadata i8* getelementptr inbounds ([2 x i8], [2 x i8]* @.str.2, i32 0, i32 0), metadata !835, metadata !DIExpression()) #9, !dbg !1577
  %187 = tail call i8* @halide_string_to_string(i8* %186, i8* %183, i8* nonnull getelementptr inbounds ([2 x i8], [2 x i8]* @.str.2, i32 0, i32 0)) #7, !dbg !1579
  call void @llvm.dbg.value(metadata %"class.Halide::Runtime::Internal::(anonymous namespace)::Printer"* undef, metadata !841, metadata !DIExpression()) #9, !dbg !1580
  br i1 %179, label %188, label %189, !dbg !1582

188:                                              ; preds = %182
  tail call void @halide_error(i8* %0, i8* getelementptr inbounds ([35 x i8], [35 x i8]* @.str.116, i32 0, i32 0)) #7, !dbg !1583
  br label %196, !dbg !1584

189:                                              ; preds = %182
  call void @llvm.dbg.value(metadata %"class.Halide::Runtime::Internal::(anonymous namespace)::Printer"* undef, metadata !855, metadata !DIExpression()) #9, !dbg !1585
  %190 = ptrtoint i8* %187 to i32, !dbg !1587
  %191 = ptrtoint i8* %178 to i32, !dbg !1587
  %192 = sub i32 1, %191, !dbg !1587
  %193 = add i32 %192, %190, !dbg !1588
  %194 = sext i32 %193 to i64, !dbg !1589
  %195 = tail call i32 @halide_msan_annotate_memory_is_initialized(i8* %0, i8* nonnull %178, i64 %194) #7, !dbg !1590
  tail call void @halide_print(i8* %0, i8* nonnull %178) #7, !dbg !1591
  br label %196

196:                                              ; preds = %189, %188
  tail call void @free(i8* %178) #7, !dbg !1592
  %197 = load i32 (i32, i32, %"struct.Halide::Runtime::Internal::Hexagon::_remote_buffer__seq_octet"*, i32, %"struct.Halide::Runtime::Internal::Hexagon::_remote_buffer__seq_octet"*, i32, %"struct.Halide::Runtime::Internal::Hexagon::_remote_buffer__seq_octet"*, i32)*, i32 (i32, i32, %"struct.Halide::Runtime::Internal::Hexagon::_remote_buffer__seq_octet"*, i32, %"struct.Halide::Runtime::Internal::Hexagon::_remote_buffer__seq_octet"*, i32, %"struct.Halide::Runtime::Internal::Hexagon::_remote_buffer__seq_octet"*, i32)** @_ZN6Halide7Runtime8Internal7Hexagon10remote_runE, align 4, !dbg !1593, !tbaa !1103
  %198 = icmp eq i32 (i32, i32, %"struct.Halide::Runtime::Internal::Hexagon::_remote_buffer__seq_octet"*, i32, %"struct.Halide::Runtime::Internal::Hexagon::_remote_buffer__seq_octet"*, i32, %"struct.Halide::Runtime::Internal::Hexagon::_remote_buffer__seq_octet"*, i32)* %197, null, !dbg !1593
  br i1 %198, label %199, label %220, !dbg !1595

199:                                              ; preds = %196
  call void @llvm.dbg.value(metadata %"class.Halide::Runtime::Internal::(anonymous namespace)::Printer.0"* undef, metadata !1172, metadata !DIExpression()) #9, !dbg !1596
  call void @llvm.dbg.value(metadata i8* %0, metadata !1175, metadata !DIExpression()) #9, !dbg !1596
  call void @llvm.dbg.value(metadata i8* null, metadata !1176, metadata !DIExpression()) #9, !dbg !1596
  %200 = tail call i8* @malloc(i32 1024) #7, !dbg !1599
  %201 = icmp eq i8* %200, null, !dbg !1600
  br i1 %201, label %204, label %202, !dbg !1601

202:                                              ; preds = %199
  %203 = getelementptr inbounds i8, i8* %200, i32 1023, !dbg !1602
  store i8 0, i8* %203, align 1, !dbg !1603, !tbaa !854
  br label %204, !dbg !1604

204:                                              ; preds = %202, %199
  %205 = phi i8* [ %203, %202 ], [ null, %199 ], !dbg !1605
  call void @llvm.dbg.value(metadata %"class.Halide::Runtime::Internal::(anonymous namespace)::Printer.0"* undef, metadata !1189, metadata !DIExpression()) #9, !dbg !1606
  call void @llvm.dbg.value(metadata i8* getelementptr inbounds ([34 x i8], [34 x i8]* @.str.120, i32 0, i32 0), metadata !1192, metadata !DIExpression()) #9, !dbg !1606
  %206 = tail call i8* @halide_string_to_string(i8* %200, i8* %205, i8* nonnull getelementptr inbounds ([34 x i8], [34 x i8]* @.str.120, i32 0, i32 0)) #7, !dbg !1608
  call void @llvm.dbg.value(metadata %"class.Halide::Runtime::Internal::(anonymous namespace)::Printer.0"* undef, metadata !1189, metadata !DIExpression()) #9, !dbg !1609
  call void @llvm.dbg.value(metadata i8* getelementptr inbounds ([26 x i8], [26 x i8]* @.str.10, i32 0, i32 0), metadata !1192, metadata !DIExpression()) #9, !dbg !1609
  %207 = tail call i8* @halide_string_to_string(i8* %206, i8* %205, i8* nonnull getelementptr inbounds ([26 x i8], [26 x i8]* @.str.10, i32 0, i32 0)) #7, !dbg !1611
  call void @llvm.dbg.value(metadata %"class.Halide::Runtime::Internal::(anonymous namespace)::Printer.0"* undef, metadata !1189, metadata !DIExpression()) #9, !dbg !1612
  call void @llvm.dbg.value(metadata i8* getelementptr inbounds ([14 x i8], [14 x i8]* @.str.121, i32 0, i32 0), metadata !1192, metadata !DIExpression()) #9, !dbg !1612
  %208 = tail call i8* @halide_string_to_string(i8* %207, i8* %205, i8* nonnull getelementptr inbounds ([14 x i8], [14 x i8]* @.str.121, i32 0, i32 0)) #7, !dbg !1614
  call void @llvm.dbg.value(metadata %"class.Halide::Runtime::Internal::(anonymous namespace)::Printer.0"* undef, metadata !1198, metadata !DIExpression()) #9, !dbg !1615
  br i1 %201, label %209, label %210, !dbg !1617

209:                                              ; preds = %204
  tail call void @halide_error(i8* %0, i8* getelementptr inbounds ([35 x i8], [35 x i8]* @.str.116, i32 0, i32 0)) #7, !dbg !1618
  br label %217, !dbg !1619

210:                                              ; preds = %204
  call void @llvm.dbg.value(metadata %"class.Halide::Runtime::Internal::(anonymous namespace)::Printer.0"* undef, metadata !1211, metadata !DIExpression()) #9, !dbg !1620
  %211 = ptrtoint i8* %208 to i32, !dbg !1622
  %212 = ptrtoint i8* %200 to i32, !dbg !1622
  %213 = sub i32 1, %212, !dbg !1622
  %214 = add i32 %213, %211, !dbg !1623
  %215 = sext i32 %214 to i64, !dbg !1624
  %216 = tail call i32 @halide_msan_annotate_memory_is_initialized(i8* %0, i8* nonnull %200, i64 %215) #7, !dbg !1625
  tail call void @halide_error(i8* %0, i8* nonnull %200) #7, !dbg !1626
  br label %217

217:                                              ; preds = %209, %210
  tail call void @free(i8* %200) #7, !dbg !1627
  %218 = load i32 (i32, i32, %"struct.Halide::Runtime::Internal::Hexagon::_remote_buffer__seq_octet"*, i32, %"struct.Halide::Runtime::Internal::Hexagon::_remote_buffer__seq_octet"*, i32, %"struct.Halide::Runtime::Internal::Hexagon::_remote_buffer__seq_octet"*, i32)*, i32 (i32, i32, %"struct.Halide::Runtime::Internal::Hexagon::_remote_buffer__seq_octet"*, i32, %"struct.Halide::Runtime::Internal::Hexagon::_remote_buffer__seq_octet"*, i32, %"struct.Halide::Runtime::Internal::Hexagon::_remote_buffer__seq_octet"*, i32)** @_ZN6Halide7Runtime8Internal7Hexagon10remote_runE, align 4, !dbg !1628, !tbaa !1103
  %219 = icmp eq i32 (i32, i32, %"struct.Halide::Runtime::Internal::Hexagon::_remote_buffer__seq_octet"*, i32, %"struct.Halide::Runtime::Internal::Hexagon::_remote_buffer__seq_octet"*, i32, %"struct.Halide::Runtime::Internal::Hexagon::_remote_buffer__seq_octet"*, i32)* %218, null, !dbg !1628
  br i1 %219, label %836, label %220, !dbg !1630

220:                                              ; preds = %196, %217
  call void @llvm.dbg.value(metadata i8* %0, metadata !1631, metadata !DIExpression()) #9, !dbg !1643
  call void @llvm.dbg.value(metadata i8* %16, metadata !1637, metadata !DIExpression()) #9, !dbg !1643
  call void @llvm.dbg.value(metadata i8* getelementptr inbounds ([38 x i8], [38 x i8]* @.str.11, i32 0, i32 0), metadata !1638, metadata !DIExpression()) #9, !dbg !1643
  call void @llvm.dbg.value(metadata i32 (i32)** @_ZN6Halide7Runtime8Internal7Hexagon22remote_release_libraryE, metadata !1639, metadata !DIExpression()) #9, !dbg !1643
  call void @llvm.dbg.value(metadata i1 true, metadata !1640, metadata !DIExpression(DW_OP_LLVM_convert, 1, DW_ATE_unsigned, DW_OP_LLVM_convert, 8, DW_ATE_unsigned, DW_OP_stack_value)) #9, !dbg !1643
  call void @llvm.dbg.value(metadata %"class.Halide::Runtime::Internal::(anonymous namespace)::Printer"* undef, metadata !815, metadata !DIExpression()) #9, !dbg !1645
  call void @llvm.dbg.value(metadata i8* %0, metadata !818, metadata !DIExpression()) #9, !dbg !1645
  call void @llvm.dbg.value(metadata i8* null, metadata !819, metadata !DIExpression()) #9, !dbg !1645
  %221 = tail call i8* @malloc(i32 1024) #7, !dbg !1647
  %222 = icmp eq i8* %221, null, !dbg !1648
  br i1 %222, label %225, label %223, !dbg !1649

223:                                              ; preds = %220
  %224 = getelementptr inbounds i8, i8* %221, i32 1023, !dbg !1650
  store i8 0, i8* %224, align 1, !dbg !1651, !tbaa !854
  br label %225, !dbg !1652

225:                                              ; preds = %223, %220
  %226 = phi i8* [ %224, %223 ], [ null, %220 ], !dbg !1653
  call void @llvm.dbg.value(metadata %"class.Halide::Runtime::Internal::(anonymous namespace)::Printer"* undef, metadata !832, metadata !DIExpression()) #9, !dbg !1654
  call void @llvm.dbg.value(metadata i8* getelementptr inbounds ([32 x i8], [32 x i8]* @.str.118, i32 0, i32 0), metadata !835, metadata !DIExpression()) #9, !dbg !1654
  %227 = tail call i8* @halide_string_to_string(i8* %221, i8* %226, i8* nonnull getelementptr inbounds ([32 x i8], [32 x i8]* @.str.118, i32 0, i32 0)) #7, !dbg !1656
  call void @llvm.dbg.value(metadata %"class.Halide::Runtime::Internal::(anonymous namespace)::Printer"* undef, metadata !832, metadata !DIExpression()) #9, !dbg !1657
  call void @llvm.dbg.value(metadata i8* getelementptr inbounds ([38 x i8], [38 x i8]* @.str.11, i32 0, i32 0), metadata !835, metadata !DIExpression()) #9, !dbg !1657
  %228 = tail call i8* @halide_string_to_string(i8* %227, i8* %226, i8* nonnull getelementptr inbounds ([38 x i8], [38 x i8]* @.str.11, i32 0, i32 0)) #7, !dbg !1659
  call void @llvm.dbg.value(metadata %"class.Halide::Runtime::Internal::(anonymous namespace)::Printer"* undef, metadata !832, metadata !DIExpression()) #9, !dbg !1660
  call void @llvm.dbg.value(metadata i8* getelementptr inbounds ([8 x i8], [8 x i8]* @.str.119, i32 0, i32 0), metadata !835, metadata !DIExpression()) #9, !dbg !1660
  %229 = tail call i8* @halide_string_to_string(i8* %228, i8* %226, i8* nonnull getelementptr inbounds ([8 x i8], [8 x i8]* @.str.119, i32 0, i32 0)) #7, !dbg !1662
  call void @llvm.dbg.value(metadata %"class.Halide::Runtime::Internal::(anonymous namespace)::Printer"* undef, metadata !841, metadata !DIExpression()) #9, !dbg !1663
  br i1 %222, label %230, label %231, !dbg !1665

230:                                              ; preds = %225
  tail call void @halide_error(i8* %0, i8* getelementptr inbounds ([35 x i8], [35 x i8]* @.str.116, i32 0, i32 0)) #7, !dbg !1666
  br label %238, !dbg !1667

231:                                              ; preds = %225
  call void @llvm.dbg.value(metadata %"class.Halide::Runtime::Internal::(anonymous namespace)::Printer"* undef, metadata !855, metadata !DIExpression()) #9, !dbg !1668
  %232 = ptrtoint i8* %229 to i32, !dbg !1670
  %233 = ptrtoint i8* %221 to i32, !dbg !1670
  %234 = sub i32 1, %233, !dbg !1670
  %235 = add i32 %234, %232, !dbg !1671
  %236 = sext i32 %235 to i64, !dbg !1672
  %237 = tail call i32 @halide_msan_annotate_memory_is_initialized(i8* %0, i8* nonnull %221, i64 %236) #7, !dbg !1673
  tail call void @halide_print(i8* %0, i8* nonnull %221) #7, !dbg !1674
  br label %238

238:                                              ; preds = %231, %230
  tail call void @free(i8* %221) #7, !dbg !1675
  %239 = tail call i8* @halide_get_library_symbol(i8* %16, i8* getelementptr inbounds ([38 x i8], [38 x i8]* @.str.11, i32 0, i32 0)) #7, !dbg !1676
  store i8* %239, i8** bitcast (i32 (i32)** @_ZN6Halide7Runtime8Internal7Hexagon22remote_release_libraryE to i8**), align 4, !dbg !1677, !tbaa !1103
  call void @llvm.dbg.value(metadata %"class.Halide::Runtime::Internal::(anonymous namespace)::Printer"* undef, metadata !815, metadata !DIExpression()) #9, !dbg !1678
  call void @llvm.dbg.value(metadata i8* %0, metadata !818, metadata !DIExpression()) #9, !dbg !1678
  call void @llvm.dbg.value(metadata i8* null, metadata !819, metadata !DIExpression()) #9, !dbg !1678
  %240 = tail call i8* @malloc(i32 1024) #7, !dbg !1680
  %241 = icmp eq i8* %240, null, !dbg !1681
  br i1 %241, label %244, label %242, !dbg !1682

242:                                              ; preds = %238
  %243 = getelementptr inbounds i8, i8* %240, i32 1023, !dbg !1683
  store i8 0, i8* %243, align 1, !dbg !1684, !tbaa !854
  br label %244, !dbg !1685

244:                                              ; preds = %242, %238
  %245 = phi i8* [ %243, %242 ], [ null, %238 ], !dbg !1686
  call void @llvm.dbg.value(metadata %"class.Halide::Runtime::Internal::(anonymous namespace)::Printer"* undef, metadata !832, metadata !DIExpression()) #9, !dbg !1687
  call void @llvm.dbg.value(metadata i8* getelementptr inbounds ([9 x i8], [9 x i8]* @.str.38, i32 0, i32 0), metadata !835, metadata !DIExpression()) #9, !dbg !1687
  %246 = tail call i8* @halide_string_to_string(i8* %240, i8* %245, i8* nonnull getelementptr inbounds ([9 x i8], [9 x i8]* @.str.38, i32 0, i32 0)) #7, !dbg !1689
  %247 = load i8*, i8** bitcast (i32 (i32)** @_ZN6Halide7Runtime8Internal7Hexagon22remote_release_libraryE to i8**), align 4, !dbg !1690, !tbaa !1103
  call void @llvm.dbg.value(metadata %"class.Halide::Runtime::Internal::(anonymous namespace)::Printer"* undef, metadata !1257, metadata !DIExpression()) #9, !dbg !1691
  call void @llvm.dbg.value(metadata i8* %247, metadata !1260, metadata !DIExpression()) #9, !dbg !1691
  %248 = tail call i8* @halide_pointer_to_string(i8* %246, i8* %245, i8* %247) #7, !dbg !1693
  call void @llvm.dbg.value(metadata %"class.Halide::Runtime::Internal::(anonymous namespace)::Printer"* undef, metadata !832, metadata !DIExpression()) #9, !dbg !1694
  call void @llvm.dbg.value(metadata i8* getelementptr inbounds ([2 x i8], [2 x i8]* @.str.2, i32 0, i32 0), metadata !835, metadata !DIExpression()) #9, !dbg !1694
  %249 = tail call i8* @halide_string_to_string(i8* %248, i8* %245, i8* nonnull getelementptr inbounds ([2 x i8], [2 x i8]* @.str.2, i32 0, i32 0)) #7, !dbg !1696
  call void @llvm.dbg.value(metadata %"class.Halide::Runtime::Internal::(anonymous namespace)::Printer"* undef, metadata !841, metadata !DIExpression()) #9, !dbg !1697
  br i1 %241, label %250, label %251, !dbg !1699

250:                                              ; preds = %244
  tail call void @halide_error(i8* %0, i8* getelementptr inbounds ([35 x i8], [35 x i8]* @.str.116, i32 0, i32 0)) #7, !dbg !1700
  br label %258, !dbg !1701

251:                                              ; preds = %244
  call void @llvm.dbg.value(metadata %"class.Halide::Runtime::Internal::(anonymous namespace)::Printer"* undef, metadata !855, metadata !DIExpression()) #9, !dbg !1702
  %252 = ptrtoint i8* %249 to i32, !dbg !1704
  %253 = ptrtoint i8* %240 to i32, !dbg !1704
  %254 = sub i32 1, %253, !dbg !1704
  %255 = add i32 %254, %252, !dbg !1705
  %256 = sext i32 %255 to i64, !dbg !1706
  %257 = tail call i32 @halide_msan_annotate_memory_is_initialized(i8* %0, i8* nonnull %240, i64 %256) #7, !dbg !1707
  tail call void @halide_print(i8* %0, i8* nonnull %240) #7, !dbg !1708
  br label %258

258:                                              ; preds = %251, %250
  tail call void @free(i8* %240) #7, !dbg !1709
  %259 = load i32 (i32)*, i32 (i32)** @_ZN6Halide7Runtime8Internal7Hexagon22remote_release_libraryE, align 4, !dbg !1710, !tbaa !1103
  %260 = icmp eq i32 (i32)* %259, null, !dbg !1710
  br i1 %260, label %261, label %282, !dbg !1712

261:                                              ; preds = %258
  call void @llvm.dbg.value(metadata %"class.Halide::Runtime::Internal::(anonymous namespace)::Printer.0"* undef, metadata !1172, metadata !DIExpression()) #9, !dbg !1713
  call void @llvm.dbg.value(metadata i8* %0, metadata !1175, metadata !DIExpression()) #9, !dbg !1713
  call void @llvm.dbg.value(metadata i8* null, metadata !1176, metadata !DIExpression()) #9, !dbg !1713
  %262 = tail call i8* @malloc(i32 1024) #7, !dbg !1716
  %263 = icmp eq i8* %262, null, !dbg !1717
  br i1 %263, label %266, label %264, !dbg !1718

264:                                              ; preds = %261
  %265 = getelementptr inbounds i8, i8* %262, i32 1023, !dbg !1719
  store i8 0, i8* %265, align 1, !dbg !1720, !tbaa !854
  br label %266, !dbg !1721

266:                                              ; preds = %264, %261
  %267 = phi i8* [ %265, %264 ], [ null, %261 ], !dbg !1722
  call void @llvm.dbg.value(metadata %"class.Halide::Runtime::Internal::(anonymous namespace)::Printer.0"* undef, metadata !1189, metadata !DIExpression()) #9, !dbg !1723
  call void @llvm.dbg.value(metadata i8* getelementptr inbounds ([34 x i8], [34 x i8]* @.str.120, i32 0, i32 0), metadata !1192, metadata !DIExpression()) #9, !dbg !1723
  %268 = tail call i8* @halide_string_to_string(i8* %262, i8* %267, i8* nonnull getelementptr inbounds ([34 x i8], [34 x i8]* @.str.120, i32 0, i32 0)) #7, !dbg !1725
  call void @llvm.dbg.value(metadata %"class.Halide::Runtime::Internal::(anonymous namespace)::Printer.0"* undef, metadata !1189, metadata !DIExpression()) #9, !dbg !1726
  call void @llvm.dbg.value(metadata i8* getelementptr inbounds ([38 x i8], [38 x i8]* @.str.11, i32 0, i32 0), metadata !1192, metadata !DIExpression()) #9, !dbg !1726
  %269 = tail call i8* @halide_string_to_string(i8* %268, i8* %267, i8* nonnull getelementptr inbounds ([38 x i8], [38 x i8]* @.str.11, i32 0, i32 0)) #7, !dbg !1728
  call void @llvm.dbg.value(metadata %"class.Halide::Runtime::Internal::(anonymous namespace)::Printer.0"* undef, metadata !1189, metadata !DIExpression()) #9, !dbg !1729
  call void @llvm.dbg.value(metadata i8* getelementptr inbounds ([14 x i8], [14 x i8]* @.str.121, i32 0, i32 0), metadata !1192, metadata !DIExpression()) #9, !dbg !1729
  %270 = tail call i8* @halide_string_to_string(i8* %269, i8* %267, i8* nonnull getelementptr inbounds ([14 x i8], [14 x i8]* @.str.121, i32 0, i32 0)) #7, !dbg !1731
  call void @llvm.dbg.value(metadata %"class.Halide::Runtime::Internal::(anonymous namespace)::Printer.0"* undef, metadata !1198, metadata !DIExpression()) #9, !dbg !1732
  br i1 %263, label %271, label %272, !dbg !1734

271:                                              ; preds = %266
  tail call void @halide_error(i8* %0, i8* getelementptr inbounds ([35 x i8], [35 x i8]* @.str.116, i32 0, i32 0)) #7, !dbg !1735
  br label %279, !dbg !1736

272:                                              ; preds = %266
  call void @llvm.dbg.value(metadata %"class.Halide::Runtime::Internal::(anonymous namespace)::Printer.0"* undef, metadata !1211, metadata !DIExpression()) #9, !dbg !1737
  %273 = ptrtoint i8* %270 to i32, !dbg !1739
  %274 = ptrtoint i8* %262 to i32, !dbg !1739
  %275 = sub i32 1, %274, !dbg !1739
  %276 = add i32 %275, %273, !dbg !1740
  %277 = sext i32 %276 to i64, !dbg !1741
  %278 = tail call i32 @halide_msan_annotate_memory_is_initialized(i8* %0, i8* nonnull %262, i64 %277) #7, !dbg !1742
  tail call void @halide_error(i8* %0, i8* nonnull %262) #7, !dbg !1743
  br label %279

279:                                              ; preds = %271, %272
  tail call void @free(i8* %262) #7, !dbg !1744
  %280 = load i32 (i32)*, i32 (i32)** @_ZN6Halide7Runtime8Internal7Hexagon22remote_release_libraryE, align 4, !dbg !1745, !tbaa !1103
  %281 = icmp eq i32 (i32)* %280, null, !dbg !1745
  br i1 %281, label %836, label %282, !dbg !1747

282:                                              ; preds = %258, %279
  call void @llvm.dbg.value(metadata i8* %0, metadata !1748, metadata !DIExpression()) #9, !dbg !1760
  call void @llvm.dbg.value(metadata i8* %16, metadata !1754, metadata !DIExpression()) #9, !dbg !1760
  call void @llvm.dbg.value(metadata i8* getelementptr inbounds ([32 x i8], [32 x i8]* @.str.12, i32 0, i32 0), metadata !1755, metadata !DIExpression()) #9, !dbg !1760
  call void @llvm.dbg.value(metadata void ()** @_ZN6Halide7Runtime8Internal7Hexagon16host_malloc_initE, metadata !1756, metadata !DIExpression()) #9, !dbg !1760
  call void @llvm.dbg.value(metadata i1 true, metadata !1757, metadata !DIExpression(DW_OP_LLVM_convert, 1, DW_ATE_unsigned, DW_OP_LLVM_convert, 8, DW_ATE_unsigned, DW_OP_stack_value)) #9, !dbg !1760
  call void @llvm.dbg.value(metadata %"class.Halide::Runtime::Internal::(anonymous namespace)::Printer"* undef, metadata !815, metadata !DIExpression()) #9, !dbg !1762
  call void @llvm.dbg.value(metadata i8* %0, metadata !818, metadata !DIExpression()) #9, !dbg !1762
  call void @llvm.dbg.value(metadata i8* null, metadata !819, metadata !DIExpression()) #9, !dbg !1762
  %283 = tail call i8* @malloc(i32 1024) #7, !dbg !1764
  %284 = icmp eq i8* %283, null, !dbg !1765
  br i1 %284, label %287, label %285, !dbg !1766

285:                                              ; preds = %282
  %286 = getelementptr inbounds i8, i8* %283, i32 1023, !dbg !1767
  store i8 0, i8* %286, align 1, !dbg !1768, !tbaa !854
  br label %287, !dbg !1769

287:                                              ; preds = %285, %282
  %288 = phi i8* [ %286, %285 ], [ null, %282 ], !dbg !1770
  call void @llvm.dbg.value(metadata %"class.Halide::Runtime::Internal::(anonymous namespace)::Printer"* undef, metadata !832, metadata !DIExpression()) #9, !dbg !1771
  call void @llvm.dbg.value(metadata i8* getelementptr inbounds ([32 x i8], [32 x i8]* @.str.118, i32 0, i32 0), metadata !835, metadata !DIExpression()) #9, !dbg !1771
  %289 = tail call i8* @halide_string_to_string(i8* %283, i8* %288, i8* nonnull getelementptr inbounds ([32 x i8], [32 x i8]* @.str.118, i32 0, i32 0)) #7, !dbg !1773
  call void @llvm.dbg.value(metadata %"class.Halide::Runtime::Internal::(anonymous namespace)::Printer"* undef, metadata !832, metadata !DIExpression()) #9, !dbg !1774
  call void @llvm.dbg.value(metadata i8* getelementptr inbounds ([32 x i8], [32 x i8]* @.str.12, i32 0, i32 0), metadata !835, metadata !DIExpression()) #9, !dbg !1774
  %290 = tail call i8* @halide_string_to_string(i8* %289, i8* %288, i8* nonnull getelementptr inbounds ([32 x i8], [32 x i8]* @.str.12, i32 0, i32 0)) #7, !dbg !1776
  call void @llvm.dbg.value(metadata %"class.Halide::Runtime::Internal::(anonymous namespace)::Printer"* undef, metadata !832, metadata !DIExpression()) #9, !dbg !1777
  call void @llvm.dbg.value(metadata i8* getelementptr inbounds ([8 x i8], [8 x i8]* @.str.119, i32 0, i32 0), metadata !835, metadata !DIExpression()) #9, !dbg !1777
  %291 = tail call i8* @halide_string_to_string(i8* %290, i8* %288, i8* nonnull getelementptr inbounds ([8 x i8], [8 x i8]* @.str.119, i32 0, i32 0)) #7, !dbg !1779
  call void @llvm.dbg.value(metadata %"class.Halide::Runtime::Internal::(anonymous namespace)::Printer"* undef, metadata !841, metadata !DIExpression()) #9, !dbg !1780
  br i1 %284, label %292, label %293, !dbg !1782

292:                                              ; preds = %287
  tail call void @halide_error(i8* %0, i8* getelementptr inbounds ([35 x i8], [35 x i8]* @.str.116, i32 0, i32 0)) #7, !dbg !1783
  br label %300, !dbg !1784

293:                                              ; preds = %287
  call void @llvm.dbg.value(metadata %"class.Halide::Runtime::Internal::(anonymous namespace)::Printer"* undef, metadata !855, metadata !DIExpression()) #9, !dbg !1785
  %294 = ptrtoint i8* %291 to i32, !dbg !1787
  %295 = ptrtoint i8* %283 to i32, !dbg !1787
  %296 = sub i32 1, %295, !dbg !1787
  %297 = add i32 %296, %294, !dbg !1788
  %298 = sext i32 %297 to i64, !dbg !1789
  %299 = tail call i32 @halide_msan_annotate_memory_is_initialized(i8* %0, i8* nonnull %283, i64 %298) #7, !dbg !1790
  tail call void @halide_print(i8* %0, i8* nonnull %283) #7, !dbg !1791
  br label %300

300:                                              ; preds = %293, %292
  tail call void @free(i8* %283) #7, !dbg !1792
  %301 = tail call i8* @halide_get_library_symbol(i8* %16, i8* getelementptr inbounds ([32 x i8], [32 x i8]* @.str.12, i32 0, i32 0)) #7, !dbg !1793
  store i8* %301, i8** bitcast (void ()** @_ZN6Halide7Runtime8Internal7Hexagon16host_malloc_initE to i8**), align 4, !dbg !1794, !tbaa !1103
  call void @llvm.dbg.value(metadata %"class.Halide::Runtime::Internal::(anonymous namespace)::Printer"* undef, metadata !815, metadata !DIExpression()) #9, !dbg !1795
  call void @llvm.dbg.value(metadata i8* %0, metadata !818, metadata !DIExpression()) #9, !dbg !1795
  call void @llvm.dbg.value(metadata i8* null, metadata !819, metadata !DIExpression()) #9, !dbg !1795
  %302 = tail call i8* @malloc(i32 1024) #7, !dbg !1797
  %303 = icmp eq i8* %302, null, !dbg !1798
  br i1 %303, label %306, label %304, !dbg !1799

304:                                              ; preds = %300
  %305 = getelementptr inbounds i8, i8* %302, i32 1023, !dbg !1800
  store i8 0, i8* %305, align 1, !dbg !1801, !tbaa !854
  br label %306, !dbg !1802

306:                                              ; preds = %304, %300
  %307 = phi i8* [ %305, %304 ], [ null, %300 ], !dbg !1803
  call void @llvm.dbg.value(metadata %"class.Halide::Runtime::Internal::(anonymous namespace)::Printer"* undef, metadata !832, metadata !DIExpression()) #9, !dbg !1804
  call void @llvm.dbg.value(metadata i8* getelementptr inbounds ([9 x i8], [9 x i8]* @.str.38, i32 0, i32 0), metadata !835, metadata !DIExpression()) #9, !dbg !1804
  %308 = tail call i8* @halide_string_to_string(i8* %302, i8* %307, i8* nonnull getelementptr inbounds ([9 x i8], [9 x i8]* @.str.38, i32 0, i32 0)) #7, !dbg !1806
  %309 = load i8*, i8** bitcast (void ()** @_ZN6Halide7Runtime8Internal7Hexagon16host_malloc_initE to i8**), align 4, !dbg !1807, !tbaa !1103
  call void @llvm.dbg.value(metadata %"class.Halide::Runtime::Internal::(anonymous namespace)::Printer"* undef, metadata !1257, metadata !DIExpression()) #9, !dbg !1808
  call void @llvm.dbg.value(metadata i8* %309, metadata !1260, metadata !DIExpression()) #9, !dbg !1808
  %310 = tail call i8* @halide_pointer_to_string(i8* %308, i8* %307, i8* %309) #7, !dbg !1810
  call void @llvm.dbg.value(metadata %"class.Halide::Runtime::Internal::(anonymous namespace)::Printer"* undef, metadata !832, metadata !DIExpression()) #9, !dbg !1811
  call void @llvm.dbg.value(metadata i8* getelementptr inbounds ([2 x i8], [2 x i8]* @.str.2, i32 0, i32 0), metadata !835, metadata !DIExpression()) #9, !dbg !1811
  %311 = tail call i8* @halide_string_to_string(i8* %310, i8* %307, i8* nonnull getelementptr inbounds ([2 x i8], [2 x i8]* @.str.2, i32 0, i32 0)) #7, !dbg !1813
  call void @llvm.dbg.value(metadata %"class.Halide::Runtime::Internal::(anonymous namespace)::Printer"* undef, metadata !841, metadata !DIExpression()) #9, !dbg !1814
  br i1 %303, label %312, label %313, !dbg !1816

312:                                              ; preds = %306
  tail call void @halide_error(i8* %0, i8* getelementptr inbounds ([35 x i8], [35 x i8]* @.str.116, i32 0, i32 0)) #7, !dbg !1817
  br label %320, !dbg !1818

313:                                              ; preds = %306
  call void @llvm.dbg.value(metadata %"class.Halide::Runtime::Internal::(anonymous namespace)::Printer"* undef, metadata !855, metadata !DIExpression()) #9, !dbg !1819
  %314 = ptrtoint i8* %311 to i32, !dbg !1821
  %315 = ptrtoint i8* %302 to i32, !dbg !1821
  %316 = sub i32 1, %315, !dbg !1821
  %317 = add i32 %316, %314, !dbg !1822
  %318 = sext i32 %317 to i64, !dbg !1823
  %319 = tail call i32 @halide_msan_annotate_memory_is_initialized(i8* %0, i8* nonnull %302, i64 %318) #7, !dbg !1824
  tail call void @halide_print(i8* %0, i8* nonnull %302) #7, !dbg !1825
  br label %320

320:                                              ; preds = %313, %312
  tail call void @free(i8* %302) #7, !dbg !1826
  %321 = load void ()*, void ()** @_ZN6Halide7Runtime8Internal7Hexagon16host_malloc_initE, align 4, !dbg !1827, !tbaa !1103
  %322 = icmp eq void ()* %321, null, !dbg !1827
  br i1 %322, label %323, label %344, !dbg !1829

323:                                              ; preds = %320
  call void @llvm.dbg.value(metadata %"class.Halide::Runtime::Internal::(anonymous namespace)::Printer.0"* undef, metadata !1172, metadata !DIExpression()) #9, !dbg !1830
  call void @llvm.dbg.value(metadata i8* %0, metadata !1175, metadata !DIExpression()) #9, !dbg !1830
  call void @llvm.dbg.value(metadata i8* null, metadata !1176, metadata !DIExpression()) #9, !dbg !1830
  %324 = tail call i8* @malloc(i32 1024) #7, !dbg !1833
  %325 = icmp eq i8* %324, null, !dbg !1834
  br i1 %325, label %328, label %326, !dbg !1835

326:                                              ; preds = %323
  %327 = getelementptr inbounds i8, i8* %324, i32 1023, !dbg !1836
  store i8 0, i8* %327, align 1, !dbg !1837, !tbaa !854
  br label %328, !dbg !1838

328:                                              ; preds = %326, %323
  %329 = phi i8* [ %327, %326 ], [ null, %323 ], !dbg !1839
  call void @llvm.dbg.value(metadata %"class.Halide::Runtime::Internal::(anonymous namespace)::Printer.0"* undef, metadata !1189, metadata !DIExpression()) #9, !dbg !1840
  call void @llvm.dbg.value(metadata i8* getelementptr inbounds ([34 x i8], [34 x i8]* @.str.120, i32 0, i32 0), metadata !1192, metadata !DIExpression()) #9, !dbg !1840
  %330 = tail call i8* @halide_string_to_string(i8* %324, i8* %329, i8* nonnull getelementptr inbounds ([34 x i8], [34 x i8]* @.str.120, i32 0, i32 0)) #7, !dbg !1842
  call void @llvm.dbg.value(metadata %"class.Halide::Runtime::Internal::(anonymous namespace)::Printer.0"* undef, metadata !1189, metadata !DIExpression()) #9, !dbg !1843
  call void @llvm.dbg.value(metadata i8* getelementptr inbounds ([32 x i8], [32 x i8]* @.str.12, i32 0, i32 0), metadata !1192, metadata !DIExpression()) #9, !dbg !1843
  %331 = tail call i8* @halide_string_to_string(i8* %330, i8* %329, i8* nonnull getelementptr inbounds ([32 x i8], [32 x i8]* @.str.12, i32 0, i32 0)) #7, !dbg !1845
  call void @llvm.dbg.value(metadata %"class.Halide::Runtime::Internal::(anonymous namespace)::Printer.0"* undef, metadata !1189, metadata !DIExpression()) #9, !dbg !1846
  call void @llvm.dbg.value(metadata i8* getelementptr inbounds ([14 x i8], [14 x i8]* @.str.121, i32 0, i32 0), metadata !1192, metadata !DIExpression()) #9, !dbg !1846
  %332 = tail call i8* @halide_string_to_string(i8* %331, i8* %329, i8* nonnull getelementptr inbounds ([14 x i8], [14 x i8]* @.str.121, i32 0, i32 0)) #7, !dbg !1848
  call void @llvm.dbg.value(metadata %"class.Halide::Runtime::Internal::(anonymous namespace)::Printer.0"* undef, metadata !1198, metadata !DIExpression()) #9, !dbg !1849
  br i1 %325, label %333, label %334, !dbg !1851

333:                                              ; preds = %328
  tail call void @halide_error(i8* %0, i8* getelementptr inbounds ([35 x i8], [35 x i8]* @.str.116, i32 0, i32 0)) #7, !dbg !1852
  br label %341, !dbg !1853

334:                                              ; preds = %328
  call void @llvm.dbg.value(metadata %"class.Halide::Runtime::Internal::(anonymous namespace)::Printer.0"* undef, metadata !1211, metadata !DIExpression()) #9, !dbg !1854
  %335 = ptrtoint i8* %332 to i32, !dbg !1856
  %336 = ptrtoint i8* %324 to i32, !dbg !1856
  %337 = sub i32 1, %336, !dbg !1856
  %338 = add i32 %337, %335, !dbg !1857
  %339 = sext i32 %338 to i64, !dbg !1858
  %340 = tail call i32 @halide_msan_annotate_memory_is_initialized(i8* %0, i8* nonnull %324, i64 %339) #7, !dbg !1859
  tail call void @halide_error(i8* %0, i8* nonnull %324) #7, !dbg !1860
  br label %341

341:                                              ; preds = %333, %334
  tail call void @free(i8* %324) #7, !dbg !1861
  %342 = load void ()*, void ()** @_ZN6Halide7Runtime8Internal7Hexagon16host_malloc_initE, align 4, !dbg !1862, !tbaa !1103
  %343 = icmp eq void ()* %342, null, !dbg !1862
  br i1 %343, label %836, label %344, !dbg !1864

344:                                              ; preds = %320, %341
  call void @llvm.dbg.value(metadata i8* %0, metadata !1748, metadata !DIExpression()) #9, !dbg !1865
  call void @llvm.dbg.value(metadata i8* %16, metadata !1754, metadata !DIExpression()) #9, !dbg !1865
  call void @llvm.dbg.value(metadata i8* getelementptr inbounds ([34 x i8], [34 x i8]* @.str.13, i32 0, i32 0), metadata !1755, metadata !DIExpression()) #9, !dbg !1865
  call void @llvm.dbg.value(metadata void ()** @_ZN6Halide7Runtime8Internal7Hexagon18host_malloc_deinitE, metadata !1756, metadata !DIExpression()) #9, !dbg !1865
  call void @llvm.dbg.value(metadata i1 true, metadata !1757, metadata !DIExpression(DW_OP_LLVM_convert, 1, DW_ATE_unsigned, DW_OP_LLVM_convert, 8, DW_ATE_unsigned, DW_OP_stack_value)) #9, !dbg !1865
  call void @llvm.dbg.value(metadata %"class.Halide::Runtime::Internal::(anonymous namespace)::Printer"* undef, metadata !815, metadata !DIExpression()) #9, !dbg !1867
  call void @llvm.dbg.value(metadata i8* %0, metadata !818, metadata !DIExpression()) #9, !dbg !1867
  call void @llvm.dbg.value(metadata i8* null, metadata !819, metadata !DIExpression()) #9, !dbg !1867
  %345 = tail call i8* @malloc(i32 1024) #7, !dbg !1869
  %346 = icmp eq i8* %345, null, !dbg !1870
  br i1 %346, label %349, label %347, !dbg !1871

347:                                              ; preds = %344
  %348 = getelementptr inbounds i8, i8* %345, i32 1023, !dbg !1872
  store i8 0, i8* %348, align 1, !dbg !1873, !tbaa !854
  br label %349, !dbg !1874

349:                                              ; preds = %347, %344
  %350 = phi i8* [ %348, %347 ], [ null, %344 ], !dbg !1875
  call void @llvm.dbg.value(metadata %"class.Halide::Runtime::Internal::(anonymous namespace)::Printer"* undef, metadata !832, metadata !DIExpression()) #9, !dbg !1876
  call void @llvm.dbg.value(metadata i8* getelementptr inbounds ([32 x i8], [32 x i8]* @.str.118, i32 0, i32 0), metadata !835, metadata !DIExpression()) #9, !dbg !1876
  %351 = tail call i8* @halide_string_to_string(i8* %345, i8* %350, i8* nonnull getelementptr inbounds ([32 x i8], [32 x i8]* @.str.118, i32 0, i32 0)) #7, !dbg !1878
  call void @llvm.dbg.value(metadata %"class.Halide::Runtime::Internal::(anonymous namespace)::Printer"* undef, metadata !832, metadata !DIExpression()) #9, !dbg !1879
  call void @llvm.dbg.value(metadata i8* getelementptr inbounds ([34 x i8], [34 x i8]* @.str.13, i32 0, i32 0), metadata !835, metadata !DIExpression()) #9, !dbg !1879
  %352 = tail call i8* @halide_string_to_string(i8* %351, i8* %350, i8* nonnull getelementptr inbounds ([34 x i8], [34 x i8]* @.str.13, i32 0, i32 0)) #7, !dbg !1881
  call void @llvm.dbg.value(metadata %"class.Halide::Runtime::Internal::(anonymous namespace)::Printer"* undef, metadata !832, metadata !DIExpression()) #9, !dbg !1882
  call void @llvm.dbg.value(metadata i8* getelementptr inbounds ([8 x i8], [8 x i8]* @.str.119, i32 0, i32 0), metadata !835, metadata !DIExpression()) #9, !dbg !1882
  %353 = tail call i8* @halide_string_to_string(i8* %352, i8* %350, i8* nonnull getelementptr inbounds ([8 x i8], [8 x i8]* @.str.119, i32 0, i32 0)) #7, !dbg !1884
  call void @llvm.dbg.value(metadata %"class.Halide::Runtime::Internal::(anonymous namespace)::Printer"* undef, metadata !841, metadata !DIExpression()) #9, !dbg !1885
  br i1 %346, label %354, label %355, !dbg !1887

354:                                              ; preds = %349
  tail call void @halide_error(i8* %0, i8* getelementptr inbounds ([35 x i8], [35 x i8]* @.str.116, i32 0, i32 0)) #7, !dbg !1888
  br label %362, !dbg !1889

355:                                              ; preds = %349
  call void @llvm.dbg.value(metadata %"class.Halide::Runtime::Internal::(anonymous namespace)::Printer"* undef, metadata !855, metadata !DIExpression()) #9, !dbg !1890
  %356 = ptrtoint i8* %353 to i32, !dbg !1892
  %357 = ptrtoint i8* %345 to i32, !dbg !1892
  %358 = sub i32 1, %357, !dbg !1892
  %359 = add i32 %358, %356, !dbg !1893
  %360 = sext i32 %359 to i64, !dbg !1894
  %361 = tail call i32 @halide_msan_annotate_memory_is_initialized(i8* %0, i8* nonnull %345, i64 %360) #7, !dbg !1895
  tail call void @halide_print(i8* %0, i8* nonnull %345) #7, !dbg !1896
  br label %362

362:                                              ; preds = %355, %354
  tail call void @free(i8* %345) #7, !dbg !1897
  %363 = tail call i8* @halide_get_library_symbol(i8* %16, i8* getelementptr inbounds ([34 x i8], [34 x i8]* @.str.13, i32 0, i32 0)) #7, !dbg !1898
  store i8* %363, i8** bitcast (void ()** @_ZN6Halide7Runtime8Internal7Hexagon18host_malloc_deinitE to i8**), align 4, !dbg !1899, !tbaa !1103
  call void @llvm.dbg.value(metadata %"class.Halide::Runtime::Internal::(anonymous namespace)::Printer"* undef, metadata !815, metadata !DIExpression()) #9, !dbg !1900
  call void @llvm.dbg.value(metadata i8* %0, metadata !818, metadata !DIExpression()) #9, !dbg !1900
  call void @llvm.dbg.value(metadata i8* null, metadata !819, metadata !DIExpression()) #9, !dbg !1900
  %364 = tail call i8* @malloc(i32 1024) #7, !dbg !1902
  %365 = icmp eq i8* %364, null, !dbg !1903
  br i1 %365, label %368, label %366, !dbg !1904

366:                                              ; preds = %362
  %367 = getelementptr inbounds i8, i8* %364, i32 1023, !dbg !1905
  store i8 0, i8* %367, align 1, !dbg !1906, !tbaa !854
  br label %368, !dbg !1907

368:                                              ; preds = %366, %362
  %369 = phi i8* [ %367, %366 ], [ null, %362 ], !dbg !1908
  call void @llvm.dbg.value(metadata %"class.Halide::Runtime::Internal::(anonymous namespace)::Printer"* undef, metadata !832, metadata !DIExpression()) #9, !dbg !1909
  call void @llvm.dbg.value(metadata i8* getelementptr inbounds ([9 x i8], [9 x i8]* @.str.38, i32 0, i32 0), metadata !835, metadata !DIExpression()) #9, !dbg !1909
  %370 = tail call i8* @halide_string_to_string(i8* %364, i8* %369, i8* nonnull getelementptr inbounds ([9 x i8], [9 x i8]* @.str.38, i32 0, i32 0)) #7, !dbg !1911
  %371 = load i8*, i8** bitcast (void ()** @_ZN6Halide7Runtime8Internal7Hexagon18host_malloc_deinitE to i8**), align 4, !dbg !1912, !tbaa !1103
  call void @llvm.dbg.value(metadata %"class.Halide::Runtime::Internal::(anonymous namespace)::Printer"* undef, metadata !1257, metadata !DIExpression()) #9, !dbg !1913
  call void @llvm.dbg.value(metadata i8* %371, metadata !1260, metadata !DIExpression()) #9, !dbg !1913
  %372 = tail call i8* @halide_pointer_to_string(i8* %370, i8* %369, i8* %371) #7, !dbg !1915
  call void @llvm.dbg.value(metadata %"class.Halide::Runtime::Internal::(anonymous namespace)::Printer"* undef, metadata !832, metadata !DIExpression()) #9, !dbg !1916
  call void @llvm.dbg.value(metadata i8* getelementptr inbounds ([2 x i8], [2 x i8]* @.str.2, i32 0, i32 0), metadata !835, metadata !DIExpression()) #9, !dbg !1916
  %373 = tail call i8* @halide_string_to_string(i8* %372, i8* %369, i8* nonnull getelementptr inbounds ([2 x i8], [2 x i8]* @.str.2, i32 0, i32 0)) #7, !dbg !1918
  call void @llvm.dbg.value(metadata %"class.Halide::Runtime::Internal::(anonymous namespace)::Printer"* undef, metadata !841, metadata !DIExpression()) #9, !dbg !1919
  br i1 %365, label %374, label %375, !dbg !1921

374:                                              ; preds = %368
  tail call void @halide_error(i8* %0, i8* getelementptr inbounds ([35 x i8], [35 x i8]* @.str.116, i32 0, i32 0)) #7, !dbg !1922
  br label %382, !dbg !1923

375:                                              ; preds = %368
  call void @llvm.dbg.value(metadata %"class.Halide::Runtime::Internal::(anonymous namespace)::Printer"* undef, metadata !855, metadata !DIExpression()) #9, !dbg !1924
  %376 = ptrtoint i8* %373 to i32, !dbg !1926
  %377 = ptrtoint i8* %364 to i32, !dbg !1926
  %378 = sub i32 1, %377, !dbg !1926
  %379 = add i32 %378, %376, !dbg !1927
  %380 = sext i32 %379 to i64, !dbg !1928
  %381 = tail call i32 @halide_msan_annotate_memory_is_initialized(i8* %0, i8* nonnull %364, i64 %380) #7, !dbg !1929
  tail call void @halide_print(i8* %0, i8* nonnull %364) #7, !dbg !1930
  br label %382

382:                                              ; preds = %375, %374
  tail call void @free(i8* %364) #7, !dbg !1931
  %383 = load void ()*, void ()** @_ZN6Halide7Runtime8Internal7Hexagon18host_malloc_deinitE, align 4, !dbg !1932, !tbaa !1103
  %384 = icmp eq void ()* %383, null, !dbg !1932
  br i1 %384, label %385, label %406, !dbg !1933

385:                                              ; preds = %382
  call void @llvm.dbg.value(metadata %"class.Halide::Runtime::Internal::(anonymous namespace)::Printer.0"* undef, metadata !1172, metadata !DIExpression()) #9, !dbg !1934
  call void @llvm.dbg.value(metadata i8* %0, metadata !1175, metadata !DIExpression()) #9, !dbg !1934
  call void @llvm.dbg.value(metadata i8* null, metadata !1176, metadata !DIExpression()) #9, !dbg !1934
  %386 = tail call i8* @malloc(i32 1024) #7, !dbg !1936
  %387 = icmp eq i8* %386, null, !dbg !1937
  br i1 %387, label %390, label %388, !dbg !1938

388:                                              ; preds = %385
  %389 = getelementptr inbounds i8, i8* %386, i32 1023, !dbg !1939
  store i8 0, i8* %389, align 1, !dbg !1940, !tbaa !854
  br label %390, !dbg !1941

390:                                              ; preds = %388, %385
  %391 = phi i8* [ %389, %388 ], [ null, %385 ], !dbg !1942
  call void @llvm.dbg.value(metadata %"class.Halide::Runtime::Internal::(anonymous namespace)::Printer.0"* undef, metadata !1189, metadata !DIExpression()) #9, !dbg !1943
  call void @llvm.dbg.value(metadata i8* getelementptr inbounds ([34 x i8], [34 x i8]* @.str.120, i32 0, i32 0), metadata !1192, metadata !DIExpression()) #9, !dbg !1943
  %392 = tail call i8* @halide_string_to_string(i8* %386, i8* %391, i8* nonnull getelementptr inbounds ([34 x i8], [34 x i8]* @.str.120, i32 0, i32 0)) #7, !dbg !1945
  call void @llvm.dbg.value(metadata %"class.Halide::Runtime::Internal::(anonymous namespace)::Printer.0"* undef, metadata !1189, metadata !DIExpression()) #9, !dbg !1946
  call void @llvm.dbg.value(metadata i8* getelementptr inbounds ([34 x i8], [34 x i8]* @.str.13, i32 0, i32 0), metadata !1192, metadata !DIExpression()) #9, !dbg !1946
  %393 = tail call i8* @halide_string_to_string(i8* %392, i8* %391, i8* nonnull getelementptr inbounds ([34 x i8], [34 x i8]* @.str.13, i32 0, i32 0)) #7, !dbg !1948
  call void @llvm.dbg.value(metadata %"class.Halide::Runtime::Internal::(anonymous namespace)::Printer.0"* undef, metadata !1189, metadata !DIExpression()) #9, !dbg !1949
  call void @llvm.dbg.value(metadata i8* getelementptr inbounds ([14 x i8], [14 x i8]* @.str.121, i32 0, i32 0), metadata !1192, metadata !DIExpression()) #9, !dbg !1949
  %394 = tail call i8* @halide_string_to_string(i8* %393, i8* %391, i8* nonnull getelementptr inbounds ([14 x i8], [14 x i8]* @.str.121, i32 0, i32 0)) #7, !dbg !1951
  call void @llvm.dbg.value(metadata %"class.Halide::Runtime::Internal::(anonymous namespace)::Printer.0"* undef, metadata !1198, metadata !DIExpression()) #9, !dbg !1952
  br i1 %387, label %395, label %396, !dbg !1954

395:                                              ; preds = %390
  tail call void @halide_error(i8* %0, i8* getelementptr inbounds ([35 x i8], [35 x i8]* @.str.116, i32 0, i32 0)) #7, !dbg !1955
  br label %403, !dbg !1956

396:                                              ; preds = %390
  call void @llvm.dbg.value(metadata %"class.Halide::Runtime::Internal::(anonymous namespace)::Printer.0"* undef, metadata !1211, metadata !DIExpression()) #9, !dbg !1957
  %397 = ptrtoint i8* %394 to i32, !dbg !1959
  %398 = ptrtoint i8* %386 to i32, !dbg !1959
  %399 = sub i32 1, %398, !dbg !1959
  %400 = add i32 %399, %397, !dbg !1960
  %401 = sext i32 %400 to i64, !dbg !1961
  %402 = tail call i32 @halide_msan_annotate_memory_is_initialized(i8* %0, i8* nonnull %386, i64 %401) #7, !dbg !1962
  tail call void @halide_error(i8* %0, i8* nonnull %386) #7, !dbg !1963
  br label %403

403:                                              ; preds = %395, %396
  tail call void @free(i8* %386) #7, !dbg !1964
  %404 = load void ()*, void ()** @_ZN6Halide7Runtime8Internal7Hexagon18host_malloc_deinitE, align 4, !dbg !1965, !tbaa !1103
  %405 = icmp eq void ()* %404, null, !dbg !1965
  br i1 %405, label %836, label %406, !dbg !1967

406:                                              ; preds = %382, %403
  call void @llvm.dbg.value(metadata i8* %0, metadata !1968, metadata !DIExpression()) #9, !dbg !1980
  call void @llvm.dbg.value(metadata i8* %16, metadata !1974, metadata !DIExpression()) #9, !dbg !1980
  call void @llvm.dbg.value(metadata i8* getelementptr inbounds ([27 x i8], [27 x i8]* @.str.14, i32 0, i32 0), metadata !1975, metadata !DIExpression()) #9, !dbg !1980
  call void @llvm.dbg.value(metadata i8* (i32)** @_ZN6Halide7Runtime8Internal7Hexagon11host_mallocE, metadata !1976, metadata !DIExpression()) #9, !dbg !1980
  call void @llvm.dbg.value(metadata i1 true, metadata !1977, metadata !DIExpression(DW_OP_LLVM_convert, 1, DW_ATE_unsigned, DW_OP_LLVM_convert, 8, DW_ATE_unsigned, DW_OP_stack_value)) #9, !dbg !1980
  call void @llvm.dbg.value(metadata %"class.Halide::Runtime::Internal::(anonymous namespace)::Printer"* undef, metadata !815, metadata !DIExpression()) #9, !dbg !1982
  call void @llvm.dbg.value(metadata i8* %0, metadata !818, metadata !DIExpression()) #9, !dbg !1982
  call void @llvm.dbg.value(metadata i8* null, metadata !819, metadata !DIExpression()) #9, !dbg !1982
  %407 = tail call i8* @malloc(i32 1024) #7, !dbg !1984
  %408 = icmp eq i8* %407, null, !dbg !1985
  br i1 %408, label %411, label %409, !dbg !1986

409:                                              ; preds = %406
  %410 = getelementptr inbounds i8, i8* %407, i32 1023, !dbg !1987
  store i8 0, i8* %410, align 1, !dbg !1988, !tbaa !854
  br label %411, !dbg !1989

411:                                              ; preds = %409, %406
  %412 = phi i8* [ %410, %409 ], [ null, %406 ], !dbg !1990
  call void @llvm.dbg.value(metadata %"class.Halide::Runtime::Internal::(anonymous namespace)::Printer"* undef, metadata !832, metadata !DIExpression()) #9, !dbg !1991
  call void @llvm.dbg.value(metadata i8* getelementptr inbounds ([32 x i8], [32 x i8]* @.str.118, i32 0, i32 0), metadata !835, metadata !DIExpression()) #9, !dbg !1991
  %413 = tail call i8* @halide_string_to_string(i8* %407, i8* %412, i8* nonnull getelementptr inbounds ([32 x i8], [32 x i8]* @.str.118, i32 0, i32 0)) #7, !dbg !1993
  call void @llvm.dbg.value(metadata %"class.Halide::Runtime::Internal::(anonymous namespace)::Printer"* undef, metadata !832, metadata !DIExpression()) #9, !dbg !1994
  call void @llvm.dbg.value(metadata i8* getelementptr inbounds ([27 x i8], [27 x i8]* @.str.14, i32 0, i32 0), metadata !835, metadata !DIExpression()) #9, !dbg !1994
  %414 = tail call i8* @halide_string_to_string(i8* %413, i8* %412, i8* nonnull getelementptr inbounds ([27 x i8], [27 x i8]* @.str.14, i32 0, i32 0)) #7, !dbg !1996
  call void @llvm.dbg.value(metadata %"class.Halide::Runtime::Internal::(anonymous namespace)::Printer"* undef, metadata !832, metadata !DIExpression()) #9, !dbg !1997
  call void @llvm.dbg.value(metadata i8* getelementptr inbounds ([8 x i8], [8 x i8]* @.str.119, i32 0, i32 0), metadata !835, metadata !DIExpression()) #9, !dbg !1997
  %415 = tail call i8* @halide_string_to_string(i8* %414, i8* %412, i8* nonnull getelementptr inbounds ([8 x i8], [8 x i8]* @.str.119, i32 0, i32 0)) #7, !dbg !1999
  call void @llvm.dbg.value(metadata %"class.Halide::Runtime::Internal::(anonymous namespace)::Printer"* undef, metadata !841, metadata !DIExpression()) #9, !dbg !2000
  br i1 %408, label %416, label %417, !dbg !2002

416:                                              ; preds = %411
  tail call void @halide_error(i8* %0, i8* getelementptr inbounds ([35 x i8], [35 x i8]* @.str.116, i32 0, i32 0)) #7, !dbg !2003
  br label %424, !dbg !2004

417:                                              ; preds = %411
  call void @llvm.dbg.value(metadata %"class.Halide::Runtime::Internal::(anonymous namespace)::Printer"* undef, metadata !855, metadata !DIExpression()) #9, !dbg !2005
  %418 = ptrtoint i8* %415 to i32, !dbg !2007
  %419 = ptrtoint i8* %407 to i32, !dbg !2007
  %420 = sub i32 1, %419, !dbg !2007
  %421 = add i32 %420, %418, !dbg !2008
  %422 = sext i32 %421 to i64, !dbg !2009
  %423 = tail call i32 @halide_msan_annotate_memory_is_initialized(i8* %0, i8* nonnull %407, i64 %422) #7, !dbg !2010
  tail call void @halide_print(i8* %0, i8* nonnull %407) #7, !dbg !2011
  br label %424

424:                                              ; preds = %417, %416
  tail call void @free(i8* %407) #7, !dbg !2012
  %425 = tail call i8* @halide_get_library_symbol(i8* %16, i8* getelementptr inbounds ([27 x i8], [27 x i8]* @.str.14, i32 0, i32 0)) #7, !dbg !2013
  store i8* %425, i8** bitcast (i8* (i32)** @_ZN6Halide7Runtime8Internal7Hexagon11host_mallocE to i8**), align 4, !dbg !2014, !tbaa !1103
  call void @llvm.dbg.value(metadata %"class.Halide::Runtime::Internal::(anonymous namespace)::Printer"* undef, metadata !815, metadata !DIExpression()) #9, !dbg !2015
  call void @llvm.dbg.value(metadata i8* %0, metadata !818, metadata !DIExpression()) #9, !dbg !2015
  call void @llvm.dbg.value(metadata i8* null, metadata !819, metadata !DIExpression()) #9, !dbg !2015
  %426 = tail call i8* @malloc(i32 1024) #7, !dbg !2017
  %427 = icmp eq i8* %426, null, !dbg !2018
  br i1 %427, label %430, label %428, !dbg !2019

428:                                              ; preds = %424
  %429 = getelementptr inbounds i8, i8* %426, i32 1023, !dbg !2020
  store i8 0, i8* %429, align 1, !dbg !2021, !tbaa !854
  br label %430, !dbg !2022

430:                                              ; preds = %428, %424
  %431 = phi i8* [ %429, %428 ], [ null, %424 ], !dbg !2023
  call void @llvm.dbg.value(metadata %"class.Halide::Runtime::Internal::(anonymous namespace)::Printer"* undef, metadata !832, metadata !DIExpression()) #9, !dbg !2024
  call void @llvm.dbg.value(metadata i8* getelementptr inbounds ([9 x i8], [9 x i8]* @.str.38, i32 0, i32 0), metadata !835, metadata !DIExpression()) #9, !dbg !2024
  %432 = tail call i8* @halide_string_to_string(i8* %426, i8* %431, i8* nonnull getelementptr inbounds ([9 x i8], [9 x i8]* @.str.38, i32 0, i32 0)) #7, !dbg !2026
  %433 = load i8*, i8** bitcast (i8* (i32)** @_ZN6Halide7Runtime8Internal7Hexagon11host_mallocE to i8**), align 4, !dbg !2027, !tbaa !1103
  call void @llvm.dbg.value(metadata %"class.Halide::Runtime::Internal::(anonymous namespace)::Printer"* undef, metadata !1257, metadata !DIExpression()) #9, !dbg !2028
  call void @llvm.dbg.value(metadata i8* %433, metadata !1260, metadata !DIExpression()) #9, !dbg !2028
  %434 = tail call i8* @halide_pointer_to_string(i8* %432, i8* %431, i8* %433) #7, !dbg !2030
  call void @llvm.dbg.value(metadata %"class.Halide::Runtime::Internal::(anonymous namespace)::Printer"* undef, metadata !832, metadata !DIExpression()) #9, !dbg !2031
  call void @llvm.dbg.value(metadata i8* getelementptr inbounds ([2 x i8], [2 x i8]* @.str.2, i32 0, i32 0), metadata !835, metadata !DIExpression()) #9, !dbg !2031
  %435 = tail call i8* @halide_string_to_string(i8* %434, i8* %431, i8* nonnull getelementptr inbounds ([2 x i8], [2 x i8]* @.str.2, i32 0, i32 0)) #7, !dbg !2033
  call void @llvm.dbg.value(metadata %"class.Halide::Runtime::Internal::(anonymous namespace)::Printer"* undef, metadata !841, metadata !DIExpression()) #9, !dbg !2034
  br i1 %427, label %436, label %437, !dbg !2036

436:                                              ; preds = %430
  tail call void @halide_error(i8* %0, i8* getelementptr inbounds ([35 x i8], [35 x i8]* @.str.116, i32 0, i32 0)) #7, !dbg !2037
  br label %444, !dbg !2038

437:                                              ; preds = %430
  call void @llvm.dbg.value(metadata %"class.Halide::Runtime::Internal::(anonymous namespace)::Printer"* undef, metadata !855, metadata !DIExpression()) #9, !dbg !2039
  %438 = ptrtoint i8* %435 to i32, !dbg !2041
  %439 = ptrtoint i8* %426 to i32, !dbg !2041
  %440 = sub i32 1, %439, !dbg !2041
  %441 = add i32 %440, %438, !dbg !2042
  %442 = sext i32 %441 to i64, !dbg !2043
  %443 = tail call i32 @halide_msan_annotate_memory_is_initialized(i8* %0, i8* nonnull %426, i64 %442) #7, !dbg !2044
  tail call void @halide_print(i8* %0, i8* nonnull %426) #7, !dbg !2045
  br label %444

444:                                              ; preds = %437, %436
  tail call void @free(i8* %426) #7, !dbg !2046
  %445 = load i8* (i32)*, i8* (i32)** @_ZN6Halide7Runtime8Internal7Hexagon11host_mallocE, align 4, !dbg !2047, !tbaa !1103
  %446 = icmp eq i8* (i32)* %445, null, !dbg !2047
  br i1 %446, label %447, label %468, !dbg !2049

447:                                              ; preds = %444
  call void @llvm.dbg.value(metadata %"class.Halide::Runtime::Internal::(anonymous namespace)::Printer.0"* undef, metadata !1172, metadata !DIExpression()) #9, !dbg !2050
  call void @llvm.dbg.value(metadata i8* %0, metadata !1175, metadata !DIExpression()) #9, !dbg !2050
  call void @llvm.dbg.value(metadata i8* null, metadata !1176, metadata !DIExpression()) #9, !dbg !2050
  %448 = tail call i8* @malloc(i32 1024) #7, !dbg !2053
  %449 = icmp eq i8* %448, null, !dbg !2054
  br i1 %449, label %452, label %450, !dbg !2055

450:                                              ; preds = %447
  %451 = getelementptr inbounds i8, i8* %448, i32 1023, !dbg !2056
  store i8 0, i8* %451, align 1, !dbg !2057, !tbaa !854
  br label %452, !dbg !2058

452:                                              ; preds = %450, %447
  %453 = phi i8* [ %451, %450 ], [ null, %447 ], !dbg !2059
  call void @llvm.dbg.value(metadata %"class.Halide::Runtime::Internal::(anonymous namespace)::Printer.0"* undef, metadata !1189, metadata !DIExpression()) #9, !dbg !2060
  call void @llvm.dbg.value(metadata i8* getelementptr inbounds ([34 x i8], [34 x i8]* @.str.120, i32 0, i32 0), metadata !1192, metadata !DIExpression()) #9, !dbg !2060
  %454 = tail call i8* @halide_string_to_string(i8* %448, i8* %453, i8* nonnull getelementptr inbounds ([34 x i8], [34 x i8]* @.str.120, i32 0, i32 0)) #7, !dbg !2062
  call void @llvm.dbg.value(metadata %"class.Halide::Runtime::Internal::(anonymous namespace)::Printer.0"* undef, metadata !1189, metadata !DIExpression()) #9, !dbg !2063
  call void @llvm.dbg.value(metadata i8* getelementptr inbounds ([27 x i8], [27 x i8]* @.str.14, i32 0, i32 0), metadata !1192, metadata !DIExpression()) #9, !dbg !2063
  %455 = tail call i8* @halide_string_to_string(i8* %454, i8* %453, i8* nonnull getelementptr inbounds ([27 x i8], [27 x i8]* @.str.14, i32 0, i32 0)) #7, !dbg !2065
  call void @llvm.dbg.value(metadata %"class.Halide::Runtime::Internal::(anonymous namespace)::Printer.0"* undef, metadata !1189, metadata !DIExpression()) #9, !dbg !2066
  call void @llvm.dbg.value(metadata i8* getelementptr inbounds ([14 x i8], [14 x i8]* @.str.121, i32 0, i32 0), metadata !1192, metadata !DIExpression()) #9, !dbg !2066
  %456 = tail call i8* @halide_string_to_string(i8* %455, i8* %453, i8* nonnull getelementptr inbounds ([14 x i8], [14 x i8]* @.str.121, i32 0, i32 0)) #7, !dbg !2068
  call void @llvm.dbg.value(metadata %"class.Halide::Runtime::Internal::(anonymous namespace)::Printer.0"* undef, metadata !1198, metadata !DIExpression()) #9, !dbg !2069
  br i1 %449, label %457, label %458, !dbg !2071

457:                                              ; preds = %452
  tail call void @halide_error(i8* %0, i8* getelementptr inbounds ([35 x i8], [35 x i8]* @.str.116, i32 0, i32 0)) #7, !dbg !2072
  br label %465, !dbg !2073

458:                                              ; preds = %452
  call void @llvm.dbg.value(metadata %"class.Halide::Runtime::Internal::(anonymous namespace)::Printer.0"* undef, metadata !1211, metadata !DIExpression()) #9, !dbg !2074
  %459 = ptrtoint i8* %456 to i32, !dbg !2076
  %460 = ptrtoint i8* %448 to i32, !dbg !2076
  %461 = sub i32 1, %460, !dbg !2076
  %462 = add i32 %461, %459, !dbg !2077
  %463 = sext i32 %462 to i64, !dbg !2078
  %464 = tail call i32 @halide_msan_annotate_memory_is_initialized(i8* %0, i8* nonnull %448, i64 %463) #7, !dbg !2079
  tail call void @halide_error(i8* %0, i8* nonnull %448) #7, !dbg !2080
  br label %465

465:                                              ; preds = %457, %458
  tail call void @free(i8* %448) #7, !dbg !2081
  %466 = load i8* (i32)*, i8* (i32)** @_ZN6Halide7Runtime8Internal7Hexagon11host_mallocE, align 4, !dbg !2082, !tbaa !1103
  %467 = icmp eq i8* (i32)* %466, null, !dbg !2082
  br i1 %467, label %836, label %468, !dbg !2084

468:                                              ; preds = %444, %465
  call void @llvm.dbg.value(metadata i8* %0, metadata !2085, metadata !DIExpression()) #9, !dbg !2097
  call void @llvm.dbg.value(metadata i8* %16, metadata !2091, metadata !DIExpression()) #9, !dbg !2097
  call void @llvm.dbg.value(metadata i8* getelementptr inbounds ([25 x i8], [25 x i8]* @.str.15, i32 0, i32 0), metadata !2092, metadata !DIExpression()) #9, !dbg !2097
  call void @llvm.dbg.value(metadata void (i8*)** @_ZN6Halide7Runtime8Internal7Hexagon9host_freeE, metadata !2093, metadata !DIExpression()) #9, !dbg !2097
  call void @llvm.dbg.value(metadata i1 true, metadata !2094, metadata !DIExpression(DW_OP_LLVM_convert, 1, DW_ATE_unsigned, DW_OP_LLVM_convert, 8, DW_ATE_unsigned, DW_OP_stack_value)) #9, !dbg !2097
  call void @llvm.dbg.value(metadata %"class.Halide::Runtime::Internal::(anonymous namespace)::Printer"* undef, metadata !815, metadata !DIExpression()) #9, !dbg !2099
  call void @llvm.dbg.value(metadata i8* %0, metadata !818, metadata !DIExpression()) #9, !dbg !2099
  call void @llvm.dbg.value(metadata i8* null, metadata !819, metadata !DIExpression()) #9, !dbg !2099
  %469 = tail call i8* @malloc(i32 1024) #7, !dbg !2101
  %470 = icmp eq i8* %469, null, !dbg !2102
  br i1 %470, label %473, label %471, !dbg !2103

471:                                              ; preds = %468
  %472 = getelementptr inbounds i8, i8* %469, i32 1023, !dbg !2104
  store i8 0, i8* %472, align 1, !dbg !2105, !tbaa !854
  br label %473, !dbg !2106

473:                                              ; preds = %471, %468
  %474 = phi i8* [ %472, %471 ], [ null, %468 ], !dbg !2107
  call void @llvm.dbg.value(metadata %"class.Halide::Runtime::Internal::(anonymous namespace)::Printer"* undef, metadata !832, metadata !DIExpression()) #9, !dbg !2108
  call void @llvm.dbg.value(metadata i8* getelementptr inbounds ([32 x i8], [32 x i8]* @.str.118, i32 0, i32 0), metadata !835, metadata !DIExpression()) #9, !dbg !2108
  %475 = tail call i8* @halide_string_to_string(i8* %469, i8* %474, i8* nonnull getelementptr inbounds ([32 x i8], [32 x i8]* @.str.118, i32 0, i32 0)) #7, !dbg !2110
  call void @llvm.dbg.value(metadata %"class.Halide::Runtime::Internal::(anonymous namespace)::Printer"* undef, metadata !832, metadata !DIExpression()) #9, !dbg !2111
  call void @llvm.dbg.value(metadata i8* getelementptr inbounds ([25 x i8], [25 x i8]* @.str.15, i32 0, i32 0), metadata !835, metadata !DIExpression()) #9, !dbg !2111
  %476 = tail call i8* @halide_string_to_string(i8* %475, i8* %474, i8* nonnull getelementptr inbounds ([25 x i8], [25 x i8]* @.str.15, i32 0, i32 0)) #7, !dbg !2113
  call void @llvm.dbg.value(metadata %"class.Halide::Runtime::Internal::(anonymous namespace)::Printer"* undef, metadata !832, metadata !DIExpression()) #9, !dbg !2114
  call void @llvm.dbg.value(metadata i8* getelementptr inbounds ([8 x i8], [8 x i8]* @.str.119, i32 0, i32 0), metadata !835, metadata !DIExpression()) #9, !dbg !2114
  %477 = tail call i8* @halide_string_to_string(i8* %476, i8* %474, i8* nonnull getelementptr inbounds ([8 x i8], [8 x i8]* @.str.119, i32 0, i32 0)) #7, !dbg !2116
  call void @llvm.dbg.value(metadata %"class.Halide::Runtime::Internal::(anonymous namespace)::Printer"* undef, metadata !841, metadata !DIExpression()) #9, !dbg !2117
  br i1 %470, label %478, label %479, !dbg !2119

478:                                              ; preds = %473
  tail call void @halide_error(i8* %0, i8* getelementptr inbounds ([35 x i8], [35 x i8]* @.str.116, i32 0, i32 0)) #7, !dbg !2120
  br label %486, !dbg !2121

479:                                              ; preds = %473
  call void @llvm.dbg.value(metadata %"class.Halide::Runtime::Internal::(anonymous namespace)::Printer"* undef, metadata !855, metadata !DIExpression()) #9, !dbg !2122
  %480 = ptrtoint i8* %477 to i32, !dbg !2124
  %481 = ptrtoint i8* %469 to i32, !dbg !2124
  %482 = sub i32 1, %481, !dbg !2124
  %483 = add i32 %482, %480, !dbg !2125
  %484 = sext i32 %483 to i64, !dbg !2126
  %485 = tail call i32 @halide_msan_annotate_memory_is_initialized(i8* %0, i8* nonnull %469, i64 %484) #7, !dbg !2127
  tail call void @halide_print(i8* %0, i8* nonnull %469) #7, !dbg !2128
  br label %486

486:                                              ; preds = %479, %478
  tail call void @free(i8* %469) #7, !dbg !2129
  %487 = tail call i8* @halide_get_library_symbol(i8* %16, i8* getelementptr inbounds ([25 x i8], [25 x i8]* @.str.15, i32 0, i32 0)) #7, !dbg !2130
  store i8* %487, i8** bitcast (void (i8*)** @_ZN6Halide7Runtime8Internal7Hexagon9host_freeE to i8**), align 4, !dbg !2131, !tbaa !1103
  call void @llvm.dbg.value(metadata %"class.Halide::Runtime::Internal::(anonymous namespace)::Printer"* undef, metadata !815, metadata !DIExpression()) #9, !dbg !2132
  call void @llvm.dbg.value(metadata i8* %0, metadata !818, metadata !DIExpression()) #9, !dbg !2132
  call void @llvm.dbg.value(metadata i8* null, metadata !819, metadata !DIExpression()) #9, !dbg !2132
  %488 = tail call i8* @malloc(i32 1024) #7, !dbg !2134
  %489 = icmp eq i8* %488, null, !dbg !2135
  br i1 %489, label %492, label %490, !dbg !2136

490:                                              ; preds = %486
  %491 = getelementptr inbounds i8, i8* %488, i32 1023, !dbg !2137
  store i8 0, i8* %491, align 1, !dbg !2138, !tbaa !854
  br label %492, !dbg !2139

492:                                              ; preds = %490, %486
  %493 = phi i8* [ %491, %490 ], [ null, %486 ], !dbg !2140
  call void @llvm.dbg.value(metadata %"class.Halide::Runtime::Internal::(anonymous namespace)::Printer"* undef, metadata !832, metadata !DIExpression()) #9, !dbg !2141
  call void @llvm.dbg.value(metadata i8* getelementptr inbounds ([9 x i8], [9 x i8]* @.str.38, i32 0, i32 0), metadata !835, metadata !DIExpression()) #9, !dbg !2141
  %494 = tail call i8* @halide_string_to_string(i8* %488, i8* %493, i8* nonnull getelementptr inbounds ([9 x i8], [9 x i8]* @.str.38, i32 0, i32 0)) #7, !dbg !2143
  %495 = load i8*, i8** bitcast (void (i8*)** @_ZN6Halide7Runtime8Internal7Hexagon9host_freeE to i8**), align 4, !dbg !2144, !tbaa !1103
  call void @llvm.dbg.value(metadata %"class.Halide::Runtime::Internal::(anonymous namespace)::Printer"* undef, metadata !1257, metadata !DIExpression()) #9, !dbg !2145
  call void @llvm.dbg.value(metadata i8* %495, metadata !1260, metadata !DIExpression()) #9, !dbg !2145
  %496 = tail call i8* @halide_pointer_to_string(i8* %494, i8* %493, i8* %495) #7, !dbg !2147
  call void @llvm.dbg.value(metadata %"class.Halide::Runtime::Internal::(anonymous namespace)::Printer"* undef, metadata !832, metadata !DIExpression()) #9, !dbg !2148
  call void @llvm.dbg.value(metadata i8* getelementptr inbounds ([2 x i8], [2 x i8]* @.str.2, i32 0, i32 0), metadata !835, metadata !DIExpression()) #9, !dbg !2148
  %497 = tail call i8* @halide_string_to_string(i8* %496, i8* %493, i8* nonnull getelementptr inbounds ([2 x i8], [2 x i8]* @.str.2, i32 0, i32 0)) #7, !dbg !2150
  call void @llvm.dbg.value(metadata %"class.Halide::Runtime::Internal::(anonymous namespace)::Printer"* undef, metadata !841, metadata !DIExpression()) #9, !dbg !2151
  br i1 %489, label %498, label %499, !dbg !2153

498:                                              ; preds = %492
  tail call void @halide_error(i8* %0, i8* getelementptr inbounds ([35 x i8], [35 x i8]* @.str.116, i32 0, i32 0)) #7, !dbg !2154
  br label %506, !dbg !2155

499:                                              ; preds = %492
  call void @llvm.dbg.value(metadata %"class.Halide::Runtime::Internal::(anonymous namespace)::Printer"* undef, metadata !855, metadata !DIExpression()) #9, !dbg !2156
  %500 = ptrtoint i8* %497 to i32, !dbg !2158
  %501 = ptrtoint i8* %488 to i32, !dbg !2158
  %502 = sub i32 1, %501, !dbg !2158
  %503 = add i32 %502, %500, !dbg !2159
  %504 = sext i32 %503 to i64, !dbg !2160
  %505 = tail call i32 @halide_msan_annotate_memory_is_initialized(i8* %0, i8* nonnull %488, i64 %504) #7, !dbg !2161
  tail call void @halide_print(i8* %0, i8* nonnull %488) #7, !dbg !2162
  br label %506

506:                                              ; preds = %499, %498
  tail call void @free(i8* %488) #7, !dbg !2163
  %507 = load void (i8*)*, void (i8*)** @_ZN6Halide7Runtime8Internal7Hexagon9host_freeE, align 4, !dbg !2164, !tbaa !1103
  %508 = icmp eq void (i8*)* %507, null, !dbg !2164
  br i1 %508, label %509, label %530, !dbg !2166

509:                                              ; preds = %506
  call void @llvm.dbg.value(metadata %"class.Halide::Runtime::Internal::(anonymous namespace)::Printer.0"* undef, metadata !1172, metadata !DIExpression()) #9, !dbg !2167
  call void @llvm.dbg.value(metadata i8* %0, metadata !1175, metadata !DIExpression()) #9, !dbg !2167
  call void @llvm.dbg.value(metadata i8* null, metadata !1176, metadata !DIExpression()) #9, !dbg !2167
  %510 = tail call i8* @malloc(i32 1024) #7, !dbg !2170
  %511 = icmp eq i8* %510, null, !dbg !2171
  br i1 %511, label %514, label %512, !dbg !2172

512:                                              ; preds = %509
  %513 = getelementptr inbounds i8, i8* %510, i32 1023, !dbg !2173
  store i8 0, i8* %513, align 1, !dbg !2174, !tbaa !854
  br label %514, !dbg !2175

514:                                              ; preds = %512, %509
  %515 = phi i8* [ %513, %512 ], [ null, %509 ], !dbg !2176
  call void @llvm.dbg.value(metadata %"class.Halide::Runtime::Internal::(anonymous namespace)::Printer.0"* undef, metadata !1189, metadata !DIExpression()) #9, !dbg !2177
  call void @llvm.dbg.value(metadata i8* getelementptr inbounds ([34 x i8], [34 x i8]* @.str.120, i32 0, i32 0), metadata !1192, metadata !DIExpression()) #9, !dbg !2177
  %516 = tail call i8* @halide_string_to_string(i8* %510, i8* %515, i8* nonnull getelementptr inbounds ([34 x i8], [34 x i8]* @.str.120, i32 0, i32 0)) #7, !dbg !2179
  call void @llvm.dbg.value(metadata %"class.Halide::Runtime::Internal::(anonymous namespace)::Printer.0"* undef, metadata !1189, metadata !DIExpression()) #9, !dbg !2180
  call void @llvm.dbg.value(metadata i8* getelementptr inbounds ([25 x i8], [25 x i8]* @.str.15, i32 0, i32 0), metadata !1192, metadata !DIExpression()) #9, !dbg !2180
  %517 = tail call i8* @halide_string_to_string(i8* %516, i8* %515, i8* nonnull getelementptr inbounds ([25 x i8], [25 x i8]* @.str.15, i32 0, i32 0)) #7, !dbg !2182
  call void @llvm.dbg.value(metadata %"class.Halide::Runtime::Internal::(anonymous namespace)::Printer.0"* undef, metadata !1189, metadata !DIExpression()) #9, !dbg !2183
  call void @llvm.dbg.value(metadata i8* getelementptr inbounds ([14 x i8], [14 x i8]* @.str.121, i32 0, i32 0), metadata !1192, metadata !DIExpression()) #9, !dbg !2183
  %518 = tail call i8* @halide_string_to_string(i8* %517, i8* %515, i8* nonnull getelementptr inbounds ([14 x i8], [14 x i8]* @.str.121, i32 0, i32 0)) #7, !dbg !2185
  call void @llvm.dbg.value(metadata %"class.Halide::Runtime::Internal::(anonymous namespace)::Printer.0"* undef, metadata !1198, metadata !DIExpression()) #9, !dbg !2186
  br i1 %511, label %519, label %520, !dbg !2188

519:                                              ; preds = %514
  tail call void @halide_error(i8* %0, i8* getelementptr inbounds ([35 x i8], [35 x i8]* @.str.116, i32 0, i32 0)) #7, !dbg !2189
  br label %527, !dbg !2190

520:                                              ; preds = %514
  call void @llvm.dbg.value(metadata %"class.Halide::Runtime::Internal::(anonymous namespace)::Printer.0"* undef, metadata !1211, metadata !DIExpression()) #9, !dbg !2191
  %521 = ptrtoint i8* %518 to i32, !dbg !2193
  %522 = ptrtoint i8* %510 to i32, !dbg !2193
  %523 = sub i32 1, %522, !dbg !2193
  %524 = add i32 %523, %521, !dbg !2194
  %525 = sext i32 %524 to i64, !dbg !2195
  %526 = tail call i32 @halide_msan_annotate_memory_is_initialized(i8* %0, i8* nonnull %510, i64 %525) #7, !dbg !2196
  tail call void @halide_error(i8* %0, i8* nonnull %510) #7, !dbg !2197
  br label %527

527:                                              ; preds = %519, %520
  tail call void @free(i8* %510) #7, !dbg !2198
  %528 = load void (i8*)*, void (i8*)** @_ZN6Halide7Runtime8Internal7Hexagon9host_freeE, align 4, !dbg !2199, !tbaa !1103
  %529 = icmp eq void (i8*)* %528, null, !dbg !2199
  br i1 %529, label %836, label %530, !dbg !2201

530:                                              ; preds = %506, %527
  call void @llvm.dbg.value(metadata i8* %0, metadata !2202, metadata !DIExpression()) #9, !dbg !2214
  call void @llvm.dbg.value(metadata i8* %16, metadata !2208, metadata !DIExpression()) #9, !dbg !2214
  call void @llvm.dbg.value(metadata i8* getelementptr inbounds ([31 x i8], [31 x i8]* @.str.16, i32 0, i32 0), metadata !2209, metadata !DIExpression()) #9, !dbg !2214
  call void @llvm.dbg.value(metadata i32 (i8*, i32, i32*)** @_ZN6Halide7Runtime8Internal7Hexagon15remote_poll_logE, metadata !2210, metadata !DIExpression()) #9, !dbg !2214
  call void @llvm.dbg.value(metadata i1 false, metadata !2211, metadata !DIExpression(DW_OP_LLVM_convert, 1, DW_ATE_unsigned, DW_OP_LLVM_convert, 8, DW_ATE_unsigned, DW_OP_stack_value)) #9, !dbg !2214
  call void @llvm.dbg.value(metadata %"class.Halide::Runtime::Internal::(anonymous namespace)::Printer"* undef, metadata !815, metadata !DIExpression()) #9, !dbg !2216
  call void @llvm.dbg.value(metadata i8* %0, metadata !818, metadata !DIExpression()) #9, !dbg !2216
  call void @llvm.dbg.value(metadata i8* null, metadata !819, metadata !DIExpression()) #9, !dbg !2216
  %531 = tail call i8* @malloc(i32 1024) #7, !dbg !2218
  %532 = icmp eq i8* %531, null, !dbg !2219
  br i1 %532, label %535, label %533, !dbg !2220

533:                                              ; preds = %530
  %534 = getelementptr inbounds i8, i8* %531, i32 1023, !dbg !2221
  store i8 0, i8* %534, align 1, !dbg !2222, !tbaa !854
  br label %535, !dbg !2223

535:                                              ; preds = %533, %530
  %536 = phi i8* [ %534, %533 ], [ null, %530 ], !dbg !2224
  call void @llvm.dbg.value(metadata %"class.Halide::Runtime::Internal::(anonymous namespace)::Printer"* undef, metadata !832, metadata !DIExpression()) #9, !dbg !2225
  call void @llvm.dbg.value(metadata i8* getelementptr inbounds ([32 x i8], [32 x i8]* @.str.118, i32 0, i32 0), metadata !835, metadata !DIExpression()) #9, !dbg !2225
  %537 = tail call i8* @halide_string_to_string(i8* %531, i8* %536, i8* nonnull getelementptr inbounds ([32 x i8], [32 x i8]* @.str.118, i32 0, i32 0)) #7, !dbg !2227
  call void @llvm.dbg.value(metadata %"class.Halide::Runtime::Internal::(anonymous namespace)::Printer"* undef, metadata !832, metadata !DIExpression()) #9, !dbg !2228
  call void @llvm.dbg.value(metadata i8* getelementptr inbounds ([31 x i8], [31 x i8]* @.str.16, i32 0, i32 0), metadata !835, metadata !DIExpression()) #9, !dbg !2228
  %538 = tail call i8* @halide_string_to_string(i8* %537, i8* %536, i8* nonnull getelementptr inbounds ([31 x i8], [31 x i8]* @.str.16, i32 0, i32 0)) #7, !dbg !2230
  call void @llvm.dbg.value(metadata %"class.Halide::Runtime::Internal::(anonymous namespace)::Printer"* undef, metadata !832, metadata !DIExpression()) #9, !dbg !2231
  call void @llvm.dbg.value(metadata i8* getelementptr inbounds ([8 x i8], [8 x i8]* @.str.119, i32 0, i32 0), metadata !835, metadata !DIExpression()) #9, !dbg !2231
  %539 = tail call i8* @halide_string_to_string(i8* %538, i8* %536, i8* nonnull getelementptr inbounds ([8 x i8], [8 x i8]* @.str.119, i32 0, i32 0)) #7, !dbg !2233
  call void @llvm.dbg.value(metadata %"class.Halide::Runtime::Internal::(anonymous namespace)::Printer"* undef, metadata !841, metadata !DIExpression()) #9, !dbg !2234
  br i1 %532, label %540, label %541, !dbg !2236

540:                                              ; preds = %535
  tail call void @halide_error(i8* %0, i8* getelementptr inbounds ([35 x i8], [35 x i8]* @.str.116, i32 0, i32 0)) #7, !dbg !2237
  br label %548, !dbg !2238

541:                                              ; preds = %535
  call void @llvm.dbg.value(metadata %"class.Halide::Runtime::Internal::(anonymous namespace)::Printer"* undef, metadata !855, metadata !DIExpression()) #9, !dbg !2239
  %542 = ptrtoint i8* %539 to i32, !dbg !2241
  %543 = ptrtoint i8* %531 to i32, !dbg !2241
  %544 = sub i32 1, %543, !dbg !2241
  %545 = add i32 %544, %542, !dbg !2242
  %546 = sext i32 %545 to i64, !dbg !2243
  %547 = tail call i32 @halide_msan_annotate_memory_is_initialized(i8* %0, i8* nonnull %531, i64 %546) #7, !dbg !2244
  tail call void @halide_print(i8* %0, i8* nonnull %531) #7, !dbg !2245
  br label %548

548:                                              ; preds = %541, %540
  tail call void @free(i8* %531) #7, !dbg !2246
  %549 = tail call i8* @halide_get_library_symbol(i8* %16, i8* getelementptr inbounds ([31 x i8], [31 x i8]* @.str.16, i32 0, i32 0)) #7, !dbg !2247
  store i8* %549, i8** bitcast (i32 (i8*, i32, i32*)** @_ZN6Halide7Runtime8Internal7Hexagon15remote_poll_logE to i8**), align 4, !dbg !2248, !tbaa !1103
  call void @llvm.dbg.value(metadata %"class.Halide::Runtime::Internal::(anonymous namespace)::Printer"* undef, metadata !815, metadata !DIExpression()) #9, !dbg !2249
  call void @llvm.dbg.value(metadata i8* %0, metadata !818, metadata !DIExpression()) #9, !dbg !2249
  call void @llvm.dbg.value(metadata i8* null, metadata !819, metadata !DIExpression()) #9, !dbg !2249
  %550 = tail call i8* @malloc(i32 1024) #7, !dbg !2251
  %551 = icmp eq i8* %550, null, !dbg !2252
  br i1 %551, label %554, label %552, !dbg !2253

552:                                              ; preds = %548
  %553 = getelementptr inbounds i8, i8* %550, i32 1023, !dbg !2254
  store i8 0, i8* %553, align 1, !dbg !2255, !tbaa !854
  br label %554, !dbg !2256

554:                                              ; preds = %552, %548
  %555 = phi i8* [ %553, %552 ], [ null, %548 ], !dbg !2257
  call void @llvm.dbg.value(metadata %"class.Halide::Runtime::Internal::(anonymous namespace)::Printer"* undef, metadata !832, metadata !DIExpression()) #9, !dbg !2258
  call void @llvm.dbg.value(metadata i8* getelementptr inbounds ([9 x i8], [9 x i8]* @.str.38, i32 0, i32 0), metadata !835, metadata !DIExpression()) #9, !dbg !2258
  %556 = tail call i8* @halide_string_to_string(i8* %550, i8* %555, i8* nonnull getelementptr inbounds ([9 x i8], [9 x i8]* @.str.38, i32 0, i32 0)) #7, !dbg !2260
  %557 = load i8*, i8** bitcast (i32 (i8*, i32, i32*)** @_ZN6Halide7Runtime8Internal7Hexagon15remote_poll_logE to i8**), align 4, !dbg !2261, !tbaa !1103
  call void @llvm.dbg.value(metadata %"class.Halide::Runtime::Internal::(anonymous namespace)::Printer"* undef, metadata !1257, metadata !DIExpression()) #9, !dbg !2262
  call void @llvm.dbg.value(metadata i8* %557, metadata !1260, metadata !DIExpression()) #9, !dbg !2262
  %558 = tail call i8* @halide_pointer_to_string(i8* %556, i8* %555, i8* %557) #7, !dbg !2264
  call void @llvm.dbg.value(metadata %"class.Halide::Runtime::Internal::(anonymous namespace)::Printer"* undef, metadata !832, metadata !DIExpression()) #9, !dbg !2265
  call void @llvm.dbg.value(metadata i8* getelementptr inbounds ([2 x i8], [2 x i8]* @.str.2, i32 0, i32 0), metadata !835, metadata !DIExpression()) #9, !dbg !2265
  %559 = tail call i8* @halide_string_to_string(i8* %558, i8* %555, i8* nonnull getelementptr inbounds ([2 x i8], [2 x i8]* @.str.2, i32 0, i32 0)) #7, !dbg !2267
  call void @llvm.dbg.value(metadata %"class.Halide::Runtime::Internal::(anonymous namespace)::Printer"* undef, metadata !841, metadata !DIExpression()) #9, !dbg !2268
  br i1 %551, label %560, label %561, !dbg !2270

560:                                              ; preds = %554
  tail call void @halide_error(i8* %0, i8* getelementptr inbounds ([35 x i8], [35 x i8]* @.str.116, i32 0, i32 0)) #7, !dbg !2271
  br label %568, !dbg !2272

561:                                              ; preds = %554
  call void @llvm.dbg.value(metadata %"class.Halide::Runtime::Internal::(anonymous namespace)::Printer"* undef, metadata !855, metadata !DIExpression()) #9, !dbg !2273
  %562 = ptrtoint i8* %559 to i32, !dbg !2275
  %563 = ptrtoint i8* %550 to i32, !dbg !2275
  %564 = sub i32 1, %563, !dbg !2275
  %565 = add i32 %564, %562, !dbg !2276
  %566 = sext i32 %565 to i64, !dbg !2277
  %567 = tail call i32 @halide_msan_annotate_memory_is_initialized(i8* %0, i8* nonnull %550, i64 %566) #7, !dbg !2278
  tail call void @halide_print(i8* %0, i8* nonnull %550) #7, !dbg !2279
  br label %568

568:                                              ; preds = %560, %561
  tail call void @free(i8* %550) #7, !dbg !2280
  call void @llvm.dbg.value(metadata i8* %0, metadata !2281, metadata !DIExpression()) #9, !dbg !2293
  call void @llvm.dbg.value(metadata i8* %16, metadata !2287, metadata !DIExpression()) #9, !dbg !2293
  call void @llvm.dbg.value(metadata i8* getelementptr inbounds ([42 x i8], [42 x i8]* @.str.17, i32 0, i32 0), metadata !2288, metadata !DIExpression()) #9, !dbg !2293
  call void @llvm.dbg.value(metadata void (i32*, i32*)** @_ZN6Halide7Runtime8Internal7Hexagon26remote_poll_profiler_stateE, metadata !2289, metadata !DIExpression()) #9, !dbg !2293
  call void @llvm.dbg.value(metadata i1 false, metadata !2290, metadata !DIExpression(DW_OP_LLVM_convert, 1, DW_ATE_unsigned, DW_OP_LLVM_convert, 8, DW_ATE_unsigned, DW_OP_stack_value)) #9, !dbg !2293
  call void @llvm.dbg.value(metadata %"class.Halide::Runtime::Internal::(anonymous namespace)::Printer"* undef, metadata !815, metadata !DIExpression()) #9, !dbg !2295
  call void @llvm.dbg.value(metadata i8* %0, metadata !818, metadata !DIExpression()) #9, !dbg !2295
  call void @llvm.dbg.value(metadata i8* null, metadata !819, metadata !DIExpression()) #9, !dbg !2295
  %569 = tail call i8* @malloc(i32 1024) #7, !dbg !2297
  %570 = icmp eq i8* %569, null, !dbg !2298
  br i1 %570, label %573, label %571, !dbg !2299

571:                                              ; preds = %568
  %572 = getelementptr inbounds i8, i8* %569, i32 1023, !dbg !2300
  store i8 0, i8* %572, align 1, !dbg !2301, !tbaa !854
  br label %573, !dbg !2302

573:                                              ; preds = %571, %568
  %574 = phi i8* [ %572, %571 ], [ null, %568 ], !dbg !2303
  call void @llvm.dbg.value(metadata %"class.Halide::Runtime::Internal::(anonymous namespace)::Printer"* undef, metadata !832, metadata !DIExpression()) #9, !dbg !2304
  call void @llvm.dbg.value(metadata i8* getelementptr inbounds ([32 x i8], [32 x i8]* @.str.118, i32 0, i32 0), metadata !835, metadata !DIExpression()) #9, !dbg !2304
  %575 = tail call i8* @halide_string_to_string(i8* %569, i8* %574, i8* nonnull getelementptr inbounds ([32 x i8], [32 x i8]* @.str.118, i32 0, i32 0)) #7, !dbg !2306
  call void @llvm.dbg.value(metadata %"class.Halide::Runtime::Internal::(anonymous namespace)::Printer"* undef, metadata !832, metadata !DIExpression()) #9, !dbg !2307
  call void @llvm.dbg.value(metadata i8* getelementptr inbounds ([42 x i8], [42 x i8]* @.str.17, i32 0, i32 0), metadata !835, metadata !DIExpression()) #9, !dbg !2307
  %576 = tail call i8* @halide_string_to_string(i8* %575, i8* %574, i8* nonnull getelementptr inbounds ([42 x i8], [42 x i8]* @.str.17, i32 0, i32 0)) #7, !dbg !2309
  call void @llvm.dbg.value(metadata %"class.Halide::Runtime::Internal::(anonymous namespace)::Printer"* undef, metadata !832, metadata !DIExpression()) #9, !dbg !2310
  call void @llvm.dbg.value(metadata i8* getelementptr inbounds ([8 x i8], [8 x i8]* @.str.119, i32 0, i32 0), metadata !835, metadata !DIExpression()) #9, !dbg !2310
  %577 = tail call i8* @halide_string_to_string(i8* %576, i8* %574, i8* nonnull getelementptr inbounds ([8 x i8], [8 x i8]* @.str.119, i32 0, i32 0)) #7, !dbg !2312
  call void @llvm.dbg.value(metadata %"class.Halide::Runtime::Internal::(anonymous namespace)::Printer"* undef, metadata !841, metadata !DIExpression()) #9, !dbg !2313
  br i1 %570, label %578, label %579, !dbg !2315

578:                                              ; preds = %573
  tail call void @halide_error(i8* %0, i8* getelementptr inbounds ([35 x i8], [35 x i8]* @.str.116, i32 0, i32 0)) #7, !dbg !2316
  br label %586, !dbg !2317

579:                                              ; preds = %573
  call void @llvm.dbg.value(metadata %"class.Halide::Runtime::Internal::(anonymous namespace)::Printer"* undef, metadata !855, metadata !DIExpression()) #9, !dbg !2318
  %580 = ptrtoint i8* %577 to i32, !dbg !2320
  %581 = ptrtoint i8* %569 to i32, !dbg !2320
  %582 = sub i32 1, %581, !dbg !2320
  %583 = add i32 %582, %580, !dbg !2321
  %584 = sext i32 %583 to i64, !dbg !2322
  %585 = tail call i32 @halide_msan_annotate_memory_is_initialized(i8* %0, i8* nonnull %569, i64 %584) #7, !dbg !2323
  tail call void @halide_print(i8* %0, i8* nonnull %569) #7, !dbg !2324
  br label %586

586:                                              ; preds = %579, %578
  tail call void @free(i8* %569) #7, !dbg !2325
  %587 = tail call i8* @halide_get_library_symbol(i8* %16, i8* getelementptr inbounds ([42 x i8], [42 x i8]* @.str.17, i32 0, i32 0)) #7, !dbg !2326
  store i8* %587, i8** bitcast (void (i32*, i32*)** @_ZN6Halide7Runtime8Internal7Hexagon26remote_poll_profiler_stateE to i8**), align 4, !dbg !2327, !tbaa !1103
  call void @llvm.dbg.value(metadata %"class.Halide::Runtime::Internal::(anonymous namespace)::Printer"* undef, metadata !815, metadata !DIExpression()) #9, !dbg !2328
  call void @llvm.dbg.value(metadata i8* %0, metadata !818, metadata !DIExpression()) #9, !dbg !2328
  call void @llvm.dbg.value(metadata i8* null, metadata !819, metadata !DIExpression()) #9, !dbg !2328
  %588 = tail call i8* @malloc(i32 1024) #7, !dbg !2330
  %589 = icmp eq i8* %588, null, !dbg !2331
  br i1 %589, label %592, label %590, !dbg !2332

590:                                              ; preds = %586
  %591 = getelementptr inbounds i8, i8* %588, i32 1023, !dbg !2333
  store i8 0, i8* %591, align 1, !dbg !2334, !tbaa !854
  br label %592, !dbg !2335

592:                                              ; preds = %590, %586
  %593 = phi i8* [ %591, %590 ], [ null, %586 ], !dbg !2336
  call void @llvm.dbg.value(metadata %"class.Halide::Runtime::Internal::(anonymous namespace)::Printer"* undef, metadata !832, metadata !DIExpression()) #9, !dbg !2337
  call void @llvm.dbg.value(metadata i8* getelementptr inbounds ([9 x i8], [9 x i8]* @.str.38, i32 0, i32 0), metadata !835, metadata !DIExpression()) #9, !dbg !2337
  %594 = tail call i8* @halide_string_to_string(i8* %588, i8* %593, i8* nonnull getelementptr inbounds ([9 x i8], [9 x i8]* @.str.38, i32 0, i32 0)) #7, !dbg !2339
  %595 = load i8*, i8** bitcast (void (i32*, i32*)** @_ZN6Halide7Runtime8Internal7Hexagon26remote_poll_profiler_stateE to i8**), align 4, !dbg !2340, !tbaa !1103
  call void @llvm.dbg.value(metadata %"class.Halide::Runtime::Internal::(anonymous namespace)::Printer"* undef, metadata !1257, metadata !DIExpression()) #9, !dbg !2341
  call void @llvm.dbg.value(metadata i8* %595, metadata !1260, metadata !DIExpression()) #9, !dbg !2341
  %596 = tail call i8* @halide_pointer_to_string(i8* %594, i8* %593, i8* %595) #7, !dbg !2343
  call void @llvm.dbg.value(metadata %"class.Halide::Runtime::Internal::(anonymous namespace)::Printer"* undef, metadata !832, metadata !DIExpression()) #9, !dbg !2344
  call void @llvm.dbg.value(metadata i8* getelementptr inbounds ([2 x i8], [2 x i8]* @.str.2, i32 0, i32 0), metadata !835, metadata !DIExpression()) #9, !dbg !2344
  %597 = tail call i8* @halide_string_to_string(i8* %596, i8* %593, i8* nonnull getelementptr inbounds ([2 x i8], [2 x i8]* @.str.2, i32 0, i32 0)) #7, !dbg !2346
  call void @llvm.dbg.value(metadata %"class.Halide::Runtime::Internal::(anonymous namespace)::Printer"* undef, metadata !841, metadata !DIExpression()) #9, !dbg !2347
  br i1 %589, label %598, label %599, !dbg !2349

598:                                              ; preds = %592
  tail call void @halide_error(i8* %0, i8* getelementptr inbounds ([35 x i8], [35 x i8]* @.str.116, i32 0, i32 0)) #7, !dbg !2350
  br label %606, !dbg !2351

599:                                              ; preds = %592
  call void @llvm.dbg.value(metadata %"class.Halide::Runtime::Internal::(anonymous namespace)::Printer"* undef, metadata !855, metadata !DIExpression()) #9, !dbg !2352
  %600 = ptrtoint i8* %597 to i32, !dbg !2354
  %601 = ptrtoint i8* %588 to i32, !dbg !2354
  %602 = sub i32 1, %601, !dbg !2354
  %603 = add i32 %602, %600, !dbg !2355
  %604 = sext i32 %603 to i64, !dbg !2356
  %605 = tail call i32 @halide_msan_annotate_memory_is_initialized(i8* %0, i8* nonnull %588, i64 %604) #7, !dbg !2357
  tail call void @halide_print(i8* %0, i8* nonnull %588) #7, !dbg !2358
  br label %606

606:                                              ; preds = %598, %599
  tail call void @free(i8* %588) #7, !dbg !2359
  call void @llvm.dbg.value(metadata i8* %0, metadata !1631, metadata !DIExpression()) #9, !dbg !2360
  call void @llvm.dbg.value(metadata i8* %16, metadata !1637, metadata !DIExpression()) #9, !dbg !2360
  call void @llvm.dbg.value(metadata i8* getelementptr inbounds ([48 x i8], [48 x i8]* @.str.18, i32 0, i32 0), metadata !1638, metadata !DIExpression()) #9, !dbg !2360
  call void @llvm.dbg.value(metadata i32 (i32)** @_ZN6Halide7Runtime8Internal7Hexagon32remote_profiler_set_current_funcE, metadata !1639, metadata !DIExpression()) #9, !dbg !2360
  call void @llvm.dbg.value(metadata i1 false, metadata !1640, metadata !DIExpression(DW_OP_LLVM_convert, 1, DW_ATE_unsigned, DW_OP_LLVM_convert, 8, DW_ATE_unsigned, DW_OP_stack_value)) #9, !dbg !2360
  call void @llvm.dbg.value(metadata %"class.Halide::Runtime::Internal::(anonymous namespace)::Printer"* undef, metadata !815, metadata !DIExpression()) #9, !dbg !2362
  call void @llvm.dbg.value(metadata i8* %0, metadata !818, metadata !DIExpression()) #9, !dbg !2362
  call void @llvm.dbg.value(metadata i8* null, metadata !819, metadata !DIExpression()) #9, !dbg !2362
  %607 = tail call i8* @malloc(i32 1024) #7, !dbg !2364
  %608 = icmp eq i8* %607, null, !dbg !2365
  br i1 %608, label %611, label %609, !dbg !2366

609:                                              ; preds = %606
  %610 = getelementptr inbounds i8, i8* %607, i32 1023, !dbg !2367
  store i8 0, i8* %610, align 1, !dbg !2368, !tbaa !854
  br label %611, !dbg !2369

611:                                              ; preds = %609, %606
  %612 = phi i8* [ %610, %609 ], [ null, %606 ], !dbg !2370
  call void @llvm.dbg.value(metadata %"class.Halide::Runtime::Internal::(anonymous namespace)::Printer"* undef, metadata !832, metadata !DIExpression()) #9, !dbg !2371
  call void @llvm.dbg.value(metadata i8* getelementptr inbounds ([32 x i8], [32 x i8]* @.str.118, i32 0, i32 0), metadata !835, metadata !DIExpression()) #9, !dbg !2371
  %613 = tail call i8* @halide_string_to_string(i8* %607, i8* %612, i8* nonnull getelementptr inbounds ([32 x i8], [32 x i8]* @.str.118, i32 0, i32 0)) #7, !dbg !2373
  call void @llvm.dbg.value(metadata %"class.Halide::Runtime::Internal::(anonymous namespace)::Printer"* undef, metadata !832, metadata !DIExpression()) #9, !dbg !2374
  call void @llvm.dbg.value(metadata i8* getelementptr inbounds ([48 x i8], [48 x i8]* @.str.18, i32 0, i32 0), metadata !835, metadata !DIExpression()) #9, !dbg !2374
  %614 = tail call i8* @halide_string_to_string(i8* %613, i8* %612, i8* nonnull getelementptr inbounds ([48 x i8], [48 x i8]* @.str.18, i32 0, i32 0)) #7, !dbg !2376
  call void @llvm.dbg.value(metadata %"class.Halide::Runtime::Internal::(anonymous namespace)::Printer"* undef, metadata !832, metadata !DIExpression()) #9, !dbg !2377
  call void @llvm.dbg.value(metadata i8* getelementptr inbounds ([8 x i8], [8 x i8]* @.str.119, i32 0, i32 0), metadata !835, metadata !DIExpression()) #9, !dbg !2377
  %615 = tail call i8* @halide_string_to_string(i8* %614, i8* %612, i8* nonnull getelementptr inbounds ([8 x i8], [8 x i8]* @.str.119, i32 0, i32 0)) #7, !dbg !2379
  call void @llvm.dbg.value(metadata %"class.Halide::Runtime::Internal::(anonymous namespace)::Printer"* undef, metadata !841, metadata !DIExpression()) #9, !dbg !2380
  br i1 %608, label %616, label %617, !dbg !2382

616:                                              ; preds = %611
  tail call void @halide_error(i8* %0, i8* getelementptr inbounds ([35 x i8], [35 x i8]* @.str.116, i32 0, i32 0)) #7, !dbg !2383
  br label %624, !dbg !2384

617:                                              ; preds = %611
  call void @llvm.dbg.value(metadata %"class.Halide::Runtime::Internal::(anonymous namespace)::Printer"* undef, metadata !855, metadata !DIExpression()) #9, !dbg !2385
  %618 = ptrtoint i8* %615 to i32, !dbg !2387
  %619 = ptrtoint i8* %607 to i32, !dbg !2387
  %620 = sub i32 1, %619, !dbg !2387
  %621 = add i32 %620, %618, !dbg !2388
  %622 = sext i32 %621 to i64, !dbg !2389
  %623 = tail call i32 @halide_msan_annotate_memory_is_initialized(i8* %0, i8* nonnull %607, i64 %622) #7, !dbg !2390
  tail call void @halide_print(i8* %0, i8* nonnull %607) #7, !dbg !2391
  br label %624

624:                                              ; preds = %617, %616
  tail call void @free(i8* %607) #7, !dbg !2392
  %625 = tail call i8* @halide_get_library_symbol(i8* %16, i8* getelementptr inbounds ([48 x i8], [48 x i8]* @.str.18, i32 0, i32 0)) #7, !dbg !2393
  store i8* %625, i8** bitcast (i32 (i32)** @_ZN6Halide7Runtime8Internal7Hexagon32remote_profiler_set_current_funcE to i8**), align 4, !dbg !2394, !tbaa !1103
  call void @llvm.dbg.value(metadata %"class.Halide::Runtime::Internal::(anonymous namespace)::Printer"* undef, metadata !815, metadata !DIExpression()) #9, !dbg !2395
  call void @llvm.dbg.value(metadata i8* %0, metadata !818, metadata !DIExpression()) #9, !dbg !2395
  call void @llvm.dbg.value(metadata i8* null, metadata !819, metadata !DIExpression()) #9, !dbg !2395
  %626 = tail call i8* @malloc(i32 1024) #7, !dbg !2397
  %627 = icmp eq i8* %626, null, !dbg !2398
  br i1 %627, label %630, label %628, !dbg !2399

628:                                              ; preds = %624
  %629 = getelementptr inbounds i8, i8* %626, i32 1023, !dbg !2400
  store i8 0, i8* %629, align 1, !dbg !2401, !tbaa !854
  br label %630, !dbg !2402

630:                                              ; preds = %628, %624
  %631 = phi i8* [ %629, %628 ], [ null, %624 ], !dbg !2403
  call void @llvm.dbg.value(metadata %"class.Halide::Runtime::Internal::(anonymous namespace)::Printer"* undef, metadata !832, metadata !DIExpression()) #9, !dbg !2404
  call void @llvm.dbg.value(metadata i8* getelementptr inbounds ([9 x i8], [9 x i8]* @.str.38, i32 0, i32 0), metadata !835, metadata !DIExpression()) #9, !dbg !2404
  %632 = tail call i8* @halide_string_to_string(i8* %626, i8* %631, i8* nonnull getelementptr inbounds ([9 x i8], [9 x i8]* @.str.38, i32 0, i32 0)) #7, !dbg !2406
  %633 = load i8*, i8** bitcast (i32 (i32)** @_ZN6Halide7Runtime8Internal7Hexagon32remote_profiler_set_current_funcE to i8**), align 4, !dbg !2407, !tbaa !1103
  call void @llvm.dbg.value(metadata %"class.Halide::Runtime::Internal::(anonymous namespace)::Printer"* undef, metadata !1257, metadata !DIExpression()) #9, !dbg !2408
  call void @llvm.dbg.value(metadata i8* %633, metadata !1260, metadata !DIExpression()) #9, !dbg !2408
  %634 = tail call i8* @halide_pointer_to_string(i8* %632, i8* %631, i8* %633) #7, !dbg !2410
  call void @llvm.dbg.value(metadata %"class.Halide::Runtime::Internal::(anonymous namespace)::Printer"* undef, metadata !832, metadata !DIExpression()) #9, !dbg !2411
  call void @llvm.dbg.value(metadata i8* getelementptr inbounds ([2 x i8], [2 x i8]* @.str.2, i32 0, i32 0), metadata !835, metadata !DIExpression()) #9, !dbg !2411
  %635 = tail call i8* @halide_string_to_string(i8* %634, i8* %631, i8* nonnull getelementptr inbounds ([2 x i8], [2 x i8]* @.str.2, i32 0, i32 0)) #7, !dbg !2413
  call void @llvm.dbg.value(metadata %"class.Halide::Runtime::Internal::(anonymous namespace)::Printer"* undef, metadata !841, metadata !DIExpression()) #9, !dbg !2414
  br i1 %627, label %636, label %637, !dbg !2416

636:                                              ; preds = %630
  tail call void @halide_error(i8* %0, i8* getelementptr inbounds ([35 x i8], [35 x i8]* @.str.116, i32 0, i32 0)) #7, !dbg !2417
  br label %644, !dbg !2418

637:                                              ; preds = %630
  call void @llvm.dbg.value(metadata %"class.Halide::Runtime::Internal::(anonymous namespace)::Printer"* undef, metadata !855, metadata !DIExpression()) #9, !dbg !2419
  %638 = ptrtoint i8* %635 to i32, !dbg !2421
  %639 = ptrtoint i8* %626 to i32, !dbg !2421
  %640 = sub i32 1, %639, !dbg !2421
  %641 = add i32 %640, %638, !dbg !2422
  %642 = sext i32 %641 to i64, !dbg !2423
  %643 = tail call i32 @halide_msan_annotate_memory_is_initialized(i8* %0, i8* nonnull %626, i64 %642) #7, !dbg !2424
  tail call void @halide_print(i8* %0, i8* nonnull %626) #7, !dbg !2425
  br label %644

644:                                              ; preds = %636, %637
  tail call void @free(i8* %626) #7, !dbg !2426
  call void @llvm.dbg.value(metadata i8* %0, metadata !2427, metadata !DIExpression()) #9, !dbg !2439
  call void @llvm.dbg.value(metadata i8* %16, metadata !2433, metadata !DIExpression()) #9, !dbg !2439
  call void @llvm.dbg.value(metadata i8* getelementptr inbounds ([35 x i8], [35 x i8]* @.str.19, i32 0, i32 0), metadata !2434, metadata !DIExpression()) #9, !dbg !2439
  call void @llvm.dbg.value(metadata i32 ()** @_ZN6Halide7Runtime8Internal7Hexagon19remote_power_hvx_onE, metadata !2435, metadata !DIExpression()) #9, !dbg !2439
  call void @llvm.dbg.value(metadata i1 false, metadata !2436, metadata !DIExpression(DW_OP_LLVM_convert, 1, DW_ATE_unsigned, DW_OP_LLVM_convert, 8, DW_ATE_unsigned, DW_OP_stack_value)) #9, !dbg !2439
  call void @llvm.dbg.value(metadata %"class.Halide::Runtime::Internal::(anonymous namespace)::Printer"* undef, metadata !815, metadata !DIExpression()) #9, !dbg !2441
  call void @llvm.dbg.value(metadata i8* %0, metadata !818, metadata !DIExpression()) #9, !dbg !2441
  call void @llvm.dbg.value(metadata i8* null, metadata !819, metadata !DIExpression()) #9, !dbg !2441
  %645 = tail call i8* @malloc(i32 1024) #7, !dbg !2443
  %646 = icmp eq i8* %645, null, !dbg !2444
  br i1 %646, label %649, label %647, !dbg !2445

647:                                              ; preds = %644
  %648 = getelementptr inbounds i8, i8* %645, i32 1023, !dbg !2446
  store i8 0, i8* %648, align 1, !dbg !2447, !tbaa !854
  br label %649, !dbg !2448

649:                                              ; preds = %647, %644
  %650 = phi i8* [ %648, %647 ], [ null, %644 ], !dbg !2449
  call void @llvm.dbg.value(metadata %"class.Halide::Runtime::Internal::(anonymous namespace)::Printer"* undef, metadata !832, metadata !DIExpression()) #9, !dbg !2450
  call void @llvm.dbg.value(metadata i8* getelementptr inbounds ([32 x i8], [32 x i8]* @.str.118, i32 0, i32 0), metadata !835, metadata !DIExpression()) #9, !dbg !2450
  %651 = tail call i8* @halide_string_to_string(i8* %645, i8* %650, i8* nonnull getelementptr inbounds ([32 x i8], [32 x i8]* @.str.118, i32 0, i32 0)) #7, !dbg !2452
  call void @llvm.dbg.value(metadata %"class.Halide::Runtime::Internal::(anonymous namespace)::Printer"* undef, metadata !832, metadata !DIExpression()) #9, !dbg !2453
  call void @llvm.dbg.value(metadata i8* getelementptr inbounds ([35 x i8], [35 x i8]* @.str.19, i32 0, i32 0), metadata !835, metadata !DIExpression()) #9, !dbg !2453
  %652 = tail call i8* @halide_string_to_string(i8* %651, i8* %650, i8* nonnull getelementptr inbounds ([35 x i8], [35 x i8]* @.str.19, i32 0, i32 0)) #7, !dbg !2455
  call void @llvm.dbg.value(metadata %"class.Halide::Runtime::Internal::(anonymous namespace)::Printer"* undef, metadata !832, metadata !DIExpression()) #9, !dbg !2456
  call void @llvm.dbg.value(metadata i8* getelementptr inbounds ([8 x i8], [8 x i8]* @.str.119, i32 0, i32 0), metadata !835, metadata !DIExpression()) #9, !dbg !2456
  %653 = tail call i8* @halide_string_to_string(i8* %652, i8* %650, i8* nonnull getelementptr inbounds ([8 x i8], [8 x i8]* @.str.119, i32 0, i32 0)) #7, !dbg !2458
  call void @llvm.dbg.value(metadata %"class.Halide::Runtime::Internal::(anonymous namespace)::Printer"* undef, metadata !841, metadata !DIExpression()) #9, !dbg !2459
  br i1 %646, label %654, label %655, !dbg !2461

654:                                              ; preds = %649
  tail call void @halide_error(i8* %0, i8* getelementptr inbounds ([35 x i8], [35 x i8]* @.str.116, i32 0, i32 0)) #7, !dbg !2462
  br label %662, !dbg !2463

655:                                              ; preds = %649
  call void @llvm.dbg.value(metadata %"class.Halide::Runtime::Internal::(anonymous namespace)::Printer"* undef, metadata !855, metadata !DIExpression()) #9, !dbg !2464
  %656 = ptrtoint i8* %653 to i32, !dbg !2466
  %657 = ptrtoint i8* %645 to i32, !dbg !2466
  %658 = sub i32 1, %657, !dbg !2466
  %659 = add i32 %658, %656, !dbg !2467
  %660 = sext i32 %659 to i64, !dbg !2468
  %661 = tail call i32 @halide_msan_annotate_memory_is_initialized(i8* %0, i8* nonnull %645, i64 %660) #7, !dbg !2469
  tail call void @halide_print(i8* %0, i8* nonnull %645) #7, !dbg !2470
  br label %662

662:                                              ; preds = %655, %654
  tail call void @free(i8* %645) #7, !dbg !2471
  %663 = tail call i8* @halide_get_library_symbol(i8* %16, i8* getelementptr inbounds ([35 x i8], [35 x i8]* @.str.19, i32 0, i32 0)) #7, !dbg !2472
  store i8* %663, i8** bitcast (i32 ()** @_ZN6Halide7Runtime8Internal7Hexagon19remote_power_hvx_onE to i8**), align 4, !dbg !2473, !tbaa !1103
  call void @llvm.dbg.value(metadata %"class.Halide::Runtime::Internal::(anonymous namespace)::Printer"* undef, metadata !815, metadata !DIExpression()) #9, !dbg !2474
  call void @llvm.dbg.value(metadata i8* %0, metadata !818, metadata !DIExpression()) #9, !dbg !2474
  call void @llvm.dbg.value(metadata i8* null, metadata !819, metadata !DIExpression()) #9, !dbg !2474
  %664 = tail call i8* @malloc(i32 1024) #7, !dbg !2476
  %665 = icmp eq i8* %664, null, !dbg !2477
  br i1 %665, label %668, label %666, !dbg !2478

666:                                              ; preds = %662
  %667 = getelementptr inbounds i8, i8* %664, i32 1023, !dbg !2479
  store i8 0, i8* %667, align 1, !dbg !2480, !tbaa !854
  br label %668, !dbg !2481

668:                                              ; preds = %666, %662
  %669 = phi i8* [ %667, %666 ], [ null, %662 ], !dbg !2482
  call void @llvm.dbg.value(metadata %"class.Halide::Runtime::Internal::(anonymous namespace)::Printer"* undef, metadata !832, metadata !DIExpression()) #9, !dbg !2483
  call void @llvm.dbg.value(metadata i8* getelementptr inbounds ([9 x i8], [9 x i8]* @.str.38, i32 0, i32 0), metadata !835, metadata !DIExpression()) #9, !dbg !2483
  %670 = tail call i8* @halide_string_to_string(i8* %664, i8* %669, i8* nonnull getelementptr inbounds ([9 x i8], [9 x i8]* @.str.38, i32 0, i32 0)) #7, !dbg !2485
  %671 = load i8*, i8** bitcast (i32 ()** @_ZN6Halide7Runtime8Internal7Hexagon19remote_power_hvx_onE to i8**), align 4, !dbg !2486, !tbaa !1103
  call void @llvm.dbg.value(metadata %"class.Halide::Runtime::Internal::(anonymous namespace)::Printer"* undef, metadata !1257, metadata !DIExpression()) #9, !dbg !2487
  call void @llvm.dbg.value(metadata i8* %671, metadata !1260, metadata !DIExpression()) #9, !dbg !2487
  %672 = tail call i8* @halide_pointer_to_string(i8* %670, i8* %669, i8* %671) #7, !dbg !2489
  call void @llvm.dbg.value(metadata %"class.Halide::Runtime::Internal::(anonymous namespace)::Printer"* undef, metadata !832, metadata !DIExpression()) #9, !dbg !2490
  call void @llvm.dbg.value(metadata i8* getelementptr inbounds ([2 x i8], [2 x i8]* @.str.2, i32 0, i32 0), metadata !835, metadata !DIExpression()) #9, !dbg !2490
  %673 = tail call i8* @halide_string_to_string(i8* %672, i8* %669, i8* nonnull getelementptr inbounds ([2 x i8], [2 x i8]* @.str.2, i32 0, i32 0)) #7, !dbg !2492
  call void @llvm.dbg.value(metadata %"class.Halide::Runtime::Internal::(anonymous namespace)::Printer"* undef, metadata !841, metadata !DIExpression()) #9, !dbg !2493
  br i1 %665, label %674, label %675, !dbg !2495

674:                                              ; preds = %668
  tail call void @halide_error(i8* %0, i8* getelementptr inbounds ([35 x i8], [35 x i8]* @.str.116, i32 0, i32 0)) #7, !dbg !2496
  br label %682, !dbg !2497

675:                                              ; preds = %668
  call void @llvm.dbg.value(metadata %"class.Halide::Runtime::Internal::(anonymous namespace)::Printer"* undef, metadata !855, metadata !DIExpression()) #9, !dbg !2498
  %676 = ptrtoint i8* %673 to i32, !dbg !2500
  %677 = ptrtoint i8* %664 to i32, !dbg !2500
  %678 = sub i32 1, %677, !dbg !2500
  %679 = add i32 %678, %676, !dbg !2501
  %680 = sext i32 %679 to i64, !dbg !2502
  %681 = tail call i32 @halide_msan_annotate_memory_is_initialized(i8* %0, i8* nonnull %664, i64 %680) #7, !dbg !2503
  tail call void @halide_print(i8* %0, i8* nonnull %664) #7, !dbg !2504
  br label %682

682:                                              ; preds = %674, %675
  tail call void @free(i8* %664) #7, !dbg !2505
  call void @llvm.dbg.value(metadata i8* %0, metadata !2427, metadata !DIExpression()) #9, !dbg !2506
  call void @llvm.dbg.value(metadata i8* %16, metadata !2433, metadata !DIExpression()) #9, !dbg !2506
  call void @llvm.dbg.value(metadata i8* getelementptr inbounds ([36 x i8], [36 x i8]* @.str.20, i32 0, i32 0), metadata !2434, metadata !DIExpression()) #9, !dbg !2506
  call void @llvm.dbg.value(metadata i32 ()** @_ZN6Halide7Runtime8Internal7Hexagon20remote_power_hvx_offE, metadata !2435, metadata !DIExpression()) #9, !dbg !2506
  call void @llvm.dbg.value(metadata i1 false, metadata !2436, metadata !DIExpression(DW_OP_LLVM_convert, 1, DW_ATE_unsigned, DW_OP_LLVM_convert, 8, DW_ATE_unsigned, DW_OP_stack_value)) #9, !dbg !2506
  call void @llvm.dbg.value(metadata %"class.Halide::Runtime::Internal::(anonymous namespace)::Printer"* undef, metadata !815, metadata !DIExpression()) #9, !dbg !2508
  call void @llvm.dbg.value(metadata i8* %0, metadata !818, metadata !DIExpression()) #9, !dbg !2508
  call void @llvm.dbg.value(metadata i8* null, metadata !819, metadata !DIExpression()) #9, !dbg !2508
  %683 = tail call i8* @malloc(i32 1024) #7, !dbg !2510
  %684 = icmp eq i8* %683, null, !dbg !2511
  br i1 %684, label %687, label %685, !dbg !2512

685:                                              ; preds = %682
  %686 = getelementptr inbounds i8, i8* %683, i32 1023, !dbg !2513
  store i8 0, i8* %686, align 1, !dbg !2514, !tbaa !854
  br label %687, !dbg !2515

687:                                              ; preds = %685, %682
  %688 = phi i8* [ %686, %685 ], [ null, %682 ], !dbg !2516
  call void @llvm.dbg.value(metadata %"class.Halide::Runtime::Internal::(anonymous namespace)::Printer"* undef, metadata !832, metadata !DIExpression()) #9, !dbg !2517
  call void @llvm.dbg.value(metadata i8* getelementptr inbounds ([32 x i8], [32 x i8]* @.str.118, i32 0, i32 0), metadata !835, metadata !DIExpression()) #9, !dbg !2517
  %689 = tail call i8* @halide_string_to_string(i8* %683, i8* %688, i8* nonnull getelementptr inbounds ([32 x i8], [32 x i8]* @.str.118, i32 0, i32 0)) #7, !dbg !2519
  call void @llvm.dbg.value(metadata %"class.Halide::Runtime::Internal::(anonymous namespace)::Printer"* undef, metadata !832, metadata !DIExpression()) #9, !dbg !2520
  call void @llvm.dbg.value(metadata i8* getelementptr inbounds ([36 x i8], [36 x i8]* @.str.20, i32 0, i32 0), metadata !835, metadata !DIExpression()) #9, !dbg !2520
  %690 = tail call i8* @halide_string_to_string(i8* %689, i8* %688, i8* nonnull getelementptr inbounds ([36 x i8], [36 x i8]* @.str.20, i32 0, i32 0)) #7, !dbg !2522
  call void @llvm.dbg.value(metadata %"class.Halide::Runtime::Internal::(anonymous namespace)::Printer"* undef, metadata !832, metadata !DIExpression()) #9, !dbg !2523
  call void @llvm.dbg.value(metadata i8* getelementptr inbounds ([8 x i8], [8 x i8]* @.str.119, i32 0, i32 0), metadata !835, metadata !DIExpression()) #9, !dbg !2523
  %691 = tail call i8* @halide_string_to_string(i8* %690, i8* %688, i8* nonnull getelementptr inbounds ([8 x i8], [8 x i8]* @.str.119, i32 0, i32 0)) #7, !dbg !2525
  call void @llvm.dbg.value(metadata %"class.Halide::Runtime::Internal::(anonymous namespace)::Printer"* undef, metadata !841, metadata !DIExpression()) #9, !dbg !2526
  br i1 %684, label %692, label %693, !dbg !2528

692:                                              ; preds = %687
  tail call void @halide_error(i8* %0, i8* getelementptr inbounds ([35 x i8], [35 x i8]* @.str.116, i32 0, i32 0)) #7, !dbg !2529
  br label %700, !dbg !2530

693:                                              ; preds = %687
  call void @llvm.dbg.value(metadata %"class.Halide::Runtime::Internal::(anonymous namespace)::Printer"* undef, metadata !855, metadata !DIExpression()) #9, !dbg !2531
  %694 = ptrtoint i8* %691 to i32, !dbg !2533
  %695 = ptrtoint i8* %683 to i32, !dbg !2533
  %696 = sub i32 1, %695, !dbg !2533
  %697 = add i32 %696, %694, !dbg !2534
  %698 = sext i32 %697 to i64, !dbg !2535
  %699 = tail call i32 @halide_msan_annotate_memory_is_initialized(i8* %0, i8* nonnull %683, i64 %698) #7, !dbg !2536
  tail call void @halide_print(i8* %0, i8* nonnull %683) #7, !dbg !2537
  br label %700

700:                                              ; preds = %693, %692
  tail call void @free(i8* %683) #7, !dbg !2538
  %701 = tail call i8* @halide_get_library_symbol(i8* %16, i8* getelementptr inbounds ([36 x i8], [36 x i8]* @.str.20, i32 0, i32 0)) #7, !dbg !2539
  store i8* %701, i8** bitcast (i32 ()** @_ZN6Halide7Runtime8Internal7Hexagon20remote_power_hvx_offE to i8**), align 4, !dbg !2540, !tbaa !1103
  call void @llvm.dbg.value(metadata %"class.Halide::Runtime::Internal::(anonymous namespace)::Printer"* undef, metadata !815, metadata !DIExpression()) #9, !dbg !2541
  call void @llvm.dbg.value(metadata i8* %0, metadata !818, metadata !DIExpression()) #9, !dbg !2541
  call void @llvm.dbg.value(metadata i8* null, metadata !819, metadata !DIExpression()) #9, !dbg !2541
  %702 = tail call i8* @malloc(i32 1024) #7, !dbg !2543
  %703 = icmp eq i8* %702, null, !dbg !2544
  br i1 %703, label %706, label %704, !dbg !2545

704:                                              ; preds = %700
  %705 = getelementptr inbounds i8, i8* %702, i32 1023, !dbg !2546
  store i8 0, i8* %705, align 1, !dbg !2547, !tbaa !854
  br label %706, !dbg !2548

706:                                              ; preds = %704, %700
  %707 = phi i8* [ %705, %704 ], [ null, %700 ], !dbg !2549
  call void @llvm.dbg.value(metadata %"class.Halide::Runtime::Internal::(anonymous namespace)::Printer"* undef, metadata !832, metadata !DIExpression()) #9, !dbg !2550
  call void @llvm.dbg.value(metadata i8* getelementptr inbounds ([9 x i8], [9 x i8]* @.str.38, i32 0, i32 0), metadata !835, metadata !DIExpression()) #9, !dbg !2550
  %708 = tail call i8* @halide_string_to_string(i8* %702, i8* %707, i8* nonnull getelementptr inbounds ([9 x i8], [9 x i8]* @.str.38, i32 0, i32 0)) #7, !dbg !2552
  %709 = load i8*, i8** bitcast (i32 ()** @_ZN6Halide7Runtime8Internal7Hexagon20remote_power_hvx_offE to i8**), align 4, !dbg !2553, !tbaa !1103
  call void @llvm.dbg.value(metadata %"class.Halide::Runtime::Internal::(anonymous namespace)::Printer"* undef, metadata !1257, metadata !DIExpression()) #9, !dbg !2554
  call void @llvm.dbg.value(metadata i8* %709, metadata !1260, metadata !DIExpression()) #9, !dbg !2554
  %710 = tail call i8* @halide_pointer_to_string(i8* %708, i8* %707, i8* %709) #7, !dbg !2556
  call void @llvm.dbg.value(metadata %"class.Halide::Runtime::Internal::(anonymous namespace)::Printer"* undef, metadata !832, metadata !DIExpression()) #9, !dbg !2557
  call void @llvm.dbg.value(metadata i8* getelementptr inbounds ([2 x i8], [2 x i8]* @.str.2, i32 0, i32 0), metadata !835, metadata !DIExpression()) #9, !dbg !2557
  %711 = tail call i8* @halide_string_to_string(i8* %710, i8* %707, i8* nonnull getelementptr inbounds ([2 x i8], [2 x i8]* @.str.2, i32 0, i32 0)) #7, !dbg !2559
  call void @llvm.dbg.value(metadata %"class.Halide::Runtime::Internal::(anonymous namespace)::Printer"* undef, metadata !841, metadata !DIExpression()) #9, !dbg !2560
  br i1 %703, label %712, label %713, !dbg !2562

712:                                              ; preds = %706
  tail call void @halide_error(i8* %0, i8* getelementptr inbounds ([35 x i8], [35 x i8]* @.str.116, i32 0, i32 0)) #7, !dbg !2563
  br label %720, !dbg !2564

713:                                              ; preds = %706
  call void @llvm.dbg.value(metadata %"class.Halide::Runtime::Internal::(anonymous namespace)::Printer"* undef, metadata !855, metadata !DIExpression()) #9, !dbg !2565
  %714 = ptrtoint i8* %711 to i32, !dbg !2567
  %715 = ptrtoint i8* %702 to i32, !dbg !2567
  %716 = sub i32 1, %715, !dbg !2567
  %717 = add i32 %716, %714, !dbg !2568
  %718 = sext i32 %717 to i64, !dbg !2569
  %719 = tail call i32 @halide_msan_annotate_memory_is_initialized(i8* %0, i8* nonnull %702, i64 %718) #7, !dbg !2570
  tail call void @halide_print(i8* %0, i8* nonnull %702) #7, !dbg !2571
  br label %720

720:                                              ; preds = %712, %713
  tail call void @free(i8* %702) #7, !dbg !2572
  call void @llvm.dbg.value(metadata i8* %0, metadata !2573, metadata !DIExpression()) #9, !dbg !2585
  call void @llvm.dbg.value(metadata i8* %16, metadata !2579, metadata !DIExpression()) #9, !dbg !2585
  call void @llvm.dbg.value(metadata i8* getelementptr inbounds ([38 x i8], [38 x i8]* @.str.21, i32 0, i32 0), metadata !2580, metadata !DIExpression()) #9, !dbg !2585
  call void @llvm.dbg.value(metadata i32 (i32, i32, i32, i32, i32, i32, i32, i32)** @_ZN6Halide7Runtime8Internal7Hexagon22remote_set_performanceE, metadata !2581, metadata !DIExpression()) #9, !dbg !2585
  call void @llvm.dbg.value(metadata i1 false, metadata !2582, metadata !DIExpression(DW_OP_LLVM_convert, 1, DW_ATE_unsigned, DW_OP_LLVM_convert, 8, DW_ATE_unsigned, DW_OP_stack_value)) #9, !dbg !2585
  call void @llvm.dbg.value(metadata %"class.Halide::Runtime::Internal::(anonymous namespace)::Printer"* undef, metadata !815, metadata !DIExpression()) #9, !dbg !2587
  call void @llvm.dbg.value(metadata i8* %0, metadata !818, metadata !DIExpression()) #9, !dbg !2587
  call void @llvm.dbg.value(metadata i8* null, metadata !819, metadata !DIExpression()) #9, !dbg !2587
  %721 = tail call i8* @malloc(i32 1024) #7, !dbg !2589
  %722 = icmp eq i8* %721, null, !dbg !2590
  br i1 %722, label %725, label %723, !dbg !2591

723:                                              ; preds = %720
  %724 = getelementptr inbounds i8, i8* %721, i32 1023, !dbg !2592
  store i8 0, i8* %724, align 1, !dbg !2593, !tbaa !854
  br label %725, !dbg !2594

725:                                              ; preds = %723, %720
  %726 = phi i8* [ %724, %723 ], [ null, %720 ], !dbg !2595
  call void @llvm.dbg.value(metadata %"class.Halide::Runtime::Internal::(anonymous namespace)::Printer"* undef, metadata !832, metadata !DIExpression()) #9, !dbg !2596
  call void @llvm.dbg.value(metadata i8* getelementptr inbounds ([32 x i8], [32 x i8]* @.str.118, i32 0, i32 0), metadata !835, metadata !DIExpression()) #9, !dbg !2596
  %727 = tail call i8* @halide_string_to_string(i8* %721, i8* %726, i8* nonnull getelementptr inbounds ([32 x i8], [32 x i8]* @.str.118, i32 0, i32 0)) #7, !dbg !2598
  call void @llvm.dbg.value(metadata %"class.Halide::Runtime::Internal::(anonymous namespace)::Printer"* undef, metadata !832, metadata !DIExpression()) #9, !dbg !2599
  call void @llvm.dbg.value(metadata i8* getelementptr inbounds ([38 x i8], [38 x i8]* @.str.21, i32 0, i32 0), metadata !835, metadata !DIExpression()) #9, !dbg !2599
  %728 = tail call i8* @halide_string_to_string(i8* %727, i8* %726, i8* nonnull getelementptr inbounds ([38 x i8], [38 x i8]* @.str.21, i32 0, i32 0)) #7, !dbg !2601
  call void @llvm.dbg.value(metadata %"class.Halide::Runtime::Internal::(anonymous namespace)::Printer"* undef, metadata !832, metadata !DIExpression()) #9, !dbg !2602
  call void @llvm.dbg.value(metadata i8* getelementptr inbounds ([8 x i8], [8 x i8]* @.str.119, i32 0, i32 0), metadata !835, metadata !DIExpression()) #9, !dbg !2602
  %729 = tail call i8* @halide_string_to_string(i8* %728, i8* %726, i8* nonnull getelementptr inbounds ([8 x i8], [8 x i8]* @.str.119, i32 0, i32 0)) #7, !dbg !2604
  call void @llvm.dbg.value(metadata %"class.Halide::Runtime::Internal::(anonymous namespace)::Printer"* undef, metadata !841, metadata !DIExpression()) #9, !dbg !2605
  br i1 %722, label %730, label %731, !dbg !2607

730:                                              ; preds = %725
  tail call void @halide_error(i8* %0, i8* getelementptr inbounds ([35 x i8], [35 x i8]* @.str.116, i32 0, i32 0)) #7, !dbg !2608
  br label %738, !dbg !2609

731:                                              ; preds = %725
  call void @llvm.dbg.value(metadata %"class.Halide::Runtime::Internal::(anonymous namespace)::Printer"* undef, metadata !855, metadata !DIExpression()) #9, !dbg !2610
  %732 = ptrtoint i8* %729 to i32, !dbg !2612
  %733 = ptrtoint i8* %721 to i32, !dbg !2612
  %734 = sub i32 1, %733, !dbg !2612
  %735 = add i32 %734, %732, !dbg !2613
  %736 = sext i32 %735 to i64, !dbg !2614
  %737 = tail call i32 @halide_msan_annotate_memory_is_initialized(i8* %0, i8* nonnull %721, i64 %736) #7, !dbg !2615
  tail call void @halide_print(i8* %0, i8* nonnull %721) #7, !dbg !2616
  br label %738

738:                                              ; preds = %731, %730
  tail call void @free(i8* %721) #7, !dbg !2617
  %739 = tail call i8* @halide_get_library_symbol(i8* %16, i8* getelementptr inbounds ([38 x i8], [38 x i8]* @.str.21, i32 0, i32 0)) #7, !dbg !2618
  store i8* %739, i8** bitcast (i32 (i32, i32, i32, i32, i32, i32, i32, i32)** @_ZN6Halide7Runtime8Internal7Hexagon22remote_set_performanceE to i8**), align 4, !dbg !2619, !tbaa !1103
  call void @llvm.dbg.value(metadata %"class.Halide::Runtime::Internal::(anonymous namespace)::Printer"* undef, metadata !815, metadata !DIExpression()) #9, !dbg !2620
  call void @llvm.dbg.value(metadata i8* %0, metadata !818, metadata !DIExpression()) #9, !dbg !2620
  call void @llvm.dbg.value(metadata i8* null, metadata !819, metadata !DIExpression()) #9, !dbg !2620
  %740 = tail call i8* @malloc(i32 1024) #7, !dbg !2622
  %741 = icmp eq i8* %740, null, !dbg !2623
  br i1 %741, label %744, label %742, !dbg !2624

742:                                              ; preds = %738
  %743 = getelementptr inbounds i8, i8* %740, i32 1023, !dbg !2625
  store i8 0, i8* %743, align 1, !dbg !2626, !tbaa !854
  br label %744, !dbg !2627

744:                                              ; preds = %742, %738
  %745 = phi i8* [ %743, %742 ], [ null, %738 ], !dbg !2628
  call void @llvm.dbg.value(metadata %"class.Halide::Runtime::Internal::(anonymous namespace)::Printer"* undef, metadata !832, metadata !DIExpression()) #9, !dbg !2629
  call void @llvm.dbg.value(metadata i8* getelementptr inbounds ([9 x i8], [9 x i8]* @.str.38, i32 0, i32 0), metadata !835, metadata !DIExpression()) #9, !dbg !2629
  %746 = tail call i8* @halide_string_to_string(i8* %740, i8* %745, i8* nonnull getelementptr inbounds ([9 x i8], [9 x i8]* @.str.38, i32 0, i32 0)) #7, !dbg !2631
  %747 = load i8*, i8** bitcast (i32 (i32, i32, i32, i32, i32, i32, i32, i32)** @_ZN6Halide7Runtime8Internal7Hexagon22remote_set_performanceE to i8**), align 4, !dbg !2632, !tbaa !1103
  call void @llvm.dbg.value(metadata %"class.Halide::Runtime::Internal::(anonymous namespace)::Printer"* undef, metadata !1257, metadata !DIExpression()) #9, !dbg !2633
  call void @llvm.dbg.value(metadata i8* %747, metadata !1260, metadata !DIExpression()) #9, !dbg !2633
  %748 = tail call i8* @halide_pointer_to_string(i8* %746, i8* %745, i8* %747) #7, !dbg !2635
  call void @llvm.dbg.value(metadata %"class.Halide::Runtime::Internal::(anonymous namespace)::Printer"* undef, metadata !832, metadata !DIExpression()) #9, !dbg !2636
  call void @llvm.dbg.value(metadata i8* getelementptr inbounds ([2 x i8], [2 x i8]* @.str.2, i32 0, i32 0), metadata !835, metadata !DIExpression()) #9, !dbg !2636
  %749 = tail call i8* @halide_string_to_string(i8* %748, i8* %745, i8* nonnull getelementptr inbounds ([2 x i8], [2 x i8]* @.str.2, i32 0, i32 0)) #7, !dbg !2638
  call void @llvm.dbg.value(metadata %"class.Halide::Runtime::Internal::(anonymous namespace)::Printer"* undef, metadata !841, metadata !DIExpression()) #9, !dbg !2639
  br i1 %741, label %750, label %751, !dbg !2641

750:                                              ; preds = %744
  tail call void @halide_error(i8* %0, i8* getelementptr inbounds ([35 x i8], [35 x i8]* @.str.116, i32 0, i32 0)) #7, !dbg !2642
  br label %758, !dbg !2643

751:                                              ; preds = %744
  call void @llvm.dbg.value(metadata %"class.Halide::Runtime::Internal::(anonymous namespace)::Printer"* undef, metadata !855, metadata !DIExpression()) #9, !dbg !2644
  %752 = ptrtoint i8* %749 to i32, !dbg !2646
  %753 = ptrtoint i8* %740 to i32, !dbg !2646
  %754 = sub i32 1, %753, !dbg !2646
  %755 = add i32 %754, %752, !dbg !2647
  %756 = sext i32 %755 to i64, !dbg !2648
  %757 = tail call i32 @halide_msan_annotate_memory_is_initialized(i8* %0, i8* nonnull %740, i64 %756) #7, !dbg !2649
  tail call void @halide_print(i8* %0, i8* nonnull %740) #7, !dbg !2650
  br label %758

758:                                              ; preds = %750, %751
  tail call void @free(i8* %740) #7, !dbg !2651
  call void @llvm.dbg.value(metadata i8* %0, metadata !1631, metadata !DIExpression()) #9, !dbg !2652
  call void @llvm.dbg.value(metadata i8* %16, metadata !1637, metadata !DIExpression()) #9, !dbg !2652
  call void @llvm.dbg.value(metadata i8* getelementptr inbounds ([43 x i8], [43 x i8]* @.str.22, i32 0, i32 0), metadata !1638, metadata !DIExpression()) #9, !dbg !2652
  call void @llvm.dbg.value(metadata i32 (i32)** @_ZN6Halide7Runtime8Internal7Hexagon27remote_set_performance_modeE, metadata !1639, metadata !DIExpression()) #9, !dbg !2652
  call void @llvm.dbg.value(metadata i1 false, metadata !1640, metadata !DIExpression(DW_OP_LLVM_convert, 1, DW_ATE_unsigned, DW_OP_LLVM_convert, 8, DW_ATE_unsigned, DW_OP_stack_value)) #9, !dbg !2652
  call void @llvm.dbg.value(metadata %"class.Halide::Runtime::Internal::(anonymous namespace)::Printer"* undef, metadata !815, metadata !DIExpression()) #9, !dbg !2654
  call void @llvm.dbg.value(metadata i8* %0, metadata !818, metadata !DIExpression()) #9, !dbg !2654
  call void @llvm.dbg.value(metadata i8* null, metadata !819, metadata !DIExpression()) #9, !dbg !2654
  %759 = tail call i8* @malloc(i32 1024) #7, !dbg !2656
  %760 = icmp eq i8* %759, null, !dbg !2657
  br i1 %760, label %763, label %761, !dbg !2658

761:                                              ; preds = %758
  %762 = getelementptr inbounds i8, i8* %759, i32 1023, !dbg !2659
  store i8 0, i8* %762, align 1, !dbg !2660, !tbaa !854
  br label %763, !dbg !2661

763:                                              ; preds = %761, %758
  %764 = phi i8* [ %762, %761 ], [ null, %758 ], !dbg !2662
  call void @llvm.dbg.value(metadata %"class.Halide::Runtime::Internal::(anonymous namespace)::Printer"* undef, metadata !832, metadata !DIExpression()) #9, !dbg !2663
  call void @llvm.dbg.value(metadata i8* getelementptr inbounds ([32 x i8], [32 x i8]* @.str.118, i32 0, i32 0), metadata !835, metadata !DIExpression()) #9, !dbg !2663
  %765 = tail call i8* @halide_string_to_string(i8* %759, i8* %764, i8* nonnull getelementptr inbounds ([32 x i8], [32 x i8]* @.str.118, i32 0, i32 0)) #7, !dbg !2665
  call void @llvm.dbg.value(metadata %"class.Halide::Runtime::Internal::(anonymous namespace)::Printer"* undef, metadata !832, metadata !DIExpression()) #9, !dbg !2666
  call void @llvm.dbg.value(metadata i8* getelementptr inbounds ([43 x i8], [43 x i8]* @.str.22, i32 0, i32 0), metadata !835, metadata !DIExpression()) #9, !dbg !2666
  %766 = tail call i8* @halide_string_to_string(i8* %765, i8* %764, i8* nonnull getelementptr inbounds ([43 x i8], [43 x i8]* @.str.22, i32 0, i32 0)) #7, !dbg !2668
  call void @llvm.dbg.value(metadata %"class.Halide::Runtime::Internal::(anonymous namespace)::Printer"* undef, metadata !832, metadata !DIExpression()) #9, !dbg !2669
  call void @llvm.dbg.value(metadata i8* getelementptr inbounds ([8 x i8], [8 x i8]* @.str.119, i32 0, i32 0), metadata !835, metadata !DIExpression()) #9, !dbg !2669
  %767 = tail call i8* @halide_string_to_string(i8* %766, i8* %764, i8* nonnull getelementptr inbounds ([8 x i8], [8 x i8]* @.str.119, i32 0, i32 0)) #7, !dbg !2671
  call void @llvm.dbg.value(metadata %"class.Halide::Runtime::Internal::(anonymous namespace)::Printer"* undef, metadata !841, metadata !DIExpression()) #9, !dbg !2672
  br i1 %760, label %768, label %769, !dbg !2674

768:                                              ; preds = %763
  tail call void @halide_error(i8* %0, i8* getelementptr inbounds ([35 x i8], [35 x i8]* @.str.116, i32 0, i32 0)) #7, !dbg !2675
  br label %776, !dbg !2676

769:                                              ; preds = %763
  call void @llvm.dbg.value(metadata %"class.Halide::Runtime::Internal::(anonymous namespace)::Printer"* undef, metadata !855, metadata !DIExpression()) #9, !dbg !2677
  %770 = ptrtoint i8* %767 to i32, !dbg !2679
  %771 = ptrtoint i8* %759 to i32, !dbg !2679
  %772 = sub i32 1, %771, !dbg !2679
  %773 = add i32 %772, %770, !dbg !2680
  %774 = sext i32 %773 to i64, !dbg !2681
  %775 = tail call i32 @halide_msan_annotate_memory_is_initialized(i8* %0, i8* nonnull %759, i64 %774) #7, !dbg !2682
  tail call void @halide_print(i8* %0, i8* nonnull %759) #7, !dbg !2683
  br label %776

776:                                              ; preds = %769, %768
  tail call void @free(i8* %759) #7, !dbg !2684
  %777 = tail call i8* @halide_get_library_symbol(i8* %16, i8* getelementptr inbounds ([43 x i8], [43 x i8]* @.str.22, i32 0, i32 0)) #7, !dbg !2685
  store i8* %777, i8** bitcast (i32 (i32)** @_ZN6Halide7Runtime8Internal7Hexagon27remote_set_performance_modeE to i8**), align 4, !dbg !2686, !tbaa !1103
  call void @llvm.dbg.value(metadata %"class.Halide::Runtime::Internal::(anonymous namespace)::Printer"* undef, metadata !815, metadata !DIExpression()) #9, !dbg !2687
  call void @llvm.dbg.value(metadata i8* %0, metadata !818, metadata !DIExpression()) #9, !dbg !2687
  call void @llvm.dbg.value(metadata i8* null, metadata !819, metadata !DIExpression()) #9, !dbg !2687
  %778 = tail call i8* @malloc(i32 1024) #7, !dbg !2689
  %779 = icmp eq i8* %778, null, !dbg !2690
  br i1 %779, label %782, label %780, !dbg !2691

780:                                              ; preds = %776
  %781 = getelementptr inbounds i8, i8* %778, i32 1023, !dbg !2692
  store i8 0, i8* %781, align 1, !dbg !2693, !tbaa !854
  br label %782, !dbg !2694

782:                                              ; preds = %780, %776
  %783 = phi i8* [ %781, %780 ], [ null, %776 ], !dbg !2695
  call void @llvm.dbg.value(metadata %"class.Halide::Runtime::Internal::(anonymous namespace)::Printer"* undef, metadata !832, metadata !DIExpression()) #9, !dbg !2696
  call void @llvm.dbg.value(metadata i8* getelementptr inbounds ([9 x i8], [9 x i8]* @.str.38, i32 0, i32 0), metadata !835, metadata !DIExpression()) #9, !dbg !2696
  %784 = tail call i8* @halide_string_to_string(i8* %778, i8* %783, i8* nonnull getelementptr inbounds ([9 x i8], [9 x i8]* @.str.38, i32 0, i32 0)) #7, !dbg !2698
  %785 = load i8*, i8** bitcast (i32 (i32)** @_ZN6Halide7Runtime8Internal7Hexagon27remote_set_performance_modeE to i8**), align 4, !dbg !2699, !tbaa !1103
  call void @llvm.dbg.value(metadata %"class.Halide::Runtime::Internal::(anonymous namespace)::Printer"* undef, metadata !1257, metadata !DIExpression()) #9, !dbg !2700
  call void @llvm.dbg.value(metadata i8* %785, metadata !1260, metadata !DIExpression()) #9, !dbg !2700
  %786 = tail call i8* @halide_pointer_to_string(i8* %784, i8* %783, i8* %785) #7, !dbg !2702
  call void @llvm.dbg.value(metadata %"class.Halide::Runtime::Internal::(anonymous namespace)::Printer"* undef, metadata !832, metadata !DIExpression()) #9, !dbg !2703
  call void @llvm.dbg.value(metadata i8* getelementptr inbounds ([2 x i8], [2 x i8]* @.str.2, i32 0, i32 0), metadata !835, metadata !DIExpression()) #9, !dbg !2703
  %787 = tail call i8* @halide_string_to_string(i8* %786, i8* %783, i8* nonnull getelementptr inbounds ([2 x i8], [2 x i8]* @.str.2, i32 0, i32 0)) #7, !dbg !2705
  call void @llvm.dbg.value(metadata %"class.Halide::Runtime::Internal::(anonymous namespace)::Printer"* undef, metadata !841, metadata !DIExpression()) #9, !dbg !2706
  br i1 %779, label %788, label %789, !dbg !2708

788:                                              ; preds = %782
  tail call void @halide_error(i8* %0, i8* getelementptr inbounds ([35 x i8], [35 x i8]* @.str.116, i32 0, i32 0)) #7, !dbg !2709
  br label %796, !dbg !2710

789:                                              ; preds = %782
  call void @llvm.dbg.value(metadata %"class.Halide::Runtime::Internal::(anonymous namespace)::Printer"* undef, metadata !855, metadata !DIExpression()) #9, !dbg !2711
  %790 = ptrtoint i8* %787 to i32, !dbg !2713
  %791 = ptrtoint i8* %778 to i32, !dbg !2713
  %792 = sub i32 1, %791, !dbg !2713
  %793 = add i32 %792, %790, !dbg !2714
  %794 = sext i32 %793 to i64, !dbg !2715
  %795 = tail call i32 @halide_msan_annotate_memory_is_initialized(i8* %0, i8* nonnull %778, i64 %794) #7, !dbg !2716
  tail call void @halide_print(i8* %0, i8* nonnull %778) #7, !dbg !2717
  br label %796

796:                                              ; preds = %788, %789
  tail call void @free(i8* %778) #7, !dbg !2718
  call void @llvm.dbg.value(metadata i8* %0, metadata !1631, metadata !DIExpression()) #9, !dbg !2719
  call void @llvm.dbg.value(metadata i8* %16, metadata !1637, metadata !DIExpression()) #9, !dbg !2719
  call void @llvm.dbg.value(metadata i8* getelementptr inbounds ([42 x i8], [42 x i8]* @.str.23, i32 0, i32 0), metadata !1638, metadata !DIExpression()) #9, !dbg !2719
