; ModuleID = '/media/maaz/Data/Repos/rake/Halide-master-d48fbde/src/runtime/hexagon_dma.cpp'
source_filename = "/media/maaz/Data/Repos/rake/Halide-master-d48fbde/src/runtime/hexagon_dma.cpp"
target datalayout = "e-m:e-v128:32-v16:16-v32:32-v96:32-n8:16:32:64-S128"
target triple = "le64-unknown-unknown-unknown"

%"struct.Halide::Runtime::Internal::HexagonDma::desc_pool" = type { i8*, i8, %"struct.Halide::Runtime::Internal::HexagonDma::desc_pool"* }
%struct.halide_mutex = type { [1 x i64] }
%struct.halide_device_interface_t = type { i32 (i8*, %struct.halide_buffer_t*, %struct.halide_device_interface_t*)*, i32 (i8*, %struct.halide_buffer_t*)*, i32 (i8*, %struct.halide_buffer_t*)*, void (i8*, %struct.halide_device_interface_t*)*, i32 (i8*, %struct.halide_buffer_t*)*, i32 (i8*, %struct.halide_buffer_t*, %struct.halide_device_interface_t*)*, i32 (i8*, %struct.halide_buffer_t*, %struct.halide_device_interface_t*)*, i32 (i8*, %struct.halide_buffer_t*)*, i32 (i8*, %struct.halide_buffer_t*, %struct.halide_device_interface_t*, %struct.halide_buffer_t*)*, i32 (i8*, %struct.halide_buffer_t*, %struct.halide_buffer_t*)*, i32 (i8*, %struct.halide_buffer_t*, i32, i32, %struct.halide_buffer_t*)*, i32 (i8*, %struct.halide_buffer_t*)*, i32 (i8*, %struct.halide_buffer_t*, i64, %struct.halide_device_interface_t*)*, i32 (i8*, %struct.halide_buffer_t*)*, i32 (i8*, i32*, i32*)*, %struct.halide_device_interface_impl_t* }
%struct.halide_buffer_t = type { i64, %struct.halide_device_interface_t*, i8*, i64, %struct.halide_type_t, i32, %struct.halide_dimension_t*, i8* }
%struct.halide_type_t = type { i8, i8, i16 }
%struct.halide_dimension_t = type { i32, i32, i32, i32 }
%struct.halide_device_interface_impl_t = type { void ()*, void ()*, i32 (i8*, %struct.halide_buffer_t*)*, i32 (i8*, %struct.halide_buffer_t*)*, i32 (i8*, %struct.halide_buffer_t*)*, i32 (i8*)*, i32 (i8*, %struct.halide_buffer_t*)*, i32 (i8*, %struct.halide_buffer_t*)*, i32 (i8*, %struct.halide_buffer_t*)*, i32 (i8*, %struct.halide_buffer_t*)*, i32 (i8*, %struct.halide_buffer_t*, %struct.halide_device_interface_t*, %struct.halide_buffer_t*)*, i32 (i8*, %struct.halide_buffer_t*, %struct.halide_buffer_t*)*, i32 (i8*, %struct.halide_buffer_t*, i32, i32, %struct.halide_buffer_t*)*, i32 (i8*, %struct.halide_buffer_t*)*, i32 (i8*, %struct.halide_buffer_t*, i64)*, i32 (i8*, %struct.halide_buffer_t*)* }
%"struct.Halide::Runtime::Internal::device_copy" = type { i64, i64, i64, [16 x i64], [16 x i64], [16 x i64], i64 }
%"class.Halide::Runtime::Internal::(anonymous namespace)::Printer" = type <{ i8*, i8*, i8*, i8*, i8, [1 x i8], [6 x i8] }>
%"class.Halide::Runtime::Internal::(anonymous namespace)::Printer.0" = type <{ i8*, i8*, i8*, i8*, i8, [1 x i8], [6 x i8] }>
%"struct.Halide::Runtime::Internal::HexagonDma::dma_device_handle" = type { i8*, i16, i16, i16, i16, i8*, i32, i32, i32, i8, i8, i32, [4 x i8] }
%"struct.Halide::Runtime::Internal::ScopedMutexLock" = type { %struct.halide_mutex* }
%struct.stDmaWrapper_RoiAlignInfo = type { i16, i16 }
%struct.stDmaWrapper_DmaTransferSetup = type { i16, i16, i16, i16, i16, i16, i16, i16, i8*, i8*, i8*, i16, i16, i32, i32, [4 x i8] }

@.str = private unnamed_addr constant [55 x i8] c"copy_memory: no copy needed as pointers are the same.\0A\00", align 1
@_ZN6Halide7Runtime8Internal10HexagonDma13dma_desc_poolE = weak dso_local local_unnamed_addr global %"struct.Halide::Runtime::Internal::HexagonDma::desc_pool"* null, align 8, !dbg !0
@_ZN6Halide7Runtime8Internal10HexagonDma18hexagon_desc_mutexE = weak dso_local global %struct.halide_mutex zeroinitializer, align 8, !dbg !18
@.str.1 = private unnamed_addr constant [58 x i8] c"Hexagon: halide_hexagon_dma_device_malloc (user_context: \00", align 1
@.str.2 = private unnamed_addr constant [8 x i8] c", buf: \00", align 1
@.str.3 = private unnamed_addr constant [3 x i8] c")\0A\00", align 1
@.str.4 = private unnamed_addr constant [58 x i8] c"Hexagon: buffer already has a device. No action required\0A\00", align 1
@.str.5 = private unnamed_addr constant [108 x i8] c"/media/maaz/Data/Repos/rake/Halide-master-d48fbde/src/runtime/hexagon_dma.cpp:374 Assert failed: size != 0\0A\00", align 1
@.str.6 = private unnamed_addr constant [65 x i8] c"Hexagon: Out of memory (halide_malloc failed for device_malloc)\0A\00", align 1
@.str.7 = private unnamed_addr constant [56 x i8] c"Hexagon: halide_hexagon_dma_device_free (user_context: \00", align 1
@.str.8 = private unnamed_addr constant [60 x i8] c"Hexagon: halide_hexagon_dma_allocate_engine (user_context: \00", align 1
@.str.9 = private unnamed_addr constant [109 x i8] c"/media/maaz/Data/Repos/rake/Halide-master-d48fbde/src/runtime/hexagon_dma.cpp:412 Assert failed: dma_engine\0A\00", align 1
@.str.10 = private unnamed_addr constant [32 x i8] c"    dma_allocate_dma_engine -> \00", align 1
@.str.11 = private unnamed_addr constant [9 x i8] c"        \00", align 1
@.str.12 = private unnamed_addr constant [2 x i8] c"\0A\00", align 1
@.str.13 = private unnamed_addr constant [33 x i8] c"dma_allocate_dma_engine failed.\0A\00", align 1
@.str.14 = private unnamed_addr constant [62 x i8] c"Hexagon: halide_hexagon_dma_deallocate_engine (user_context: \00", align 1
@.str.15 = private unnamed_addr constant [15 x i8] c", dma_engine: \00", align 1
@.str.16 = private unnamed_addr constant [109 x i8] c"/media/maaz/Data/Repos/rake/Halide-master-d48fbde/src/runtime/hexagon_dma.cpp:429 Assert failed: dma_engine\0A\00", align 1
@.str.17 = private unnamed_addr constant [37 x i8] c"Hexagon:     dma_free_dma_pool done\0A\00", align 1
@.str.18 = private unnamed_addr constant [38 x i8] c"Hexagon: Free DMA/Cache Pool failed.\0A\00", align 1
@.str.19 = private unnamed_addr constant [69 x i8] c"Hexagon: halide_hexagon_dma_prepare_for_copy_to_host (user_context: \00", align 1
@.str.20 = private unnamed_addr constant [71 x i8] c"Hexagon: halide_hexagon_dma_prepare_for_copy_to_device (user_context: \00", align 1
@.str.21 = private unnamed_addr constant [54 x i8] c"Hexagon: halide_hexagon_dma_unprepare (user_context: \00", align 1
@_ZN6Halide7Runtime8Internal10HexagonDma28hexagon_dma_device_interfaceE = weak dso_local global %struct.halide_device_interface_t { i32 (i8*, %struct.halide_buffer_t*, %struct.halide_device_interface_t*)* @halide_device_malloc, i32 (i8*, %struct.halide_buffer_t*)* @halide_device_free, i32 (i8*, %struct.halide_buffer_t*)* @halide_device_sync, void (i8*, %struct.halide_device_interface_t*)* @halide_device_release, i32 (i8*, %struct.halide_buffer_t*)* @halide_copy_to_host, i32 (i8*, %struct.halide_buffer_t*, %struct.halide_device_interface_t*)* @halide_copy_to_device, i32 (i8*, %struct.halide_buffer_t*, %struct.halide_device_interface_t*)* @halide_device_and_host_malloc, i32 (i8*, %struct.halide_buffer_t*)* @halide_device_and_host_free, i32 (i8*, %struct.halide_buffer_t*, %struct.halide_device_interface_t*, %struct.halide_buffer_t*)* @halide_buffer_copy, i32 (i8*, %struct.halide_buffer_t*, %struct.halide_buffer_t*)* @halide_device_crop, i32 (i8*, %struct.halide_buffer_t*, i32, i32, %struct.halide_buffer_t*)* @halide_device_slice, i32 (i8*, %struct.halide_buffer_t*)* @halide_device_release_crop, i32 (i8*, %struct.halide_buffer_t*, i64, %struct.halide_device_interface_t*)* @halide_device_wrap_native, i32 (i8*, %struct.halide_buffer_t*)* @halide_device_detach_native, i32 (i8*, i32*, i32*)* null, %struct.halide_device_interface_impl_t* @_ZN6Halide7Runtime8Internal10HexagonDma33hexagon_dma_device_interface_implE }, align 8, !dbg !31
@.str.22 = private unnamed_addr constant [187 x i8] c"/media/maaz/Data/Repos/rake/Halide-master-d48fbde/src/runtime/hexagon_dma.cpp:498 Assert failed: dst_device_interface == nullptr || dst_device_interface == &hexagon_dma_device_interface\0A\00", align 1
@.str.23 = private unnamed_addr constant [152 x i8] c"/media/maaz/Data/Repos/rake/Halide-master-d48fbde/src/runtime/hexagon_dma.cpp:502 Assert failed: dst_device_interface == &hexagon_dma_device_interface\0A\00", align 1
@.str.24 = private unnamed_addr constant [65 x i8] c"Hexagon: src->device_interface != &hexagon_dma_device_interface\0A\00", align 1
@.str.25 = private unnamed_addr constant [59 x i8] c"Hexagon: halide_hexagon_dma_buffer_copy (not DMA) failed: \00", align 1
@.str.26 = private unnamed_addr constant [123 x i8] c"/media/maaz/Data/Repos/rake/Halide-master-d48fbde/src/runtime/hexagon_dma.cpp:518 Assert failed: from_host || src->device\0A\00", align 1
@.str.27 = private unnamed_addr constant [121 x i8] c"/media/maaz/Data/Repos/rake/Halide-master-d48fbde/src/runtime/hexagon_dma.cpp:519 Assert failed: to_host || dst->device\0A\00", align 1
@.str.28 = private unnamed_addr constant [149 x i8] c"/media/maaz/Data/Repos/rake/Halide-master-d48fbde/src/runtime/hexagon_dma.cpp:521 Assert failed: (!from_host && to_host) || (from_host && !to_host)\0A\00", align 1
@.str.29 = private unnamed_addr constant [56 x i8] c"Hexagon: halide_hexagon_dma_buffer_copy (user_context: \00", align 1
@.str.30 = private unnamed_addr constant [8 x i8] c", src: \00", align 1
@.str.31 = private unnamed_addr constant [8 x i8] c", dst: \00", align 1
@.str.32 = private unnamed_addr constant [13 x i8] c", DMA Read: \00", align 1
@.str.33 = private unnamed_addr constant [14 x i8] c", DMA Write: \00", align 1
@.str.34 = private unnamed_addr constant [59 x i8] c"Hexagon: halide_hexagon_dma_copy_to_device (user_context: \00", align 1
@.str.35 = private unnamed_addr constant [60 x i8] c"Hexagon: halide_hexagon_dma_copy_to_device not implemented\0A\00", align 1
@.str.36 = private unnamed_addr constant [57 x i8] c"Hexagon: halide_hexagon_dma_copy_to_host (user_context: \00", align 1
@.str.37 = private unnamed_addr constant [58 x i8] c"Hexagon: halide_hexagon_dma_copy_to_host not implemented\0A\00", align 1
@.str.38 = private unnamed_addr constant [56 x i8] c"Hexagon: halide_hexagon_dma_device_crop (user_context: \00", align 1
@.str.39 = private unnamed_addr constant [7 x i8] c" src: \00", align 1
@.str.40 = private unnamed_addr constant [7 x i8] c" dst: \00", align 1
@.str.42 = private unnamed_addr constant [57 x i8] c"Hexagon: halide_hexagon_dma_device_slice (user_context: \00", align 1
@.str.43 = private unnamed_addr constant [100 x i8] c"/media/maaz/Data/Repos/rake/Halide-master-d48fbde/src/runtime/hexagon_dma.cpp:591 Assert failed: 0\0A\00", align 1
@.str.44 = private unnamed_addr constant [58 x i8] c"Hexagon: halide_hexagon_dma_device_slice not implemented\0A\00", align 1
@.str.45 = private unnamed_addr constant [64 x i8] c"Hexagon: halide_hexagon_dma_device_release_crop (user_context: \00", align 1
@.str.46 = private unnamed_addr constant [7 x i8] c" buf: \00", align 1
@.str.47 = private unnamed_addr constant [110 x i8] c"/media/maaz/Data/Repos/rake/Halide-master-d48fbde/src/runtime/hexagon_dma.cpp:602 Assert failed: buf->device\0A\00", align 1
@.str.48 = private unnamed_addr constant [56 x i8] c"Hexagon: halide_hexagon_dma_device_sync (user_context: \00", align 1
@.str.49 = private unnamed_addr constant [63 x i8] c"Hexagon: halide_hexagon_dma_device_wrap_native (user_context: \00", align 1
@.str.50 = private unnamed_addr constant [10 x i8] c" handle: \00", align 1
@.str.51 = private unnamed_addr constant [115 x i8] c"/media/maaz/Data/Repos/rake/Halide-master-d48fbde/src/runtime/hexagon_dma.cpp:623 Assert failed: buf->device == 0\0A\00", align 1
@.str.52 = private unnamed_addr constant [76 x i8] c"Hexagon: halide_hexagon_dma_device_wrap_native buffer already has a device\0A\00", align 1
@.str.54 = private unnamed_addr constant [65 x i8] c"Hexagon: halide_hexagon_dma_device_detach_native (user_context: \00", align 1
@.str.55 = private unnamed_addr constant [74 x i8] c"Hexagon: halide_hexagon_dma_device_detach_native buffer without a device\0A\00", align 1
@.str.56 = private unnamed_addr constant [153 x i8] c"/media/maaz/Data/Repos/rake/Halide-master-d48fbde/src/runtime/hexagon_dma.cpp:653 Assert failed: buf->device_interface == &hexagon_dma_device_interface\0A\00", align 1
@.str.57 = private unnamed_addr constant [67 x i8] c"Hexagon: halide_hexagon_dma_device_and_host_malloc (user_context: \00", align 1
@.str.58 = private unnamed_addr constant [65 x i8] c"Hexagon: halide_hexagon_dma_device_and_host_free (user_context: \00", align 1
@.str.59 = private unnamed_addr constant [59 x i8] c"Hexagon: halide_hexagon_dma_device_release (user_context: \00", align 1
@.str.60 = private unnamed_addr constant [57 x i8] c"Hexagon: halide_hexagon_dma_power_voting (user_context: \00", align 1
@.str.61 = private unnamed_addr constant [54 x i8] c"Hexagon: halide_hexagon_dma_power_voting power mode (\00", align 1
@.str.62 = private unnamed_addr constant [13 x i8] c") not found\0A\00", align 1
@_ZN6Halide7Runtime8Internal10HexagonDma33hexagon_dma_device_interface_implE = weak dso_local global %struct.halide_device_interface_impl_t { void ()* @halide_use_jit_module, void ()* @halide_release_jit_module, i32 (i8*, %struct.halide_buffer_t*)* @halide_hexagon_dma_device_malloc, i32 (i8*, %struct.halide_buffer_t*)* @halide_hexagon_dma_device_free, i32 (i8*, %struct.halide_buffer_t*)* @halide_hexagon_dma_device_sync, i32 (i8*)* @halide_hexagon_dma_device_release, i32 (i8*, %struct.halide_buffer_t*)* @halide_hexagon_dma_copy_to_host, i32 (i8*, %struct.halide_buffer_t*)* @halide_hexagon_dma_copy_to_device, i32 (i8*, %struct.halide_buffer_t*)* @halide_hexagon_dma_device_and_host_malloc, i32 (i8*, %struct.halide_buffer_t*)* @halide_hexagon_dma_device_and_host_free, i32 (i8*, %struct.halide_buffer_t*, %struct.halide_device_interface_t*, %struct.halide_buffer_t*)* @halide_hexagon_dma_buffer_copy, i32 (i8*, %struct.halide_buffer_t*, %struct.halide_buffer_t*)* @halide_hexagon_dma_device_crop, i32 (i8*, %struct.halide_buffer_t*, i32, i32, %struct.halide_buffer_t*)* @halide_hexagon_dma_device_slice, i32 (i8*, %struct.halide_buffer_t*)* @halide_hexagon_dma_device_release_crop, i32 (i8*, %struct.halide_buffer_t*, i64)* @halide_hexagon_dma_device_wrap_native, i32 (i8*, %struct.halide_buffer_t*)* @halide_hexagon_dma_device_detach_native }, align 8, !dbg !229
@.str.63 = private unnamed_addr constant [30 x i8] c"Hexagon: DMA Format Mismatch \00", align 1
@.str.64 = private unnamed_addr constant [109 x i8] c"/media/maaz/Data/Repos/rake/Halide-master-d48fbde/src/runtime/hexagon_dma.cpp:448 Assert failed: dma_engine\0A\00", align 1
@.str.65 = private unnamed_addr constant [29 x i8] c"Hexagon dev handle: buffer: \00", align 1
@.str.66 = private unnamed_addr constant [20 x i8] c" dev_offset(rdx: : \00", align 1
@.str.67 = private unnamed_addr constant [7 x i8] c" rdy: \00", align 1
@.str.68 = private unnamed_addr constant [2 x i8] c")\00", align 1
@.str.69 = private unnamed_addr constant [20 x i8] c" dev_offset(wrx: : \00", align 1
@.str.70 = private unnamed_addr constant [7 x i8] c" wry: \00", align 1
@.str.71 = private unnamed_addr constant [11 x i8] c" frame(w: \00", align 1
@.str.72 = private unnamed_addr constant [5 x i8] c" h: \00", align 1
@.str.73 = private unnamed_addr constant [5 x i8] c" s: \00", align 1
@.str.74 = private unnamed_addr constant [22 x i8] c"size_in_bytes() src: \00", align 1
@.str.75 = private unnamed_addr constant [119 x i8] c"/media/maaz/Data/Repos/rake/Halide-master-d48fbde/src/runtime/hexagon_dma.cpp:222 Assert failed: src->dimensions <= 3\0A\00", align 1
@.str.76 = private unnamed_addr constant [119 x i8] c"/media/maaz/Data/Repos/rake/Halide-master-d48fbde/src/runtime/hexagon_dma.cpp:229 Assert failed: src->dimensions == 2\0A\00", align 1
@.str.77 = private unnamed_addr constant [119 x i8] c"/media/maaz/Data/Repos/rake/Halide-master-d48fbde/src/runtime/hexagon_dma.cpp:236 Assert failed: src->dimensions == 3\0A\00", align 1
@.str.78 = private unnamed_addr constant [122 x i8] c"/media/maaz/Data/Repos/rake/Halide-master-d48fbde/src/runtime/hexagon_dma.cpp:237 Assert failed: src->dim[0].stride == 2\0A\00", align 1
@.str.79 = private unnamed_addr constant [122 x i8] c"/media/maaz/Data/Repos/rake/Halide-master-d48fbde/src/runtime/hexagon_dma.cpp:238 Assert failed: src->dim[2].stride == 1\0A\00", align 1
@.str.80 = private unnamed_addr constant [119 x i8] c"/media/maaz/Data/Repos/rake/Halide-master-d48fbde/src/runtime/hexagon_dma.cpp:239 Assert failed: src->dim[2].min == 0\0A\00", align 1
@.str.81 = private unnamed_addr constant [122 x i8] c"/media/maaz/Data/Repos/rake/Halide-master-d48fbde/src/runtime/hexagon_dma.cpp:240 Assert failed: src->dim[2].extent == 2\0A\00", align 1
@.str.82 = private unnamed_addr constant [29 x i8] c"Hexagon: Recommended ROI(w: \00", align 1
@.str.83 = private unnamed_addr constant [139 x i8] c"/media/maaz/Data/Repos/rake/Halide-master-d48fbde/src/runtime/hexagon_dma.cpp:261 Assert failed: ((dst->dim[1].stride % roi_stride) == 0)\0A\00", align 1
@.str.84 = private unnamed_addr constant [42 x i8] c"Hexagon: DMA descriptor allocation error\0A\00", align 1
@.str.85 = private unnamed_addr constant [28 x i8] c"Hexagon: cache buffer size \00", align 1
@.str.86 = private unnamed_addr constant [20 x i8] c"Hexagon: u16Roi(X: \00", align 1
@.str.87 = private unnamed_addr constant [5 x i8] c" Y: \00", align 1
@.str.88 = private unnamed_addr constant [5 x i8] c" W: \00", align 1
@.str.89 = private unnamed_addr constant [5 x i8] c" H: \00", align 1
@.str.90 = private unnamed_addr constant [19 x i8] c" dst->dim[1].min: \00", align 1
@.str.91 = private unnamed_addr constant [40 x i8] c"Hexagon: Dma Engine Allocation Faliure\0A\00", align 1
@.str.92 = private unnamed_addr constant [10 x i8] c"Hexagon: \00", align 1
@.str.93 = private unnamed_addr constant [12 x i8] c" transfer: \00", align 1
@.str.94 = private unnamed_addr constant [30 x i8] c"Hexagon: DMA Transfer Error: \00", align 1
@.str.95 = private unnamed_addr constant [7 x i8] c" move\0A\00", align 1
@.str.96 = private unnamed_addr constant [34 x i8] c"Hexagon: nDmaWrapper_Move error: \00", align 1
@.str.97 = private unnamed_addr constant [7 x i8] c" wait\0A\00", align 1
@.str.98 = private unnamed_addr constant [34 x i8] c"Hexagon: nDmaWrapper_Wait error: \00", align 1
@.str.99 = private unnamed_addr constant [41 x i8] c"halide_hexagon_free_from_dma_pool error:\00", align 1
@.str.100 = private unnamed_addr constant [64 x i8] c"Hexagon: Out of memory (malloc failed for DMA descriptor pool)\0A\00", align 1
@.str.101 = private unnamed_addr constant [63 x i8] c"Hexagon: Out of memory (HAP_cache_lock failed for descriptor)\0A\00", align 1
@.str.102 = private unnamed_addr constant [24 x i8] c"Hexagon: malloc failed\0A\00", align 1
@.str.104 = private unnamed_addr constant [25 x i8] c"Hexagon: desc not found \00", align 1
@.str.105 = private unnamed_addr constant [35 x i8] c"Printer buffer allocation failed.\0A\00", align 1

; Function Attrs: nounwind mustprogress
define weak dso_local void @_ZN6Halide7Runtime8Internal18copy_memory_helperERKNS1_11device_copyEixx(%"struct.Halide::Runtime::Internal::device_copy"* nonnull align 8 dereferenceable(416) %0, i32 %1, i64 %2, i64 %3) local_unnamed_addr #0 !dbg !517 {
  call void @llvm.dbg.value(metadata %"struct.Halide::Runtime::Internal::device_copy"* %0, metadata !536, metadata !DIExpression()), !dbg !547
  call void @llvm.dbg.value(metadata i32 %1, metadata !537, metadata !DIExpression()), !dbg !547
  call void @llvm.dbg.value(metadata i64 %2, metadata !538, metadata !DIExpression()), !dbg !547
  call void @llvm.dbg.value(metadata i64 %3, metadata !539, metadata !DIExpression()), !dbg !547
  %5 = icmp sgt i32 %1, -1, !dbg !548
  br i1 %5, label %6, label %15, !dbg !549

6:                                                ; preds = %4, %12
  %7 = phi i32 [ %13, %12 ], [ %1, %4 ]
  call void @llvm.dbg.value(metadata i32 %7, metadata !537, metadata !DIExpression()), !dbg !547
  %8 = zext i32 %7 to i64, !dbg !550
  %9 = getelementptr inbounds %"struct.Halide::Runtime::Internal::device_copy", %"struct.Halide::Runtime::Internal::device_copy"* %0, i64 0, i32 3, i64 %8, !dbg !550
  %10 = load i64, i64* %9, align 8, !dbg !550, !tbaa !551
  %11 = icmp eq i64 %10, 1, !dbg !555
  br i1 %11, label %12, label %15, !dbg !556

12:                                               ; preds = %6
  %13 = add nsw i32 %7, -1, !dbg !557
  call void @llvm.dbg.value(metadata i32 %13, metadata !537, metadata !DIExpression()), !dbg !547
  %14 = icmp sgt i32 %7, 0, !dbg !548
  br i1 %14, label %6, label %27, !dbg !549, !llvm.loop !559

15:                                               ; preds = %6, %4
  %16 = phi i32 [ %1, %4 ], [ %7, %6 ]
  %17 = icmp eq i32 %16, -1, !dbg !562
  br i1 %17, label %27, label %18, !dbg !563

18:                                               ; preds = %15
  call void @llvm.dbg.value(metadata i64 0, metadata !544, metadata !DIExpression()), !dbg !564
  call void @llvm.dbg.value(metadata i64 %2, metadata !538, metadata !DIExpression()), !dbg !547
  call void @llvm.dbg.value(metadata i64 %3, metadata !539, metadata !DIExpression()), !dbg !547
  %19 = sext i32 %16 to i64, !dbg !565
  %20 = getelementptr inbounds %"struct.Halide::Runtime::Internal::device_copy", %"struct.Halide::Runtime::Internal::device_copy"* %0, i64 0, i32 3, i64 %19, !dbg !565
  %21 = load i64, i64* %20, align 8, !dbg !565, !tbaa !551
  %22 = icmp eq i64 %21, 0, !dbg !567
  br i1 %22, label %50, label %23, !dbg !568

23:                                               ; preds = %18
  %24 = add nsw i32 %16, -1
  %25 = getelementptr inbounds %"struct.Halide::Runtime::Internal::device_copy", %"struct.Halide::Runtime::Internal::device_copy"* %0, i64 0, i32 4, i64 %19
  %26 = getelementptr inbounds %"struct.Halide::Runtime::Internal::device_copy", %"struct.Halide::Runtime::Internal::device_copy"* %0, i64 0, i32 5, i64 %19
  br label %39, !dbg !568

27:                                               ; preds = %12, %15
  %28 = getelementptr inbounds %"struct.Halide::Runtime::Internal::device_copy", %"struct.Halide::Runtime::Internal::device_copy"* %0, i64 0, i32 0, !dbg !569
  %29 = load i64, i64* %28, align 8, !dbg !569, !tbaa !570
  %30 = add i64 %29, %2, !dbg !572
  %31 = inttoptr i64 %30 to i8*, !dbg !573
  call void @llvm.dbg.value(metadata i8* %31, metadata !540, metadata !DIExpression()), !dbg !574
  %32 = getelementptr inbounds %"struct.Halide::Runtime::Internal::device_copy", %"struct.Halide::Runtime::Internal::device_copy"* %0, i64 0, i32 1, !dbg !575
  %33 = load i64, i64* %32, align 8, !dbg !575, !tbaa !576
  %34 = add i64 %33, %3, !dbg !577
  %35 = inttoptr i64 %34 to i8*, !dbg !578
  call void @llvm.dbg.value(metadata i8* %35, metadata !543, metadata !DIExpression()), !dbg !574
  %36 = getelementptr inbounds %"struct.Halide::Runtime::Internal::device_copy", %"struct.Halide::Runtime::Internal::device_copy"* %0, i64 0, i32 6, !dbg !579
  %37 = load i64, i64* %36, align 8, !dbg !579, !tbaa !580
  %38 = tail call i8* @memcpy(i8* %35, i8* %31, i64 %37) #8, !dbg !581
  br label %50, !dbg !582

39:                                               ; preds = %23, %39
  %40 = phi i64 [ 0, %23 ], [ %47, %39 ]
  %41 = phi i64 [ %2, %23 ], [ %44, %39 ]
  %42 = phi i64 [ %3, %23 ], [ %46, %39 ]
  call void @llvm.dbg.value(metadata i64 %40, metadata !544, metadata !DIExpression()), !dbg !564
  call void @llvm.dbg.value(metadata i64 %41, metadata !538, metadata !DIExpression()), !dbg !547
  call void @llvm.dbg.value(metadata i64 %42, metadata !539, metadata !DIExpression()), !dbg !547
  tail call void @_ZN6Halide7Runtime8Internal18copy_memory_helperERKNS1_11device_copyEixx(%"struct.Halide::Runtime::Internal::device_copy"* nonnull align 8 dereferenceable(416) %0, i32 %24, i64 %41, i64 %42) #9, !dbg !583
  %43 = load i64, i64* %25, align 8, !dbg !585, !tbaa !551
  %44 = add i64 %43, %41, !dbg !586
  call void @llvm.dbg.value(metadata i64 %44, metadata !538, metadata !DIExpression()), !dbg !547
  %45 = load i64, i64* %26, align 8, !dbg !587, !tbaa !551
  %46 = add i64 %45, %42, !dbg !588
  call void @llvm.dbg.value(metadata i64 %46, metadata !539, metadata !DIExpression()), !dbg !547
  %47 = add nuw i64 %40, 1, !dbg !589
  call void @llvm.dbg.value(metadata i64 %47, metadata !544, metadata !DIExpression()), !dbg !564
  %48 = load i64, i64* %20, align 8, !dbg !565, !tbaa !551
  %49 = icmp ult i64 %47, %48, !dbg !567
  br i1 %49, label %39, label %50, !dbg !568, !llvm.loop !590

50:                                               ; preds = %39, %18, %27
  ret void, !dbg !592
}

; Function Attrs: nofree nosync nounwind readnone speculatable willreturn
declare void @llvm.dbg.declare(metadata, metadata, metadata) #1

; Function Attrs: argmemonly nofree nosync nounwind willreturn
declare void @llvm.lifetime.start.p0i8(i64 immarg, i8* nocapture) #2

declare !dbg !593 dso_local i8* @memcpy(i8*, i8*, i64) local_unnamed_addr #3

; Function Attrs: argmemonly nofree nosync nounwind willreturn
declare void @llvm.lifetime.end.p0i8(i64 immarg, i8* nocapture) #2

; Function Attrs: nounwind
define weak dso_local void @_ZN6Halide7Runtime8Internal11copy_memoryERKNS1_11device_copyEPv(%"struct.Halide::Runtime::Internal::device_copy"* nonnull align 8 dereferenceable(416) %0, i8* %1) local_unnamed_addr #4 !dbg !597 {
  call void @llvm.dbg.value(metadata %"struct.Halide::Runtime::Internal::device_copy"* %0, metadata !601, metadata !DIExpression()), !dbg !603
  call void @llvm.dbg.value(metadata i8* %1, metadata !602, metadata !DIExpression()), !dbg !603
  %3 = getelementptr inbounds %"struct.Halide::Runtime::Internal::device_copy", %"struct.Halide::Runtime::Internal::device_copy"* %0, i64 0, i32 0, !dbg !604
  %4 = load i64, i64* %3, align 8, !dbg !604, !tbaa !570
  %5 = getelementptr inbounds %"struct.Halide::Runtime::Internal::device_copy", %"struct.Halide::Runtime::Internal::device_copy"* %0, i64 0, i32 1, !dbg !606
  %6 = load i64, i64* %5, align 8, !dbg !606, !tbaa !576
  %7 = icmp eq i64 %4, %6, !dbg !607
  br i1 %7, label %11, label %8, !dbg !608

8:                                                ; preds = %2
  %9 = getelementptr inbounds %"struct.Halide::Runtime::Internal::device_copy", %"struct.Halide::Runtime::Internal::device_copy"* %0, i64 0, i32 2, !dbg !609
  %10 = load i64, i64* %9, align 8, !dbg !609, !tbaa !611
  tail call void @_ZN6Halide7Runtime8Internal18copy_memory_helperERKNS1_11device_copyEixx(%"struct.Halide::Runtime::Internal::device_copy"* nonnull align 8 dereferenceable(416) %0, i32 15, i64 %10, i64 0) #9, !dbg !612
  br label %25, !dbg !613

11:                                               ; preds = %2
  call void @llvm.dbg.value(metadata %"class.Halide::Runtime::Internal::(anonymous namespace)::Printer"* undef, metadata !614, metadata !DIExpression()) #10, !dbg !620
  call void @llvm.dbg.value(metadata i8* %1, metadata !617, metadata !DIExpression()) #10, !dbg !620
  call void @llvm.dbg.value(metadata i8* null, metadata !618, metadata !DIExpression()) #10, !dbg !620
  %12 = tail call i8* @malloc(i64 1024) #8, !dbg !623
  %13 = icmp eq i8* %12, null, !dbg !628
  br i1 %13, label %14, label %16, !dbg !630

14:                                               ; preds = %11
  call void @llvm.dbg.value(metadata %"class.Halide::Runtime::Internal::(anonymous namespace)::Printer"* undef, metadata !631, metadata !DIExpression()) #10, !dbg !635
  call void @llvm.dbg.value(metadata i8* getelementptr inbounds ([55 x i8], [55 x i8]* @.str, i64 0, i64 0), metadata !634, metadata !DIExpression()) #10, !dbg !635
  %15 = tail call i8* @halide_string_to_string(i8* %12, i8* null, i8* nonnull getelementptr inbounds ([55 x i8], [55 x i8]* @.str, i64 0, i64 0)) #8, !dbg !637
  call void @llvm.dbg.value(metadata %"class.Halide::Runtime::Internal::(anonymous namespace)::Printer"* undef, metadata !640, metadata !DIExpression()) #10, !dbg !643
  tail call void @halide_error(i8* %1, i8* getelementptr inbounds ([35 x i8], [35 x i8]* @.str.105, i64 0, i64 0)) #8, !dbg !645
  br label %24, !dbg !649

16:                                               ; preds = %11
  %17 = getelementptr inbounds i8, i8* %12, i64 1023, !dbg !650
  store i8 0, i8* %17, align 1, !dbg !652, !tbaa !653
  call void @llvm.dbg.value(metadata %"class.Halide::Runtime::Internal::(anonymous namespace)::Printer"* undef, metadata !631, metadata !DIExpression()) #10, !dbg !635
  call void @llvm.dbg.value(metadata i8* getelementptr inbounds ([55 x i8], [55 x i8]* @.str, i64 0, i64 0), metadata !634, metadata !DIExpression()) #10, !dbg !635
  %18 = tail call i8* @halide_string_to_string(i8* nonnull %12, i8* nonnull %17, i8* nonnull getelementptr inbounds ([55 x i8], [55 x i8]* @.str, i64 0, i64 0)) #8, !dbg !637
  call void @llvm.dbg.value(metadata %"class.Halide::Runtime::Internal::(anonymous namespace)::Printer"* undef, metadata !640, metadata !DIExpression()) #10, !dbg !643
  call void @llvm.dbg.value(metadata %"class.Halide::Runtime::Internal::(anonymous namespace)::Printer"* undef, metadata !654, metadata !DIExpression()) #10, !dbg !657
  %19 = ptrtoint i8* %18 to i64, !dbg !660
  %20 = ptrtoint i8* %12 to i64, !dbg !660
  %21 = add i64 %19, 1, !dbg !660
  %22 = sub i64 %21, %20, !dbg !661
  %23 = tail call i32 @halide_msan_annotate_memory_is_initialized(i8* %1, i8* nonnull %12, i64 %22) #8, !dbg !662
  tail call void @halide_print(i8* %1, i8* nonnull %12) #8, !dbg !663
  br label %24

24:                                               ; preds = %16, %14
  tail call void @free(i8* %12) #8, !dbg !667
  br label %25

25:                                               ; preds = %24, %8
  ret void, !dbg !670
}

; Function Attrs: nounwind mustprogress
define weak dso_local void @_ZN6Halide7Runtime8Internal16make_buffer_copyEPK15halide_buffer_tbS4_b(%"struct.Halide::Runtime::Internal::device_copy"* noalias sret(%"struct.Halide::Runtime::Internal::device_copy") align 8 %0, %struct.halide_buffer_t* %1, i1 zeroext %2, %struct.halide_buffer_t* %3, i1 zeroext %4) local_unnamed_addr #0 !dbg !671 {
  %6 = alloca %"struct.Halide::Runtime::Internal::device_copy", align 8
  call void @llvm.dbg.value(metadata %struct.halide_buffer_t* %1, metadata !676, metadata !DIExpression()), !dbg !703
  call void @llvm.dbg.value(metadata i1 %2, metadata !677, metadata !DIExpression(DW_OP_LLVM_convert, 1, DW_ATE_unsigned, DW_OP_LLVM_convert, 8, DW_ATE_unsigned, DW_OP_stack_value)), !dbg !703
  call void @llvm.dbg.value(metadata %struct.halide_buffer_t* %3, metadata !678, metadata !DIExpression()), !dbg !703
  call void @llvm.dbg.value(metadata i1 %4, metadata !679, metadata !DIExpression(DW_OP_LLVM_convert, 1, DW_ATE_unsigned, DW_OP_LLVM_convert, 8, DW_ATE_unsigned, DW_OP_stack_value)), !dbg !703
  %7 = bitcast %"struct.Halide::Runtime::Internal::device_copy"* %6 to i8*, !dbg !704
  call void @llvm.lifetime.start.p0i8(i64 416, i8* nonnull %7) #10, !dbg !704
  call void @llvm.dbg.declare(metadata %"struct.Halide::Runtime::Internal::device_copy"* %6, metadata !680, metadata !DIExpression()), !dbg !705
  br i1 %2, label %8, label %12, !dbg !706

8:                                                ; preds = %5
  %9 = getelementptr inbounds %struct.halide_buffer_t, %struct.halide_buffer_t* %1, i64 0, i32 2, !dbg !707
  %10 = load i8*, i8** %9, align 8, !dbg !707, !tbaa !708
  %11 = ptrtoint i8* %10 to i64, !dbg !715
  br label %15, !dbg !706

12:                                               ; preds = %5
  %13 = getelementptr inbounds %struct.halide_buffer_t, %struct.halide_buffer_t* %1, i64 0, i32 0, !dbg !716
  %14 = load i64, i64* %13, align 8, !dbg !716, !tbaa !717
  br label %15, !dbg !706

15:                                               ; preds = %12, %8
  %16 = phi i64 [ %11, %8 ], [ %14, %12 ], !dbg !706
  %17 = getelementptr inbounds %"struct.Halide::Runtime::Internal::device_copy", %"struct.Halide::Runtime::Internal::device_copy"* %6, i64 0, i32 0, !dbg !718
  store i64 %16, i64* %17, align 8, !dbg !719, !tbaa !570
  br i1 %4, label %18, label %22, !dbg !720

18:                                               ; preds = %15
  %19 = getelementptr inbounds %struct.halide_buffer_t, %struct.halide_buffer_t* %3, i64 0, i32 2, !dbg !721
  %20 = load i8*, i8** %19, align 8, !dbg !721, !tbaa !708
  %21 = ptrtoint i8* %20 to i64, !dbg !722
  br label %25, !dbg !720

22:                                               ; preds = %15
  %23 = getelementptr inbounds %struct.halide_buffer_t, %struct.halide_buffer_t* %3, i64 0, i32 0, !dbg !723
  %24 = load i64, i64* %23, align 8, !dbg !723, !tbaa !717
  br label %25, !dbg !720

25:                                               ; preds = %22, %18
  %26 = phi i64 [ %21, %18 ], [ %24, %22 ], !dbg !720
  %27 = getelementptr inbounds %"struct.Halide::Runtime::Internal::device_copy", %"struct.Halide::Runtime::Internal::device_copy"* %6, i64 0, i32 1, !dbg !724
  store i64 %26, i64* %27, align 8, !dbg !725, !tbaa !576
  call void @llvm.dbg.value(metadata %struct.halide_buffer_t* %1, metadata !726, metadata !DIExpression(DW_OP_plus_uconst, 32, DW_OP_stack_value)), !dbg !730
  %28 = getelementptr inbounds %struct.halide_buffer_t, %struct.halide_buffer_t* %1, i64 0, i32 4, i32 1, !dbg !732
  %29 = load i8, i8* %28, align 1, !dbg !732, !tbaa !733
  %30 = zext i8 %29 to i32, !dbg !732
  %31 = add nuw nsw i32 %30, 7, !dbg !734
  %32 = lshr i32 %31, 3, !dbg !735
  %33 = zext i32 %32 to i64, !dbg !736
  %34 = getelementptr inbounds %"struct.Halide::Runtime::Internal::device_copy", %"struct.Halide::Runtime::Internal::device_copy"* %6, i64 0, i32 6, !dbg !737
  store i64 %33, i64* %34, align 8, !dbg !738, !tbaa !580
  call void @llvm.dbg.value(metadata i32 0, metadata !681, metadata !DIExpression()), !dbg !739
  call void @llvm.dbg.value(metadata i64 0, metadata !681, metadata !DIExpression()), !dbg !739
  %35 = getelementptr inbounds %"struct.Halide::Runtime::Internal::device_copy", %"struct.Halide::Runtime::Internal::device_copy"* %6, i64 0, i32 3, i64 0, !dbg !740
  store i64 1, i64* %35, align 8, !dbg !743, !tbaa !551
  %36 = getelementptr inbounds %"struct.Halide::Runtime::Internal::device_copy", %"struct.Halide::Runtime::Internal::device_copy"* %6, i64 0, i32 4, i64 0, !dbg !744
  store i64 0, i64* %36, align 8, !dbg !745, !tbaa !551
  %37 = getelementptr inbounds %"struct.Halide::Runtime::Internal::device_copy", %"struct.Halide::Runtime::Internal::device_copy"* %6, i64 0, i32 5, i64 0, !dbg !746
  store i64 0, i64* %37, align 8, !dbg !747, !tbaa !551
  call void @llvm.dbg.value(metadata i64 1, metadata !681, metadata !DIExpression()), !dbg !739
  call void @llvm.dbg.value(metadata i64 1, metadata !681, metadata !DIExpression()), !dbg !739
  %38 = getelementptr inbounds %"struct.Halide::Runtime::Internal::device_copy", %"struct.Halide::Runtime::Internal::device_copy"* %6, i64 0, i32 3, i64 1, !dbg !740
  store i64 1, i64* %38, align 8, !dbg !743, !tbaa !551
  %39 = getelementptr inbounds %"struct.Halide::Runtime::Internal::device_copy", %"struct.Halide::Runtime::Internal::device_copy"* %6, i64 0, i32 4, i64 1, !dbg !744
  store i64 0, i64* %39, align 8, !dbg !745, !tbaa !551
  %40 = getelementptr inbounds %"struct.Halide::Runtime::Internal::device_copy", %"struct.Halide::Runtime::Internal::device_copy"* %6, i64 0, i32 5, i64 1, !dbg !746
  store i64 0, i64* %40, align 8, !dbg !747, !tbaa !551
  call void @llvm.dbg.value(metadata i64 2, metadata !681, metadata !DIExpression()), !dbg !739
  call void @llvm.dbg.value(metadata i64 2, metadata !681, metadata !DIExpression()), !dbg !739
  %41 = getelementptr inbounds %"struct.Halide::Runtime::Internal::device_copy", %"struct.Halide::Runtime::Internal::device_copy"* %6, i64 0, i32 3, i64 2, !dbg !740
  store i64 1, i64* %41, align 8, !dbg !743, !tbaa !551
  %42 = getelementptr inbounds %"struct.Halide::Runtime::Internal::device_copy", %"struct.Halide::Runtime::Internal::device_copy"* %6, i64 0, i32 4, i64 2, !dbg !744
  store i64 0, i64* %42, align 8, !dbg !745, !tbaa !551
  %43 = getelementptr inbounds %"struct.Halide::Runtime::Internal::device_copy", %"struct.Halide::Runtime::Internal::device_copy"* %6, i64 0, i32 5, i64 2, !dbg !746
  store i64 0, i64* %43, align 8, !dbg !747, !tbaa !551
  call void @llvm.dbg.value(metadata i64 3, metadata !681, metadata !DIExpression()), !dbg !739
  call void @llvm.dbg.value(metadata i64 3, metadata !681, metadata !DIExpression()), !dbg !739
  %44 = getelementptr inbounds %"struct.Halide::Runtime::Internal::device_copy", %"struct.Halide::Runtime::Internal::device_copy"* %6, i64 0, i32 3, i64 3, !dbg !740
  store i64 1, i64* %44, align 8, !dbg !743, !tbaa !551
  %45 = getelementptr inbounds %"struct.Halide::Runtime::Internal::device_copy", %"struct.Halide::Runtime::Internal::device_copy"* %6, i64 0, i32 4, i64 3, !dbg !744
  store i64 0, i64* %45, align 8, !dbg !745, !tbaa !551
  %46 = getelementptr inbounds %"struct.Halide::Runtime::Internal::device_copy", %"struct.Halide::Runtime::Internal::device_copy"* %6, i64 0, i32 5, i64 3, !dbg !746
  store i64 0, i64* %46, align 8, !dbg !747, !tbaa !551
  call void @llvm.dbg.value(metadata i64 4, metadata !681, metadata !DIExpression()), !dbg !739
  call void @llvm.dbg.value(metadata i64 4, metadata !681, metadata !DIExpression()), !dbg !739
  %47 = getelementptr inbounds %"struct.Halide::Runtime::Internal::device_copy", %"struct.Halide::Runtime::Internal::device_copy"* %6, i64 0, i32 3, i64 4, !dbg !740
  store i64 1, i64* %47, align 8, !dbg !743, !tbaa !551
  %48 = getelementptr inbounds %"struct.Halide::Runtime::Internal::device_copy", %"struct.Halide::Runtime::Internal::device_copy"* %6, i64 0, i32 4, i64 4, !dbg !744
  store i64 0, i64* %48, align 8, !dbg !745, !tbaa !551
  %49 = getelementptr inbounds %"struct.Halide::Runtime::Internal::device_copy", %"struct.Halide::Runtime::Internal::device_copy"* %6, i64 0, i32 5, i64 4, !dbg !746
  store i64 0, i64* %49, align 8, !dbg !747, !tbaa !551
  call void @llvm.dbg.value(metadata i64 5, metadata !681, metadata !DIExpression()), !dbg !739
  call void @llvm.dbg.value(metadata i64 5, metadata !681, metadata !DIExpression()), !dbg !739
  %50 = getelementptr inbounds %"struct.Halide::Runtime::Internal::device_copy", %"struct.Halide::Runtime::Internal::device_copy"* %6, i64 0, i32 3, i64 5, !dbg !740
  store i64 1, i64* %50, align 8, !dbg !743, !tbaa !551
  %51 = getelementptr inbounds %"struct.Halide::Runtime::Internal::device_copy", %"struct.Halide::Runtime::Internal::device_copy"* %6, i64 0, i32 4, i64 5, !dbg !744
  store i64 0, i64* %51, align 8, !dbg !745, !tbaa !551
  %52 = getelementptr inbounds %"struct.Halide::Runtime::Internal::device_copy", %"struct.Halide::Runtime::Internal::device_copy"* %6, i64 0, i32 5, i64 5, !dbg !746
  store i64 0, i64* %52, align 8, !dbg !747, !tbaa !551
  call void @llvm.dbg.value(metadata i64 6, metadata !681, metadata !DIExpression()), !dbg !739
  call void @llvm.dbg.value(metadata i64 6, metadata !681, metadata !DIExpression()), !dbg !739
  %53 = getelementptr inbounds %"struct.Halide::Runtime::Internal::device_copy", %"struct.Halide::Runtime::Internal::device_copy"* %6, i64 0, i32 3, i64 6, !dbg !740
  store i64 1, i64* %53, align 8, !dbg !743, !tbaa !551
  %54 = getelementptr inbounds %"struct.Halide::Runtime::Internal::device_copy", %"struct.Halide::Runtime::Internal::device_copy"* %6, i64 0, i32 4, i64 6, !dbg !744
  store i64 0, i64* %54, align 8, !dbg !745, !tbaa !551
  %55 = getelementptr inbounds %"struct.Halide::Runtime::Internal::device_copy", %"struct.Halide::Runtime::Internal::device_copy"* %6, i64 0, i32 5, i64 6, !dbg !746
  store i64 0, i64* %55, align 8, !dbg !747, !tbaa !551
  call void @llvm.dbg.value(metadata i64 7, metadata !681, metadata !DIExpression()), !dbg !739
  call void @llvm.dbg.value(metadata i64 7, metadata !681, metadata !DIExpression()), !dbg !739
  %56 = getelementptr inbounds %"struct.Halide::Runtime::Internal::device_copy", %"struct.Halide::Runtime::Internal::device_copy"* %6, i64 0, i32 3, i64 7, !dbg !740
  store i64 1, i64* %56, align 8, !dbg !743, !tbaa !551
  %57 = getelementptr inbounds %"struct.Halide::Runtime::Internal::device_copy", %"struct.Halide::Runtime::Internal::device_copy"* %6, i64 0, i32 4, i64 7, !dbg !744
  store i64 0, i64* %57, align 8, !dbg !745, !tbaa !551
  %58 = getelementptr inbounds %"struct.Halide::Runtime::Internal::device_copy", %"struct.Halide::Runtime::Internal::device_copy"* %6, i64 0, i32 5, i64 7, !dbg !746
  store i64 0, i64* %58, align 8, !dbg !747, !tbaa !551
  call void @llvm.dbg.value(metadata i64 8, metadata !681, metadata !DIExpression()), !dbg !739
  call void @llvm.dbg.value(metadata i64 8, metadata !681, metadata !DIExpression()), !dbg !739
  %59 = getelementptr inbounds %"struct.Halide::Runtime::Internal::device_copy", %"struct.Halide::Runtime::Internal::device_copy"* %6, i64 0, i32 3, i64 8, !dbg !740
  store i64 1, i64* %59, align 8, !dbg !743, !tbaa !551
  %60 = getelementptr inbounds %"struct.Halide::Runtime::Internal::device_copy", %"struct.Halide::Runtime::Internal::device_copy"* %6, i64 0, i32 4, i64 8, !dbg !744
  store i64 0, i64* %60, align 8, !dbg !745, !tbaa !551
  %61 = getelementptr inbounds %"struct.Halide::Runtime::Internal::device_copy", %"struct.Halide::Runtime::Internal::device_copy"* %6, i64 0, i32 5, i64 8, !dbg !746
  store i64 0, i64* %61, align 8, !dbg !747, !tbaa !551
  call void @llvm.dbg.value(metadata i64 9, metadata !681, metadata !DIExpression()), !dbg !739
  call void @llvm.dbg.value(metadata i64 9, metadata !681, metadata !DIExpression()), !dbg !739
  %62 = getelementptr inbounds %"struct.Halide::Runtime::Internal::device_copy", %"struct.Halide::Runtime::Internal::device_copy"* %6, i64 0, i32 3, i64 9, !dbg !740
  store i64 1, i64* %62, align 8, !dbg !743, !tbaa !551
  %63 = getelementptr inbounds %"struct.Halide::Runtime::Internal::device_copy", %"struct.Halide::Runtime::Internal::device_copy"* %6, i64 0, i32 4, i64 9, !dbg !744
  store i64 0, i64* %63, align 8, !dbg !745, !tbaa !551
  %64 = getelementptr inbounds %"struct.Halide::Runtime::Internal::device_copy", %"struct.Halide::Runtime::Internal::device_copy"* %6, i64 0, i32 5, i64 9, !dbg !746
  store i64 0, i64* %64, align 8, !dbg !747, !tbaa !551
  call void @llvm.dbg.value(metadata i64 10, metadata !681, metadata !DIExpression()), !dbg !739
  call void @llvm.dbg.value(metadata i64 10, metadata !681, metadata !DIExpression()), !dbg !739
  %65 = getelementptr inbounds %"struct.Halide::Runtime::Internal::device_copy", %"struct.Halide::Runtime::Internal::device_copy"* %6, i64 0, i32 3, i64 10, !dbg !740
  store i64 1, i64* %65, align 8, !dbg !743, !tbaa !551
  %66 = getelementptr inbounds %"struct.Halide::Runtime::Internal::device_copy", %"struct.Halide::Runtime::Internal::device_copy"* %6, i64 0, i32 4, i64 10, !dbg !744
  store i64 0, i64* %66, align 8, !dbg !745, !tbaa !551
  %67 = getelementptr inbounds %"struct.Halide::Runtime::Internal::device_copy", %"struct.Halide::Runtime::Internal::device_copy"* %6, i64 0, i32 5, i64 10, !dbg !746
  store i64 0, i64* %67, align 8, !dbg !747, !tbaa !551
  call void @llvm.dbg.value(metadata i64 11, metadata !681, metadata !DIExpression()), !dbg !739
  call void @llvm.dbg.value(metadata i64 11, metadata !681, metadata !DIExpression()), !dbg !739
  %68 = getelementptr inbounds %"struct.Halide::Runtime::Internal::device_copy", %"struct.Halide::Runtime::Internal::device_copy"* %6, i64 0, i32 3, i64 11, !dbg !740
  store i64 1, i64* %68, align 8, !dbg !743, !tbaa !551
  %69 = getelementptr inbounds %"struct.Halide::Runtime::Internal::device_copy", %"struct.Halide::Runtime::Internal::device_copy"* %6, i64 0, i32 4, i64 11, !dbg !744
  store i64 0, i64* %69, align 8, !dbg !745, !tbaa !551
  %70 = getelementptr inbounds %"struct.Halide::Runtime::Internal::device_copy", %"struct.Halide::Runtime::Internal::device_copy"* %6, i64 0, i32 5, i64 11, !dbg !746
  store i64 0, i64* %70, align 8, !dbg !747, !tbaa !551
  call void @llvm.dbg.value(metadata i64 12, metadata !681, metadata !DIExpression()), !dbg !739
  call void @llvm.dbg.value(metadata i64 12, metadata !681, metadata !DIExpression()), !dbg !739
  %71 = getelementptr inbounds %"struct.Halide::Runtime::Internal::device_copy", %"struct.Halide::Runtime::Internal::device_copy"* %6, i64 0, i32 3, i64 12, !dbg !740
  store i64 1, i64* %71, align 8, !dbg !743, !tbaa !551
  %72 = getelementptr inbounds %"struct.Halide::Runtime::Internal::device_copy", %"struct.Halide::Runtime::Internal::device_copy"* %6, i64 0, i32 4, i64 12, !dbg !744
  store i64 0, i64* %72, align 8, !dbg !745, !tbaa !551
  %73 = getelementptr inbounds %"struct.Halide::Runtime::Internal::device_copy", %"struct.Halide::Runtime::Internal::device_copy"* %6, i64 0, i32 5, i64 12, !dbg !746
  store i64 0, i64* %73, align 8, !dbg !747, !tbaa !551
  call void @llvm.dbg.value(metadata i64 13, metadata !681, metadata !DIExpression()), !dbg !739
  call void @llvm.dbg.value(metadata i64 13, metadata !681, metadata !DIExpression()), !dbg !739
  %74 = getelementptr inbounds %"struct.Halide::Runtime::Internal::device_copy", %"struct.Halide::Runtime::Internal::device_copy"* %6, i64 0, i32 3, i64 13, !dbg !740
  store i64 1, i64* %74, align 8, !dbg !743, !tbaa !551
  %75 = getelementptr inbounds %"struct.Halide::Runtime::Internal::device_copy", %"struct.Halide::Runtime::Internal::device_copy"* %6, i64 0, i32 4, i64 13, !dbg !744
  store i64 0, i64* %75, align 8, !dbg !745, !tbaa !551
  %76 = getelementptr inbounds %"struct.Halide::Runtime::Internal::device_copy", %"struct.Halide::Runtime::Internal::device_copy"* %6, i64 0, i32 5, i64 13, !dbg !746
  store i64 0, i64* %76, align 8, !dbg !747, !tbaa !551
  call void @llvm.dbg.value(metadata i64 14, metadata !681, metadata !DIExpression()), !dbg !739
  call void @llvm.dbg.value(metadata i64 14, metadata !681, metadata !DIExpression()), !dbg !739
  %77 = getelementptr inbounds %"struct.Halide::Runtime::Internal::device_copy", %"struct.Halide::Runtime::Internal::device_copy"* %6, i64 0, i32 3, i64 14, !dbg !740
  store i64 1, i64* %77, align 8, !dbg !743, !tbaa !551
  %78 = getelementptr inbounds %"struct.Halide::Runtime::Internal::device_copy", %"struct.Halide::Runtime::Internal::device_copy"* %6, i64 0, i32 4, i64 14, !dbg !744
  store i64 0, i64* %78, align 8, !dbg !745, !tbaa !551
  %79 = getelementptr inbounds %"struct.Halide::Runtime::Internal::device_copy", %"struct.Halide::Runtime::Internal::device_copy"* %6, i64 0, i32 5, i64 14, !dbg !746
  store i64 0, i64* %79, align 8, !dbg !747, !tbaa !551
  call void @llvm.dbg.value(metadata i64 15, metadata !681, metadata !DIExpression()), !dbg !739
  call void @llvm.dbg.value(metadata i64 15, metadata !681, metadata !DIExpression()), !dbg !739
  %80 = getelementptr inbounds %"struct.Halide::Runtime::Internal::device_copy", %"struct.Halide::Runtime::Internal::device_copy"* %6, i64 0, i32 3, i64 15, !dbg !740
  store i64 1, i64* %80, align 8, !dbg !743, !tbaa !551
  %81 = getelementptr inbounds %"struct.Halide::Runtime::Internal::device_copy", %"struct.Halide::Runtime::Internal::device_copy"* %6, i64 0, i32 4, i64 15, !dbg !744
  store i64 0, i64* %81, align 8, !dbg !745, !tbaa !551
  %82 = getelementptr inbounds %"struct.Halide::Runtime::Internal::device_copy", %"struct.Halide::Runtime::Internal::device_copy"* %6, i64 0, i32 5, i64 15, !dbg !746
  store i64 0, i64* %82, align 8, !dbg !747, !tbaa !551
  call void @llvm.dbg.value(metadata i64 16, metadata !681, metadata !DIExpression()), !dbg !739
  %83 = getelementptr inbounds %"struct.Halide::Runtime::Internal::device_copy", %"struct.Halide::Runtime::Internal::device_copy"* %6, i64 0, i32 2, !dbg !748
  call void @llvm.dbg.value(metadata i32 0, metadata !683, metadata !DIExpression()), !dbg !749
  %84 = getelementptr inbounds %struct.halide_buffer_t, %struct.halide_buffer_t* %1, i64 0, i32 5, !dbg !750
  %85 = load i32, i32* %84, align 4, !dbg !750, !tbaa !752
  %86 = icmp sgt i32 %85, 0, !dbg !753
  br i1 %86, label %87, label %93, !dbg !754

87:                                               ; preds = %25
  %88 = getelementptr inbounds %struct.halide_buffer_t, %struct.halide_buffer_t* %1, i64 0, i32 6
  %89 = load %struct.halide_dimension_t*, %struct.halide_dimension_t** %88, align 8, !tbaa !755
  %90 = getelementptr inbounds %struct.halide_buffer_t, %struct.halide_buffer_t* %3, i64 0, i32 6
  %91 = load %struct.halide_dimension_t*, %struct.halide_dimension_t** %90, align 8, !tbaa !755
  %92 = zext i32 %85 to i64, !dbg !753
  br label %100, !dbg !754

93:                                               ; preds = %100, %25
  %94 = phi i64 [ 0, %25 ], [ %113, %100 ], !dbg !756
  %95 = load i64, i64* %34, align 8, !dbg !757, !tbaa !580
  %96 = mul i64 %94, %95, !dbg !756
  store i64 %96, i64* %83, align 8, !dbg !756, !tbaa !611
  %97 = getelementptr inbounds %struct.halide_buffer_t, %struct.halide_buffer_t* %3, i64 0, i32 5, !dbg !758
  %98 = load i32, i32* %97, align 4, !dbg !758, !tbaa !752
  %99 = icmp eq i32 %85, %98, !dbg !759
  br i1 %99, label %116, label %125, !dbg !760

100:                                              ; preds = %87, %100
  %101 = phi i64 [ 0, %87 ], [ %114, %100 ], !dbg !749
  %102 = phi i64 [ 0, %87 ], [ %113, %100 ], !dbg !749
  call void @llvm.dbg.value(metadata i64 %101, metadata !683, metadata !DIExpression()), !dbg !749
  %103 = getelementptr inbounds %struct.halide_dimension_t, %struct.halide_dimension_t* %89, i64 %101, i32 2, !dbg !761
  %104 = load i32, i32* %103, align 4, !dbg !761, !tbaa !763
  %105 = sext i32 %104 to i64, !dbg !765
  %106 = getelementptr inbounds %struct.halide_dimension_t, %struct.halide_dimension_t* %91, i64 %101, i32 0, !dbg !766
  %107 = load i32, i32* %106, align 4, !dbg !766, !tbaa !767
  %108 = getelementptr inbounds %struct.halide_dimension_t, %struct.halide_dimension_t* %89, i64 %101, i32 0, !dbg !768
  %109 = load i32, i32* %108, align 4, !dbg !768, !tbaa !767
  %110 = sub nsw i32 %107, %109, !dbg !769
  %111 = sext i32 %110 to i64, !dbg !770
  %112 = mul nsw i64 %111, %105, !dbg !771
  %113 = add i64 %112, %102, !dbg !772
  %114 = add nuw nsw i64 %101, 1, !dbg !773
  call void @llvm.dbg.value(metadata i64 %114, metadata !683, metadata !DIExpression()), !dbg !749
  %115 = icmp eq i64 %114, %92, !dbg !753
  br i1 %115, label %93, label %100, !dbg !754, !llvm.loop !774

116:                                              ; preds = %93
  call void @llvm.dbg.value(metadata %struct.halide_buffer_t* %1, metadata !726, metadata !DIExpression(DW_OP_plus_uconst, 32, DW_OP_stack_value)), !dbg !776
  call void @llvm.dbg.value(metadata %struct.halide_buffer_t* %3, metadata !726, metadata !DIExpression(DW_OP_plus_uconst, 32, DW_OP_stack_value)), !dbg !778
  %117 = getelementptr inbounds %struct.halide_buffer_t, %struct.halide_buffer_t* %3, i64 0, i32 4, i32 1, !dbg !780
  %118 = load i8, i8* %117, align 1, !dbg !780, !tbaa !733
  %119 = zext i8 %118 to i32, !dbg !780
  %120 = add nuw nsw i32 %119, 7, !dbg !781
  %121 = lshr i32 %120, 3, !dbg !782
  %122 = icmp ne i32 %32, %121, !dbg !783
  %123 = icmp sgt i32 %85, 16
  %124 = or i1 %123, %122, !dbg !784
  br i1 %124, label %125, label %127, !dbg !784

125:                                              ; preds = %116, %93
  call void @llvm.dbg.declare(metadata %"struct.Halide::Runtime::Internal::device_copy"* %0, metadata !685, metadata !DIExpression()), !dbg !785
  %126 = bitcast %"struct.Halide::Runtime::Internal::device_copy"* %0 to i8*, !dbg !785
  tail call void @llvm.memset.p0i8.i64(i8* nonnull align 8 dereferenceable(416) %126, i8 0, i64 416, i1 false), !dbg !785
  br label %253, !dbg !786

127:                                              ; preds = %116
  %128 = icmp eq i64 %95, 0, !dbg !787
  br i1 %128, label %136, label %129, !dbg !788

129:                                              ; preds = %127
  call void @llvm.dbg.value(metadata i32 0, metadata !691, metadata !DIExpression()), !dbg !789
  br i1 %86, label %130, label %251, !dbg !790

130:                                              ; preds = %129
  %131 = getelementptr inbounds %struct.halide_buffer_t, %struct.halide_buffer_t* %3, i64 0, i32 6
  %132 = load %struct.halide_dimension_t*, %struct.halide_dimension_t** %131, align 8, !tbaa !755
  %133 = getelementptr inbounds %struct.halide_buffer_t, %struct.halide_buffer_t* %1, i64 0, i32 6
  %134 = load %struct.halide_dimension_t*, %struct.halide_dimension_t** %133, align 8, !tbaa !755
  %135 = zext i32 %85 to i64, !dbg !791
  br label %144, !dbg !790

136:                                              ; preds = %127
  call void @llvm.dbg.declare(metadata %"struct.Halide::Runtime::Internal::device_copy"* %0, metadata !688, metadata !DIExpression()), !dbg !792
  %137 = bitcast %"struct.Halide::Runtime::Internal::device_copy"* %0 to i8*, !dbg !792
  tail call void @llvm.memset.p0i8.i64(i8* nonnull align 8 dereferenceable(416) %137, i8 0, i64 416, i1 false), !dbg !792
  br label %253, !dbg !793

138:                                              ; preds = %176
  %139 = load i64, i64* %34, align 8, !dbg !794, !tbaa !580
  %140 = load i64, i64* %36, align 8, !dbg !795, !tbaa !551
  %141 = icmp eq i64 %139, %140, !dbg !796
  br i1 %141, label %142, label %251, !dbg !797

142:                                              ; preds = %138
  %143 = load i64, i64* %37, align 8, !dbg !798, !tbaa !551
  br label %198, !dbg !797

144:                                              ; preds = %130, %176
  %145 = phi i64 [ 0, %130 ], [ %183, %176 ]
  call void @llvm.dbg.value(metadata i64 %145, metadata !691, metadata !DIExpression()), !dbg !789
  %146 = getelementptr inbounds %struct.halide_dimension_t, %struct.halide_dimension_t* %132, i64 %145, i32 2, !dbg !799
  %147 = load i32, i32* %146, align 4, !dbg !799, !tbaa !763
  %148 = sext i32 %147 to i64, !dbg !800
  call void @llvm.dbg.value(metadata %struct.halide_buffer_t* %3, metadata !726, metadata !DIExpression(DW_OP_plus_uconst, 32, DW_OP_stack_value)), !dbg !801
  %149 = mul nsw i64 %148, %33, !dbg !803
  call void @llvm.dbg.value(metadata i64 %149, metadata !693, metadata !DIExpression()), !dbg !804
  %150 = getelementptr inbounds %struct.halide_dimension_t, %struct.halide_dimension_t* %134, i64 %145, i32 2, !dbg !805
  %151 = load i32, i32* %150, align 4, !dbg !805, !tbaa !763
  %152 = sext i32 %151 to i64, !dbg !806
  call void @llvm.dbg.value(metadata %struct.halide_buffer_t* %1, metadata !726, metadata !DIExpression(DW_OP_plus_uconst, 32, DW_OP_stack_value)), !dbg !807
  %153 = mul nsw i64 %152, %33, !dbg !809
  call void @llvm.dbg.value(metadata i64 %153, metadata !696, metadata !DIExpression()), !dbg !804
  call void @llvm.dbg.value(metadata i32 0, metadata !697, metadata !DIExpression()), !dbg !804
  %154 = icmp eq i64 %145, 0, !dbg !810
  br i1 %154, label %170, label %155, !dbg !813

155:                                              ; preds = %144
  %156 = icmp eq i64 %149, 0
  br i1 %156, label %157, label %159, !dbg !813

157:                                              ; preds = %155
  call void @llvm.dbg.value(metadata i32 undef, metadata !697, metadata !DIExpression(DW_OP_plus_uconst, 1, DW_OP_stack_value)), !dbg !804
  %158 = trunc i64 %145 to i32, !dbg !814
  br label %170, !dbg !814

159:                                              ; preds = %155, %164
  %160 = phi i64 [ %165, %164 ], [ 0, %155 ]
  call void @llvm.dbg.value(metadata i64 %160, metadata !697, metadata !DIExpression()), !dbg !804
  %161 = getelementptr inbounds %"struct.Halide::Runtime::Internal::device_copy", %"struct.Halide::Runtime::Internal::device_copy"* %6, i64 0, i32 5, i64 %160, !dbg !816
  %162 = load i64, i64* %161, align 8, !dbg !816, !tbaa !551
  %163 = icmp ult i64 %149, %162, !dbg !819
  br i1 %163, label %167, label %164, !dbg !820

164:                                              ; preds = %159
  %165 = add nuw nsw i64 %160, 1, !dbg !821
  call void @llvm.dbg.value(metadata i64 %165, metadata !697, metadata !DIExpression()), !dbg !804
  %166 = icmp eq i64 %165, %145, !dbg !810
  br i1 %166, label %167, label %159, !dbg !813, !llvm.loop !822

167:                                              ; preds = %159, %164
  %168 = phi i64 [ %145, %164 ], [ %160, %159 ]
  %169 = trunc i64 %168 to i32, !dbg !824
  br label %170, !dbg !814

170:                                              ; preds = %157, %167, %144
  %171 = phi i32 [ 0, %144 ], [ %169, %167 ], [ %158, %157 ], !dbg !824
  call void @llvm.dbg.value(metadata i64 %145, metadata !698, metadata !DIExpression()), !dbg !825
  %172 = zext i32 %171 to i64, !dbg !814
  %173 = icmp ugt i64 %145, %172, !dbg !814
  br i1 %173, label %174, label %176, !dbg !826

174:                                              ; preds = %170
  %175 = sext i32 %171 to i64, !dbg !826
  br label %185, !dbg !826

176:                                              ; preds = %185, %170
  %177 = getelementptr inbounds %struct.halide_dimension_t, %struct.halide_dimension_t* %132, i64 %145, i32 1, !dbg !827
  %178 = load i32, i32* %177, align 4, !dbg !827, !tbaa !828
  %179 = sext i32 %178 to i64, !dbg !829
  %180 = getelementptr inbounds %"struct.Halide::Runtime::Internal::device_copy", %"struct.Halide::Runtime::Internal::device_copy"* %6, i64 0, i32 3, i64 %172, !dbg !830
  store i64 %179, i64* %180, align 8, !dbg !831, !tbaa !551
  %181 = getelementptr inbounds %"struct.Halide::Runtime::Internal::device_copy", %"struct.Halide::Runtime::Internal::device_copy"* %6, i64 0, i32 5, i64 %172, !dbg !832
  store i64 %149, i64* %181, align 8, !dbg !833, !tbaa !551
  %182 = getelementptr inbounds %"struct.Halide::Runtime::Internal::device_copy", %"struct.Halide::Runtime::Internal::device_copy"* %6, i64 0, i32 4, i64 %172, !dbg !834
  store i64 %153, i64* %182, align 8, !dbg !835, !tbaa !551
  %183 = add nuw nsw i64 %145, 1, !dbg !836
  call void @llvm.dbg.value(metadata i64 %183, metadata !691, metadata !DIExpression()), !dbg !789
  %184 = icmp eq i64 %183, %135, !dbg !791
  br i1 %184, label %138, label %144, !dbg !790, !llvm.loop !837

185:                                              ; preds = %174, %185
  %186 = phi i64 [ %145, %174 ], [ %187, %185 ]
  call void @llvm.dbg.value(metadata i64 %186, metadata !698, metadata !DIExpression()), !dbg !825
  %187 = add nsw i64 %186, -1, !dbg !839
  %188 = getelementptr inbounds %"struct.Halide::Runtime::Internal::device_copy", %"struct.Halide::Runtime::Internal::device_copy"* %6, i64 0, i32 3, i64 %187, !dbg !841
  %189 = load i64, i64* %188, align 8, !dbg !841, !tbaa !551
  %190 = getelementptr inbounds %"struct.Halide::Runtime::Internal::device_copy", %"struct.Halide::Runtime::Internal::device_copy"* %6, i64 0, i32 3, i64 %186, !dbg !842
  store i64 %189, i64* %190, align 8, !dbg !843, !tbaa !551
  %191 = getelementptr inbounds %"struct.Halide::Runtime::Internal::device_copy", %"struct.Halide::Runtime::Internal::device_copy"* %6, i64 0, i32 5, i64 %187, !dbg !844
  %192 = load i64, i64* %191, align 8, !dbg !844, !tbaa !551
  %193 = getelementptr inbounds %"struct.Halide::Runtime::Internal::device_copy", %"struct.Halide::Runtime::Internal::device_copy"* %6, i64 0, i32 5, i64 %186, !dbg !845
  store i64 %192, i64* %193, align 8, !dbg !846, !tbaa !551
  %194 = getelementptr inbounds %"struct.Halide::Runtime::Internal::device_copy", %"struct.Halide::Runtime::Internal::device_copy"* %6, i64 0, i32 4, i64 %187, !dbg !847
  %195 = load i64, i64* %194, align 8, !dbg !847, !tbaa !551
  %196 = getelementptr inbounds %"struct.Halide::Runtime::Internal::device_copy", %"struct.Halide::Runtime::Internal::device_copy"* %6, i64 0, i32 4, i64 %186, !dbg !848
  store i64 %195, i64* %196, align 8, !dbg !849, !tbaa !551
  call void @llvm.dbg.value(metadata i64 %187, metadata !698, metadata !DIExpression()), !dbg !825
  %197 = icmp sgt i64 %187, %175, !dbg !814
  br i1 %197, label %185, label %176, !dbg !826, !llvm.loop !850

198:                                              ; preds = %142, %202
  %199 = phi i64 [ %143, %142 ], [ %207, %202 ], !dbg !798
  %200 = phi i64 [ %140, %142 ], [ %204, %202 ]
  %201 = icmp eq i64 %200, %199, !dbg !852
  br i1 %201, label %202, label %251, !dbg !853

202:                                              ; preds = %198
  %203 = load i64, i64* %35, align 8, !dbg !854, !tbaa !551
  %204 = mul i64 %203, %199, !dbg !855
  store i64 %204, i64* %34, align 8, !dbg !855, !tbaa !580
  call void @llvm.dbg.value(metadata i64 1, metadata !700, metadata !DIExpression()), !dbg !856
  %205 = load i64, i64* %38, align 8, !dbg !857, !tbaa !551
  store i64 %205, i64* %35, align 8, !dbg !860, !tbaa !551
  %206 = load i64, i64* %39, align 8, !dbg !861, !tbaa !551
  store i64 %206, i64* %36, align 8, !dbg !862, !tbaa !551
  %207 = load i64, i64* %40, align 8, !dbg !863, !tbaa !551
  store i64 %207, i64* %37, align 8, !dbg !864, !tbaa !551
  call void @llvm.dbg.value(metadata i64 2, metadata !700, metadata !DIExpression()), !dbg !856
  %208 = load i64, i64* %41, align 8, !dbg !857, !tbaa !551
  store i64 %208, i64* %38, align 8, !dbg !860, !tbaa !551
  %209 = load i64, i64* %42, align 8, !dbg !861, !tbaa !551
  store i64 %209, i64* %39, align 8, !dbg !862, !tbaa !551
  %210 = load i64, i64* %43, align 8, !dbg !863, !tbaa !551
  store i64 %210, i64* %40, align 8, !dbg !864, !tbaa !551
  call void @llvm.dbg.value(metadata i64 3, metadata !700, metadata !DIExpression()), !dbg !856
  %211 = load i64, i64* %44, align 8, !dbg !857, !tbaa !551
  store i64 %211, i64* %41, align 8, !dbg !860, !tbaa !551
  %212 = load i64, i64* %45, align 8, !dbg !861, !tbaa !551
  store i64 %212, i64* %42, align 8, !dbg !862, !tbaa !551
  %213 = load i64, i64* %46, align 8, !dbg !863, !tbaa !551
  store i64 %213, i64* %43, align 8, !dbg !864, !tbaa !551
  call void @llvm.dbg.value(metadata i64 4, metadata !700, metadata !DIExpression()), !dbg !856
  %214 = load i64, i64* %47, align 8, !dbg !857, !tbaa !551
  store i64 %214, i64* %44, align 8, !dbg !860, !tbaa !551
  %215 = load i64, i64* %48, align 8, !dbg !861, !tbaa !551
  store i64 %215, i64* %45, align 8, !dbg !862, !tbaa !551
  %216 = load i64, i64* %49, align 8, !dbg !863, !tbaa !551
  store i64 %216, i64* %46, align 8, !dbg !864, !tbaa !551
  call void @llvm.dbg.value(metadata i64 5, metadata !700, metadata !DIExpression()), !dbg !856
  %217 = load i64, i64* %50, align 8, !dbg !857, !tbaa !551
  store i64 %217, i64* %47, align 8, !dbg !860, !tbaa !551
  %218 = load i64, i64* %51, align 8, !dbg !861, !tbaa !551
  store i64 %218, i64* %48, align 8, !dbg !862, !tbaa !551
  %219 = load i64, i64* %52, align 8, !dbg !863, !tbaa !551
  store i64 %219, i64* %49, align 8, !dbg !864, !tbaa !551
  call void @llvm.dbg.value(metadata i64 6, metadata !700, metadata !DIExpression()), !dbg !856
  %220 = load i64, i64* %53, align 8, !dbg !857, !tbaa !551
  store i64 %220, i64* %50, align 8, !dbg !860, !tbaa !551
  %221 = load i64, i64* %54, align 8, !dbg !861, !tbaa !551
  store i64 %221, i64* %51, align 8, !dbg !862, !tbaa !551
  %222 = load i64, i64* %55, align 8, !dbg !863, !tbaa !551
  store i64 %222, i64* %52, align 8, !dbg !864, !tbaa !551
  call void @llvm.dbg.value(metadata i64 7, metadata !700, metadata !DIExpression()), !dbg !856
  %223 = load i64, i64* %56, align 8, !dbg !857, !tbaa !551
  store i64 %223, i64* %53, align 8, !dbg !860, !tbaa !551
  %224 = load i64, i64* %57, align 8, !dbg !861, !tbaa !551
  store i64 %224, i64* %54, align 8, !dbg !862, !tbaa !551
  %225 = load i64, i64* %58, align 8, !dbg !863, !tbaa !551
  store i64 %225, i64* %55, align 8, !dbg !864, !tbaa !551
  call void @llvm.dbg.value(metadata i64 8, metadata !700, metadata !DIExpression()), !dbg !856
  %226 = load i64, i64* %59, align 8, !dbg !857, !tbaa !551
  store i64 %226, i64* %56, align 8, !dbg !860, !tbaa !551
  %227 = load i64, i64* %60, align 8, !dbg !861, !tbaa !551
  store i64 %227, i64* %57, align 8, !dbg !862, !tbaa !551
  %228 = load i64, i64* %61, align 8, !dbg !863, !tbaa !551
  store i64 %228, i64* %58, align 8, !dbg !864, !tbaa !551
  call void @llvm.dbg.value(metadata i64 9, metadata !700, metadata !DIExpression()), !dbg !856
  %229 = load i64, i64* %62, align 8, !dbg !857, !tbaa !551
  store i64 %229, i64* %59, align 8, !dbg !860, !tbaa !551
  %230 = load i64, i64* %63, align 8, !dbg !861, !tbaa !551
  store i64 %230, i64* %60, align 8, !dbg !862, !tbaa !551
  %231 = load i64, i64* %64, align 8, !dbg !863, !tbaa !551
  store i64 %231, i64* %61, align 8, !dbg !864, !tbaa !551
  call void @llvm.dbg.value(metadata i64 10, metadata !700, metadata !DIExpression()), !dbg !856
  %232 = load i64, i64* %65, align 8, !dbg !857, !tbaa !551
  store i64 %232, i64* %62, align 8, !dbg !860, !tbaa !551
  %233 = load i64, i64* %66, align 8, !dbg !861, !tbaa !551
  store i64 %233, i64* %63, align 8, !dbg !862, !tbaa !551
  %234 = load i64, i64* %67, align 8, !dbg !863, !tbaa !551
  store i64 %234, i64* %64, align 8, !dbg !864, !tbaa !551
  call void @llvm.dbg.value(metadata i64 11, metadata !700, metadata !DIExpression()), !dbg !856
  %235 = load i64, i64* %68, align 8, !dbg !857, !tbaa !551
  store i64 %235, i64* %65, align 8, !dbg !860, !tbaa !551
  %236 = load i64, i64* %69, align 8, !dbg !861, !tbaa !551
  store i64 %236, i64* %66, align 8, !dbg !862, !tbaa !551
  %237 = load i64, i64* %70, align 8, !dbg !863, !tbaa !551
  store i64 %237, i64* %67, align 8, !dbg !864, !tbaa !551
  call void @llvm.dbg.value(metadata i64 12, metadata !700, metadata !DIExpression()), !dbg !856
  %238 = load i64, i64* %71, align 8, !dbg !857, !tbaa !551
  store i64 %238, i64* %68, align 8, !dbg !860, !tbaa !551
  %239 = load i64, i64* %72, align 8, !dbg !861, !tbaa !551
  store i64 %239, i64* %69, align 8, !dbg !862, !tbaa !551
  %240 = load i64, i64* %73, align 8, !dbg !863, !tbaa !551
  store i64 %240, i64* %70, align 8, !dbg !864, !tbaa !551
  call void @llvm.dbg.value(metadata i64 13, metadata !700, metadata !DIExpression()), !dbg !856
  %241 = load i64, i64* %74, align 8, !dbg !857, !tbaa !551
  store i64 %241, i64* %71, align 8, !dbg !860, !tbaa !551
  %242 = load i64, i64* %75, align 8, !dbg !861, !tbaa !551
  store i64 %242, i64* %72, align 8, !dbg !862, !tbaa !551
  %243 = load i64, i64* %76, align 8, !dbg !863, !tbaa !551
  store i64 %243, i64* %73, align 8, !dbg !864, !tbaa !551
  call void @llvm.dbg.value(metadata i64 14, metadata !700, metadata !DIExpression()), !dbg !856
  %244 = load i64, i64* %77, align 8, !dbg !857, !tbaa !551
  store i64 %244, i64* %74, align 8, !dbg !860, !tbaa !551
  %245 = load i64, i64* %78, align 8, !dbg !861, !tbaa !551
  store i64 %245, i64* %75, align 8, !dbg !862, !tbaa !551
  %246 = load i64, i64* %79, align 8, !dbg !863, !tbaa !551
  store i64 %246, i64* %76, align 8, !dbg !864, !tbaa !551
  call void @llvm.dbg.value(metadata i64 15, metadata !700, metadata !DIExpression()), !dbg !856
  %247 = load i64, i64* %80, align 8, !dbg !857, !tbaa !551
  store i64 %247, i64* %77, align 8, !dbg !860, !tbaa !551
  %248 = load i64, i64* %81, align 8, !dbg !861, !tbaa !551
  store i64 %248, i64* %78, align 8, !dbg !862, !tbaa !551
  %249 = load i64, i64* %82, align 8, !dbg !863, !tbaa !551
  store i64 %249, i64* %79, align 8, !dbg !864, !tbaa !551
  call void @llvm.dbg.value(metadata i64 16, metadata !700, metadata !DIExpression()), !dbg !856
  store i64 1, i64* %80, align 8, !dbg !865, !tbaa !551
  store i64 0, i64* %81, align 8, !dbg !866, !tbaa !551
  store i64 0, i64* %82, align 8, !dbg !867, !tbaa !551
  %250 = icmp eq i64 %204, %206, !dbg !796
  br i1 %250, label %198, label %251, !dbg !797, !llvm.loop !868

251:                                              ; preds = %198, %202, %129, %138
  %252 = bitcast %"struct.Halide::Runtime::Internal::device_copy"* %0 to i8*, !dbg !870
  call void @llvm.memcpy.p0i8.p0i8.i64(i8* nonnull align 8 dereferenceable(416) %252, i8* nonnull align 8 dereferenceable(416) %7, i64 416, i1 false), !dbg !870, !tbaa.struct !871
  br label %253, !dbg !872

253:                                              ; preds = %251, %136, %125
  call void @llvm.lifetime.end.p0i8(i64 416, i8* nonnull %7) #10, !dbg !873
  ret void, !dbg !873
}

; Function Attrs: argmemonly nofree nosync nounwind willreturn writeonly
declare void @llvm.memset.p0i8.i64(i8* nocapture writeonly, i8, i64, i1 immarg) #5

; Function Attrs: argmemonly nofree nosync nounwind willreturn
declare void @llvm.memcpy.p0i8.p0i8.i64(i8* noalias nocapture writeonly, i8* noalias nocapture readonly, i64, i1 immarg) #2

; Function Attrs: nounwind mustprogress
define weak dso_local void @_ZN6Halide7Runtime8Internal24make_host_to_device_copyEPK15halide_buffer_t(%"struct.Halide::Runtime::Internal::device_copy"* noalias sret(%"struct.Halide::Runtime::Internal::device_copy") align 8 %0, %struct.halide_buffer_t* %1) local_unnamed_addr #0 !dbg !874 {
  call void @llvm.dbg.value(metadata %struct.halide_buffer_t* %1, metadata !878, metadata !DIExpression()), !dbg !879
  tail call void @_ZN6Halide7Runtime8Internal16make_buffer_copyEPK15halide_buffer_tbS4_b(%"struct.Halide::Runtime::Internal::device_copy"* sret(%"struct.Halide::Runtime::Internal::device_copy") align 8 %0, %struct.halide_buffer_t* %1, i1 zeroext true, %struct.halide_buffer_t* %1, i1 zeroext false) #9, !dbg !880
  ret void, !dbg !881
}

; Function Attrs: nounwind mustprogress
define weak dso_local void @_ZN6Halide7Runtime8Internal24make_device_to_host_copyEPK15halide_buffer_t(%"struct.Halide::Runtime::Internal::device_copy"* noalias sret(%"struct.Halide::Runtime::Internal::device_copy") align 8 %0, %struct.halide_buffer_t* %1) local_unnamed_addr #0 !dbg !882 {
  call void @llvm.dbg.value(metadata %struct.halide_buffer_t* %1, metadata !884, metadata !DIExpression()), !dbg !885
  tail call void @_ZN6Halide7Runtime8Internal16make_buffer_copyEPK15halide_buffer_tbS4_b(%"struct.Halide::Runtime::Internal::device_copy"* sret(%"struct.Halide::Runtime::Internal::device_copy") align 8 %0, %struct.halide_buffer_t* %1, i1 zeroext false, %struct.halide_buffer_t* %1, i1 zeroext true) #9, !dbg !886
  ret void, !dbg !887
}

; Function Attrs: nounwind
define weak dso_local i32 @halide_hexagon_dma_device_malloc(i8* %0, %struct.halide_buffer_t* %1) #4 !dbg !888 {
  call void @llvm.dbg.value(metadata i8* %0, metadata !893, metadata !DIExpression()), !dbg !898
  call void @llvm.dbg.value(metadata %struct.halide_buffer_t* %1, metadata !894, metadata !DIExpression()), !dbg !898
  call void @llvm.dbg.value(metadata %"class.Halide::Runtime::Internal::(anonymous namespace)::Printer"* undef, metadata !614, metadata !DIExpression()) #10, !dbg !899
  call void @llvm.dbg.value(metadata i8* %0, metadata !617, metadata !DIExpression()) #10, !dbg !899
  call void @llvm.dbg.value(metadata i8* null, metadata !618, metadata !DIExpression()) #10, !dbg !899
  %3 = tail call i8* @malloc(i64 1024) #8, !dbg !901
  %4 = icmp eq i8* %3, null, !dbg !902
  br i1 %4, label %7, label %5, !dbg !903

5:                                                ; preds = %2
  %6 = getelementptr inbounds i8, i8* %3, i64 1023, !dbg !904
  store i8 0, i8* %6, align 1, !dbg !905, !tbaa !653
  br label %7, !dbg !906

7:                                                ; preds = %2, %5
  %8 = phi i8* [ %6, %5 ], [ null, %2 ], !dbg !907
  call void @llvm.dbg.value(metadata %"class.Halide::Runtime::Internal::(anonymous namespace)::Printer"* undef, metadata !631, metadata !DIExpression()) #10, !dbg !908
  call void @llvm.dbg.value(metadata i8* getelementptr inbounds ([58 x i8], [58 x i8]* @.str.1, i64 0, i64 0), metadata !634, metadata !DIExpression()) #10, !dbg !908
  %9 = tail call i8* @halide_string_to_string(i8* %3, i8* %8, i8* nonnull getelementptr inbounds ([58 x i8], [58 x i8]* @.str.1, i64 0, i64 0)) #8, !dbg !910
  call void @llvm.dbg.value(metadata %"class.Halide::Runtime::Internal::(anonymous namespace)::Printer"* undef, metadata !911, metadata !DIExpression()) #10, !dbg !915
  call void @llvm.dbg.value(metadata i8* %0, metadata !914, metadata !DIExpression()) #10, !dbg !915
  %10 = tail call i8* @halide_pointer_to_string(i8* %9, i8* %8, i8* %0) #8, !dbg !917
  call void @llvm.dbg.value(metadata %"class.Halide::Runtime::Internal::(anonymous namespace)::Printer"* undef, metadata !631, metadata !DIExpression()) #10, !dbg !918
  call void @llvm.dbg.value(metadata i8* getelementptr inbounds ([8 x i8], [8 x i8]* @.str.2, i64 0, i64 0), metadata !634, metadata !DIExpression()) #10, !dbg !918
  %11 = tail call i8* @halide_string_to_string(i8* %10, i8* %8, i8* nonnull getelementptr inbounds ([8 x i8], [8 x i8]* @.str.2, i64 0, i64 0)) #8, !dbg !920
  call void @llvm.dbg.value(metadata %"class.Halide::Runtime::Internal::(anonymous namespace)::Printer"* undef, metadata !921, metadata !DIExpression()) #10, !dbg !925
  call void @llvm.dbg.value(metadata %struct.halide_buffer_t* %1, metadata !924, metadata !DIExpression()) #10, !dbg !925
  %12 = tail call i8* @halide_buffer_to_string(i8* %11, i8* %8, %struct.halide_buffer_t* nonnull %1) #8, !dbg !927
  call void @llvm.dbg.value(metadata %"class.Halide::Runtime::Internal::(anonymous namespace)::Printer"* undef, metadata !631, metadata !DIExpression()) #10, !dbg !928
  call void @llvm.dbg.value(metadata i8* getelementptr inbounds ([3 x i8], [3 x i8]* @.str.3, i64 0, i64 0), metadata !634, metadata !DIExpression()) #10, !dbg !928
  %13 = tail call i8* @halide_string_to_string(i8* %12, i8* %8, i8* nonnull getelementptr inbounds ([3 x i8], [3 x i8]* @.str.3, i64 0, i64 0)) #8, !dbg !930
  call void @llvm.dbg.value(metadata %"class.Halide::Runtime::Internal::(anonymous namespace)::Printer"* undef, metadata !640, metadata !DIExpression()) #10, !dbg !931
  br i1 %4, label %14, label %15, !dbg !933

14:                                               ; preds = %7
  tail call void @halide_error(i8* %0, i8* getelementptr inbounds ([35 x i8], [35 x i8]* @.str.105, i64 0, i64 0)) #8, !dbg !934
  br label %21, !dbg !935

15:                                               ; preds = %7
  call void @llvm.dbg.value(metadata %"class.Halide::Runtime::Internal::(anonymous namespace)::Printer"* undef, metadata !654, metadata !DIExpression()) #10, !dbg !936
  %16 = ptrtoint i8* %13 to i64, !dbg !938
  %17 = ptrtoint i8* %3 to i64, !dbg !938
  %18 = add i64 %16, 1, !dbg !938
  %19 = sub i64 %18, %17, !dbg !939
  %20 = tail call i32 @halide_msan_annotate_memory_is_initialized(i8* %0, i8* nonnull %3, i64 %19) #8, !dbg !940
  tail call void @halide_print(i8* %0, i8* nonnull %3) #8, !dbg !941
  br label %21

21:                                               ; preds = %14, %15
  call void @free(i8* %3) #8, !dbg !942
  %22 = getelementptr inbounds %struct.halide_buffer_t, %struct.halide_buffer_t* %1, i64 0, i32 0, !dbg !943
  %23 = load i64, i64* %22, align 8, !dbg !943, !tbaa !717
  %24 = icmp eq i64 %23, 0, !dbg !945
  br i1 %24, label %39, label %25, !dbg !946

25:                                               ; preds = %21
  call void @llvm.dbg.value(metadata %"class.Halide::Runtime::Internal::(anonymous namespace)::Printer"* undef, metadata !614, metadata !DIExpression()) #10, !dbg !947
  call void @llvm.dbg.value(metadata i8* %0, metadata !617, metadata !DIExpression()) #10, !dbg !947
  call void @llvm.dbg.value(metadata i8* null, metadata !618, metadata !DIExpression()) #10, !dbg !947
  %26 = call i8* @malloc(i64 1024) #8, !dbg !950
  %27 = icmp eq i8* %26, null, !dbg !951
  br i1 %27, label %28, label %30, !dbg !952

28:                                               ; preds = %25
  call void @llvm.dbg.value(metadata %"class.Halide::Runtime::Internal::(anonymous namespace)::Printer"* undef, metadata !631, metadata !DIExpression()) #10, !dbg !953
  call void @llvm.dbg.value(metadata i8* getelementptr inbounds ([58 x i8], [58 x i8]* @.str.4, i64 0, i64 0), metadata !634, metadata !DIExpression()) #10, !dbg !953
  %29 = call i8* @halide_string_to_string(i8* %26, i8* null, i8* nonnull getelementptr inbounds ([58 x i8], [58 x i8]* @.str.4, i64 0, i64 0)) #8, !dbg !955
  call void @llvm.dbg.value(metadata %"class.Halide::Runtime::Internal::(anonymous namespace)::Printer"* undef, metadata !640, metadata !DIExpression()) #10, !dbg !956
  call void @halide_error(i8* %0, i8* getelementptr inbounds ([35 x i8], [35 x i8]* @.str.105, i64 0, i64 0)) #8, !dbg !958
  br label %38, !dbg !959

30:                                               ; preds = %25
  %31 = getelementptr inbounds i8, i8* %26, i64 1023, !dbg !960
  store i8 0, i8* %31, align 1, !dbg !961, !tbaa !653
  call void @llvm.dbg.value(metadata %"class.Halide::Runtime::Internal::(anonymous namespace)::Printer"* undef, metadata !631, metadata !DIExpression()) #10, !dbg !953
  call void @llvm.dbg.value(metadata i8* getelementptr inbounds ([58 x i8], [58 x i8]* @.str.4, i64 0, i64 0), metadata !634, metadata !DIExpression()) #10, !dbg !953
  %32 = call i8* @halide_string_to_string(i8* nonnull %26, i8* nonnull %31, i8* nonnull getelementptr inbounds ([58 x i8], [58 x i8]* @.str.4, i64 0, i64 0)) #8, !dbg !955
  call void @llvm.dbg.value(metadata %"class.Halide::Runtime::Internal::(anonymous namespace)::Printer"* undef, metadata !640, metadata !DIExpression()) #10, !dbg !956
  call void @llvm.dbg.value(metadata %"class.Halide::Runtime::Internal::(anonymous namespace)::Printer"* undef, metadata !654, metadata !DIExpression()) #10, !dbg !962
  %33 = ptrtoint i8* %32 to i64, !dbg !964
  %34 = ptrtoint i8* %26 to i64, !dbg !964
  %35 = add i64 %33, 1, !dbg !964
  %36 = sub i64 %35, %34, !dbg !965
  %37 = call i32 @halide_msan_annotate_memory_is_initialized(i8* %0, i8* nonnull %26, i64 %36) #8, !dbg !966
  call void @halide_print(i8* %0, i8* nonnull %26) #8, !dbg !967
  br label %38

38:                                               ; preds = %30, %28
  call void @free(i8* %26) #8, !dbg !968
  br label %123, !dbg !969

39:                                               ; preds = %21
  call void @llvm.dbg.value(metadata %struct.halide_buffer_t* %1, metadata !970, metadata !DIExpression()), !dbg !973
  call void @llvm.dbg.value(metadata %struct.halide_buffer_t* %1, metadata !975, metadata !DIExpression()), !dbg !981
  call void @llvm.dbg.value(metadata i64 0, metadata !978, metadata !DIExpression()), !dbg !981
  call void @llvm.dbg.value(metadata i32 0, metadata !979, metadata !DIExpression()), !dbg !983
  %40 = getelementptr inbounds %struct.halide_buffer_t, %struct.halide_buffer_t* %1, i64 0, i32 5, !dbg !984
  %41 = load i32, i32* %40, align 4, !dbg !984, !tbaa !752
  %42 = icmp sgt i32 %41, 0, !dbg !986
  br i1 %42, label %46, label %43, !dbg !987

43:                                               ; preds = %39
  call void @llvm.dbg.value(metadata %struct.halide_buffer_t* %1, metadata !726, metadata !DIExpression(DW_OP_plus_uconst, 32, DW_OP_stack_value)), !dbg !988
  %44 = getelementptr inbounds %struct.halide_buffer_t, %struct.halide_buffer_t* %1, i64 0, i32 4, i32 1, !dbg !990
  %45 = load i8, i8* %44, align 1, !dbg !990, !tbaa !733
  call void @llvm.dbg.value(metadata %struct.halide_buffer_t* %1, metadata !991, metadata !DIExpression()), !dbg !997
  call void @llvm.dbg.value(metadata i64 0, metadata !994, metadata !DIExpression()), !dbg !997
  call void @llvm.dbg.value(metadata i32 0, metadata !995, metadata !DIExpression()), !dbg !999
  br label %89, !dbg !1000

46:                                               ; preds = %39
  %47 = getelementptr inbounds %struct.halide_buffer_t, %struct.halide_buffer_t* %1, i64 0, i32 6
  %48 = load %struct.halide_dimension_t*, %struct.halide_dimension_t** %47, align 8, !tbaa !755
  %49 = zext i32 %41 to i64, !dbg !986
  br label %50, !dbg !987

50:                                               ; preds = %64, %46
  %51 = phi i64 [ 0, %46 ], [ %66, %64 ]
  %52 = phi i64 [ 0, %46 ], [ %65, %64 ]
  call void @llvm.dbg.value(metadata i64 %51, metadata !979, metadata !DIExpression()), !dbg !983
  call void @llvm.dbg.value(metadata i64 %52, metadata !978, metadata !DIExpression()), !dbg !981
  %53 = getelementptr inbounds %struct.halide_dimension_t, %struct.halide_dimension_t* %48, i64 %51, i32 2, !dbg !1001
  %54 = load i32, i32* %53, align 4, !dbg !1001, !tbaa !763
  %55 = icmp sgt i32 %54, 0, !dbg !1004
  br i1 %55, label %56, label %64, !dbg !1005

56:                                               ; preds = %50
  %57 = zext i32 %54 to i64, !dbg !1006
  %58 = getelementptr inbounds %struct.halide_dimension_t, %struct.halide_dimension_t* %48, i64 %51, i32 1, !dbg !1008
  %59 = load i32, i32* %58, align 4, !dbg !1008, !tbaa !828
  %60 = add nsw i32 %59, -1, !dbg !1009
  %61 = sext i32 %60 to i64, !dbg !1010
  %62 = mul nsw i64 %61, %57, !dbg !1011
  %63 = add nsw i64 %62, %52, !dbg !1012
  call void @llvm.dbg.value(metadata i64 %63, metadata !978, metadata !DIExpression()), !dbg !981
  br label %64, !dbg !1013

64:                                               ; preds = %56, %50
  %65 = phi i64 [ %63, %56 ], [ %52, %50 ], !dbg !981
  call void @llvm.dbg.value(metadata i64 %65, metadata !978, metadata !DIExpression()), !dbg !981
  %66 = add nuw nsw i64 %51, 1, !dbg !1014
  call void @llvm.dbg.value(metadata i64 %66, metadata !979, metadata !DIExpression()), !dbg !983
  %67 = icmp eq i64 %66, %49, !dbg !986
  br i1 %67, label %68, label %50, !dbg !987, !llvm.loop !1015

68:                                               ; preds = %64
  call void @llvm.dbg.value(metadata i64 %65, metadata !978, metadata !DIExpression(DW_OP_plus_uconst, 1, DW_OP_stack_value)), !dbg !981
  call void @llvm.dbg.value(metadata %struct.halide_buffer_t* %1, metadata !726, metadata !DIExpression(DW_OP_plus_uconst, 32, DW_OP_stack_value)), !dbg !988
  %69 = getelementptr inbounds %struct.halide_buffer_t, %struct.halide_buffer_t* %1, i64 0, i32 4, i32 1, !dbg !990
  %70 = load i8, i8* %69, align 1, !dbg !990, !tbaa !733
  call void @llvm.dbg.value(metadata %struct.halide_buffer_t* %1, metadata !991, metadata !DIExpression()), !dbg !997
  call void @llvm.dbg.value(metadata i64 0, metadata !994, metadata !DIExpression()), !dbg !997
  call void @llvm.dbg.value(metadata i32 0, metadata !995, metadata !DIExpression()), !dbg !999
  br label %71, !dbg !1000

71:                                               ; preds = %85, %68
  %72 = phi i64 [ 0, %68 ], [ %87, %85 ]
  %73 = phi i64 [ 0, %68 ], [ %86, %85 ]
  call void @llvm.dbg.value(metadata i64 %72, metadata !995, metadata !DIExpression()), !dbg !999
  call void @llvm.dbg.value(metadata i64 %73, metadata !994, metadata !DIExpression()), !dbg !997
  %74 = getelementptr inbounds %struct.halide_dimension_t, %struct.halide_dimension_t* %48, i64 %72, i32 2, !dbg !1017
  %75 = load i32, i32* %74, align 4, !dbg !1017, !tbaa !763
  %76 = icmp slt i32 %75, 0, !dbg !1021
  br i1 %76, label %77, label %85, !dbg !1022

77:                                               ; preds = %71
  %78 = sext i32 %75 to i64, !dbg !1023
  %79 = getelementptr inbounds %struct.halide_dimension_t, %struct.halide_dimension_t* %48, i64 %72, i32 1, !dbg !1025
  %80 = load i32, i32* %79, align 4, !dbg !1025, !tbaa !828
  %81 = add nsw i32 %80, -1, !dbg !1026
  %82 = sext i32 %81 to i64, !dbg !1027
  %83 = mul nsw i64 %82, %78, !dbg !1028
  %84 = add nsw i64 %83, %73, !dbg !1029
  call void @llvm.dbg.value(metadata i64 %84, metadata !994, metadata !DIExpression()), !dbg !997
  br label %85, !dbg !1030

85:                                               ; preds = %77, %71
  %86 = phi i64 [ %84, %77 ], [ %73, %71 ], !dbg !997
  call void @llvm.dbg.value(metadata i64 %86, metadata !994, metadata !DIExpression()), !dbg !997
  %87 = add nuw nsw i64 %72, 1, !dbg !1031
  call void @llvm.dbg.value(metadata i64 %87, metadata !995, metadata !DIExpression()), !dbg !999
  %88 = icmp eq i64 %87, %49, !dbg !1032
  br i1 %88, label %89, label %71, !dbg !1000, !llvm.loop !1033

89:                                               ; preds = %85, %43
  %90 = phi i8 [ %45, %43 ], [ %70, %85 ]
  %91 = phi i64 [ 0, %43 ], [ %65, %85 ]
  %92 = phi i64 [ 0, %43 ], [ %86, %85 ], !dbg !997
  %93 = zext i8 %90 to i64, !dbg !990
  %94 = add nuw nsw i64 %93, 7, !dbg !1035
  %95 = lshr i64 %94, 3, !dbg !1036
  %96 = add nsw i64 %91, 1, !dbg !1037
  call void @llvm.dbg.value(metadata i64 %96, metadata !978, metadata !DIExpression()), !dbg !981
  call void @llvm.dbg.value(metadata %struct.halide_buffer_t* %1, metadata !726, metadata !DIExpression(DW_OP_plus_uconst, 32, DW_OP_stack_value)), !dbg !1038
  %97 = sub i64 %96, %92, !dbg !1040
  %98 = mul i64 %97, %95, !dbg !1040
  call void @llvm.dbg.value(metadata i64 %98, metadata !895, metadata !DIExpression()), !dbg !898
  %99 = icmp eq i64 %98, 0, !dbg !1041
  br i1 %99, label %100, label %101, !dbg !1044

100:                                              ; preds = %89
  call void @halide_print(i8* %0, i8* getelementptr inbounds ([108 x i8], [108 x i8]* @.str.5, i64 0, i64 0)) #8, !dbg !1045
  call void @abort() #8, !dbg !1045
  br label %101, !dbg !1045

101:                                              ; preds = %100, %89
  %102 = call i8* @halide_malloc(i8* %0, i64 %98) #8, !dbg !1047
  call void @llvm.dbg.value(metadata i8* %102, metadata !896, metadata !DIExpression()), !dbg !898
  %103 = icmp eq i8* %102, null, !dbg !1048
  br i1 %103, label %104, label %118, !dbg !1050

104:                                              ; preds = %101
  call void @llvm.dbg.value(metadata %"class.Halide::Runtime::Internal::(anonymous namespace)::Printer.0"* undef, metadata !1051, metadata !DIExpression()) #10, !dbg !1057
  call void @llvm.dbg.value(metadata i8* %0, metadata !1054, metadata !DIExpression()) #10, !dbg !1057
  call void @llvm.dbg.value(metadata i8* null, metadata !1055, metadata !DIExpression()) #10, !dbg !1057
  %105 = call i8* @malloc(i64 1024) #8, !dbg !1060
  %106 = icmp eq i8* %105, null, !dbg !1065
  br i1 %106, label %107, label %109, !dbg !1067

107:                                              ; preds = %104
  call void @llvm.dbg.value(metadata %"class.Halide::Runtime::Internal::(anonymous namespace)::Printer.0"* undef, metadata !1068, metadata !DIExpression()) #10, !dbg !1072
  call void @llvm.dbg.value(metadata i8* getelementptr inbounds ([65 x i8], [65 x i8]* @.str.6, i64 0, i64 0), metadata !1071, metadata !DIExpression()) #10, !dbg !1072
  %108 = call i8* @halide_string_to_string(i8* %105, i8* null, i8* nonnull getelementptr inbounds ([65 x i8], [65 x i8]* @.str.6, i64 0, i64 0)) #8, !dbg !1074
  call void @llvm.dbg.value(metadata %"class.Halide::Runtime::Internal::(anonymous namespace)::Printer.0"* undef, metadata !1077, metadata !DIExpression()) #10, !dbg !1080
  call void @halide_error(i8* %0, i8* getelementptr inbounds ([35 x i8], [35 x i8]* @.str.105, i64 0, i64 0)) #8, !dbg !1082
  br label %117, !dbg !1086

109:                                              ; preds = %104
  %110 = getelementptr inbounds i8, i8* %105, i64 1023, !dbg !1087
  store i8 0, i8* %110, align 1, !dbg !1089, !tbaa !653
  call void @llvm.dbg.value(metadata %"class.Halide::Runtime::Internal::(anonymous namespace)::Printer.0"* undef, metadata !1068, metadata !DIExpression()) #10, !dbg !1072
  call void @llvm.dbg.value(metadata i8* getelementptr inbounds ([65 x i8], [65 x i8]* @.str.6, i64 0, i64 0), metadata !1071, metadata !DIExpression()) #10, !dbg !1072
  %111 = call i8* @halide_string_to_string(i8* nonnull %105, i8* nonnull %110, i8* nonnull getelementptr inbounds ([65 x i8], [65 x i8]* @.str.6, i64 0, i64 0)) #8, !dbg !1074
  call void @llvm.dbg.value(metadata %"class.Halide::Runtime::Internal::(anonymous namespace)::Printer.0"* undef, metadata !1077, metadata !DIExpression()) #10, !dbg !1080
  call void @llvm.dbg.value(metadata %"class.Halide::Runtime::Internal::(anonymous namespace)::Printer.0"* undef, metadata !1090, metadata !DIExpression()) #10, !dbg !1093
  %112 = ptrtoint i8* %111 to i64, !dbg !1096
  %113 = ptrtoint i8* %105 to i64, !dbg !1096
  %114 = add i64 %112, 1, !dbg !1096
  %115 = sub i64 %114, %113, !dbg !1097
  %116 = call i32 @halide_msan_annotate_memory_is_initialized(i8* %0, i8* nonnull %105, i64 %115) #8, !dbg !1098
  call void @halide_error(i8* %0, i8* nonnull %105) #8, !dbg !1099
  br label %117

117:                                              ; preds = %109, %107
  call void @free(i8* %105) #8, !dbg !1102
  br label %123, !dbg !1105

118:                                              ; preds = %101
  %119 = ptrtoint i8* %102 to i64, !dbg !1106
  %120 = call i32 @halide_hexagon_dma_device_wrap_native(i8* %0, %struct.halide_buffer_t* nonnull %1, i64 %119) #9, !dbg !1107
  call void @llvm.dbg.value(metadata i32 %120, metadata !897, metadata !DIExpression()), !dbg !898
  %121 = icmp eq i32 %120, 0, !dbg !1108
  br i1 %121, label %123, label %122, !dbg !1110

122:                                              ; preds = %118
  call void @halide_free(i8* %0, i8* nonnull %102) #8, !dbg !1111
  br label %123, !dbg !1113

123:                                              ; preds = %117, %118, %122, %38
  %124 = phi i32 [ 0, %38 ], [ -11, %117 ], [ -16, %122 ], [ 0, %118 ], !dbg !898
  ret i32 %124, !dbg !1114
}

declare !dbg !1115 extern_weak dso_local void @halide_print(i8*, i8*) local_unnamed_addr #3

declare !dbg !1118 dso_local void @abort() local_unnamed_addr #3

declare !dbg !1119 dso_local i8* @halide_malloc(i8*, i64) local_unnamed_addr #3

; Function Attrs: nounwind
define weak dso_local i32 @halide_hexagon_dma_device_wrap_native(i8* %0, %struct.halide_buffer_t* %1, i64 %2) #4 !dbg !1122 {
  call void @llvm.dbg.value(metadata i8* %0, metadata !1124, metadata !DIExpression()), !dbg !1128
  call void @llvm.dbg.value(metadata %struct.halide_buffer_t* %1, metadata !1125, metadata !DIExpression()), !dbg !1128
  call void @llvm.dbg.value(metadata i64 %2, metadata !1126, metadata !DIExpression()), !dbg !1128
  call void @llvm.dbg.value(metadata %"class.Halide::Runtime::Internal::(anonymous namespace)::Printer"* undef, metadata !614, metadata !DIExpression()) #10, !dbg !1129
  call void @llvm.dbg.value(metadata i8* %0, metadata !617, metadata !DIExpression()) #10, !dbg !1129
  call void @llvm.dbg.value(metadata i8* null, metadata !618, metadata !DIExpression()) #10, !dbg !1129
  %4 = tail call i8* @malloc(i64 1024) #8, !dbg !1131
  %5 = icmp eq i8* %4, null, !dbg !1132
  br i1 %5, label %8, label %6, !dbg !1133

6:                                                ; preds = %3
  %7 = getelementptr inbounds i8, i8* %4, i64 1023, !dbg !1134
  store i8 0, i8* %7, align 1, !dbg !1135, !tbaa !653
  br label %8, !dbg !1136

8:                                                ; preds = %3, %6
  %9 = phi i8* [ %7, %6 ], [ null, %3 ], !dbg !1137
  call void @llvm.dbg.value(metadata %"class.Halide::Runtime::Internal::(anonymous namespace)::Printer"* undef, metadata !631, metadata !DIExpression()) #10, !dbg !1138
  call void @llvm.dbg.value(metadata i8* getelementptr inbounds ([63 x i8], [63 x i8]* @.str.49, i64 0, i64 0), metadata !634, metadata !DIExpression()) #10, !dbg !1138
  %10 = tail call i8* @halide_string_to_string(i8* %4, i8* %9, i8* nonnull getelementptr inbounds ([63 x i8], [63 x i8]* @.str.49, i64 0, i64 0)) #8, !dbg !1140
  call void @llvm.dbg.value(metadata %"class.Halide::Runtime::Internal::(anonymous namespace)::Printer"* undef, metadata !911, metadata !DIExpression()) #10, !dbg !1141
  call void @llvm.dbg.value(metadata i8* %0, metadata !914, metadata !DIExpression()) #10, !dbg !1141
  %11 = tail call i8* @halide_pointer_to_string(i8* %10, i8* %9, i8* %0) #8, !dbg !1143
  call void @llvm.dbg.value(metadata %"class.Halide::Runtime::Internal::(anonymous namespace)::Printer"* undef, metadata !631, metadata !DIExpression()) #10, !dbg !1144
  call void @llvm.dbg.value(metadata i8* getelementptr inbounds ([7 x i8], [7 x i8]* @.str.46, i64 0, i64 0), metadata !634, metadata !DIExpression()) #10, !dbg !1144
  %12 = tail call i8* @halide_string_to_string(i8* %11, i8* %9, i8* nonnull getelementptr inbounds ([7 x i8], [7 x i8]* @.str.46, i64 0, i64 0)) #8, !dbg !1146
  call void @llvm.dbg.value(metadata %"class.Halide::Runtime::Internal::(anonymous namespace)::Printer"* undef, metadata !921, metadata !DIExpression()) #10, !dbg !1147
  call void @llvm.dbg.value(metadata %struct.halide_buffer_t* %1, metadata !924, metadata !DIExpression()) #10, !dbg !1147
  %13 = tail call i8* @halide_buffer_to_string(i8* %12, i8* %9, %struct.halide_buffer_t* nonnull %1) #8, !dbg !1149
  call void @llvm.dbg.value(metadata %"class.Halide::Runtime::Internal::(anonymous namespace)::Printer"* undef, metadata !631, metadata !DIExpression()) #10, !dbg !1150
  call void @llvm.dbg.value(metadata i8* getelementptr inbounds ([10 x i8], [10 x i8]* @.str.50, i64 0, i64 0), metadata !634, metadata !DIExpression()) #10, !dbg !1150
  %14 = tail call i8* @halide_string_to_string(i8* %13, i8* %9, i8* nonnull getelementptr inbounds ([10 x i8], [10 x i8]* @.str.50, i64 0, i64 0)) #8, !dbg !1152
  call void @llvm.dbg.value(metadata %"class.Halide::Runtime::Internal::(anonymous namespace)::Printer"* undef, metadata !1153, metadata !DIExpression()) #10, !dbg !1157
  call void @llvm.dbg.value(metadata i64 %2, metadata !1156, metadata !DIExpression()) #10, !dbg !1157
  %15 = tail call i8* @halide_uint64_to_string(i8* %14, i8* %9, i64 %2, i32 1) #8, !dbg !1159
  call void @llvm.dbg.value(metadata %"class.Halide::Runtime::Internal::(anonymous namespace)::Printer"* undef, metadata !631, metadata !DIExpression()) #10, !dbg !1160
  call void @llvm.dbg.value(metadata i8* getelementptr inbounds ([3 x i8], [3 x i8]* @.str.3, i64 0, i64 0), metadata !634, metadata !DIExpression()) #10, !dbg !1160
  %16 = tail call i8* @halide_string_to_string(i8* %15, i8* %9, i8* nonnull getelementptr inbounds ([3 x i8], [3 x i8]* @.str.3, i64 0, i64 0)) #8, !dbg !1162
  call void @llvm.dbg.value(metadata %"class.Halide::Runtime::Internal::(anonymous namespace)::Printer"* undef, metadata !640, metadata !DIExpression()) #10, !dbg !1163
  br i1 %5, label %17, label %18, !dbg !1165

17:                                               ; preds = %8
  tail call void @halide_error(i8* %0, i8* getelementptr inbounds ([35 x i8], [35 x i8]* @.str.105, i64 0, i64 0)) #8, !dbg !1166
  br label %24, !dbg !1167

18:                                               ; preds = %8
  call void @llvm.dbg.value(metadata %"class.Halide::Runtime::Internal::(anonymous namespace)::Printer"* undef, metadata !654, metadata !DIExpression()) #10, !dbg !1168
  %19 = ptrtoint i8* %16 to i64, !dbg !1170
  %20 = ptrtoint i8* %4 to i64, !dbg !1170
  %21 = add i64 %19, 1, !dbg !1170
  %22 = sub i64 %21, %20, !dbg !1171
  %23 = tail call i32 @halide_msan_annotate_memory_is_initialized(i8* %0, i8* nonnull %4, i64 %22) #8, !dbg !1172
  tail call void @halide_print(i8* %0, i8* nonnull %4) #8, !dbg !1173
  br label %24

24:                                               ; preds = %17, %18
  call void @free(i8* %4) #8, !dbg !1174
  %25 = getelementptr inbounds %struct.halide_buffer_t, %struct.halide_buffer_t* %1, i64 0, i32 0, !dbg !1175
  %26 = load i64, i64* %25, align 8, !dbg !1175, !tbaa !717
  %27 = icmp eq i64 %26, 0, !dbg !1175
  br i1 %27, label %45, label %28, !dbg !1178

28:                                               ; preds = %24
  call void @halide_print(i8* %0, i8* getelementptr inbounds ([115 x i8], [115 x i8]* @.str.51, i64 0, i64 0)) #8, !dbg !1179
  call void @abort() #8, !dbg !1179
  %29 = load i64, i64* %25, align 8, !dbg !1181, !tbaa !717
  %30 = icmp eq i64 %29, 0, !dbg !1183
  br i1 %30, label %45, label %31, !dbg !1184

31:                                               ; preds = %28
  call void @llvm.dbg.value(metadata %"class.Halide::Runtime::Internal::(anonymous namespace)::Printer.0"* undef, metadata !1051, metadata !DIExpression()) #10, !dbg !1185
  call void @llvm.dbg.value(metadata i8* %0, metadata !1054, metadata !DIExpression()) #10, !dbg !1185
  call void @llvm.dbg.value(metadata i8* null, metadata !1055, metadata !DIExpression()) #10, !dbg !1185
  %32 = call i8* @malloc(i64 1024) #8, !dbg !1188
  %33 = icmp eq i8* %32, null, !dbg !1189
  br i1 %33, label %34, label %36, !dbg !1190

34:                                               ; preds = %31
  call void @llvm.dbg.value(metadata %"class.Halide::Runtime::Internal::(anonymous namespace)::Printer.0"* undef, metadata !1068, metadata !DIExpression()) #10, !dbg !1191
  call void @llvm.dbg.value(metadata i8* getelementptr inbounds ([76 x i8], [76 x i8]* @.str.52, i64 0, i64 0), metadata !1071, metadata !DIExpression()) #10, !dbg !1191
  %35 = call i8* @halide_string_to_string(i8* %32, i8* null, i8* nonnull getelementptr inbounds ([76 x i8], [76 x i8]* @.str.52, i64 0, i64 0)) #8, !dbg !1193
  call void @llvm.dbg.value(metadata %"class.Halide::Runtime::Internal::(anonymous namespace)::Printer.0"* undef, metadata !1077, metadata !DIExpression()) #10, !dbg !1194
  call void @halide_error(i8* %0, i8* getelementptr inbounds ([35 x i8], [35 x i8]* @.str.105, i64 0, i64 0)) #8, !dbg !1196
  br label %44, !dbg !1197

36:                                               ; preds = %31
  %37 = getelementptr inbounds i8, i8* %32, i64 1023, !dbg !1198
  store i8 0, i8* %37, align 1, !dbg !1199, !tbaa !653
  call void @llvm.dbg.value(metadata %"class.Halide::Runtime::Internal::(anonymous namespace)::Printer.0"* undef, metadata !1068, metadata !DIExpression()) #10, !dbg !1191
  call void @llvm.dbg.value(metadata i8* getelementptr inbounds ([76 x i8], [76 x i8]* @.str.52, i64 0, i64 0), metadata !1071, metadata !DIExpression()) #10, !dbg !1191
  %38 = call i8* @halide_string_to_string(i8* nonnull %32, i8* nonnull %37, i8* nonnull getelementptr inbounds ([76 x i8], [76 x i8]* @.str.52, i64 0, i64 0)) #8, !dbg !1193
  call void @llvm.dbg.value(metadata %"class.Halide::Runtime::Internal::(anonymous namespace)::Printer.0"* undef, metadata !1077, metadata !DIExpression()) #10, !dbg !1194
  call void @llvm.dbg.value(metadata %"class.Halide::Runtime::Internal::(anonymous namespace)::Printer.0"* undef, metadata !1090, metadata !DIExpression()) #10, !dbg !1200
  %39 = ptrtoint i8* %38 to i64, !dbg !1202
  %40 = ptrtoint i8* %32 to i64, !dbg !1202
  %41 = add i64 %39, 1, !dbg !1202
  %42 = sub i64 %41, %40, !dbg !1203
  %43 = call i32 @halide_msan_annotate_memory_is_initialized(i8* %0, i8* nonnull %32, i64 %42) #8, !dbg !1204
  call void @halide_error(i8* %0, i8* nonnull %32) #8, !dbg !1205
  br label %44

44:                                               ; preds = %36, %34
  call void @free(i8* %32) #8, !dbg !1206
  br label %85, !dbg !1207

45:                                               ; preds = %24, %28
  %46 = getelementptr inbounds %struct.halide_buffer_t, %struct.halide_buffer_t* %1, i64 0, i32 1, !dbg !1208
  store %struct.halide_device_interface_t* @_ZN6Halide7Runtime8Internal10HexagonDma28hexagon_dma_device_interfaceE, %struct.halide_device_interface_t** %46, align 8, !dbg !1209, !tbaa !1210
  %47 = load %struct.halide_device_interface_impl_t*, %struct.halide_device_interface_impl_t** getelementptr inbounds (%struct.halide_device_interface_t, %struct.halide_device_interface_t* @_ZN6Halide7Runtime8Internal10HexagonDma28hexagon_dma_device_interfaceE, i64 0, i32 15), align 8, !dbg !1211, !tbaa !1212
  %48 = getelementptr inbounds %struct.halide_device_interface_impl_t, %struct.halide_device_interface_impl_t* %47, i64 0, i32 0, !dbg !1214
  %49 = load void ()*, void ()** %48, align 8, !dbg !1214, !tbaa !1215
  call void %49() #8, !dbg !1217
  %50 = call i8* @malloc(i64 48) #8, !dbg !1218
  call void @llvm.dbg.value(metadata i8* %50, metadata !1223, metadata !DIExpression()) #10, !dbg !1225
  %51 = bitcast i8* %50 to i8**, !dbg !1226
  %52 = getelementptr inbounds i8, i8* %50, i64 8, !dbg !1227
  %53 = bitcast i8* %52 to i16*, !dbg !1227
  store i16 0, i16* %53, align 8, !dbg !1228, !tbaa !1229
  %54 = getelementptr inbounds i8, i8* %50, i64 10, !dbg !1233
  %55 = bitcast i8* %54 to i16*, !dbg !1233
  store i16 0, i16* %55, align 2, !dbg !1234, !tbaa !1235
  %56 = getelementptr inbounds i8, i8* %50, i64 12, !dbg !1236
  %57 = bitcast i8* %56 to i16*, !dbg !1236
  store i16 0, i16* %57, align 4, !dbg !1237, !tbaa !1238
  %58 = getelementptr inbounds i8, i8* %50, i64 14, !dbg !1239
  %59 = bitcast i8* %58 to i16*, !dbg !1239
  store i16 0, i16* %59, align 2, !dbg !1240, !tbaa !1241
  %60 = getelementptr inbounds i8, i8* %50, i64 16, !dbg !1242
  %61 = bitcast i8* %60 to i8**, !dbg !1242
  %62 = getelementptr inbounds i8, i8* %50, i64 24, !dbg !1243
  %63 = bitcast i8* %62 to i32*, !dbg !1243
  %64 = getelementptr inbounds i8, i8* %50, i64 28, !dbg !1244
  %65 = bitcast i8* %64 to i32*, !dbg !1244
  %66 = getelementptr inbounds i8, i8* %50, i64 32, !dbg !1245
  %67 = bitcast i8* %66 to i32*, !dbg !1245
  %68 = getelementptr inbounds i8, i8* %50, i64 36, !dbg !1246
  store i8 0, i8* %68, align 4, !dbg !1247, !tbaa !1248
  %69 = getelementptr inbounds i8, i8* %50, i64 40, !dbg !1249
  %70 = bitcast i8* %69 to i32*, !dbg !1249
  store i32 0, i32* %70, align 8, !dbg !1250, !tbaa !1251
  %71 = getelementptr inbounds i8, i8* %50, i64 37, !dbg !1252
  store i8 0, i8* %71, align 1, !dbg !1253, !tbaa !1254
  call void @llvm.dbg.value(metadata i8* %50, metadata !1127, metadata !DIExpression()), !dbg !1128
  %72 = inttoptr i64 %2 to i8*, !dbg !1255
  store i8* %72, i8** %51, align 8, !dbg !1256, !tbaa !1257
  store i8* null, i8** %61, align 8, !dbg !1258, !tbaa !1259
  %73 = getelementptr inbounds %struct.halide_buffer_t, %struct.halide_buffer_t* %1, i64 0, i32 6, !dbg !1260
  %74 = load %struct.halide_dimension_t*, %struct.halide_dimension_t** %73, align 8, !dbg !1260, !tbaa !755
  %75 = getelementptr inbounds %struct.halide_dimension_t, %struct.halide_dimension_t* %74, i64 0, i32 1, !dbg !1261
  %76 = load i32, i32* %75, align 4, !dbg !1261, !tbaa !828
  %77 = getelementptr inbounds %struct.halide_dimension_t, %struct.halide_dimension_t* %74, i64 0, i32 2, !dbg !1262
  %78 = load i32, i32* %77, align 4, !dbg !1262, !tbaa !763
  %79 = mul nsw i32 %78, %76, !dbg !1263
  store i32 %79, i32* %63, align 8, !dbg !1264, !tbaa !1265
  %80 = getelementptr inbounds %struct.halide_dimension_t, %struct.halide_dimension_t* %74, i64 1, i32 1, !dbg !1266
  %81 = load i32, i32* %80, align 4, !dbg !1266, !tbaa !828
  store i32 %81, i32* %65, align 4, !dbg !1267, !tbaa !1268
  %82 = getelementptr inbounds %struct.halide_dimension_t, %struct.halide_dimension_t* %74, i64 1, i32 2, !dbg !1269
  %83 = load i32, i32* %82, align 4, !dbg !1269, !tbaa !763
  store i32 %83, i32* %67, align 8, !dbg !1270, !tbaa !1271
  %84 = ptrtoint i8* %50 to i64, !dbg !1272
  store i64 %84, i64* %25, align 8, !dbg !1273, !tbaa !717
  br label %85

85:                                               ; preds = %45, %44
  %86 = phi i32 [ -32, %44 ], [ 0, %45 ], !dbg !1128
  ret i32 %86, !dbg !1274
}

declare !dbg !1275 dso_local void @halide_free(i8*, i8*) local_unnamed_addr #3

; Function Attrs: nounwind
define weak dso_local i32 @halide_hexagon_dma_device_free(i8* %0, %struct.halide_buffer_t* %1) #4 !dbg !1278 {
  call void @llvm.dbg.value(metadata i8* %0, metadata !1280, metadata !DIExpression()), !dbg !1284
  call void @llvm.dbg.value(metadata %struct.halide_buffer_t* %1, metadata !1281, metadata !DIExpression()), !dbg !1284
  call void @llvm.dbg.value(metadata %"class.Halide::Runtime::Internal::(anonymous namespace)::Printer"* undef, metadata !614, metadata !DIExpression()) #10, !dbg !1285
  call void @llvm.dbg.value(metadata i8* %0, metadata !617, metadata !DIExpression()) #10, !dbg !1285
  call void @llvm.dbg.value(metadata i8* null, metadata !618, metadata !DIExpression()) #10, !dbg !1285
  %3 = tail call i8* @malloc(i64 1024) #8, !dbg !1287
  %4 = icmp eq i8* %3, null, !dbg !1288
  br i1 %4, label %7, label %5, !dbg !1289

5:                                                ; preds = %2
  %6 = getelementptr inbounds i8, i8* %3, i64 1023, !dbg !1290
  store i8 0, i8* %6, align 1, !dbg !1291, !tbaa !653
  br label %7, !dbg !1292

7:                                                ; preds = %2, %5
  %8 = phi i8* [ %6, %5 ], [ null, %2 ], !dbg !1293
  call void @llvm.dbg.value(metadata %"class.Halide::Runtime::Internal::(anonymous namespace)::Printer"* undef, metadata !631, metadata !DIExpression()) #10, !dbg !1294
  call void @llvm.dbg.value(metadata i8* getelementptr inbounds ([56 x i8], [56 x i8]* @.str.7, i64 0, i64 0), metadata !634, metadata !DIExpression()) #10, !dbg !1294
  %9 = tail call i8* @halide_string_to_string(i8* %3, i8* %8, i8* nonnull getelementptr inbounds ([56 x i8], [56 x i8]* @.str.7, i64 0, i64 0)) #8, !dbg !1296
  call void @llvm.dbg.value(metadata %"class.Halide::Runtime::Internal::(anonymous namespace)::Printer"* undef, metadata !911, metadata !DIExpression()) #10, !dbg !1297
  call void @llvm.dbg.value(metadata i8* %0, metadata !914, metadata !DIExpression()) #10, !dbg !1297
  %10 = tail call i8* @halide_pointer_to_string(i8* %9, i8* %8, i8* %0) #8, !dbg !1299
  call void @llvm.dbg.value(metadata %"class.Halide::Runtime::Internal::(anonymous namespace)::Printer"* undef, metadata !631, metadata !DIExpression()) #10, !dbg !1300
  call void @llvm.dbg.value(metadata i8* getelementptr inbounds ([8 x i8], [8 x i8]* @.str.2, i64 0, i64 0), metadata !634, metadata !DIExpression()) #10, !dbg !1300
  %11 = tail call i8* @halide_string_to_string(i8* %10, i8* %8, i8* nonnull getelementptr inbounds ([8 x i8], [8 x i8]* @.str.2, i64 0, i64 0)) #8, !dbg !1302
  call void @llvm.dbg.value(metadata %"class.Halide::Runtime::Internal::(anonymous namespace)::Printer"* undef, metadata !921, metadata !DIExpression()) #10, !dbg !1303
  call void @llvm.dbg.value(metadata %struct.halide_buffer_t* %1, metadata !924, metadata !DIExpression()) #10, !dbg !1303
  %12 = tail call i8* @halide_buffer_to_string(i8* %11, i8* %8, %struct.halide_buffer_t* nonnull %1) #8, !dbg !1305
  call void @llvm.dbg.value(metadata %"class.Halide::Runtime::Internal::(anonymous namespace)::Printer"* undef, metadata !631, metadata !DIExpression()) #10, !dbg !1306
  call void @llvm.dbg.value(metadata i8* getelementptr inbounds ([3 x i8], [3 x i8]* @.str.3, i64 0, i64 0), metadata !634, metadata !DIExpression()) #10, !dbg !1306
  %13 = tail call i8* @halide_string_to_string(i8* %12, i8* %8, i8* nonnull getelementptr inbounds ([3 x i8], [3 x i8]* @.str.3, i64 0, i64 0)) #8, !dbg !1308
  call void @llvm.dbg.value(metadata %"class.Halide::Runtime::Internal::(anonymous namespace)::Printer"* undef, metadata !640, metadata !DIExpression()) #10, !dbg !1309
  br i1 %4, label %14, label %15, !dbg !1311

14:                                               ; preds = %7
  tail call void @halide_error(i8* %0, i8* getelementptr inbounds ([35 x i8], [35 x i8]* @.str.105, i64 0, i64 0)) #8, !dbg !1312
  br label %21, !dbg !1313

15:                                               ; preds = %7
  call void @llvm.dbg.value(metadata %"class.Halide::Runtime::Internal::(anonymous namespace)::Printer"* undef, metadata !654, metadata !DIExpression()) #10, !dbg !1314
  %16 = ptrtoint i8* %13 to i64, !dbg !1316
  %17 = ptrtoint i8* %3 to i64, !dbg !1316
  %18 = add i64 %16, 1, !dbg !1316
  %19 = sub i64 %18, %17, !dbg !1317
  %20 = tail call i32 @halide_msan_annotate_memory_is_initialized(i8* %0, i8* nonnull %3, i64 %19) #8, !dbg !1318
  tail call void @halide_print(i8* %0, i8* nonnull %3) #8, !dbg !1319
  br label %21

21:                                               ; preds = %14, %15
  call void @free(i8* %3) #8, !dbg !1320
  %22 = getelementptr inbounds %struct.halide_buffer_t, %struct.halide_buffer_t* %1, i64 0, i32 0, !dbg !1321
  %23 = load i64, i64* %22, align 8, !dbg !1321, !tbaa !717
  %24 = inttoptr i64 %23 to %"struct.Halide::Runtime::Internal::HexagonDma::dma_device_handle"*, !dbg !1322
  call void @llvm.dbg.value(metadata %"struct.Halide::Runtime::Internal::HexagonDma::dma_device_handle"* %24, metadata !1282, metadata !DIExpression()), !dbg !1284
  %25 = getelementptr inbounds %"struct.Halide::Runtime::Internal::HexagonDma::dma_device_handle", %"struct.Halide::Runtime::Internal::HexagonDma::dma_device_handle"* %24, i64 0, i32 0, !dbg !1323
  %26 = load i8*, i8** %25, align 8, !dbg !1323, !tbaa !1257
  call void @llvm.dbg.value(metadata i8* %26, metadata !1283, metadata !DIExpression()), !dbg !1284
  %27 = call i32 @halide_hexagon_dma_device_detach_native(i8* %0, %struct.halide_buffer_t* nonnull %1) #9, !dbg !1324
  call void @halide_free(i8* %0, i8* %26) #8, !dbg !1325
  call void @llvm.dbg.value(metadata %struct.halide_buffer_t* %1, metadata !1326, metadata !DIExpression()), !dbg !1330
  call void @llvm.dbg.value(metadata i1 false, metadata !1329, metadata !DIExpression(DW_OP_LLVM_convert, 1, DW_ATE_unsigned, DW_OP_LLVM_convert, 8, DW_ATE_unsigned, DW_OP_stack_value)), !dbg !1330
  call void @llvm.dbg.value(metadata %struct.halide_buffer_t* %1, metadata !1332, metadata !DIExpression()), !dbg !1337
  call void @llvm.dbg.value(metadata i32 2, metadata !1335, metadata !DIExpression()), !dbg !1337
  call void @llvm.dbg.value(metadata i1 false, metadata !1336, metadata !DIExpression(DW_OP_LLVM_convert, 1, DW_ATE_unsigned, DW_OP_LLVM_convert, 8, DW_ATE_unsigned, DW_OP_stack_value)), !dbg !1337
  %28 = getelementptr inbounds %struct.halide_buffer_t, %struct.halide_buffer_t* %1, i64 0, i32 3, !dbg !1339
  %29 = load i64, i64* %28, align 8, !dbg !1342, !tbaa !1343
  %30 = and i64 %29, -3, !dbg !1342
  store i64 %30, i64* %28, align 8, !dbg !1342, !tbaa !1343
  ret i32 0, !dbg !1344
}

; Function Attrs: nounwind
define weak dso_local i32 @halide_hexagon_dma_device_detach_native(i8* %0, %struct.halide_buffer_t* %1) #4 !dbg !1345 {
  call void @llvm.dbg.value(metadata i8* %0, metadata !1347, metadata !DIExpression()), !dbg !1350
  call void @llvm.dbg.value(metadata %struct.halide_buffer_t* %1, metadata !1348, metadata !DIExpression()), !dbg !1350
  call void @llvm.dbg.value(metadata %"class.Halide::Runtime::Internal::(anonymous namespace)::Printer"* undef, metadata !614, metadata !DIExpression()) #10, !dbg !1351
  call void @llvm.dbg.value(metadata i8* %0, metadata !617, metadata !DIExpression()) #10, !dbg !1351
  call void @llvm.dbg.value(metadata i8* null, metadata !618, metadata !DIExpression()) #10, !dbg !1351
  %3 = tail call i8* @malloc(i64 1024) #8, !dbg !1353
  %4 = icmp eq i8* %3, null, !dbg !1354
  br i1 %4, label %7, label %5, !dbg !1355

5:                                                ; preds = %2
  %6 = getelementptr inbounds i8, i8* %3, i64 1023, !dbg !1356
  store i8 0, i8* %6, align 1, !dbg !1357, !tbaa !653
  br label %7, !dbg !1358

7:                                                ; preds = %2, %5
  %8 = phi i8* [ %6, %5 ], [ null, %2 ], !dbg !1359
  call void @llvm.dbg.value(metadata %"class.Halide::Runtime::Internal::(anonymous namespace)::Printer"* undef, metadata !631, metadata !DIExpression()) #10, !dbg !1360
  call void @llvm.dbg.value(metadata i8* getelementptr inbounds ([65 x i8], [65 x i8]* @.str.54, i64 0, i64 0), metadata !634, metadata !DIExpression()) #10, !dbg !1360
  %9 = tail call i8* @halide_string_to_string(i8* %3, i8* %8, i8* nonnull getelementptr inbounds ([65 x i8], [65 x i8]* @.str.54, i64 0, i64 0)) #8, !dbg !1362
  call void @llvm.dbg.value(metadata %"class.Halide::Runtime::Internal::(anonymous namespace)::Printer"* undef, metadata !911, metadata !DIExpression()) #10, !dbg !1363
  call void @llvm.dbg.value(metadata i8* %0, metadata !914, metadata !DIExpression()) #10, !dbg !1363
  %10 = tail call i8* @halide_pointer_to_string(i8* %9, i8* %8, i8* %0) #8, !dbg !1365
  call void @llvm.dbg.value(metadata %"class.Halide::Runtime::Internal::(anonymous namespace)::Printer"* undef, metadata !631, metadata !DIExpression()) #10, !dbg !1366
  call void @llvm.dbg.value(metadata i8* getelementptr inbounds ([7 x i8], [7 x i8]* @.str.46, i64 0, i64 0), metadata !634, metadata !DIExpression()) #10, !dbg !1366
  %11 = tail call i8* @halide_string_to_string(i8* %10, i8* %8, i8* nonnull getelementptr inbounds ([7 x i8], [7 x i8]* @.str.46, i64 0, i64 0)) #8, !dbg !1368
  call void @llvm.dbg.value(metadata %"class.Halide::Runtime::Internal::(anonymous namespace)::Printer"* undef, metadata !921, metadata !DIExpression()) #10, !dbg !1369
  call void @llvm.dbg.value(metadata %struct.halide_buffer_t* %1, metadata !924, metadata !DIExpression()) #10, !dbg !1369
  %12 = tail call i8* @halide_buffer_to_string(i8* %11, i8* %8, %struct.halide_buffer_t* nonnull %1) #8, !dbg !1371
  call void @llvm.dbg.value(metadata %"class.Halide::Runtime::Internal::(anonymous namespace)::Printer"* undef, metadata !631, metadata !DIExpression()) #10, !dbg !1372
  call void @llvm.dbg.value(metadata i8* getelementptr inbounds ([3 x i8], [3 x i8]* @.str.3, i64 0, i64 0), metadata !634, metadata !DIExpression()) #10, !dbg !1372
  %13 = tail call i8* @halide_string_to_string(i8* %12, i8* %8, i8* nonnull getelementptr inbounds ([3 x i8], [3 x i8]* @.str.3, i64 0, i64 0)) #8, !dbg !1374
  call void @llvm.dbg.value(metadata %"class.Halide::Runtime::Internal::(anonymous namespace)::Printer"* undef, metadata !640, metadata !DIExpression()) #10, !dbg !1375
  br i1 %4, label %14, label %15, !dbg !1377

14:                                               ; preds = %7
  tail call void @halide_error(i8* %0, i8* getelementptr inbounds ([35 x i8], [35 x i8]* @.str.105, i64 0, i64 0)) #8, !dbg !1378
  br label %21, !dbg !1379

15:                                               ; preds = %7
  call void @llvm.dbg.value(metadata %"class.Halide::Runtime::Internal::(anonymous namespace)::Printer"* undef, metadata !654, metadata !DIExpression()) #10, !dbg !1380
  %16 = ptrtoint i8* %13 to i64, !dbg !1382
  %17 = ptrtoint i8* %3 to i64, !dbg !1382
  %18 = add i64 %16, 1, !dbg !1382
  %19 = sub i64 %18, %17, !dbg !1383
  %20 = tail call i32 @halide_msan_annotate_memory_is_initialized(i8* %0, i8* nonnull %3, i64 %19) #8, !dbg !1384
  tail call void @halide_print(i8* %0, i8* nonnull %3) #8, !dbg !1385
  br label %21

21:                                               ; preds = %14, %15
  call void @free(i8* %3) #8, !dbg !1386
  %22 = getelementptr inbounds %struct.halide_buffer_t, %struct.halide_buffer_t* %1, i64 0, i32 0, !dbg !1387
  %23 = load i64, i64* %22, align 8, !dbg !1387, !tbaa !717
  %24 = icmp eq i64 %23, 0, !dbg !1389
  br i1 %24, label %25, label %39, !dbg !1390

25:                                               ; preds = %21
  call void @llvm.dbg.value(metadata %"class.Halide::Runtime::Internal::(anonymous namespace)::Printer.0"* undef, metadata !1051, metadata !DIExpression()) #10, !dbg !1391
  call void @llvm.dbg.value(metadata i8* %0, metadata !1054, metadata !DIExpression()) #10, !dbg !1391
  call void @llvm.dbg.value(metadata i8* null, metadata !1055, metadata !DIExpression()) #10, !dbg !1391
  %26 = call i8* @malloc(i64 1024) #8, !dbg !1394
  %27 = icmp eq i8* %26, null, !dbg !1395
  br i1 %27, label %28, label %30, !dbg !1396

28:                                               ; preds = %25
  call void @llvm.dbg.value(metadata %"class.Halide::Runtime::Internal::(anonymous namespace)::Printer.0"* undef, metadata !1068, metadata !DIExpression()) #10, !dbg !1397
  call void @llvm.dbg.value(metadata i8* getelementptr inbounds ([74 x i8], [74 x i8]* @.str.55, i64 0, i64 0), metadata !1071, metadata !DIExpression()) #10, !dbg !1397
  %29 = call i8* @halide_string_to_string(i8* %26, i8* null, i8* nonnull getelementptr inbounds ([74 x i8], [74 x i8]* @.str.55, i64 0, i64 0)) #8, !dbg !1399
  call void @llvm.dbg.value(metadata %"class.Halide::Runtime::Internal::(anonymous namespace)::Printer.0"* undef, metadata !1077, metadata !DIExpression()) #10, !dbg !1400
  call void @halide_error(i8* %0, i8* getelementptr inbounds ([35 x i8], [35 x i8]* @.str.105, i64 0, i64 0)) #8, !dbg !1402
  br label %38, !dbg !1403

30:                                               ; preds = %25
  %31 = getelementptr inbounds i8, i8* %26, i64 1023, !dbg !1404
  store i8 0, i8* %31, align 1, !dbg !1405, !tbaa !653
  call void @llvm.dbg.value(metadata %"class.Halide::Runtime::Internal::(anonymous namespace)::Printer.0"* undef, metadata !1068, metadata !DIExpression()) #10, !dbg !1397
  call void @llvm.dbg.value(metadata i8* getelementptr inbounds ([74 x i8], [74 x i8]* @.str.55, i64 0, i64 0), metadata !1071, metadata !DIExpression()) #10, !dbg !1397
  %32 = call i8* @halide_string_to_string(i8* nonnull %26, i8* nonnull %31, i8* nonnull getelementptr inbounds ([74 x i8], [74 x i8]* @.str.55, i64 0, i64 0)) #8, !dbg !1399
  call void @llvm.dbg.value(metadata %"class.Halide::Runtime::Internal::(anonymous namespace)::Printer.0"* undef, metadata !1077, metadata !DIExpression()) #10, !dbg !1400
  call void @llvm.dbg.value(metadata %"class.Halide::Runtime::Internal::(anonymous namespace)::Printer.0"* undef, metadata !1090, metadata !DIExpression()) #10, !dbg !1406
  %33 = ptrtoint i8* %32 to i64, !dbg !1408
  %34 = ptrtoint i8* %26 to i64, !dbg !1408
  %35 = add i64 %33, 1, !dbg !1408
  %36 = sub i64 %35, %34, !dbg !1409
  %37 = call i32 @halide_msan_annotate_memory_is_initialized(i8* %0, i8* nonnull %26, i64 %36) #8, !dbg !1410
  call void @halide_error(i8* %0, i8* nonnull %26) #8, !dbg !1411
  br label %38

38:                                               ; preds = %30, %28
  call void @free(i8* %26) #8, !dbg !1412
  br label %53, !dbg !1413

39:                                               ; preds = %21
  %40 = getelementptr inbounds %struct.halide_buffer_t, %struct.halide_buffer_t* %1, i64 0, i32 1, !dbg !1414
  %41 = load %struct.halide_device_interface_t*, %struct.halide_device_interface_t** %40, align 8, !dbg !1414, !tbaa !1210
  %42 = icmp eq %struct.halide_device_interface_t* %41, @_ZN6Halide7Runtime8Internal10HexagonDma28hexagon_dma_device_interfaceE, !dbg !1414
  br i1 %42, label %45, label %43, !dbg !1417

43:                                               ; preds = %39
  call void @halide_print(i8* %0, i8* getelementptr inbounds ([153 x i8], [153 x i8]* @.str.56, i64 0, i64 0)) #8, !dbg !1418
  call void @abort() #8, !dbg !1418
  %44 = load i64, i64* %22, align 8, !dbg !1420, !tbaa !717
  br label %45, !dbg !1418

45:                                               ; preds = %39, %43
  %46 = phi i64 [ %23, %39 ], [ %44, %43 ], !dbg !1420
  %47 = inttoptr i64 %46 to i8*, !dbg !1421
  call void @llvm.dbg.value(metadata i8* %47, metadata !1349, metadata !DIExpression()), !dbg !1350
  call void @free(i8* %47) #8, !dbg !1422
  %48 = load %struct.halide_device_interface_t*, %struct.halide_device_interface_t** %40, align 8, !dbg !1423, !tbaa !1210
  %49 = getelementptr inbounds %struct.halide_device_interface_t, %struct.halide_device_interface_t* %48, i64 0, i32 15, !dbg !1424
  %50 = load %struct.halide_device_interface_impl_t*, %struct.halide_device_interface_impl_t** %49, align 8, !dbg !1424, !tbaa !1212
  %51 = getelementptr inbounds %struct.halide_device_interface_impl_t, %struct.halide_device_interface_impl_t* %50, i64 0, i32 1, !dbg !1425
  %52 = load void ()*, void ()** %51, align 8, !dbg !1425, !tbaa !1426
  call void %52() #8, !dbg !1427
  store i64 0, i64* %22, align 8, !dbg !1428, !tbaa !717
  store %struct.halide_device_interface_t* null, %struct.halide_device_interface_t** %40, align 8, !dbg !1429, !tbaa !1210
  br label %53

53:                                               ; preds = %45, %38
  %54 = phi i32 [ -33, %38 ], [ 0, %45 ], !dbg !1350
  ret i32 %54, !dbg !1430
}

; Function Attrs: nounwind
define weak dso_local i32 @halide_hexagon_dma_allocate_engine(i8* %0, i8** %1) local_unnamed_addr #4 !dbg !1431 {
  call void @llvm.dbg.value(metadata i8* %0, metadata !1436, metadata !DIExpression()), !dbg !1438
  call void @llvm.dbg.value(metadata i8** %1, metadata !1437, metadata !DIExpression()), !dbg !1438
  call void @llvm.dbg.value(metadata %"class.Halide::Runtime::Internal::(anonymous namespace)::Printer"* undef, metadata !614, metadata !DIExpression()) #10, !dbg !1439
  call void @llvm.dbg.value(metadata i8* %0, metadata !617, metadata !DIExpression()) #10, !dbg !1439
  call void @llvm.dbg.value(metadata i8* null, metadata !618, metadata !DIExpression()) #10, !dbg !1439
  %3 = tail call i8* @malloc(i64 1024) #8, !dbg !1441
  %4 = icmp eq i8* %3, null, !dbg !1442
  br i1 %4, label %7, label %5, !dbg !1443

5:                                                ; preds = %2
  %6 = getelementptr inbounds i8, i8* %3, i64 1023, !dbg !1444
  store i8 0, i8* %6, align 1, !dbg !1445, !tbaa !653
  br label %7, !dbg !1446

7:                                                ; preds = %2, %5
  %8 = phi i8* [ %6, %5 ], [ null, %2 ], !dbg !1447
  call void @llvm.dbg.value(metadata %"class.Halide::Runtime::Internal::(anonymous namespace)::Printer"* undef, metadata !631, metadata !DIExpression()) #10, !dbg !1448
  call void @llvm.dbg.value(metadata i8* getelementptr inbounds ([60 x i8], [60 x i8]* @.str.8, i64 0, i64 0), metadata !634, metadata !DIExpression()) #10, !dbg !1448
  %9 = tail call i8* @halide_string_to_string(i8* %3, i8* %8, i8* nonnull getelementptr inbounds ([60 x i8], [60 x i8]* @.str.8, i64 0, i64 0)) #8, !dbg !1450
  call void @llvm.dbg.value(metadata %"class.Halide::Runtime::Internal::(anonymous namespace)::Printer"* undef, metadata !911, metadata !DIExpression()) #10, !dbg !1451
  call void @llvm.dbg.value(metadata i8* %0, metadata !914, metadata !DIExpression()) #10, !dbg !1451
  %10 = tail call i8* @halide_pointer_to_string(i8* %9, i8* %8, i8* %0) #8, !dbg !1453
  call void @llvm.dbg.value(metadata %"class.Halide::Runtime::Internal::(anonymous namespace)::Printer"* undef, metadata !631, metadata !DIExpression()) #10, !dbg !1454
  call void @llvm.dbg.value(metadata i8* getelementptr inbounds ([3 x i8], [3 x i8]* @.str.3, i64 0, i64 0), metadata !634, metadata !DIExpression()) #10, !dbg !1454
  %11 = tail call i8* @halide_string_to_string(i8* %10, i8* %8, i8* nonnull getelementptr inbounds ([3 x i8], [3 x i8]* @.str.3, i64 0, i64 0)) #8, !dbg !1456
  call void @llvm.dbg.value(metadata %"class.Halide::Runtime::Internal::(anonymous namespace)::Printer"* undef, metadata !640, metadata !DIExpression()) #10, !dbg !1457
  br i1 %4, label %12, label %13, !dbg !1459

12:                                               ; preds = %7
  tail call void @halide_error(i8* %0, i8* getelementptr inbounds ([35 x i8], [35 x i8]* @.str.105, i64 0, i64 0)) #8, !dbg !1460
  br label %19, !dbg !1461

13:                                               ; preds = %7
  call void @llvm.dbg.value(metadata %"class.Halide::Runtime::Internal::(anonymous namespace)::Printer"* undef, metadata !654, metadata !DIExpression()) #10, !dbg !1462
  %14 = ptrtoint i8* %11 to i64, !dbg !1464
  %15 = ptrtoint i8* %3 to i64, !dbg !1464
  %16 = add i64 %14, 1, !dbg !1464
  %17 = sub i64 %16, %15, !dbg !1465
  %18 = tail call i32 @halide_msan_annotate_memory_is_initialized(i8* %0, i8* nonnull %3, i64 %17) #8, !dbg !1466
  tail call void @halide_print(i8* %0, i8* nonnull %3) #8, !dbg !1467
  br label %19

19:                                               ; preds = %13, %12
  tail call void @free(i8* %3) #8, !dbg !1468
  %20 = icmp eq i8** %1, null, !dbg !1469
  br i1 %20, label %21, label %22, !dbg !1472

21:                                               ; preds = %19
  tail call void @halide_print(i8* %0, i8* getelementptr inbounds ([109 x i8], [109 x i8]* @.str.9, i64 0, i64 0)) #8, !dbg !1473
  tail call void @abort() #8, !dbg !1473
  br label %22, !dbg !1473

22:                                               ; preds = %19, %21
  call void @llvm.dbg.value(metadata %"class.Halide::Runtime::Internal::(anonymous namespace)::Printer"* undef, metadata !614, metadata !DIExpression()) #10, !dbg !1475
  call void @llvm.dbg.value(metadata i8* %0, metadata !617, metadata !DIExpression()) #10, !dbg !1475
  call void @llvm.dbg.value(metadata i8* null, metadata !618, metadata !DIExpression()) #10, !dbg !1475
  %23 = tail call i8* @malloc(i64 1024) #8, !dbg !1477
  %24 = icmp eq i8* %23, null, !dbg !1478
  br i1 %24, label %25, label %27, !dbg !1479

25:                                               ; preds = %22
  call void @llvm.dbg.value(metadata %"class.Halide::Runtime::Internal::(anonymous namespace)::Printer"* undef, metadata !631, metadata !DIExpression()) #10, !dbg !1480
  call void @llvm.dbg.value(metadata i8* getelementptr inbounds ([32 x i8], [32 x i8]* @.str.10, i64 0, i64 0), metadata !634, metadata !DIExpression()) #10, !dbg !1480
  %26 = tail call i8* @halide_string_to_string(i8* %23, i8* null, i8* nonnull getelementptr inbounds ([32 x i8], [32 x i8]* @.str.10, i64 0, i64 0)) #8, !dbg !1482
  call void @llvm.dbg.value(metadata %"class.Halide::Runtime::Internal::(anonymous namespace)::Printer"* undef, metadata !640, metadata !DIExpression()) #10, !dbg !1483
  tail call void @halide_error(i8* %0, i8* getelementptr inbounds ([35 x i8], [35 x i8]* @.str.105, i64 0, i64 0)) #8, !dbg !1485
  br label %35, !dbg !1486

27:                                               ; preds = %22
  %28 = getelementptr inbounds i8, i8* %23, i64 1023, !dbg !1487
  store i8 0, i8* %28, align 1, !dbg !1488, !tbaa !653
  call void @llvm.dbg.value(metadata %"class.Halide::Runtime::Internal::(anonymous namespace)::Printer"* undef, metadata !631, metadata !DIExpression()) #10, !dbg !1480
  call void @llvm.dbg.value(metadata i8* getelementptr inbounds ([32 x i8], [32 x i8]* @.str.10, i64 0, i64 0), metadata !634, metadata !DIExpression()) #10, !dbg !1480
  %29 = tail call i8* @halide_string_to_string(i8* nonnull %23, i8* nonnull %28, i8* nonnull getelementptr inbounds ([32 x i8], [32 x i8]* @.str.10, i64 0, i64 0)) #8, !dbg !1482
  call void @llvm.dbg.value(metadata %"class.Halide::Runtime::Internal::(anonymous namespace)::Printer"* undef, metadata !640, metadata !DIExpression()) #10, !dbg !1483
  call void @llvm.dbg.value(metadata %"class.Halide::Runtime::Internal::(anonymous namespace)::Printer"* undef, metadata !654, metadata !DIExpression()) #10, !dbg !1489
  %30 = ptrtoint i8* %29 to i64, !dbg !1491
  %31 = ptrtoint i8* %23 to i64, !dbg !1491
  %32 = add i64 %30, 1, !dbg !1491
  %33 = sub i64 %32, %31, !dbg !1492
  %34 = tail call i32 @halide_msan_annotate_memory_is_initialized(i8* %0, i8* nonnull %23, i64 %33) #8, !dbg !1493
  tail call void @halide_print(i8* %0, i8* nonnull %23) #8, !dbg !1494
  br label %35

35:                                               ; preds = %27, %25
  tail call void @free(i8* %23) #8, !dbg !1495
  %36 = tail call i8* @halide_hexagon_allocate_dma_resource(i8* %0) #8, !dbg !1496
  store i8* %36, i8** %1, align 8, !dbg !1497, !tbaa !1498
  call void @llvm.dbg.value(metadata %"class.Halide::Runtime::Internal::(anonymous namespace)::Printer"* undef, metadata !614, metadata !DIExpression()) #10, !dbg !1499
  call void @llvm.dbg.value(metadata i8* %0, metadata !617, metadata !DIExpression()) #10, !dbg !1499
  call void @llvm.dbg.value(metadata i8* null, metadata !618, metadata !DIExpression()) #10, !dbg !1499
  %37 = tail call i8* @malloc(i64 1024) #8, !dbg !1501
  %38 = icmp eq i8* %37, null, !dbg !1502
  br i1 %38, label %41, label %39, !dbg !1503

39:                                               ; preds = %35
  %40 = getelementptr inbounds i8, i8* %37, i64 1023, !dbg !1504
  store i8 0, i8* %40, align 1, !dbg !1505, !tbaa !653
  br label %41, !dbg !1506

41:                                               ; preds = %35, %39
  %42 = phi i8* [ %40, %39 ], [ null, %35 ], !dbg !1507
  call void @llvm.dbg.value(metadata %"class.Halide::Runtime::Internal::(anonymous namespace)::Printer"* undef, metadata !631, metadata !DIExpression()) #10, !dbg !1508
  call void @llvm.dbg.value(metadata i8* getelementptr inbounds ([9 x i8], [9 x i8]* @.str.11, i64 0, i64 0), metadata !634, metadata !DIExpression()) #10, !dbg !1508
  %43 = tail call i8* @halide_string_to_string(i8* %37, i8* %42, i8* nonnull getelementptr inbounds ([9 x i8], [9 x i8]* @.str.11, i64 0, i64 0)) #8, !dbg !1510
  %44 = bitcast i8** %1 to i8*, !dbg !1511
  call void @llvm.dbg.value(metadata %"class.Halide::Runtime::Internal::(anonymous namespace)::Printer"* undef, metadata !911, metadata !DIExpression()) #10, !dbg !1512
  call void @llvm.dbg.value(metadata i8* %44, metadata !914, metadata !DIExpression()) #10, !dbg !1512
  %45 = tail call i8* @halide_pointer_to_string(i8* %43, i8* %42, i8* nonnull %44) #8, !dbg !1514
  call void @llvm.dbg.value(metadata %"class.Halide::Runtime::Internal::(anonymous namespace)::Printer"* undef, metadata !631, metadata !DIExpression()) #10, !dbg !1515
  call void @llvm.dbg.value(metadata i8* getelementptr inbounds ([2 x i8], [2 x i8]* @.str.12, i64 0, i64 0), metadata !634, metadata !DIExpression()) #10, !dbg !1515
  %46 = tail call i8* @halide_string_to_string(i8* %45, i8* %42, i8* nonnull getelementptr inbounds ([2 x i8], [2 x i8]* @.str.12, i64 0, i64 0)) #8, !dbg !1517
  call void @llvm.dbg.value(metadata %"class.Halide::Runtime::Internal::(anonymous namespace)::Printer"* undef, metadata !640, metadata !DIExpression()) #10, !dbg !1518
  br i1 %38, label %47, label %48, !dbg !1520

47:                                               ; preds = %41
  tail call void @halide_error(i8* %0, i8* getelementptr inbounds ([35 x i8], [35 x i8]* @.str.105, i64 0, i64 0)) #8, !dbg !1521
  br label %54, !dbg !1522

48:                                               ; preds = %41
  call void @llvm.dbg.value(metadata %"class.Halide::Runtime::Internal::(anonymous namespace)::Printer"* undef, metadata !654, metadata !DIExpression()) #10, !dbg !1523
  %49 = ptrtoint i8* %46 to i64, !dbg !1525
  %50 = ptrtoint i8* %37 to i64, !dbg !1525
  %51 = add i64 %49, 1, !dbg !1525
  %52 = sub i64 %51, %50, !dbg !1526
  %53 = tail call i32 @halide_msan_annotate_memory_is_initialized(i8* %0, i8* nonnull %37, i64 %52) #8, !dbg !1527
  tail call void @halide_print(i8* %0, i8* nonnull %37) #8, !dbg !1528
  br label %54

54:                                               ; preds = %48, %47
  tail call void @free(i8* %37) #8, !dbg !1529
  %55 = load i8*, i8** %1, align 8, !dbg !1530, !tbaa !1498
  %56 = icmp eq i8* %55, null, !dbg !1530
  br i1 %56, label %57, label %71, !dbg !1532

57:                                               ; preds = %54
  call void @llvm.dbg.value(metadata %"class.Halide::Runtime::Internal::(anonymous namespace)::Printer"* undef, metadata !614, metadata !DIExpression()) #10, !dbg !1533
  call void @llvm.dbg.value(metadata i8* %0, metadata !617, metadata !DIExpression()) #10, !dbg !1533
  call void @llvm.dbg.value(metadata i8* null, metadata !618, metadata !DIExpression()) #10, !dbg !1533
  %58 = tail call i8* @malloc(i64 1024) #8, !dbg !1536
  %59 = icmp eq i8* %58, null, !dbg !1537
  br i1 %59, label %60, label %62, !dbg !1538

60:                                               ; preds = %57
  call void @llvm.dbg.value(metadata %"class.Halide::Runtime::Internal::(anonymous namespace)::Printer"* undef, metadata !631, metadata !DIExpression()) #10, !dbg !1539
  call void @llvm.dbg.value(metadata i8* getelementptr inbounds ([33 x i8], [33 x i8]* @.str.13, i64 0, i64 0), metadata !634, metadata !DIExpression()) #10, !dbg !1539
  %61 = tail call i8* @halide_string_to_string(i8* %58, i8* null, i8* nonnull getelementptr inbounds ([33 x i8], [33 x i8]* @.str.13, i64 0, i64 0)) #8, !dbg !1541
  call void @llvm.dbg.value(metadata %"class.Halide::Runtime::Internal::(anonymous namespace)::Printer"* undef, metadata !640, metadata !DIExpression()) #10, !dbg !1542
  tail call void @halide_error(i8* %0, i8* getelementptr inbounds ([35 x i8], [35 x i8]* @.str.105, i64 0, i64 0)) #8, !dbg !1544
  br label %70, !dbg !1545

62:                                               ; preds = %57
  %63 = getelementptr inbounds i8, i8* %58, i64 1023, !dbg !1546
  store i8 0, i8* %63, align 1, !dbg !1547, !tbaa !653
  call void @llvm.dbg.value(metadata %"class.Halide::Runtime::Internal::(anonymous namespace)::Printer"* undef, metadata !631, metadata !DIExpression()) #10, !dbg !1539
  call void @llvm.dbg.value(metadata i8* getelementptr inbounds ([33 x i8], [33 x i8]* @.str.13, i64 0, i64 0), metadata !634, metadata !DIExpression()) #10, !dbg !1539
  %64 = tail call i8* @halide_string_to_string(i8* nonnull %58, i8* nonnull %63, i8* nonnull getelementptr inbounds ([33 x i8], [33 x i8]* @.str.13, i64 0, i64 0)) #8, !dbg !1541
  call void @llvm.dbg.value(metadata %"class.Halide::Runtime::Internal::(anonymous namespace)::Printer"* undef, metadata !640, metadata !DIExpression()) #10, !dbg !1542
  call void @llvm.dbg.value(metadata %"class.Halide::Runtime::Internal::(anonymous namespace)::Printer"* undef, metadata !654, metadata !DIExpression()) #10, !dbg !1548
  %65 = ptrtoint i8* %64 to i64, !dbg !1550
  %66 = ptrtoint i8* %58 to i64, !dbg !1550
  %67 = add i64 %65, 1, !dbg !1550
  %68 = sub i64 %67, %66, !dbg !1551
  %69 = tail call i32 @halide_msan_annotate_memory_is_initialized(i8* %0, i8* nonnull %58, i64 %68) #8, !dbg !1552
  tail call void @halide_print(i8* %0, i8* nonnull %58) #8, !dbg !1553
  br label %70

70:                                               ; preds = %62, %60
  tail call void @free(i8* %58) #8, !dbg !1554
  br label %71, !dbg !1555

71:                                               ; preds = %54, %70
  %72 = phi i32 [ -1, %70 ], [ 0, %54 ], !dbg !1438
  ret i32 %72, !dbg !1556
}

declare !dbg !1557 extern_weak dso_local i8* @halide_hexagon_allocate_dma_resource(i8*) local_unnamed_addr #3

; Function Attrs: nounwind
define weak dso_local i32 @halide_hexagon_dma_deallocate_engine(i8* %0, i8* %1) local_unnamed_addr #4 !dbg !1561 {
  call void @llvm.dbg.value(metadata i8* %0, metadata !1565, metadata !DIExpression()), !dbg !1568
  call void @llvm.dbg.value(metadata i8* %1, metadata !1566, metadata !DIExpression()), !dbg !1568
  call void @llvm.dbg.value(metadata %"class.Halide::Runtime::Internal::(anonymous namespace)::Printer"* undef, metadata !614, metadata !DIExpression()) #10, !dbg !1569
  call void @llvm.dbg.value(metadata i8* %0, metadata !617, metadata !DIExpression()) #10, !dbg !1569
  call void @llvm.dbg.value(metadata i8* null, metadata !618, metadata !DIExpression()) #10, !dbg !1569
  %3 = tail call i8* @malloc(i64 1024) #8, !dbg !1571
  %4 = icmp eq i8* %3, null, !dbg !1572
  br i1 %4, label %7, label %5, !dbg !1573

5:                                                ; preds = %2
  %6 = getelementptr inbounds i8, i8* %3, i64 1023, !dbg !1574
  store i8 0, i8* %6, align 1, !dbg !1575, !tbaa !653
  br label %7, !dbg !1576

7:                                                ; preds = %2, %5
  %8 = phi i8* [ %6, %5 ], [ null, %2 ], !dbg !1577
  call void @llvm.dbg.value(metadata %"class.Halide::Runtime::Internal::(anonymous namespace)::Printer"* undef, metadata !631, metadata !DIExpression()) #10, !dbg !1578
  call void @llvm.dbg.value(metadata i8* getelementptr inbounds ([62 x i8], [62 x i8]* @.str.14, i64 0, i64 0), metadata !634, metadata !DIExpression()) #10, !dbg !1578
  %9 = tail call i8* @halide_string_to_string(i8* %3, i8* %8, i8* nonnull getelementptr inbounds ([62 x i8], [62 x i8]* @.str.14, i64 0, i64 0)) #8, !dbg !1580
  call void @llvm.dbg.value(metadata %"class.Halide::Runtime::Internal::(anonymous namespace)::Printer"* undef, metadata !911, metadata !DIExpression()) #10, !dbg !1581
  call void @llvm.dbg.value(metadata i8* %0, metadata !914, metadata !DIExpression()) #10, !dbg !1581
  %10 = tail call i8* @halide_pointer_to_string(i8* %9, i8* %8, i8* %0) #8, !dbg !1583
  call void @llvm.dbg.value(metadata %"class.Halide::Runtime::Internal::(anonymous namespace)::Printer"* undef, metadata !631, metadata !DIExpression()) #10, !dbg !1584
  call void @llvm.dbg.value(metadata i8* getelementptr inbounds ([15 x i8], [15 x i8]* @.str.15, i64 0, i64 0), metadata !634, metadata !DIExpression()) #10, !dbg !1584
  %11 = tail call i8* @halide_string_to_string(i8* %10, i8* %8, i8* nonnull getelementptr inbounds ([15 x i8], [15 x i8]* @.str.15, i64 0, i64 0)) #8, !dbg !1586
  call void @llvm.dbg.value(metadata %"class.Halide::Runtime::Internal::(anonymous namespace)::Printer"* undef, metadata !911, metadata !DIExpression()) #10, !dbg !1587
  call void @llvm.dbg.value(metadata i8* %1, metadata !914, metadata !DIExpression()) #10, !dbg !1587
  %12 = tail call i8* @halide_pointer_to_string(i8* %11, i8* %8, i8* %1) #8, !dbg !1589
  call void @llvm.dbg.value(metadata %"class.Halide::Runtime::Internal::(anonymous namespace)::Printer"* undef, metadata !631, metadata !DIExpression()) #10, !dbg !1590
  call void @llvm.dbg.value(metadata i8* getelementptr inbounds ([3 x i8], [3 x i8]* @.str.3, i64 0, i64 0), metadata !634, metadata !DIExpression()) #10, !dbg !1590
  %13 = tail call i8* @halide_string_to_string(i8* %12, i8* %8, i8* nonnull getelementptr inbounds ([3 x i8], [3 x i8]* @.str.3, i64 0, i64 0)) #8, !dbg !1592
  call void @llvm.dbg.value(metadata %"class.Halide::Runtime::Internal::(anonymous namespace)::Printer"* undef, metadata !640, metadata !DIExpression()) #10, !dbg !1593
  br i1 %4, label %14, label %15, !dbg !1595

14:                                               ; preds = %7
  tail call void @halide_error(i8* %0, i8* getelementptr inbounds ([35 x i8], [35 x i8]* @.str.105, i64 0, i64 0)) #8, !dbg !1596
  br label %21, !dbg !1597

15:                                               ; preds = %7
  call void @llvm.dbg.value(metadata %"class.Halide::Runtime::Internal::(anonymous namespace)::Printer"* undef, metadata !654, metadata !DIExpression()) #10, !dbg !1598
  %16 = ptrtoint i8* %13 to i64, !dbg !1600
  %17 = ptrtoint i8* %3 to i64, !dbg !1600
  %18 = add i64 %16, 1, !dbg !1600
  %19 = sub i64 %18, %17, !dbg !1601
  %20 = tail call i32 @halide_msan_annotate_memory_is_initialized(i8* %0, i8* nonnull %3, i64 %19) #8, !dbg !1602
  tail call void @halide_print(i8* %0, i8* nonnull %3) #8, !dbg !1603
  br label %21

21:                                               ; preds = %14, %15
  call void @free(i8* %3) #8, !dbg !1604
  %22 = icmp eq i8* %1, null, !dbg !1605
  br i1 %22, label %23, label %24, !dbg !1608

23:                                               ; preds = %21
  call void @halide_print(i8* %0, i8* getelementptr inbounds ([109 x i8], [109 x i8]* @.str.16, i64 0, i64 0)) #8, !dbg !1609
  call void @abort() #8, !dbg !1609
  br label %24, !dbg !1609

24:                                               ; preds = %21, %23
  call void @llvm.dbg.value(metadata i8* undef, metadata !1611, metadata !DIExpression()) #10, !dbg !1633
  call void @llvm.dbg.value(metadata %"struct.Halide::Runtime::Internal::ScopedMutexLock"* undef, metadata !1635, metadata !DIExpression()) #10, !dbg !1640
  call void @llvm.dbg.value(metadata %struct.halide_mutex* @_ZN6Halide7Runtime8Internal10HexagonDma18hexagon_desc_mutexE, metadata !1638, metadata !DIExpression()) #10, !dbg !1640
  call void @llvm.dbg.value(metadata %struct.halide_mutex* @_ZN6Halide7Runtime8Internal10HexagonDma18hexagon_desc_mutexE, metadata !1617, metadata !DIExpression()) #10, !dbg !1633
  call void @halide_mutex_lock(%struct.halide_mutex* nonnull @_ZN6Halide7Runtime8Internal10HexagonDma18hexagon_desc_mutexE) #8, !dbg !1642
  %25 = load %"struct.Halide::Runtime::Internal::HexagonDma::desc_pool"*, %"struct.Halide::Runtime::Internal::HexagonDma::desc_pool"** @_ZN6Halide7Runtime8Internal10HexagonDma13dma_desc_poolE, align 8, !dbg !1644, !tbaa !1498
  call void @llvm.dbg.value(metadata %"struct.Halide::Runtime::Internal::HexagonDma::desc_pool"* %25, metadata !1630, metadata !DIExpression()) #10, !dbg !1633
  %26 = icmp eq %"struct.Halide::Runtime::Internal::HexagonDma::desc_pool"* %25, null, !dbg !1645
  br i1 %26, label %44, label %27, !dbg !1646

27:                                               ; preds = %24, %39
  %28 = phi %"struct.Halide::Runtime::Internal::HexagonDma::desc_pool"* [ %41, %39 ], [ %25, %24 ]
  call void @llvm.dbg.value(metadata %"struct.Halide::Runtime::Internal::HexagonDma::desc_pool"* %28, metadata !1630, metadata !DIExpression()) #10, !dbg !1633
  call void @llvm.dbg.value(metadata %"struct.Halide::Runtime::Internal::HexagonDma::desc_pool"* %28, metadata !1631, metadata !DIExpression()) #10, !dbg !1647
  %29 = getelementptr inbounds %"struct.Halide::Runtime::Internal::HexagonDma::desc_pool", %"struct.Halide::Runtime::Internal::HexagonDma::desc_pool"* %28, i64 0, i32 2, !dbg !1648
  %30 = load %"struct.Halide::Runtime::Internal::HexagonDma::desc_pool"*, %"struct.Halide::Runtime::Internal::HexagonDma::desc_pool"** %29, align 8, !dbg !1648, !tbaa !1649
  call void @llvm.dbg.value(metadata %"struct.Halide::Runtime::Internal::HexagonDma::desc_pool"* %30, metadata !1630, metadata !DIExpression()) #10, !dbg !1633
  %31 = getelementptr inbounds %"struct.Halide::Runtime::Internal::HexagonDma::desc_pool", %"struct.Halide::Runtime::Internal::HexagonDma::desc_pool"* %28, i64 0, i32 0, !dbg !1651
  %32 = load i8*, i8** %31, align 8, !dbg !1651, !tbaa !1653
  %33 = icmp eq i8* %32, null, !dbg !1654
  br i1 %33, label %36, label %34, !dbg !1655

34:                                               ; preds = %27
  %35 = call i32 @HAP_cache_unlock(i8* nonnull %32) #8, !dbg !1656
  br label %36, !dbg !1658

36:                                               ; preds = %34, %27
  %37 = bitcast %"struct.Halide::Runtime::Internal::HexagonDma::desc_pool"* %28 to i8*, !dbg !1659
  call void @free(i8* nonnull %37) #8, !dbg !1660
  call void @llvm.dbg.value(metadata %"struct.Halide::Runtime::Internal::HexagonDma::desc_pool"* %30, metadata !1631, metadata !DIExpression()) #10, !dbg !1647
  %38 = icmp eq %"struct.Halide::Runtime::Internal::HexagonDma::desc_pool"* %30, null, !dbg !1661
  br i1 %38, label %44, label %39, !dbg !1663

39:                                               ; preds = %36
  %40 = getelementptr inbounds %"struct.Halide::Runtime::Internal::HexagonDma::desc_pool", %"struct.Halide::Runtime::Internal::HexagonDma::desc_pool"* %30, i64 0, i32 2, !dbg !1664
  %41 = load %"struct.Halide::Runtime::Internal::HexagonDma::desc_pool"*, %"struct.Halide::Runtime::Internal::HexagonDma::desc_pool"** %40, align 8, !dbg !1664, !tbaa !1649
  call void @llvm.dbg.value(metadata %"struct.Halide::Runtime::Internal::HexagonDma::desc_pool"* %41, metadata !1630, metadata !DIExpression()) #10, !dbg !1633
  %42 = bitcast %"struct.Halide::Runtime::Internal::HexagonDma::desc_pool"* %30 to i8*, !dbg !1666
  call void @free(i8* nonnull %42) #8, !dbg !1667
  %43 = icmp eq %"struct.Halide::Runtime::Internal::HexagonDma::desc_pool"* %41, null, !dbg !1645
  br i1 %43, label %44, label %27, !dbg !1646, !llvm.loop !1668

44:                                               ; preds = %36, %39, %24
  store %"struct.Halide::Runtime::Internal::HexagonDma::desc_pool"* null, %"struct.Halide::Runtime::Internal::HexagonDma::desc_pool"** @_ZN6Halide7Runtime8Internal10HexagonDma13dma_desc_poolE, align 8, !dbg !1670, !tbaa !1498
  call void @llvm.dbg.value(metadata %"struct.Halide::Runtime::Internal::ScopedMutexLock"* undef, metadata !1671, metadata !DIExpression()) #10, !dbg !1674
  call void @halide_mutex_unlock(%struct.halide_mutex* nonnull @_ZN6Halide7Runtime8Internal10HexagonDma18hexagon_desc_mutexE) #8, !dbg !1676
  %45 = call i32 @halide_hexagon_free_dma_resource(i8* %0, i8* %1) #8, !dbg !1678
  call void @llvm.dbg.value(metadata i32 %45, metadata !1567, metadata !DIExpression()), !dbg !1568
  call void @llvm.dbg.value(metadata %"class.Halide::Runtime::Internal::(anonymous namespace)::Printer"* undef, metadata !614, metadata !DIExpression()) #10, !dbg !1679
  call void @llvm.dbg.value(metadata i8* %0, metadata !617, metadata !DIExpression()) #10, !dbg !1679
  call void @llvm.dbg.value(metadata i8* null, metadata !618, metadata !DIExpression()) #10, !dbg !1679
  %46 = call i8* @malloc(i64 1024) #8, !dbg !1681
  %47 = icmp eq i8* %46, null, !dbg !1682
  br i1 %47, label %48, label %50, !dbg !1683

48:                                               ; preds = %44
  call void @llvm.dbg.value(metadata %"class.Halide::Runtime::Internal::(anonymous namespace)::Printer"* undef, metadata !631, metadata !DIExpression()) #10, !dbg !1684
  call void @llvm.dbg.value(metadata i8* getelementptr inbounds ([37 x i8], [37 x i8]* @.str.17, i64 0, i64 0), metadata !634, metadata !DIExpression()) #10, !dbg !1684
  %49 = call i8* @halide_string_to_string(i8* %46, i8* null, i8* nonnull getelementptr inbounds ([37 x i8], [37 x i8]* @.str.17, i64 0, i64 0)) #8, !dbg !1686
  call void @llvm.dbg.value(metadata %"class.Halide::Runtime::Internal::(anonymous namespace)::Printer"* undef, metadata !640, metadata !DIExpression()) #10, !dbg !1687
  call void @halide_error(i8* %0, i8* getelementptr inbounds ([35 x i8], [35 x i8]* @.str.105, i64 0, i64 0)) #8, !dbg !1689
  br label %58, !dbg !1690

50:                                               ; preds = %44
  %51 = getelementptr inbounds i8, i8* %46, i64 1023, !dbg !1691
  store i8 0, i8* %51, align 1, !dbg !1692, !tbaa !653
  call void @llvm.dbg.value(metadata %"class.Halide::Runtime::Internal::(anonymous namespace)::Printer"* undef, metadata !631, metadata !DIExpression()) #10, !dbg !1684
  call void @llvm.dbg.value(metadata i8* getelementptr inbounds ([37 x i8], [37 x i8]* @.str.17, i64 0, i64 0), metadata !634, metadata !DIExpression()) #10, !dbg !1684
  %52 = call i8* @halide_string_to_string(i8* nonnull %46, i8* nonnull %51, i8* nonnull getelementptr inbounds ([37 x i8], [37 x i8]* @.str.17, i64 0, i64 0)) #8, !dbg !1686
  call void @llvm.dbg.value(metadata %"class.Halide::Runtime::Internal::(anonymous namespace)::Printer"* undef, metadata !640, metadata !DIExpression()) #10, !dbg !1687
  call void @llvm.dbg.value(metadata %"class.Halide::Runtime::Internal::(anonymous namespace)::Printer"* undef, metadata !654, metadata !DIExpression()) #10, !dbg !1693
  %53 = ptrtoint i8* %52 to i64, !dbg !1695
  %54 = ptrtoint i8* %46 to i64, !dbg !1695
  %55 = add i64 %53, 1, !dbg !1695
  %56 = sub i64 %55, %54, !dbg !1696
  %57 = call i32 @halide_msan_annotate_memory_is_initialized(i8* %0, i8* nonnull %46, i64 %56) #8, !dbg !1697
  call void @halide_print(i8* %0, i8* nonnull %46) #8, !dbg !1698
  br label %58

58:                                               ; preds = %50, %48
  call void @free(i8* %46) #8, !dbg !1699
  %59 = icmp eq i32 %45, 0, !dbg !1700
  br i1 %59, label %74, label %60, !dbg !1702

60:                                               ; preds = %58
  call void @llvm.dbg.value(metadata %"class.Halide::Runtime::Internal::(anonymous namespace)::Printer"* undef, metadata !614, metadata !DIExpression()) #10, !dbg !1703
  call void @llvm.dbg.value(metadata i8* %0, metadata !617, metadata !DIExpression()) #10, !dbg !1703
  call void @llvm.dbg.value(metadata i8* null, metadata !618, metadata !DIExpression()) #10, !dbg !1703
  %61 = call i8* @malloc(i64 1024) #8, !dbg !1706
  %62 = icmp eq i8* %61, null, !dbg !1707
  br i1 %62, label %63, label %65, !dbg !1708

63:                                               ; preds = %60
  call void @llvm.dbg.value(metadata %"class.Halide::Runtime::Internal::(anonymous namespace)::Printer"* undef, metadata !631, metadata !DIExpression()) #10, !dbg !1709
  call void @llvm.dbg.value(metadata i8* getelementptr inbounds ([38 x i8], [38 x i8]* @.str.18, i64 0, i64 0), metadata !634, metadata !DIExpression()) #10, !dbg !1709
  %64 = call i8* @halide_string_to_string(i8* %61, i8* null, i8* nonnull getelementptr inbounds ([38 x i8], [38 x i8]* @.str.18, i64 0, i64 0)) #8, !dbg !1711
  call void @llvm.dbg.value(metadata %"class.Halide::Runtime::Internal::(anonymous namespace)::Printer"* undef, metadata !640, metadata !DIExpression()) #10, !dbg !1712
  call void @halide_error(i8* %0, i8* getelementptr inbounds ([35 x i8], [35 x i8]* @.str.105, i64 0, i64 0)) #8, !dbg !1714
  br label %73, !dbg !1715

65:                                               ; preds = %60
  %66 = getelementptr inbounds i8, i8* %61, i64 1023, !dbg !1716
  store i8 0, i8* %66, align 1, !dbg !1717, !tbaa !653
  call void @llvm.dbg.value(metadata %"class.Halide::Runtime::Internal::(anonymous namespace)::Printer"* undef, metadata !631, metadata !DIExpression()) #10, !dbg !1709
  call void @llvm.dbg.value(metadata i8* getelementptr inbounds ([38 x i8], [38 x i8]* @.str.18, i64 0, i64 0), metadata !634, metadata !DIExpression()) #10, !dbg !1709
  %67 = call i8* @halide_string_to_string(i8* nonnull %61, i8* nonnull %66, i8* nonnull getelementptr inbounds ([38 x i8], [38 x i8]* @.str.18, i64 0, i64 0)) #8, !dbg !1711
  call void @llvm.dbg.value(metadata %"class.Halide::Runtime::Internal::(anonymous namespace)::Printer"* undef, metadata !640, metadata !DIExpression()) #10, !dbg !1712
  call void @llvm.dbg.value(metadata %"class.Halide::Runtime::Internal::(anonymous namespace)::Printer"* undef, metadata !654, metadata !DIExpression()) #10, !dbg !1718
  %68 = ptrtoint i8* %67 to i64, !dbg !1720
  %69 = ptrtoint i8* %61 to i64, !dbg !1720
  %70 = add i64 %68, 1, !dbg !1720
  %71 = sub i64 %70, %69, !dbg !1721
  %72 = call i32 @halide_msan_annotate_memory_is_initialized(i8* %0, i8* nonnull %61, i64 %71) #8, !dbg !1722
  call void @halide_print(i8* %0, i8* nonnull %61) #8, !dbg !1723
  br label %73

73:                                               ; preds = %65, %63
  call void @free(i8* %61) #8, !dbg !1724
  br label %74, !dbg !1725

74:                                               ; preds = %58, %73
  %75 = phi i32 [ -1, %73 ], [ 0, %58 ], !dbg !1568
  ret i32 %75, !dbg !1726
}

declare !dbg !1727 extern_weak dso_local i32 @halide_hexagon_free_dma_resource(i8*, i8*) local_unnamed_addr #3

; Function Attrs: nounwind
define weak dso_local i32 @halide_hexagon_dma_prepare_for_copy_to_host(i8* %0, %struct.halide_buffer_t* %1, i8* %2, i1 zeroext %3, i32 %4) local_unnamed_addr #4 !dbg !1728 {
  call void @llvm.dbg.value(metadata i8* %0, metadata !1733, metadata !DIExpression()), !dbg !1739
  call void @llvm.dbg.value(metadata %struct.halide_buffer_t* %1, metadata !1734, metadata !DIExpression()), !dbg !1739
  call void @llvm.dbg.value(metadata i8* %2, metadata !1735, metadata !DIExpression()), !dbg !1739
  call void @llvm.dbg.value(metadata i1 %3, metadata !1736, metadata !DIExpression(DW_OP_LLVM_convert, 1, DW_ATE_unsigned, DW_OP_LLVM_convert, 8, DW_ATE_unsigned, DW_OP_stack_value)), !dbg !1739
  call void @llvm.dbg.value(metadata i32 %4, metadata !1737, metadata !DIExpression()), !dbg !1739
  call void @llvm.dbg.value(metadata %"class.Halide::Runtime::Internal::(anonymous namespace)::Printer"* undef, metadata !614, metadata !DIExpression()) #10, !dbg !1740
  call void @llvm.dbg.value(metadata i8* %0, metadata !617, metadata !DIExpression()) #10, !dbg !1740
  call void @llvm.dbg.value(metadata i8* null, metadata !618, metadata !DIExpression()) #10, !dbg !1740
  %6 = tail call i8* @malloc(i64 1024) #8, !dbg !1742
  %7 = icmp eq i8* %6, null, !dbg !1743
  br i1 %7, label %10, label %8, !dbg !1744

8:                                                ; preds = %5
  %9 = getelementptr inbounds i8, i8* %6, i64 1023, !dbg !1745
  store i8 0, i8* %9, align 1, !dbg !1746, !tbaa !653
  br label %10, !dbg !1747

10:                                               ; preds = %5, %8
  %11 = phi i8* [ %9, %8 ], [ null, %5 ], !dbg !1748
  call void @llvm.dbg.value(metadata %"class.Halide::Runtime::Internal::(anonymous namespace)::Printer"* undef, metadata !631, metadata !DIExpression()) #10, !dbg !1749
  call void @llvm.dbg.value(metadata i8* getelementptr inbounds ([69 x i8], [69 x i8]* @.str.19, i64 0, i64 0), metadata !634, metadata !DIExpression()) #10, !dbg !1749
  %12 = tail call i8* @halide_string_to_string(i8* %6, i8* %11, i8* nonnull getelementptr inbounds ([69 x i8], [69 x i8]* @.str.19, i64 0, i64 0)) #8, !dbg !1751
  call void @llvm.dbg.value(metadata %"class.Halide::Runtime::Internal::(anonymous namespace)::Printer"* undef, metadata !911, metadata !DIExpression()) #10, !dbg !1752
  call void @llvm.dbg.value(metadata i8* %0, metadata !914, metadata !DIExpression()) #10, !dbg !1752
  %13 = tail call i8* @halide_pointer_to_string(i8* %12, i8* %11, i8* %0) #8, !dbg !1754
  call void @llvm.dbg.value(metadata %"class.Halide::Runtime::Internal::(anonymous namespace)::Printer"* undef, metadata !631, metadata !DIExpression()) #10, !dbg !1755
  call void @llvm.dbg.value(metadata i8* getelementptr inbounds ([8 x i8], [8 x i8]* @.str.2, i64 0, i64 0), metadata !634, metadata !DIExpression()) #10, !dbg !1755
  %14 = tail call i8* @halide_string_to_string(i8* %13, i8* %11, i8* nonnull getelementptr inbounds ([8 x i8], [8 x i8]* @.str.2, i64 0, i64 0)) #8, !dbg !1757
  call void @llvm.dbg.value(metadata %"class.Halide::Runtime::Internal::(anonymous namespace)::Printer"* undef, metadata !921, metadata !DIExpression()) #10, !dbg !1758
  call void @llvm.dbg.value(metadata %struct.halide_buffer_t* %1, metadata !924, metadata !DIExpression()) #10, !dbg !1758
  %15 = tail call i8* @halide_buffer_to_string(i8* %14, i8* %11, %struct.halide_buffer_t* nonnull %1) #8, !dbg !1760
  call void @llvm.dbg.value(metadata %"class.Halide::Runtime::Internal::(anonymous namespace)::Printer"* undef, metadata !631, metadata !DIExpression()) #10, !dbg !1761
  call void @llvm.dbg.value(metadata i8* getelementptr inbounds ([15 x i8], [15 x i8]* @.str.15, i64 0, i64 0), metadata !634, metadata !DIExpression()) #10, !dbg !1761
  %16 = tail call i8* @halide_string_to_string(i8* %15, i8* %11, i8* nonnull getelementptr inbounds ([15 x i8], [15 x i8]* @.str.15, i64 0, i64 0)) #8, !dbg !1763
  call void @llvm.dbg.value(metadata %"class.Halide::Runtime::Internal::(anonymous namespace)::Printer"* undef, metadata !911, metadata !DIExpression()) #10, !dbg !1764
  call void @llvm.dbg.value(metadata i8* %2, metadata !914, metadata !DIExpression()) #10, !dbg !1764
  %17 = tail call i8* @halide_pointer_to_string(i8* %16, i8* %11, i8* %2) #8, !dbg !1766
  call void @llvm.dbg.value(metadata %"class.Halide::Runtime::Internal::(anonymous namespace)::Printer"* undef, metadata !631, metadata !DIExpression()) #10, !dbg !1767
  call void @llvm.dbg.value(metadata i8* getelementptr inbounds ([3 x i8], [3 x i8]* @.str.3, i64 0, i64 0), metadata !634, metadata !DIExpression()) #10, !dbg !1767
  %18 = tail call i8* @halide_string_to_string(i8* %17, i8* %11, i8* nonnull getelementptr inbounds ([3 x i8], [3 x i8]* @.str.3, i64 0, i64 0)) #8, !dbg !1769
  call void @llvm.dbg.value(metadata %"class.Halide::Runtime::Internal::(anonymous namespace)::Printer"* undef, metadata !640, metadata !DIExpression()) #10, !dbg !1770
  br i1 %7, label %19, label %20, !dbg !1772

19:                                               ; preds = %10
  tail call void @halide_error(i8* %0, i8* getelementptr inbounds ([35 x i8], [35 x i8]* @.str.105, i64 0, i64 0)) #8, !dbg !1773
  br label %26, !dbg !1774

20:                                               ; preds = %10
  call void @llvm.dbg.value(metadata %"class.Halide::Runtime::Internal::(anonymous namespace)::Printer"* undef, metadata !654, metadata !DIExpression()) #10, !dbg !1775
  %21 = ptrtoint i8* %18 to i64, !dbg !1777
  %22 = ptrtoint i8* %6 to i64, !dbg !1777
  %23 = add i64 %21, 1, !dbg !1777
  %24 = sub i64 %23, %22, !dbg !1778
  %25 = tail call i32 @halide_msan_annotate_memory_is_initialized(i8* %0, i8* nonnull %6, i64 %24) #8, !dbg !1779
  tail call void @halide_print(i8* %0, i8* nonnull %6) #8, !dbg !1780
  br label %26

26:                                               ; preds = %19, %20
  call void @free(i8* %6) #8, !dbg !1781
  %27 = call fastcc i32 @_ZN12_GLOBAL__N_129halide_hexagon_get_dma_formatEPv26halide_hexagon_image_fmt_t(i8* %0, i32 %4) #9, !dbg !1782
  call void @llvm.dbg.value(metadata i32 %27, metadata !1738, metadata !DIExpression()), !dbg !1739
  call void @llvm.dbg.value(metadata i8* %0, metadata !1783, metadata !DIExpression()) #10, !dbg !1794
  call void @llvm.dbg.value(metadata %struct.halide_buffer_t* %1, metadata !1788, metadata !DIExpression()) #10, !dbg !1794
  call void @llvm.dbg.value(metadata i8* %2, metadata !1789, metadata !DIExpression()) #10, !dbg !1794
  %28 = zext i1 %3 to i8
  call void @llvm.dbg.value(metadata i8 %28, metadata !1790, metadata !DIExpression()) #10, !dbg !1794
  call void @llvm.dbg.value(metadata i32 %27, metadata !1791, metadata !DIExpression()) #10, !dbg !1794
  call void @llvm.dbg.value(metadata i8 0, metadata !1792, metadata !DIExpression()) #10, !dbg !1794
  %29 = icmp eq i8* %2, null, !dbg !1796
  br i1 %29, label %30, label %31, !dbg !1799

30:                                               ; preds = %26
  call void @halide_print(i8* %0, i8* getelementptr inbounds ([109 x i8], [109 x i8]* @.str.64, i64 0, i64 0)) #8, !dbg !1800
  call void @abort() #8, !dbg !1800
  br label %31, !dbg !1800

31:                                               ; preds = %30, %26
  %32 = getelementptr inbounds %struct.halide_buffer_t, %struct.halide_buffer_t* %1, i64 0, i32 0, !dbg !1802
  %33 = load i64, i64* %32, align 8, !dbg !1802, !tbaa !717
  %34 = inttoptr i64 %33 to %"struct.Halide::Runtime::Internal::HexagonDma::dma_device_handle"*, !dbg !1803
  call void @llvm.dbg.value(metadata %"struct.Halide::Runtime::Internal::HexagonDma::dma_device_handle"* %34, metadata !1793, metadata !DIExpression()) #10, !dbg !1794
  %35 = getelementptr inbounds %"struct.Halide::Runtime::Internal::HexagonDma::dma_device_handle", %"struct.Halide::Runtime::Internal::HexagonDma::dma_device_handle"* %34, i64 0, i32 5, !dbg !1804
  store i8* %2, i8** %35, align 8, !dbg !1805, !tbaa !1259
  %36 = getelementptr inbounds %"struct.Halide::Runtime::Internal::HexagonDma::dma_device_handle", %"struct.Halide::Runtime::Internal::HexagonDma::dma_device_handle"* %34, i64 0, i32 9, !dbg !1806
  store i8 %28, i8* %36, align 4, !dbg !1807, !tbaa !1248
  %37 = getelementptr inbounds %"struct.Halide::Runtime::Internal::HexagonDma::dma_device_handle", %"struct.Halide::Runtime::Internal::HexagonDma::dma_device_handle"* %34, i64 0, i32 11, !dbg !1808
  store i32 %27, i32* %37, align 8, !dbg !1809, !tbaa !1251
  %38 = getelementptr inbounds %"struct.Halide::Runtime::Internal::HexagonDma::dma_device_handle", %"struct.Halide::Runtime::Internal::HexagonDma::dma_device_handle"* %34, i64 0, i32 10, !dbg !1810
  store i8 0, i8* %38, align 1, !dbg !1811, !tbaa !1254
  switch i32 %27, label %43 [
    i32 3, label %39
    i32 6, label %39
    i32 9, label %39
    i32 12, label %39
  ], !dbg !1812

39:                                               ; preds = %31, %31, %31, %31
  %40 = getelementptr inbounds %"struct.Halide::Runtime::Internal::HexagonDma::dma_device_handle", %"struct.Halide::Runtime::Internal::HexagonDma::dma_device_handle"* %34, i64 0, i32 7, !dbg !1814
  %41 = load i32, i32* %40, align 4, !dbg !1814, !tbaa !1268
  %42 = shl nsw i32 %41, 1, !dbg !1816
  store i32 %42, i32* %40, align 4, !dbg !1817, !tbaa !1268
  br label %43, !dbg !1818

43:                                               ; preds = %31, %39
  ret i32 0, !dbg !1819
}

; Function Attrs: inlinehint nounwind
define internal fastcc i32 @_ZN12_GLOBAL__N_129halide_hexagon_get_dma_formatEPv26halide_hexagon_image_fmt_t(i8* %0, i32 %1) unnamed_addr #6 !dbg !1820 {
  call void @llvm.dbg.value(metadata i8* %0, metadata !1825, metadata !DIExpression()), !dbg !1827
  call void @llvm.dbg.value(metadata i32 %1, metadata !1826, metadata !DIExpression()), !dbg !1827
  %3 = icmp ult i32 %1, 13, !dbg !1828
  br i1 %3, label %23, label %4, !dbg !1828

4:                                                ; preds = %2
  call void @llvm.dbg.value(metadata %"class.Halide::Runtime::Internal::(anonymous namespace)::Printer.0"* undef, metadata !1051, metadata !DIExpression()) #10, !dbg !1829
  call void @llvm.dbg.value(metadata i8* %0, metadata !1054, metadata !DIExpression()) #10, !dbg !1829
  call void @llvm.dbg.value(metadata i8* null, metadata !1055, metadata !DIExpression()) #10, !dbg !1829
  %5 = tail call i8* @malloc(i64 1024) #8, !dbg !1832
  %6 = icmp eq i8* %5, null, !dbg !1833
  br i1 %6, label %9, label %7, !dbg !1834

7:                                                ; preds = %4
  %8 = getelementptr inbounds i8, i8* %5, i64 1023, !dbg !1835
  store i8 0, i8* %8, align 1, !dbg !1836, !tbaa !653
  br label %9, !dbg !1837

9:                                                ; preds = %4, %7
  %10 = phi i8* [ %8, %7 ], [ null, %4 ], !dbg !1838
  call void @llvm.dbg.value(metadata %"class.Halide::Runtime::Internal::(anonymous namespace)::Printer.0"* undef, metadata !1068, metadata !DIExpression()) #10, !dbg !1839
  call void @llvm.dbg.value(metadata i8* getelementptr inbounds ([30 x i8], [30 x i8]* @.str.63, i64 0, i64 0), metadata !1071, metadata !DIExpression()) #10, !dbg !1839
  %11 = tail call i8* @halide_string_to_string(i8* %5, i8* %10, i8* nonnull getelementptr inbounds ([30 x i8], [30 x i8]* @.str.63, i64 0, i64 0)) #8, !dbg !1841
  call void @llvm.dbg.value(metadata %"class.Halide::Runtime::Internal::(anonymous namespace)::Printer.0"* undef, metadata !1842, metadata !DIExpression()) #10, !dbg !1846
  call void @llvm.dbg.value(metadata i32 %1, metadata !1845, metadata !DIExpression()) #10, !dbg !1846
  %12 = sext i32 %1 to i64, !dbg !1848
  %13 = tail call i8* @halide_int64_to_string(i8* %11, i8* %10, i64 %12, i32 1) #8, !dbg !1849
  call void @llvm.dbg.value(metadata %"class.Halide::Runtime::Internal::(anonymous namespace)::Printer.0"* undef, metadata !1068, metadata !DIExpression()) #10, !dbg !1850
  call void @llvm.dbg.value(metadata i8* getelementptr inbounds ([2 x i8], [2 x i8]* @.str.12, i64 0, i64 0), metadata !1071, metadata !DIExpression()) #10, !dbg !1850
  %14 = tail call i8* @halide_string_to_string(i8* %13, i8* %10, i8* nonnull getelementptr inbounds ([2 x i8], [2 x i8]* @.str.12, i64 0, i64 0)) #8, !dbg !1852
  call void @llvm.dbg.value(metadata %"class.Halide::Runtime::Internal::(anonymous namespace)::Printer.0"* undef, metadata !1077, metadata !DIExpression()) #10, !dbg !1853
  br i1 %6, label %15, label %16, !dbg !1855

15:                                               ; preds = %9
  tail call void @halide_error(i8* %0, i8* getelementptr inbounds ([35 x i8], [35 x i8]* @.str.105, i64 0, i64 0)) #8, !dbg !1856
  br label %22, !dbg !1857

16:                                               ; preds = %9
  call void @llvm.dbg.value(metadata %"class.Halide::Runtime::Internal::(anonymous namespace)::Printer.0"* undef, metadata !1090, metadata !DIExpression()) #10, !dbg !1858
  %17 = ptrtoint i8* %14 to i64, !dbg !1860
  %18 = ptrtoint i8* %5 to i64, !dbg !1860
  %19 = add i64 %17, 1, !dbg !1860
  %20 = sub i64 %19, %18, !dbg !1861
  %21 = tail call i32 @halide_msan_annotate_memory_is_initialized(i8* %0, i8* nonnull %5, i64 %20) #8, !dbg !1862
  tail call void @halide_error(i8* %0, i8* nonnull %5) #8, !dbg !1863
  br label %22

22:                                               ; preds = %16, %15
  tail call void @free(i8* %5) #8, !dbg !1864
  br label %23, !dbg !1865

23:                                               ; preds = %2, %22
  %24 = phi i32 [ 14, %22 ], [ %1, %2 ], !dbg !1866
  ret i32 %24, !dbg !1867
}

; Function Attrs: nounwind
define weak dso_local i32 @halide_hexagon_dma_prepare_for_copy_to_device(i8* %0, %struct.halide_buffer_t* %1, i8* %2, i1 zeroext %3, i32 %4) local_unnamed_addr #4 !dbg !1868 {
  call void @llvm.dbg.value(metadata i8* %0, metadata !1870, metadata !DIExpression()), !dbg !1876
  call void @llvm.dbg.value(metadata %struct.halide_buffer_t* %1, metadata !1871, metadata !DIExpression()), !dbg !1876
  call void @llvm.dbg.value(metadata i8* %2, metadata !1872, metadata !DIExpression()), !dbg !1876
  call void @llvm.dbg.value(metadata i1 %3, metadata !1873, metadata !DIExpression(DW_OP_LLVM_convert, 1, DW_ATE_unsigned, DW_OP_LLVM_convert, 8, DW_ATE_unsigned, DW_OP_stack_value)), !dbg !1876
  call void @llvm.dbg.value(metadata i32 %4, metadata !1874, metadata !DIExpression()), !dbg !1876
  call void @llvm.dbg.value(metadata %"class.Halide::Runtime::Internal::(anonymous namespace)::Printer"* undef, metadata !614, metadata !DIExpression()) #10, !dbg !1877
  call void @llvm.dbg.value(metadata i8* %0, metadata !617, metadata !DIExpression()) #10, !dbg !1877
  call void @llvm.dbg.value(metadata i8* null, metadata !618, metadata !DIExpression()) #10, !dbg !1877
  %6 = tail call i8* @malloc(i64 1024) #8, !dbg !1879
  %7 = icmp eq i8* %6, null, !dbg !1880
  br i1 %7, label %10, label %8, !dbg !1881

8:                                                ; preds = %5
  %9 = getelementptr inbounds i8, i8* %6, i64 1023, !dbg !1882
  store i8 0, i8* %9, align 1, !dbg !1883, !tbaa !653
  br label %10, !dbg !1884

10:                                               ; preds = %5, %8
  %11 = phi i8* [ %9, %8 ], [ null, %5 ], !dbg !1885
  call void @llvm.dbg.value(metadata %"class.Halide::Runtime::Internal::(anonymous namespace)::Printer"* undef, metadata !631, metadata !DIExpression()) #10, !dbg !1886
  call void @llvm.dbg.value(metadata i8* getelementptr inbounds ([71 x i8], [71 x i8]* @.str.20, i64 0, i64 0), metadata !634, metadata !DIExpression()) #10, !dbg !1886
  %12 = tail call i8* @halide_string_to_string(i8* %6, i8* %11, i8* nonnull getelementptr inbounds ([71 x i8], [71 x i8]* @.str.20, i64 0, i64 0)) #8, !dbg !1888
  call void @llvm.dbg.value(metadata %"class.Halide::Runtime::Internal::(anonymous namespace)::Printer"* undef, metadata !911, metadata !DIExpression()) #10, !dbg !1889
  call void @llvm.dbg.value(metadata i8* %0, metadata !914, metadata !DIExpression()) #10, !dbg !1889
  %13 = tail call i8* @halide_pointer_to_string(i8* %12, i8* %11, i8* %0) #8, !dbg !1891
  call void @llvm.dbg.value(metadata %"class.Halide::Runtime::Internal::(anonymous namespace)::Printer"* undef, metadata !631, metadata !DIExpression()) #10, !dbg !1892
  call void @llvm.dbg.value(metadata i8* getelementptr inbounds ([8 x i8], [8 x i8]* @.str.2, i64 0, i64 0), metadata !634, metadata !DIExpression()) #10, !dbg !1892
  %14 = tail call i8* @halide_string_to_string(i8* %13, i8* %11, i8* nonnull getelementptr inbounds ([8 x i8], [8 x i8]* @.str.2, i64 0, i64 0)) #8, !dbg !1894
  call void @llvm.dbg.value(metadata %"class.Halide::Runtime::Internal::(anonymous namespace)::Printer"* undef, metadata !921, metadata !DIExpression()) #10, !dbg !1895
  call void @llvm.dbg.value(metadata %struct.halide_buffer_t* %1, metadata !924, metadata !DIExpression()) #10, !dbg !1895
  %15 = tail call i8* @halide_buffer_to_string(i8* %14, i8* %11, %struct.halide_buffer_t* nonnull %1) #8, !dbg !1897
  call void @llvm.dbg.value(metadata %"class.Halide::Runtime::Internal::(anonymous namespace)::Printer"* undef, metadata !631, metadata !DIExpression()) #10, !dbg !1898
  call void @llvm.dbg.value(metadata i8* getelementptr inbounds ([15 x i8], [15 x i8]* @.str.15, i64 0, i64 0), metadata !634, metadata !DIExpression()) #10, !dbg !1898
  %16 = tail call i8* @halide_string_to_string(i8* %15, i8* %11, i8* nonnull getelementptr inbounds ([15 x i8], [15 x i8]* @.str.15, i64 0, i64 0)) #8, !dbg !1900
  call void @llvm.dbg.value(metadata %"class.Halide::Runtime::Internal::(anonymous namespace)::Printer"* undef, metadata !911, metadata !DIExpression()) #10, !dbg !1901
  call void @llvm.dbg.value(metadata i8* %2, metadata !914, metadata !DIExpression()) #10, !dbg !1901
  %17 = tail call i8* @halide_pointer_to_string(i8* %16, i8* %11, i8* %2) #8, !dbg !1903
  call void @llvm.dbg.value(metadata %"class.Halide::Runtime::Internal::(anonymous namespace)::Printer"* undef, metadata !631, metadata !DIExpression()) #10, !dbg !1904
  call void @llvm.dbg.value(metadata i8* getelementptr inbounds ([3 x i8], [3 x i8]* @.str.3, i64 0, i64 0), metadata !634, metadata !DIExpression()) #10, !dbg !1904
  %18 = tail call i8* @halide_string_to_string(i8* %17, i8* %11, i8* nonnull getelementptr inbounds ([3 x i8], [3 x i8]* @.str.3, i64 0, i64 0)) #8, !dbg !1906
  call void @llvm.dbg.value(metadata %"class.Halide::Runtime::Internal::(anonymous namespace)::Printer"* undef, metadata !640, metadata !DIExpression()) #10, !dbg !1907
  br i1 %7, label %19, label %20, !dbg !1909

19:                                               ; preds = %10
  tail call void @halide_error(i8* %0, i8* getelementptr inbounds ([35 x i8], [35 x i8]* @.str.105, i64 0, i64 0)) #8, !dbg !1910
  br label %26, !dbg !1911

20:                                               ; preds = %10
  call void @llvm.dbg.value(metadata %"class.Halide::Runtime::Internal::(anonymous namespace)::Printer"* undef, metadata !654, metadata !DIExpression()) #10, !dbg !1912
  %21 = ptrtoint i8* %18 to i64, !dbg !1914
  %22 = ptrtoint i8* %6 to i64, !dbg !1914
  %23 = add i64 %21, 1, !dbg !1914
  %24 = sub i64 %23, %22, !dbg !1915
  %25 = tail call i32 @halide_msan_annotate_memory_is_initialized(i8* %0, i8* nonnull %6, i64 %24) #8, !dbg !1916
  tail call void @halide_print(i8* %0, i8* nonnull %6) #8, !dbg !1917
  br label %26

26:                                               ; preds = %19, %20
  call void @free(i8* %6) #8, !dbg !1918
  %27 = call fastcc i32 @_ZN12_GLOBAL__N_129halide_hexagon_get_dma_formatEPv26halide_hexagon_image_fmt_t(i8* %0, i32 %4) #9, !dbg !1919
  call void @llvm.dbg.value(metadata i32 %27, metadata !1875, metadata !DIExpression()), !dbg !1876
  call void @llvm.dbg.value(metadata i8* %0, metadata !1783, metadata !DIExpression()) #10, !dbg !1920
  call void @llvm.dbg.value(metadata %struct.halide_buffer_t* %1, metadata !1788, metadata !DIExpression()) #10, !dbg !1920
  call void @llvm.dbg.value(metadata i8* %2, metadata !1789, metadata !DIExpression()) #10, !dbg !1920
  %28 = zext i1 %3 to i8
  call void @llvm.dbg.value(metadata i8 %28, metadata !1790, metadata !DIExpression()) #10, !dbg !1920
  call void @llvm.dbg.value(metadata i32 %27, metadata !1791, metadata !DIExpression()) #10, !dbg !1920
  call void @llvm.dbg.value(metadata i8 1, metadata !1792, metadata !DIExpression()) #10, !dbg !1920
  %29 = icmp eq i8* %2, null, !dbg !1922
  br i1 %29, label %30, label %31, !dbg !1923

30:                                               ; preds = %26
  call void @halide_print(i8* %0, i8* getelementptr inbounds ([109 x i8], [109 x i8]* @.str.64, i64 0, i64 0)) #8, !dbg !1924
  call void @abort() #8, !dbg !1924
  br label %31, !dbg !1924

31:                                               ; preds = %30, %26
  %32 = getelementptr inbounds %struct.halide_buffer_t, %struct.halide_buffer_t* %1, i64 0, i32 0, !dbg !1925
  %33 = load i64, i64* %32, align 8, !dbg !1925, !tbaa !717
  %34 = inttoptr i64 %33 to %"struct.Halide::Runtime::Internal::HexagonDma::dma_device_handle"*, !dbg !1926
  call void @llvm.dbg.value(metadata %"struct.Halide::Runtime::Internal::HexagonDma::dma_device_handle"* %34, metadata !1793, metadata !DIExpression()) #10, !dbg !1920
  %35 = getelementptr inbounds %"struct.Halide::Runtime::Internal::HexagonDma::dma_device_handle", %"struct.Halide::Runtime::Internal::HexagonDma::dma_device_handle"* %34, i64 0, i32 5, !dbg !1927
  store i8* %2, i8** %35, align 8, !dbg !1928, !tbaa !1259
  %36 = getelementptr inbounds %"struct.Halide::Runtime::Internal::HexagonDma::dma_device_handle", %"struct.Halide::Runtime::Internal::HexagonDma::dma_device_handle"* %34, i64 0, i32 9, !dbg !1929
  store i8 %28, i8* %36, align 4, !dbg !1930, !tbaa !1248
  %37 = getelementptr inbounds %"struct.Halide::Runtime::Internal::HexagonDma::dma_device_handle", %"struct.Halide::Runtime::Internal::HexagonDma::dma_device_handle"* %34, i64 0, i32 11, !dbg !1931
  store i32 %27, i32* %37, align 8, !dbg !1932, !tbaa !1251
  %38 = getelementptr inbounds %"struct.Halide::Runtime::Internal::HexagonDma::dma_device_handle", %"struct.Halide::Runtime::Internal::HexagonDma::dma_device_handle"* %34, i64 0, i32 10, !dbg !1933
  store i8 1, i8* %38, align 1, !dbg !1934, !tbaa !1254
  switch i32 %27, label %43 [
    i32 3, label %39
    i32 6, label %39
    i32 9, label %39
    i32 12, label %39
  ], !dbg !1935

39:                                               ; preds = %31, %31, %31, %31
  %40 = getelementptr inbounds %"struct.Halide::Runtime::Internal::HexagonDma::dma_device_handle", %"struct.Halide::Runtime::Internal::HexagonDma::dma_device_handle"* %34, i64 0, i32 7, !dbg !1936
  %41 = load i32, i32* %40, align 4, !dbg !1936, !tbaa !1268
  %42 = shl nsw i32 %41, 1, !dbg !1937
  store i32 %42, i32* %40, align 4, !dbg !1938, !tbaa !1268
  br label %43, !dbg !1939

43:                                               ; preds = %31, %39
  ret i32 0, !dbg !1940
}

; Function Attrs: nounwind
define weak dso_local i32 @halide_hexagon_dma_unprepare(i8* %0, %struct.halide_buffer_t* %1) local_unnamed_addr #4 !dbg !1941 {
  call void @llvm.dbg.value(metadata i8* %0, metadata !1943, metadata !DIExpression()), !dbg !1945
  call void @llvm.dbg.value(metadata %struct.halide_buffer_t* %1, metadata !1944, metadata !DIExpression()), !dbg !1945
  call void @llvm.dbg.value(metadata %"class.Halide::Runtime::Internal::(anonymous namespace)::Printer"* undef, metadata !614, metadata !DIExpression()) #10, !dbg !1946
  call void @llvm.dbg.value(metadata i8* %0, metadata !617, metadata !DIExpression()) #10, !dbg !1946
  call void @llvm.dbg.value(metadata i8* null, metadata !618, metadata !DIExpression()) #10, !dbg !1946
  %3 = tail call i8* @malloc(i64 1024) #8, !dbg !1948
  %4 = icmp eq i8* %3, null, !dbg !1949
  br i1 %4, label %7, label %5, !dbg !1950

5:                                                ; preds = %2
  %6 = getelementptr inbounds i8, i8* %3, i64 1023, !dbg !1951
  store i8 0, i8* %6, align 1, !dbg !1952, !tbaa !653
  br label %7, !dbg !1953

7:                                                ; preds = %2, %5
  %8 = phi i8* [ %6, %5 ], [ null, %2 ], !dbg !1954
  call void @llvm.dbg.value(metadata %"class.Halide::Runtime::Internal::(anonymous namespace)::Printer"* undef, metadata !631, metadata !DIExpression()) #10, !dbg !1955
  call void @llvm.dbg.value(metadata i8* getelementptr inbounds ([54 x i8], [54 x i8]* @.str.21, i64 0, i64 0), metadata !634, metadata !DIExpression()) #10, !dbg !1955
  %9 = tail call i8* @halide_string_to_string(i8* %3, i8* %8, i8* nonnull getelementptr inbounds ([54 x i8], [54 x i8]* @.str.21, i64 0, i64 0)) #8, !dbg !1957
  call void @llvm.dbg.value(metadata %"class.Halide::Runtime::Internal::(anonymous namespace)::Printer"* undef, metadata !911, metadata !DIExpression()) #10, !dbg !1958
  call void @llvm.dbg.value(metadata i8* %0, metadata !914, metadata !DIExpression()) #10, !dbg !1958
  %10 = tail call i8* @halide_pointer_to_string(i8* %9, i8* %8, i8* %0) #8, !dbg !1960
  call void @llvm.dbg.value(metadata %"class.Halide::Runtime::Internal::(anonymous namespace)::Printer"* undef, metadata !631, metadata !DIExpression()) #10, !dbg !1961
  call void @llvm.dbg.value(metadata i8* getelementptr inbounds ([8 x i8], [8 x i8]* @.str.2, i64 0, i64 0), metadata !634, metadata !DIExpression()) #10, !dbg !1961
  %11 = tail call i8* @halide_string_to_string(i8* %10, i8* %8, i8* nonnull getelementptr inbounds ([8 x i8], [8 x i8]* @.str.2, i64 0, i64 0)) #8, !dbg !1963
  call void @llvm.dbg.value(metadata %"class.Halide::Runtime::Internal::(anonymous namespace)::Printer"* undef, metadata !921, metadata !DIExpression()) #10, !dbg !1964
  call void @llvm.dbg.value(metadata %struct.halide_buffer_t* %1, metadata !924, metadata !DIExpression()) #10, !dbg !1964
  %12 = tail call i8* @halide_buffer_to_string(i8* %11, i8* %8, %struct.halide_buffer_t* nonnull %1) #8, !dbg !1966
  call void @llvm.dbg.value(metadata %"class.Halide::Runtime::Internal::(anonymous namespace)::Printer"* undef, metadata !631, metadata !DIExpression()) #10, !dbg !1967
  call void @llvm.dbg.value(metadata i8* getelementptr inbounds ([3 x i8], [3 x i8]* @.str.3, i64 0, i64 0), metadata !634, metadata !DIExpression()) #10, !dbg !1967
  %13 = tail call i8* @halide_string_to_string(i8* %12, i8* %8, i8* nonnull getelementptr inbounds ([3 x i8], [3 x i8]* @.str.3, i64 0, i64 0)) #8, !dbg !1969
  call void @llvm.dbg.value(metadata %"class.Halide::Runtime::Internal::(anonymous namespace)::Printer"* undef, metadata !640, metadata !DIExpression()) #10, !dbg !1970
  br i1 %4, label %14, label %15, !dbg !1972

14:                                               ; preds = %7
  tail call void @halide_error(i8* %0, i8* getelementptr inbounds ([35 x i8], [35 x i8]* @.str.105, i64 0, i64 0)) #8, !dbg !1973
  br label %21, !dbg !1974

15:                                               ; preds = %7
  call void @llvm.dbg.value(metadata %"class.Halide::Runtime::Internal::(anonymous namespace)::Printer"* undef, metadata !654, metadata !DIExpression()) #10, !dbg !1975
  %16 = ptrtoint i8* %13 to i64, !dbg !1977
  %17 = ptrtoint i8* %3 to i64, !dbg !1977
  %18 = add i64 %16, 1, !dbg !1977
  %19 = sub i64 %18, %17, !dbg !1978
  %20 = tail call i32 @halide_msan_annotate_memory_is_initialized(i8* %0, i8* nonnull %3, i64 %19) #8, !dbg !1979
  tail call void @halide_print(i8* %0, i8* nonnull %3) #8, !dbg !1980
  br label %21

21:                                               ; preds = %14, %15
  call void @free(i8* %3) #8, !dbg !1981
  ret i32 0, !dbg !1982
}

; Function Attrs: nounwind
define weak dso_local i32 @halide_hexagon_dma_buffer_copy(i8* %0, %struct.halide_buffer_t* %1, %struct.halide_device_interface_t* %2, %struct.halide_buffer_t* %3) #4 !dbg !1983 {
  call void @llvm.dbg.value(metadata i8* %0, metadata !1985, metadata !DIExpression()), !dbg !1995
  call void @llvm.dbg.value(metadata %struct.halide_buffer_t* %1, metadata !1986, metadata !DIExpression()), !dbg !1995
  call void @llvm.dbg.value(metadata %struct.halide_device_interface_t* %2, metadata !1987, metadata !DIExpression()), !dbg !1995
  call void @llvm.dbg.value(metadata %struct.halide_buffer_t* %3, metadata !1988, metadata !DIExpression()), !dbg !1995
  %5 = icmp eq %struct.halide_device_interface_t* %2, null, !dbg !1996
  %6 = icmp eq %struct.halide_device_interface_t* %2, @_ZN6Halide7Runtime8Internal10HexagonDma28hexagon_dma_device_interfaceE, !dbg !1996
  %7 = or i1 %5, %6, !dbg !1996
  br i1 %7, label %9, label %8, !dbg !1996

8:                                                ; preds = %4
  tail call void @halide_print(i8* %0, i8* getelementptr inbounds ([187 x i8], [187 x i8]* @.str.22, i64 0, i64 0)) #8, !dbg !1999
  tail call void @abort() #8, !dbg !1999
  br label %9, !dbg !1999

9:                                                ; preds = %4, %8
  call void @llvm.dbg.value(metadata %struct.halide_buffer_t* %1, metadata !2001, metadata !DIExpression()), !dbg !2004
  call void @llvm.dbg.value(metadata %struct.halide_buffer_t* %1, metadata !2006, metadata !DIExpression()), !dbg !2010
  call void @llvm.dbg.value(metadata i32 2, metadata !2009, metadata !DIExpression()), !dbg !2010
  %10 = getelementptr inbounds %struct.halide_buffer_t, %struct.halide_buffer_t* %1, i64 0, i32 3, !dbg !2012
  %11 = load i64, i64* %10, align 8, !dbg !2012, !tbaa !1343
  %12 = and i64 %11, 2, !dbg !2013
  %13 = icmp eq i64 %12, 0, !dbg !2014
  br i1 %13, label %63, label %14, !dbg !2015

14:                                               ; preds = %9
  %15 = getelementptr inbounds %struct.halide_buffer_t, %struct.halide_buffer_t* %1, i64 0, i32 1, !dbg !2016
  %16 = load %struct.halide_device_interface_t*, %struct.halide_device_interface_t** %15, align 8, !dbg !2016, !tbaa !1210
  %17 = icmp eq %struct.halide_device_interface_t* %16, @_ZN6Halide7Runtime8Internal10HexagonDma28hexagon_dma_device_interfaceE, !dbg !2017
  br i1 %17, label %63, label %18, !dbg !2018

18:                                               ; preds = %14
  br i1 %6, label %20, label %19, !dbg !2019

19:                                               ; preds = %18
  tail call void @halide_print(i8* %0, i8* getelementptr inbounds ([152 x i8], [152 x i8]* @.str.23, i64 0, i64 0)) #8, !dbg !2021
  tail call void @abort() #8, !dbg !2021
  br label %20, !dbg !2021

20:                                               ; preds = %18, %19
  call void @llvm.dbg.value(metadata %"class.Halide::Runtime::Internal::(anonymous namespace)::Printer"* undef, metadata !614, metadata !DIExpression()) #10, !dbg !2024
  call void @llvm.dbg.value(metadata i8* %0, metadata !617, metadata !DIExpression()) #10, !dbg !2024
  call void @llvm.dbg.value(metadata i8* null, metadata !618, metadata !DIExpression()) #10, !dbg !2024
  %21 = tail call i8* @malloc(i64 1024) #8, !dbg !2026
  %22 = icmp eq i8* %21, null, !dbg !2027
  br i1 %22, label %23, label %25, !dbg !2028

23:                                               ; preds = %20
  call void @llvm.dbg.value(metadata %"class.Halide::Runtime::Internal::(anonymous namespace)::Printer"* undef, metadata !631, metadata !DIExpression()) #10, !dbg !2029
  call void @llvm.dbg.value(metadata i8* getelementptr inbounds ([65 x i8], [65 x i8]* @.str.24, i64 0, i64 0), metadata !634, metadata !DIExpression()) #10, !dbg !2029
  %24 = tail call i8* @halide_string_to_string(i8* %21, i8* null, i8* nonnull getelementptr inbounds ([65 x i8], [65 x i8]* @.str.24, i64 0, i64 0)) #8, !dbg !2031
  call void @llvm.dbg.value(metadata %"class.Halide::Runtime::Internal::(anonymous namespace)::Printer"* undef, metadata !640, metadata !DIExpression()) #10, !dbg !2032
  tail call void @halide_error(i8* %0, i8* getelementptr inbounds ([35 x i8], [35 x i8]* @.str.105, i64 0, i64 0)) #8, !dbg !2034
  br label %33, !dbg !2035

25:                                               ; preds = %20
  %26 = getelementptr inbounds i8, i8* %21, i64 1023, !dbg !2036
  store i8 0, i8* %26, align 1, !dbg !2037, !tbaa !653
  call void @llvm.dbg.value(metadata %"class.Halide::Runtime::Internal::(anonymous namespace)::Printer"* undef, metadata !631, metadata !DIExpression()) #10, !dbg !2029
  call void @llvm.dbg.value(metadata i8* getelementptr inbounds ([65 x i8], [65 x i8]* @.str.24, i64 0, i64 0), metadata !634, metadata !DIExpression()) #10, !dbg !2029
  %27 = tail call i8* @halide_string_to_string(i8* nonnull %21, i8* nonnull %26, i8* nonnull getelementptr inbounds ([65 x i8], [65 x i8]* @.str.24, i64 0, i64 0)) #8, !dbg !2031
  call void @llvm.dbg.value(metadata %"class.Halide::Runtime::Internal::(anonymous namespace)::Printer"* undef, metadata !640, metadata !DIExpression()) #10, !dbg !2032
  call void @llvm.dbg.value(metadata %"class.Halide::Runtime::Internal::(anonymous namespace)::Printer"* undef, metadata !654, metadata !DIExpression()) #10, !dbg !2038
  %28 = ptrtoint i8* %27 to i64, !dbg !2040
  %29 = ptrtoint i8* %21 to i64, !dbg !2040
  %30 = add i64 %28, 1, !dbg !2040
  %31 = sub i64 %30, %29, !dbg !2041
  %32 = tail call i32 @halide_msan_annotate_memory_is_initialized(i8* %0, i8* nonnull %21, i64 %31) #8, !dbg !2042
  tail call void @halide_print(i8* %0, i8* nonnull %21) #8, !dbg !2043
  br label %33

33:                                               ; preds = %25, %23
  tail call void @free(i8* %21) #8, !dbg !2044
  %34 = load %struct.halide_device_interface_t*, %struct.halide_device_interface_t** %15, align 8, !dbg !2045, !tbaa !1210
  %35 = getelementptr inbounds %struct.halide_device_interface_t, %struct.halide_device_interface_t* %34, i64 0, i32 15, !dbg !2046
  %36 = load %struct.halide_device_interface_impl_t*, %struct.halide_device_interface_impl_t** %35, align 8, !dbg !2046, !tbaa !1212
  %37 = getelementptr inbounds %struct.halide_device_interface_impl_t, %struct.halide_device_interface_impl_t* %36, i64 0, i32 10, !dbg !2047
  %38 = load i32 (i8*, %struct.halide_buffer_t*, %struct.halide_device_interface_t*, %struct.halide_buffer_t*)*, i32 (i8*, %struct.halide_buffer_t*, %struct.halide_device_interface_t*, %struct.halide_buffer_t*)** %37, align 8, !dbg !2047, !tbaa !2048
  %39 = tail call i32 %38(i8* %0, %struct.halide_buffer_t* nonnull %1, %struct.halide_device_interface_t* null, %struct.halide_buffer_t* %3) #8, !dbg !2049
  call void @llvm.dbg.value(metadata i32 %39, metadata !1989, metadata !DIExpression()), !dbg !2050
  %40 = icmp eq i32 %39, 0, !dbg !2051
  br i1 %40, label %41, label %44, !dbg !2053

41:                                               ; preds = %33
  %42 = getelementptr inbounds %struct.halide_buffer_t, %struct.halide_buffer_t* %3, i64 0, i32 3
  %43 = load i64, i64* %42, align 8, !dbg !2054, !tbaa !1343
  br label %63, !dbg !2053

44:                                               ; preds = %33
  call void @llvm.dbg.value(metadata %"class.Halide::Runtime::Internal::(anonymous namespace)::Printer.0"* undef, metadata !1051, metadata !DIExpression()) #10, !dbg !2057
  call void @llvm.dbg.value(metadata i8* %0, metadata !1054, metadata !DIExpression()) #10, !dbg !2057
  call void @llvm.dbg.value(metadata i8* null, metadata !1055, metadata !DIExpression()) #10, !dbg !2057
  %45 = tail call i8* @malloc(i64 1024) #8, !dbg !2060
  %46 = icmp eq i8* %45, null, !dbg !2061
  br i1 %46, label %49, label %47, !dbg !2062

47:                                               ; preds = %44
  %48 = getelementptr inbounds i8, i8* %45, i64 1023, !dbg !2063
  store i8 0, i8* %48, align 1, !dbg !2064, !tbaa !653
  br label %49, !dbg !2065

49:                                               ; preds = %44, %47
  %50 = phi i8* [ %48, %47 ], [ null, %44 ], !dbg !2066
  call void @llvm.dbg.value(metadata %"class.Halide::Runtime::Internal::(anonymous namespace)::Printer.0"* undef, metadata !1068, metadata !DIExpression()) #10, !dbg !2067
  call void @llvm.dbg.value(metadata i8* getelementptr inbounds ([59 x i8], [59 x i8]* @.str.25, i64 0, i64 0), metadata !1071, metadata !DIExpression()) #10, !dbg !2067
  %51 = tail call i8* @halide_string_to_string(i8* %45, i8* %50, i8* nonnull getelementptr inbounds ([59 x i8], [59 x i8]* @.str.25, i64 0, i64 0)) #8, !dbg !2069
  call void @llvm.dbg.value(metadata %"class.Halide::Runtime::Internal::(anonymous namespace)::Printer.0"* undef, metadata !1842, metadata !DIExpression()) #10, !dbg !2070
  call void @llvm.dbg.value(metadata i32 %39, metadata !1845, metadata !DIExpression()) #10, !dbg !2070
  %52 = sext i32 %39 to i64, !dbg !2072
  %53 = tail call i8* @halide_int64_to_string(i8* %51, i8* %50, i64 %52, i32 1) #8, !dbg !2073
  call void @llvm.dbg.value(metadata %"class.Halide::Runtime::Internal::(anonymous namespace)::Printer.0"* undef, metadata !1068, metadata !DIExpression()) #10, !dbg !2074
  call void @llvm.dbg.value(metadata i8* getelementptr inbounds ([2 x i8], [2 x i8]* @.str.12, i64 0, i64 0), metadata !1071, metadata !DIExpression()) #10, !dbg !2074
  %54 = tail call i8* @halide_string_to_string(i8* %53, i8* %50, i8* nonnull getelementptr inbounds ([2 x i8], [2 x i8]* @.str.12, i64 0, i64 0)) #8, !dbg !2076
  call void @llvm.dbg.value(metadata %"class.Halide::Runtime::Internal::(anonymous namespace)::Printer.0"* undef, metadata !1077, metadata !DIExpression()) #10, !dbg !2077
  br i1 %46, label %55, label %56, !dbg !2079

55:                                               ; preds = %49
  tail call void @halide_error(i8* %0, i8* getelementptr inbounds ([35 x i8], [35 x i8]* @.str.105, i64 0, i64 0)) #8, !dbg !2080
  br label %62, !dbg !2081

56:                                               ; preds = %49
  call void @llvm.dbg.value(metadata %"class.Halide::Runtime::Internal::(anonymous namespace)::Printer.0"* undef, metadata !1090, metadata !DIExpression()) #10, !dbg !2082
  %57 = ptrtoint i8* %54 to i64, !dbg !2084
  %58 = ptrtoint i8* %45 to i64, !dbg !2084
  %59 = add i64 %57, 1, !dbg !2084
  %60 = sub i64 %59, %58, !dbg !2085
  %61 = tail call i32 @halide_msan_annotate_memory_is_initialized(i8* %0, i8* nonnull %45, i64 %60) #8, !dbg !2086
  tail call void @halide_error(i8* %0, i8* nonnull %45) #8, !dbg !2087
  br label %62

62:                                               ; preds = %56, %55
  tail call void @free(i8* %45) #8, !dbg !2088
  call void @llvm.dbg.value(metadata %struct.halide_buffer_t* %1, metadata !1986, metadata !DIExpression()), !dbg !1995
  br label %122

63:                                               ; preds = %41, %14, %9
  %64 = phi i64 [ %11, %14 ], [ %11, %9 ], [ %43, %41 ], !dbg !2054
  %65 = phi %struct.halide_buffer_t* [ %1, %14 ], [ %1, %9 ], [ %3, %41 ]
  call void @llvm.dbg.value(metadata %struct.halide_buffer_t* %65, metadata !1986, metadata !DIExpression()), !dbg !1995
  call void @llvm.dbg.value(metadata %struct.halide_buffer_t* %65, metadata !2001, metadata !DIExpression()), !dbg !2089
  call void @llvm.dbg.value(metadata %struct.halide_buffer_t* %65, metadata !2006, metadata !DIExpression()), !dbg !2090
  call void @llvm.dbg.value(metadata i32 2, metadata !2009, metadata !DIExpression()), !dbg !2090
  %66 = and i64 %64, 2, !dbg !2091
  %67 = icmp eq i64 %66, 0, !dbg !2092
  br i1 %67, label %68, label %72, !dbg !2093

68:                                               ; preds = %63
  %69 = getelementptr inbounds %struct.halide_buffer_t, %struct.halide_buffer_t* %65, i64 0, i32 2, !dbg !2094
  %70 = load i8*, i8** %69, align 8, !dbg !2094, !tbaa !708
  %71 = icmp eq i8* %70, null, !dbg !2095
  call void @llvm.dbg.value(metadata i1 %71, metadata !1992, metadata !DIExpression(DW_OP_LLVM_convert, 1, DW_ATE_unsigned, DW_OP_LLVM_convert, 8, DW_ATE_unsigned, DW_OP_stack_value)), !dbg !1995
  call void @llvm.dbg.value(metadata i1 %5, metadata !1993, metadata !DIExpression(DW_OP_LLVM_convert, 1, DW_ATE_unsigned, DW_OP_LLVM_convert, 8, DW_ATE_unsigned, DW_OP_stack_value)), !dbg !1995
  br i1 %71, label %72, label %77, !dbg !2096

72:                                               ; preds = %63, %68
  %73 = getelementptr inbounds %struct.halide_buffer_t, %struct.halide_buffer_t* %65, i64 0, i32 0, !dbg !2096
  %74 = load i64, i64* %73, align 8, !dbg !2096, !tbaa !717
  %75 = icmp eq i64 %74, 0, !dbg !2096
  br i1 %75, label %76, label %77, !dbg !2099

76:                                               ; preds = %72
  tail call void @halide_print(i8* %0, i8* getelementptr inbounds ([123 x i8], [123 x i8]* @.str.26, i64 0, i64 0)) #8, !dbg !2100
  tail call void @abort() #8, !dbg !2100
  br label %77, !dbg !2100

77:                                               ; preds = %68, %72, %76
  %78 = phi i1 [ true, %68 ], [ false, %72 ], [ false, %76 ]
  br i1 %5, label %84, label %79, !dbg !2102

79:                                               ; preds = %77
  %80 = getelementptr inbounds %struct.halide_buffer_t, %struct.halide_buffer_t* %3, i64 0, i32 0, !dbg !2102
  %81 = load i64, i64* %80, align 8, !dbg !2102, !tbaa !717
  %82 = icmp eq i64 %81, 0, !dbg !2102
  br i1 %82, label %83, label %84, !dbg !2105

83:                                               ; preds = %79
  tail call void @halide_print(i8* %0, i8* getelementptr inbounds ([121 x i8], [121 x i8]* @.str.27, i64 0, i64 0)) #8, !dbg !2106
  tail call void @abort() #8, !dbg !2106
  br label %84, !dbg !2106

84:                                               ; preds = %77, %79, %83
  %85 = xor i1 %5, %78, !dbg !2108
  br i1 %85, label %87, label %86, !dbg !2108

86:                                               ; preds = %84
  tail call void @halide_print(i8* %0, i8* getelementptr inbounds ([149 x i8], [149 x i8]* @.str.28, i64 0, i64 0)) #8, !dbg !2111
  tail call void @abort() #8, !dbg !2111
  br label %87, !dbg !2111

87:                                               ; preds = %84, %86
  call void @llvm.dbg.value(metadata %"class.Halide::Runtime::Internal::(anonymous namespace)::Printer"* undef, metadata !614, metadata !DIExpression()) #10, !dbg !2113
  call void @llvm.dbg.value(metadata i8* %0, metadata !617, metadata !DIExpression()) #10, !dbg !2113
  call void @llvm.dbg.value(metadata i8* null, metadata !618, metadata !DIExpression()) #10, !dbg !2113
  %88 = tail call i8* @malloc(i64 1024) #8, !dbg !2115
  %89 = icmp eq i8* %88, null, !dbg !2116
  br i1 %89, label %92, label %90, !dbg !2117

90:                                               ; preds = %87
  %91 = getelementptr inbounds i8, i8* %88, i64 1023, !dbg !2118
  store i8 0, i8* %91, align 1, !dbg !2119, !tbaa !653
  br label %92, !dbg !2120

92:                                               ; preds = %87, %90
  %93 = phi i8* [ %91, %90 ], [ null, %87 ], !dbg !2121
  call void @llvm.dbg.value(metadata %"class.Halide::Runtime::Internal::(anonymous namespace)::Printer"* undef, metadata !631, metadata !DIExpression()) #10, !dbg !2122
  call void @llvm.dbg.value(metadata i8* getelementptr inbounds ([56 x i8], [56 x i8]* @.str.29, i64 0, i64 0), metadata !634, metadata !DIExpression()) #10, !dbg !2122
  %94 = tail call i8* @halide_string_to_string(i8* %88, i8* %93, i8* nonnull getelementptr inbounds ([56 x i8], [56 x i8]* @.str.29, i64 0, i64 0)) #8, !dbg !2124
  call void @llvm.dbg.value(metadata %"class.Halide::Runtime::Internal::(anonymous namespace)::Printer"* undef, metadata !911, metadata !DIExpression()) #10, !dbg !2125
  call void @llvm.dbg.value(metadata i8* %0, metadata !914, metadata !DIExpression()) #10, !dbg !2125
  %95 = tail call i8* @halide_pointer_to_string(i8* %94, i8* %93, i8* %0) #8, !dbg !2127
  call void @llvm.dbg.value(metadata %"class.Halide::Runtime::Internal::(anonymous namespace)::Printer"* undef, metadata !631, metadata !DIExpression()) #10, !dbg !2128
  call void @llvm.dbg.value(metadata i8* getelementptr inbounds ([8 x i8], [8 x i8]* @.str.30, i64 0, i64 0), metadata !634, metadata !DIExpression()) #10, !dbg !2128
  %96 = tail call i8* @halide_string_to_string(i8* %95, i8* %93, i8* nonnull getelementptr inbounds ([8 x i8], [8 x i8]* @.str.30, i64 0, i64 0)) #8, !dbg !2130
  %97 = bitcast %struct.halide_buffer_t* %65 to i8*, !dbg !2131
  call void @llvm.dbg.value(metadata %"class.Halide::Runtime::Internal::(anonymous namespace)::Printer"* undef, metadata !911, metadata !DIExpression()) #10, !dbg !2132
  call void @llvm.dbg.value(metadata i8* %97, metadata !914, metadata !DIExpression()) #10, !dbg !2132
  %98 = tail call i8* @halide_pointer_to_string(i8* %96, i8* %93, i8* %97) #8, !dbg !2134
  call void @llvm.dbg.value(metadata %"class.Halide::Runtime::Internal::(anonymous namespace)::Printer"* undef, metadata !631, metadata !DIExpression()) #10, !dbg !2135
  call void @llvm.dbg.value(metadata i8* getelementptr inbounds ([8 x i8], [8 x i8]* @.str.31, i64 0, i64 0), metadata !634, metadata !DIExpression()) #10, !dbg !2135
  %99 = tail call i8* @halide_string_to_string(i8* %98, i8* %93, i8* nonnull getelementptr inbounds ([8 x i8], [8 x i8]* @.str.31, i64 0, i64 0)) #8, !dbg !2137
  %100 = bitcast %struct.halide_buffer_t* %3 to i8*, !dbg !2138
  call void @llvm.dbg.value(metadata %"class.Halide::Runtime::Internal::(anonymous namespace)::Printer"* undef, metadata !911, metadata !DIExpression()) #10, !dbg !2139
  call void @llvm.dbg.value(metadata i8* %100, metadata !914, metadata !DIExpression()) #10, !dbg !2139
  %101 = tail call i8* @halide_pointer_to_string(i8* %99, i8* %93, i8* %100) #8, !dbg !2141
  call void @llvm.dbg.value(metadata %"class.Halide::Runtime::Internal::(anonymous namespace)::Printer"* undef, metadata !631, metadata !DIExpression()) #10, !dbg !2142
  call void @llvm.dbg.value(metadata i8* getelementptr inbounds ([2 x i8], [2 x i8]* @.str.12, i64 0, i64 0), metadata !634, metadata !DIExpression()) #10, !dbg !2142
  %102 = tail call i8* @halide_string_to_string(i8* %101, i8* %93, i8* nonnull getelementptr inbounds ([2 x i8], [2 x i8]* @.str.12, i64 0, i64 0)) #8, !dbg !2144
  call void @llvm.dbg.value(metadata %"class.Halide::Runtime::Internal::(anonymous namespace)::Printer"* undef, metadata !631, metadata !DIExpression()) #10, !dbg !2145
  call void @llvm.dbg.value(metadata i8* getelementptr inbounds ([13 x i8], [13 x i8]* @.str.32, i64 0, i64 0), metadata !634, metadata !DIExpression()) #10, !dbg !2145
  %103 = tail call i8* @halide_string_to_string(i8* %102, i8* %93, i8* nonnull getelementptr inbounds ([13 x i8], [13 x i8]* @.str.32, i64 0, i64 0)) #8, !dbg !2147
  call void @llvm.dbg.value(metadata %"class.Halide::Runtime::Internal::(anonymous namespace)::Printer"* undef, metadata !2148, metadata !DIExpression()) #10, !dbg !2152
  call void @llvm.dbg.value(metadata i1 %5, metadata !2151, metadata !DIExpression(DW_OP_LLVM_convert, 1, DW_ATE_unsigned, DW_OP_LLVM_convert, 32, DW_ATE_unsigned, DW_OP_stack_value)) #10, !dbg !2152
  %104 = zext i1 %5 to i64, !dbg !2154
  %105 = tail call i8* @halide_int64_to_string(i8* %103, i8* %93, i64 %104, i32 1) #8, !dbg !2155
  call void @llvm.dbg.value(metadata %"class.Halide::Runtime::Internal::(anonymous namespace)::Printer"* undef, metadata !631, metadata !DIExpression()) #10, !dbg !2156
  call void @llvm.dbg.value(metadata i8* getelementptr inbounds ([14 x i8], [14 x i8]* @.str.33, i64 0, i64 0), metadata !634, metadata !DIExpression()) #10, !dbg !2156
  %106 = tail call i8* @halide_string_to_string(i8* %105, i8* %93, i8* nonnull getelementptr inbounds ([14 x i8], [14 x i8]* @.str.33, i64 0, i64 0)) #8, !dbg !2158
  call void @llvm.dbg.value(metadata %"class.Halide::Runtime::Internal::(anonymous namespace)::Printer"* undef, metadata !2148, metadata !DIExpression()) #10, !dbg !2159
  call void @llvm.dbg.value(metadata i1 %78, metadata !2151, metadata !DIExpression(DW_OP_LLVM_convert, 1, DW_ATE_unsigned, DW_OP_LLVM_convert, 32, DW_ATE_unsigned, DW_OP_stack_value)) #10, !dbg !2159
  %107 = zext i1 %78 to i64, !dbg !2161
  %108 = tail call i8* @halide_int64_to_string(i8* %106, i8* %93, i64 %107, i32 1) #8, !dbg !2162
  call void @llvm.dbg.value(metadata %"class.Halide::Runtime::Internal::(anonymous namespace)::Printer"* undef, metadata !631, metadata !DIExpression()) #10, !dbg !2163
  call void @llvm.dbg.value(metadata i8* getelementptr inbounds ([3 x i8], [3 x i8]* @.str.3, i64 0, i64 0), metadata !634, metadata !DIExpression()) #10, !dbg !2163
  %109 = tail call i8* @halide_string_to_string(i8* %108, i8* %93, i8* nonnull getelementptr inbounds ([3 x i8], [3 x i8]* @.str.3, i64 0, i64 0)) #8, !dbg !2165
  call void @llvm.dbg.value(metadata %"class.Halide::Runtime::Internal::(anonymous namespace)::Printer"* undef, metadata !640, metadata !DIExpression()) #10, !dbg !2166
  br i1 %89, label %110, label %111, !dbg !2168

110:                                              ; preds = %92
  tail call void @halide_error(i8* %0, i8* getelementptr inbounds ([35 x i8], [35 x i8]* @.str.105, i64 0, i64 0)) #8, !dbg !2169
  br label %117, !dbg !2170

111:                                              ; preds = %92
  call void @llvm.dbg.value(metadata %"class.Halide::Runtime::Internal::(anonymous namespace)::Printer"* undef, metadata !654, metadata !DIExpression()) #10, !dbg !2171
  %112 = ptrtoint i8* %109 to i64, !dbg !2173
  %113 = ptrtoint i8* %88 to i64, !dbg !2173
  %114 = add i64 %112, 1, !dbg !2173
  %115 = sub i64 %114, %113, !dbg !2174
  %116 = tail call i32 @halide_msan_annotate_memory_is_initialized(i8* %0, i8* nonnull %88, i64 %115) #8, !dbg !2175
  tail call void @halide_print(i8* %0, i8* nonnull %88) #8, !dbg !2176
  br label %117

117:                                              ; preds = %110, %111
  call void @free(i8* %88) #8, !dbg !2177
  br i1 %6, label %118, label %120, !dbg !2178

118:                                              ; preds = %117
  %119 = call fastcc i32 @_ZN12_GLOBAL__N_126halide_hexagon_dma_wrapperEPvP15halide_buffer_tS2_(i8* %0, %struct.halide_buffer_t* %3, %struct.halide_buffer_t* nonnull %65) #9, !dbg !2179
  call void @llvm.dbg.value(metadata i32 %119, metadata !1994, metadata !DIExpression()), !dbg !1995
  br label %122, !dbg !2182

120:                                              ; preds = %117
  %121 = call fastcc i32 @_ZN12_GLOBAL__N_126halide_hexagon_dma_wrapperEPvP15halide_buffer_tS2_(i8* %0, %struct.halide_buffer_t* nonnull %65, %struct.halide_buffer_t* %3) #9, !dbg !2183
  call void @llvm.dbg.value(metadata i32 %121, metadata !1994, metadata !DIExpression()), !dbg !1995
  br label %122

122:                                              ; preds = %62, %118, %120
  %123 = phi i32 [ %39, %62 ], [ %119, %118 ], [ %121, %120 ], !dbg !1995
  ret i32 %123, !dbg !2185
}

; Function Attrs: nounwind
define internal fastcc i32 @_ZN12_GLOBAL__N_126halide_hexagon_dma_wrapperEPvP15halide_buffer_tS2_(i8* %0, %struct.halide_buffer_t* nocapture readonly %1, %struct.halide_buffer_t* nocapture readonly %2) unnamed_addr #4 !dbg !2186 {
  %4 = alloca %"class.Halide::Runtime::Internal::(anonymous namespace)::Printer", align 8
  %5 = alloca %struct.stDmaWrapper_RoiAlignInfo, align 2
  %6 = alloca %"class.Halide::Runtime::Internal::(anonymous namespace)::Printer", align 8
  %7 = alloca %struct.stDmaWrapper_DmaTransferSetup, align 8
  %8 = alloca %"class.Halide::Runtime::Internal::(anonymous namespace)::Printer", align 8
  %9 = alloca %"class.Halide::Runtime::Internal::(anonymous namespace)::Printer", align 8
  call void @llvm.dbg.value(metadata i8* %0, metadata !2190, metadata !DIExpression()), !dbg !2227
  call void @llvm.dbg.value(metadata %struct.halide_buffer_t* %1, metadata !2191, metadata !DIExpression()), !dbg !2227
  call void @llvm.dbg.value(metadata %struct.halide_buffer_t* %2, metadata !2192, metadata !DIExpression()), !dbg !2227
  call void @llvm.dbg.value(metadata %"struct.Halide::Runtime::Internal::HexagonDma::dma_device_handle"* null, metadata !2193, metadata !DIExpression()), !dbg !2227
  %10 = getelementptr inbounds %struct.halide_buffer_t, %struct.halide_buffer_t* %1, i64 0, i32 0, !dbg !2228
  %11 = load i64, i64* %10, align 8, !dbg !2228, !tbaa !717
  %12 = inttoptr i64 %11 to %"struct.Halide::Runtime::Internal::HexagonDma::dma_device_handle"*, !dbg !2229
  call void @llvm.dbg.value(metadata %"struct.Halide::Runtime::Internal::HexagonDma::dma_device_handle"* %12, metadata !2193, metadata !DIExpression()), !dbg !2227
  call void @llvm.dbg.value(metadata %"class.Halide::Runtime::Internal::(anonymous namespace)::Printer"* undef, metadata !614, metadata !DIExpression()) #10, !dbg !2230
  call void @llvm.dbg.value(metadata i8* %0, metadata !617, metadata !DIExpression()) #10, !dbg !2230
  call void @llvm.dbg.value(metadata i8* null, metadata !618, metadata !DIExpression()) #10, !dbg !2230
  %13 = tail call i8* @malloc(i64 1024) #8, !dbg !2232
  %14 = icmp eq i8* %13, null, !dbg !2233
  br i1 %14, label %17, label %15, !dbg !2234

15:                                               ; preds = %3
  %16 = getelementptr inbounds i8, i8* %13, i64 1023, !dbg !2235
  store i8 0, i8* %16, align 1, !dbg !2236, !tbaa !653
  br label %17, !dbg !2237

17:                                               ; preds = %3, %15
  %18 = phi i8* [ %16, %15 ], [ null, %3 ], !dbg !2238
  call void @llvm.dbg.value(metadata %"class.Halide::Runtime::Internal::(anonymous namespace)::Printer"* undef, metadata !631, metadata !DIExpression()) #10, !dbg !2239
  call void @llvm.dbg.value(metadata i8* getelementptr inbounds ([29 x i8], [29 x i8]* @.str.65, i64 0, i64 0), metadata !634, metadata !DIExpression()) #10, !dbg !2239
  %19 = tail call i8* @halide_string_to_string(i8* %13, i8* %18, i8* nonnull getelementptr inbounds ([29 x i8], [29 x i8]* @.str.65, i64 0, i64 0)) #8, !dbg !2241
  %20 = getelementptr inbounds %"struct.Halide::Runtime::Internal::HexagonDma::dma_device_handle", %"struct.Halide::Runtime::Internal::HexagonDma::dma_device_handle"* %12, i64 0, i32 0, !dbg !2242
  %21 = load i8*, i8** %20, align 8, !dbg !2242, !tbaa !1257
  call void @llvm.dbg.value(metadata %"class.Halide::Runtime::Internal::(anonymous namespace)::Printer"* undef, metadata !911, metadata !DIExpression()) #10, !dbg !2243
  call void @llvm.dbg.value(metadata i8* %21, metadata !914, metadata !DIExpression()) #10, !dbg !2243
  %22 = tail call i8* @halide_pointer_to_string(i8* %19, i8* %18, i8* %21) #8, !dbg !2245
  call void @llvm.dbg.value(metadata %"class.Halide::Runtime::Internal::(anonymous namespace)::Printer"* undef, metadata !631, metadata !DIExpression()) #10, !dbg !2246
  call void @llvm.dbg.value(metadata i8* getelementptr inbounds ([20 x i8], [20 x i8]* @.str.66, i64 0, i64 0), metadata !634, metadata !DIExpression()) #10, !dbg !2246
  %23 = tail call i8* @halide_string_to_string(i8* %22, i8* %18, i8* nonnull getelementptr inbounds ([20 x i8], [20 x i8]* @.str.66, i64 0, i64 0)) #8, !dbg !2248
  %24 = getelementptr inbounds %"struct.Halide::Runtime::Internal::HexagonDma::dma_device_handle", %"struct.Halide::Runtime::Internal::HexagonDma::dma_device_handle"* %12, i64 0, i32 1, !dbg !2249
  %25 = load i16, i16* %24, align 8, !dbg !2249, !tbaa !1229
  call void @llvm.dbg.value(metadata %"class.Halide::Runtime::Internal::(anonymous namespace)::Printer"* undef, metadata !2148, metadata !DIExpression()) #10, !dbg !2250
  call void @llvm.dbg.value(metadata i16 %25, metadata !2151, metadata !DIExpression(DW_OP_LLVM_convert, 16, DW_ATE_unsigned, DW_OP_LLVM_convert, 32, DW_ATE_unsigned, DW_OP_stack_value)) #10, !dbg !2250
  %26 = zext i16 %25 to i64, !dbg !2252
  %27 = tail call i8* @halide_int64_to_string(i8* %23, i8* %18, i64 %26, i32 1) #8, !dbg !2253
  call void @llvm.dbg.value(metadata %"class.Halide::Runtime::Internal::(anonymous namespace)::Printer"* undef, metadata !631, metadata !DIExpression()) #10, !dbg !2254
  call void @llvm.dbg.value(metadata i8* getelementptr inbounds ([7 x i8], [7 x i8]* @.str.67, i64 0, i64 0), metadata !634, metadata !DIExpression()) #10, !dbg !2254
  %28 = tail call i8* @halide_string_to_string(i8* %27, i8* %18, i8* nonnull getelementptr inbounds ([7 x i8], [7 x i8]* @.str.67, i64 0, i64 0)) #8, !dbg !2256
  %29 = getelementptr inbounds %"struct.Halide::Runtime::Internal::HexagonDma::dma_device_handle", %"struct.Halide::Runtime::Internal::HexagonDma::dma_device_handle"* %12, i64 0, i32 2, !dbg !2257
  %30 = load i16, i16* %29, align 2, !dbg !2257, !tbaa !1235
  call void @llvm.dbg.value(metadata %"class.Halide::Runtime::Internal::(anonymous namespace)::Printer"* undef, metadata !2148, metadata !DIExpression()) #10, !dbg !2258
  call void @llvm.dbg.value(metadata i16 %30, metadata !2151, metadata !DIExpression(DW_OP_LLVM_convert, 16, DW_ATE_unsigned, DW_OP_LLVM_convert, 32, DW_ATE_unsigned, DW_OP_stack_value)) #10, !dbg !2258
  %31 = zext i16 %30 to i64, !dbg !2260
  %32 = tail call i8* @halide_int64_to_string(i8* %28, i8* %18, i64 %31, i32 1) #8, !dbg !2261
  call void @llvm.dbg.value(metadata %"class.Halide::Runtime::Internal::(anonymous namespace)::Printer"* undef, metadata !631, metadata !DIExpression()) #10, !dbg !2262
  call void @llvm.dbg.value(metadata i8* getelementptr inbounds ([2 x i8], [2 x i8]* @.str.68, i64 0, i64 0), metadata !634, metadata !DIExpression()) #10, !dbg !2262
  %33 = tail call i8* @halide_string_to_string(i8* %32, i8* %18, i8* nonnull getelementptr inbounds ([2 x i8], [2 x i8]* @.str.68, i64 0, i64 0)) #8, !dbg !2264
  call void @llvm.dbg.value(metadata %"class.Halide::Runtime::Internal::(anonymous namespace)::Printer"* undef, metadata !631, metadata !DIExpression()) #10, !dbg !2265
  call void @llvm.dbg.value(metadata i8* getelementptr inbounds ([20 x i8], [20 x i8]* @.str.69, i64 0, i64 0), metadata !634, metadata !DIExpression()) #10, !dbg !2265
  %34 = tail call i8* @halide_string_to_string(i8* %33, i8* %18, i8* nonnull getelementptr inbounds ([20 x i8], [20 x i8]* @.str.69, i64 0, i64 0)) #8, !dbg !2267
  %35 = getelementptr inbounds %"struct.Halide::Runtime::Internal::HexagonDma::dma_device_handle", %"struct.Halide::Runtime::Internal::HexagonDma::dma_device_handle"* %12, i64 0, i32 3, !dbg !2268
  %36 = load i16, i16* %35, align 4, !dbg !2268, !tbaa !1238
  call void @llvm.dbg.value(metadata %"class.Halide::Runtime::Internal::(anonymous namespace)::Printer"* undef, metadata !2148, metadata !DIExpression()) #10, !dbg !2269
  call void @llvm.dbg.value(metadata i16 %36, metadata !2151, metadata !DIExpression(DW_OP_LLVM_convert, 16, DW_ATE_unsigned, DW_OP_LLVM_convert, 32, DW_ATE_unsigned, DW_OP_stack_value)) #10, !dbg !2269
  %37 = zext i16 %36 to i64, !dbg !2271
  %38 = tail call i8* @halide_int64_to_string(i8* %34, i8* %18, i64 %37, i32 1) #8, !dbg !2272
  call void @llvm.dbg.value(metadata %"class.Halide::Runtime::Internal::(anonymous namespace)::Printer"* undef, metadata !631, metadata !DIExpression()) #10, !dbg !2273
  call void @llvm.dbg.value(metadata i8* getelementptr inbounds ([7 x i8], [7 x i8]* @.str.70, i64 0, i64 0), metadata !634, metadata !DIExpression()) #10, !dbg !2273
  %39 = tail call i8* @halide_string_to_string(i8* %38, i8* %18, i8* nonnull getelementptr inbounds ([7 x i8], [7 x i8]* @.str.70, i64 0, i64 0)) #8, !dbg !2275
  %40 = getelementptr inbounds %"struct.Halide::Runtime::Internal::HexagonDma::dma_device_handle", %"struct.Halide::Runtime::Internal::HexagonDma::dma_device_handle"* %12, i64 0, i32 4, !dbg !2276
  %41 = load i16, i16* %40, align 2, !dbg !2276, !tbaa !1241
  call void @llvm.dbg.value(metadata %"class.Halide::Runtime::Internal::(anonymous namespace)::Printer"* undef, metadata !2148, metadata !DIExpression()) #10, !dbg !2277
  call void @llvm.dbg.value(metadata i16 %41, metadata !2151, metadata !DIExpression(DW_OP_LLVM_convert, 16, DW_ATE_unsigned, DW_OP_LLVM_convert, 32, DW_ATE_unsigned, DW_OP_stack_value)) #10, !dbg !2277
  %42 = zext i16 %41 to i64, !dbg !2279
  %43 = tail call i8* @halide_int64_to_string(i8* %39, i8* %18, i64 %42, i32 1) #8, !dbg !2280
  call void @llvm.dbg.value(metadata %"class.Halide::Runtime::Internal::(anonymous namespace)::Printer"* undef, metadata !631, metadata !DIExpression()) #10, !dbg !2281
  call void @llvm.dbg.value(metadata i8* getelementptr inbounds ([2 x i8], [2 x i8]* @.str.68, i64 0, i64 0), metadata !634, metadata !DIExpression()) #10, !dbg !2281
  %44 = tail call i8* @halide_string_to_string(i8* %43, i8* %18, i8* nonnull getelementptr inbounds ([2 x i8], [2 x i8]* @.str.68, i64 0, i64 0)) #8, !dbg !2283
  call void @llvm.dbg.value(metadata %"class.Halide::Runtime::Internal::(anonymous namespace)::Printer"* undef, metadata !631, metadata !DIExpression()) #10, !dbg !2284
  call void @llvm.dbg.value(metadata i8* getelementptr inbounds ([11 x i8], [11 x i8]* @.str.71, i64 0, i64 0), metadata !634, metadata !DIExpression()) #10, !dbg !2284
  %45 = tail call i8* @halide_string_to_string(i8* %44, i8* %18, i8* nonnull getelementptr inbounds ([11 x i8], [11 x i8]* @.str.71, i64 0, i64 0)) #8, !dbg !2286
  %46 = getelementptr inbounds %"struct.Halide::Runtime::Internal::HexagonDma::dma_device_handle", %"struct.Halide::Runtime::Internal::HexagonDma::dma_device_handle"* %12, i64 0, i32 6, !dbg !2287
  %47 = load i32, i32* %46, align 8, !dbg !2287, !tbaa !1265
  call void @llvm.dbg.value(metadata %"class.Halide::Runtime::Internal::(anonymous namespace)::Printer"* undef, metadata !2148, metadata !DIExpression()) #10, !dbg !2288
  call void @llvm.dbg.value(metadata i32 %47, metadata !2151, metadata !DIExpression()) #10, !dbg !2288
  %48 = sext i32 %47 to i64, !dbg !2290
  %49 = tail call i8* @halide_int64_to_string(i8* %45, i8* %18, i64 %48, i32 1) #8, !dbg !2291
  call void @llvm.dbg.value(metadata %"class.Halide::Runtime::Internal::(anonymous namespace)::Printer"* undef, metadata !631, metadata !DIExpression()) #10, !dbg !2292
  call void @llvm.dbg.value(metadata i8* getelementptr inbounds ([5 x i8], [5 x i8]* @.str.72, i64 0, i64 0), metadata !634, metadata !DIExpression()) #10, !dbg !2292
  %50 = tail call i8* @halide_string_to_string(i8* %49, i8* %18, i8* nonnull getelementptr inbounds ([5 x i8], [5 x i8]* @.str.72, i64 0, i64 0)) #8, !dbg !2294
  %51 = getelementptr inbounds %"struct.Halide::Runtime::Internal::HexagonDma::dma_device_handle", %"struct.Halide::Runtime::Internal::HexagonDma::dma_device_handle"* %12, i64 0, i32 7, !dbg !2295
  %52 = load i32, i32* %51, align 4, !dbg !2295, !tbaa !1268
  call void @llvm.dbg.value(metadata %"class.Halide::Runtime::Internal::(anonymous namespace)::Printer"* undef, metadata !2148, metadata !DIExpression()) #10, !dbg !2296
  call void @llvm.dbg.value(metadata i32 %52, metadata !2151, metadata !DIExpression()) #10, !dbg !2296
  %53 = sext i32 %52 to i64, !dbg !2298
  %54 = tail call i8* @halide_int64_to_string(i8* %50, i8* %18, i64 %53, i32 1) #8, !dbg !2299
  call void @llvm.dbg.value(metadata %"class.Halide::Runtime::Internal::(anonymous namespace)::Printer"* undef, metadata !631, metadata !DIExpression()) #10, !dbg !2300
  call void @llvm.dbg.value(metadata i8* getelementptr inbounds ([5 x i8], [5 x i8]* @.str.73, i64 0, i64 0), metadata !634, metadata !DIExpression()) #10, !dbg !2300
  %55 = tail call i8* @halide_string_to_string(i8* %54, i8* %18, i8* nonnull getelementptr inbounds ([5 x i8], [5 x i8]* @.str.73, i64 0, i64 0)) #8, !dbg !2302
  %56 = getelementptr inbounds %"struct.Halide::Runtime::Internal::HexagonDma::dma_device_handle", %"struct.Halide::Runtime::Internal::HexagonDma::dma_device_handle"* %12, i64 0, i32 8, !dbg !2303
  %57 = load i32, i32* %56, align 8, !dbg !2303, !tbaa !1271
  call void @llvm.dbg.value(metadata %"class.Halide::Runtime::Internal::(anonymous namespace)::Printer"* undef, metadata !2148, metadata !DIExpression()) #10, !dbg !2304
  call void @llvm.dbg.value(metadata i32 %57, metadata !2151, metadata !DIExpression()) #10, !dbg !2304
  %58 = sext i32 %57 to i64, !dbg !2306
  %59 = tail call i8* @halide_int64_to_string(i8* %55, i8* %18, i64 %58, i32 1) #8, !dbg !2307
  call void @llvm.dbg.value(metadata %"class.Halide::Runtime::Internal::(anonymous namespace)::Printer"* undef, metadata !631, metadata !DIExpression()) #10, !dbg !2308
  call void @llvm.dbg.value(metadata i8* getelementptr inbounds ([2 x i8], [2 x i8]* @.str.68, i64 0, i64 0), metadata !634, metadata !DIExpression()) #10, !dbg !2308
  %60 = tail call i8* @halide_string_to_string(i8* %59, i8* %18, i8* nonnull getelementptr inbounds ([2 x i8], [2 x i8]* @.str.68, i64 0, i64 0)) #8, !dbg !2310
  call void @llvm.dbg.value(metadata %"class.Halide::Runtime::Internal::(anonymous namespace)::Printer"* undef, metadata !631, metadata !DIExpression()) #10, !dbg !2311
  call void @llvm.dbg.value(metadata i8* getelementptr inbounds ([2 x i8], [2 x i8]* @.str.12, i64 0, i64 0), metadata !634, metadata !DIExpression()) #10, !dbg !2311
  %61 = tail call i8* @halide_string_to_string(i8* %60, i8* %18, i8* nonnull getelementptr inbounds ([2 x i8], [2 x i8]* @.str.12, i64 0, i64 0)) #8, !dbg !2313
  call void @llvm.dbg.value(metadata %"class.Halide::Runtime::Internal::(anonymous namespace)::Printer"* undef, metadata !640, metadata !DIExpression()) #10, !dbg !2314
  br i1 %14, label %62, label %63, !dbg !2316

62:                                               ; preds = %17
  tail call void @halide_error(i8* %0, i8* getelementptr inbounds ([35 x i8], [35 x i8]* @.str.105, i64 0, i64 0)) #8, !dbg !2317
  br label %69, !dbg !2318

63:                                               ; preds = %17
  call void @llvm.dbg.value(metadata %"class.Halide::Runtime::Internal::(anonymous namespace)::Printer"* undef, metadata !654, metadata !DIExpression()) #10, !dbg !2319
  %64 = ptrtoint i8* %61 to i64, !dbg !2321
  %65 = ptrtoint i8* %13 to i64, !dbg !2321
  %66 = add i64 %64, 1, !dbg !2321
  %67 = sub i64 %66, %65, !dbg !2322
  %68 = tail call i32 @halide_msan_annotate_memory_is_initialized(i8* %0, i8* nonnull %13, i64 %67) #8, !dbg !2323
  tail call void @halide_print(i8* %0, i8* nonnull %13) #8, !dbg !2324
  br label %69

69:                                               ; preds = %63, %62
  call void @free(i8* %13) #8, !dbg !2325
  %70 = bitcast %"class.Halide::Runtime::Internal::(anonymous namespace)::Printer"* %4 to i8*, !dbg !2326
  call void @llvm.lifetime.start.p0i8(i64 40, i8* nonnull %70) #10, !dbg !2326
  call void @llvm.dbg.value(metadata %"class.Halide::Runtime::Internal::(anonymous namespace)::Printer"* %4, metadata !614, metadata !DIExpression()) #10, !dbg !2327
  call void @llvm.dbg.value(metadata i8* %0, metadata !617, metadata !DIExpression()) #10, !dbg !2327
  call void @llvm.dbg.value(metadata i8* null, metadata !618, metadata !DIExpression()) #10, !dbg !2327
  %71 = getelementptr inbounds %"class.Halide::Runtime::Internal::(anonymous namespace)::Printer", %"class.Halide::Runtime::Internal::(anonymous namespace)::Printer"* %4, i64 0, i32 3, !dbg !2329
  store i8* %0, i8** %71, align 8, !dbg !2329, !tbaa !2330
  %72 = getelementptr inbounds %"class.Halide::Runtime::Internal::(anonymous namespace)::Printer", %"class.Halide::Runtime::Internal::(anonymous namespace)::Printer"* %4, i64 0, i32 4, !dbg !2332
  store i8 1, i8* %72, align 8, !dbg !2332, !tbaa !2333
  %73 = call i8* @malloc(i64 1024) #8, !dbg !2334
  %74 = getelementptr inbounds %"class.Halide::Runtime::Internal::(anonymous namespace)::Printer", %"class.Halide::Runtime::Internal::(anonymous namespace)::Printer"* %4, i64 0, i32 0, !dbg !2335
  store i8* %73, i8** %74, align 8, !dbg !2336, !tbaa !2337
  %75 = getelementptr inbounds %"class.Halide::Runtime::Internal::(anonymous namespace)::Printer", %"class.Halide::Runtime::Internal::(anonymous namespace)::Printer"* %4, i64 0, i32 1, !dbg !2338
  %76 = icmp eq i8* %73, null, !dbg !2339
  br i1 %76, label %79, label %77, !dbg !2340

77:                                               ; preds = %69
  %78 = getelementptr inbounds i8, i8* %73, i64 1023, !dbg !2341
  store i8 0, i8* %78, align 1, !dbg !2342, !tbaa !653
  br label %79, !dbg !2343

79:                                               ; preds = %69, %77
  %80 = phi i8* [ %78, %77 ], [ null, %69 ], !dbg !2344
  %81 = getelementptr inbounds %"class.Halide::Runtime::Internal::(anonymous namespace)::Printer", %"class.Halide::Runtime::Internal::(anonymous namespace)::Printer"* %4, i64 0, i32 2, !dbg !2345
  store i8* %80, i8** %81, align 8, !dbg !2347
  call void @llvm.dbg.value(metadata %"class.Halide::Runtime::Internal::(anonymous namespace)::Printer"* %4, metadata !631, metadata !DIExpression()) #10, !dbg !2348
  call void @llvm.dbg.value(metadata i8* getelementptr inbounds ([22 x i8], [22 x i8]* @.str.74, i64 0, i64 0), metadata !634, metadata !DIExpression()) #10, !dbg !2348
  %82 = call i8* @halide_string_to_string(i8* %73, i8* %80, i8* nonnull getelementptr inbounds ([22 x i8], [22 x i8]* @.str.74, i64 0, i64 0)) #8, !dbg !2350
  store i8* %82, i8** %75, align 8, !dbg !2351, !tbaa !2352
  call void @llvm.dbg.value(metadata %struct.halide_buffer_t* %1, metadata !970, metadata !DIExpression()), !dbg !2353
  call void @llvm.dbg.value(metadata %struct.halide_buffer_t* %1, metadata !975, metadata !DIExpression()), !dbg !2355
  call void @llvm.dbg.value(metadata i64 0, metadata !978, metadata !DIExpression()), !dbg !2355
  call void @llvm.dbg.value(metadata i32 0, metadata !979, metadata !DIExpression()), !dbg !2357
  %83 = getelementptr inbounds %struct.halide_buffer_t, %struct.halide_buffer_t* %1, i64 0, i32 5, !dbg !2358
  %84 = load i32, i32* %83, align 4, !dbg !2358, !tbaa !752
  %85 = icmp sgt i32 %84, 0, !dbg !2359
  br i1 %85, label %89, label %86, !dbg !2360

86:                                               ; preds = %79
  call void @llvm.dbg.value(metadata %struct.halide_buffer_t* %1, metadata !726, metadata !DIExpression(DW_OP_plus_uconst, 32, DW_OP_stack_value)), !dbg !2361
  %87 = getelementptr inbounds %struct.halide_buffer_t, %struct.halide_buffer_t* %1, i64 0, i32 4, i32 1, !dbg !2363
  %88 = load i8, i8* %87, align 1, !dbg !2363, !tbaa !733
  call void @llvm.dbg.value(metadata %struct.halide_buffer_t* %1, metadata !991, metadata !DIExpression()), !dbg !2364
  call void @llvm.dbg.value(metadata i64 0, metadata !994, metadata !DIExpression()), !dbg !2364
  call void @llvm.dbg.value(metadata i32 0, metadata !995, metadata !DIExpression()), !dbg !2366
  br label %132, !dbg !2367

89:                                               ; preds = %79
  %90 = getelementptr inbounds %struct.halide_buffer_t, %struct.halide_buffer_t* %1, i64 0, i32 6
  %91 = load %struct.halide_dimension_t*, %struct.halide_dimension_t** %90, align 8, !tbaa !755
  %92 = zext i32 %84 to i64, !dbg !2359
  br label %93, !dbg !2360

93:                                               ; preds = %107, %89
  %94 = phi i64 [ 0, %89 ], [ %109, %107 ]
  %95 = phi i64 [ 0, %89 ], [ %108, %107 ]
  call void @llvm.dbg.value(metadata i64 %94, metadata !979, metadata !DIExpression()), !dbg !2357
  call void @llvm.dbg.value(metadata i64 %95, metadata !978, metadata !DIExpression()), !dbg !2355
  %96 = getelementptr inbounds %struct.halide_dimension_t, %struct.halide_dimension_t* %91, i64 %94, i32 2, !dbg !2368
  %97 = load i32, i32* %96, align 4, !dbg !2368, !tbaa !763
  %98 = icmp sgt i32 %97, 0, !dbg !2369
  br i1 %98, label %99, label %107, !dbg !2370

99:                                               ; preds = %93
  %100 = zext i32 %97 to i64, !dbg !2371
  %101 = getelementptr inbounds %struct.halide_dimension_t, %struct.halide_dimension_t* %91, i64 %94, i32 1, !dbg !2372
  %102 = load i32, i32* %101, align 4, !dbg !2372, !tbaa !828
  %103 = add nsw i32 %102, -1, !dbg !2373
  %104 = zext i32 %103 to i64, !dbg !2374
  %105 = mul nuw nsw i64 %104, %100, !dbg !2375
  %106 = add i64 %105, %95, !dbg !2376
  call void @llvm.dbg.value(metadata i64 %106, metadata !978, metadata !DIExpression()), !dbg !2355
  br label %107, !dbg !2377

107:                                              ; preds = %99, %93
  %108 = phi i64 [ %106, %99 ], [ %95, %93 ], !dbg !2355
  call void @llvm.dbg.value(metadata i64 %108, metadata !978, metadata !DIExpression()), !dbg !2355
  %109 = add nuw nsw i64 %94, 1, !dbg !2378
  call void @llvm.dbg.value(metadata i64 %109, metadata !979, metadata !DIExpression()), !dbg !2357
  %110 = icmp eq i64 %109, %92, !dbg !2359
  br i1 %110, label %111, label %93, !dbg !2360, !llvm.loop !2379

111:                                              ; preds = %107
  call void @llvm.dbg.value(metadata i64 %108, metadata !978, metadata !DIExpression(DW_OP_plus_uconst, 1, DW_OP_stack_value)), !dbg !2355
  call void @llvm.dbg.value(metadata %struct.halide_buffer_t* %1, metadata !726, metadata !DIExpression(DW_OP_plus_uconst, 32, DW_OP_stack_value)), !dbg !2361
  %112 = getelementptr inbounds %struct.halide_buffer_t, %struct.halide_buffer_t* %1, i64 0, i32 4, i32 1, !dbg !2363
  %113 = load i8, i8* %112, align 1, !dbg !2363, !tbaa !733
  call void @llvm.dbg.value(metadata %struct.halide_buffer_t* %1, metadata !991, metadata !DIExpression()), !dbg !2364
  call void @llvm.dbg.value(metadata i64 0, metadata !994, metadata !DIExpression()), !dbg !2364
  call void @llvm.dbg.value(metadata i32 0, metadata !995, metadata !DIExpression()), !dbg !2366
  br label %114, !dbg !2367

114:                                              ; preds = %128, %111
  %115 = phi i64 [ 0, %111 ], [ %130, %128 ]
  %116 = phi i64 [ 0, %111 ], [ %129, %128 ]
  call void @llvm.dbg.value(metadata i64 %115, metadata !995, metadata !DIExpression()), !dbg !2366
  call void @llvm.dbg.value(metadata i64 %116, metadata !994, metadata !DIExpression()), !dbg !2364
  %117 = getelementptr inbounds %struct.halide_dimension_t, %struct.halide_dimension_t* %91, i64 %115, i32 2, !dbg !2381
  %118 = load i32, i32* %117, align 4, !dbg !2381, !tbaa !763
  %119 = icmp slt i32 %118, 0, !dbg !2382
  br i1 %119, label %120, label %128, !dbg !2383

120:                                              ; preds = %114
  %121 = zext i32 %118 to i64, !dbg !2384
  %122 = getelementptr inbounds %struct.halide_dimension_t, %struct.halide_dimension_t* %91, i64 %115, i32 1, !dbg !2385
  %123 = load i32, i32* %122, align 4, !dbg !2385, !tbaa !828
  %124 = add nsw i32 %123, -1, !dbg !2386
  %125 = zext i32 %124 to i64, !dbg !2387
  %126 = mul nuw i64 %125, %121, !dbg !2388
  %127 = add i64 %126, %116, !dbg !2389
  call void @llvm.dbg.value(metadata i64 %127, metadata !994, metadata !DIExpression()), !dbg !2364
  br label %128, !dbg !2390

128:                                              ; preds = %120, %114
  %129 = phi i64 [ %127, %120 ], [ %116, %114 ], !dbg !2364
  call void @llvm.dbg.value(metadata i64 %129, metadata !994, metadata !DIExpression()), !dbg !2364
  %130 = add nuw nsw i64 %115, 1, !dbg !2391
  call void @llvm.dbg.value(metadata i64 %130, metadata !995, metadata !DIExpression()), !dbg !2366
  %131 = icmp eq i64 %130, %92, !dbg !2392
  br i1 %131, label %132, label %114, !dbg !2367, !llvm.loop !2393

132:                                              ; preds = %128, %86
  %133 = phi i8 [ %88, %86 ], [ %113, %128 ]
  %134 = phi i64 [ 0, %86 ], [ %108, %128 ]
  %135 = phi i64 [ 0, %86 ], [ %129, %128 ], !dbg !2364
  %136 = zext i8 %133 to i64, !dbg !2363
  %137 = add nuw nsw i64 %136, 7, !dbg !2395
  %138 = lshr i64 %137, 3, !dbg !2396
  %139 = add i64 %134, 1, !dbg !2397
  call void @llvm.dbg.value(metadata i64 %139, metadata !978, metadata !DIExpression()), !dbg !2355
  call void @llvm.dbg.value(metadata %struct.halide_buffer_t* %1, metadata !726, metadata !DIExpression(DW_OP_plus_uconst, 32, DW_OP_stack_value)), !dbg !2398
  %140 = sub i64 %139, %135, !dbg !2400
  %141 = mul i64 %140, %138, !dbg !2400
  call void @llvm.dbg.value(metadata %"class.Halide::Runtime::Internal::(anonymous namespace)::Printer"* %4, metadata !2401, metadata !DIExpression()) #10, !dbg !2405
  call void @llvm.dbg.value(metadata i64 %141, metadata !2404, metadata !DIExpression(DW_OP_LLVM_convert, 64, DW_ATE_unsigned, DW_OP_LLVM_convert, 32, DW_ATE_unsigned, DW_OP_stack_value)) #10, !dbg !2405
  %142 = load i8*, i8** %81, align 8, !dbg !2407, !tbaa !2408
  %143 = and i64 %141, 4294967295, !dbg !2409
  %144 = call i8* @halide_uint64_to_string(i8* %82, i8* %142, i64 %143, i32 1) #8, !dbg !2410
  call void @llvm.dbg.value(metadata %"class.Halide::Runtime::Internal::(anonymous namespace)::Printer"* %4, metadata !631, metadata !DIExpression()) #10, !dbg !2411
  call void @llvm.dbg.value(metadata i8* getelementptr inbounds ([7 x i8], [7 x i8]* @.str.40, i64 0, i64 0), metadata !634, metadata !DIExpression()) #10, !dbg !2411
  %145 = call i8* @halide_string_to_string(i8* %144, i8* %142, i8* nonnull getelementptr inbounds ([7 x i8], [7 x i8]* @.str.40, i64 0, i64 0)) #8, !dbg !2413
  call void @llvm.dbg.value(metadata %struct.halide_buffer_t* %2, metadata !970, metadata !DIExpression()), !dbg !2414
  call void @llvm.dbg.value(metadata %struct.halide_buffer_t* %2, metadata !975, metadata !DIExpression()), !dbg !2416
  call void @llvm.dbg.value(metadata i64 0, metadata !978, metadata !DIExpression()), !dbg !2416
  call void @llvm.dbg.value(metadata i32 0, metadata !979, metadata !DIExpression()), !dbg !2418
  %146 = getelementptr inbounds %struct.halide_buffer_t, %struct.halide_buffer_t* %2, i64 0, i32 5, !dbg !2419
  %147 = load i32, i32* %146, align 4, !dbg !2419, !tbaa !752
  %148 = icmp sgt i32 %147, 0, !dbg !2420
  br i1 %148, label %152, label %149, !dbg !2421

149:                                              ; preds = %132
  call void @llvm.dbg.value(metadata %struct.halide_buffer_t* %2, metadata !726, metadata !DIExpression(DW_OP_plus_uconst, 32, DW_OP_stack_value)), !dbg !2422
  %150 = getelementptr inbounds %struct.halide_buffer_t, %struct.halide_buffer_t* %2, i64 0, i32 4, i32 1, !dbg !2424
  %151 = load i8, i8* %150, align 1, !dbg !2424, !tbaa !733
  call void @llvm.dbg.value(metadata %struct.halide_buffer_t* %2, metadata !991, metadata !DIExpression()), !dbg !2425
  call void @llvm.dbg.value(metadata i64 0, metadata !994, metadata !DIExpression()), !dbg !2425
  call void @llvm.dbg.value(metadata i32 0, metadata !995, metadata !DIExpression()), !dbg !2427
  br label %195, !dbg !2428

152:                                              ; preds = %132
  %153 = getelementptr inbounds %struct.halide_buffer_t, %struct.halide_buffer_t* %2, i64 0, i32 6
  %154 = load %struct.halide_dimension_t*, %struct.halide_dimension_t** %153, align 8, !tbaa !755
  %155 = zext i32 %147 to i64, !dbg !2420
  br label %156, !dbg !2421

156:                                              ; preds = %170, %152
  %157 = phi i64 [ 0, %152 ], [ %172, %170 ]
  %158 = phi i64 [ 0, %152 ], [ %171, %170 ]
  call void @llvm.dbg.value(metadata i64 %157, metadata !979, metadata !DIExpression()), !dbg !2418
  call void @llvm.dbg.value(metadata i64 %158, metadata !978, metadata !DIExpression()), !dbg !2416
  %159 = getelementptr inbounds %struct.halide_dimension_t, %struct.halide_dimension_t* %154, i64 %157, i32 2, !dbg !2429
  %160 = load i32, i32* %159, align 4, !dbg !2429, !tbaa !763
  %161 = icmp sgt i32 %160, 0, !dbg !2430
  br i1 %161, label %162, label %170, !dbg !2431

162:                                              ; preds = %156
  %163 = zext i32 %160 to i64, !dbg !2432
  %164 = getelementptr inbounds %struct.halide_dimension_t, %struct.halide_dimension_t* %154, i64 %157, i32 1, !dbg !2433
  %165 = load i32, i32* %164, align 4, !dbg !2433, !tbaa !828
  %166 = add nsw i32 %165, -1, !dbg !2434
  %167 = zext i32 %166 to i64, !dbg !2435
  %168 = mul nuw nsw i64 %167, %163, !dbg !2436
  %169 = add i64 %168, %158, !dbg !2437
  call void @llvm.dbg.value(metadata i64 %169, metadata !978, metadata !DIExpression()), !dbg !2416
  br label %170, !dbg !2438

170:                                              ; preds = %162, %156
  %171 = phi i64 [ %169, %162 ], [ %158, %156 ], !dbg !2416
  call void @llvm.dbg.value(metadata i64 %171, metadata !978, metadata !DIExpression()), !dbg !2416
  %172 = add nuw nsw i64 %157, 1, !dbg !2439
  call void @llvm.dbg.value(metadata i64 %172, metadata !979, metadata !DIExpression()), !dbg !2418
  %173 = icmp eq i64 %172, %155, !dbg !2420
  br i1 %173, label %174, label %156, !dbg !2421, !llvm.loop !2440

174:                                              ; preds = %170
  call void @llvm.dbg.value(metadata i64 %171, metadata !978, metadata !DIExpression(DW_OP_plus_uconst, 1, DW_OP_stack_value)), !dbg !2416
  call void @llvm.dbg.value(metadata %struct.halide_buffer_t* %2, metadata !726, metadata !DIExpression(DW_OP_plus_uconst, 32, DW_OP_stack_value)), !dbg !2422
  %175 = getelementptr inbounds %struct.halide_buffer_t, %struct.halide_buffer_t* %2, i64 0, i32 4, i32 1, !dbg !2424
  %176 = load i8, i8* %175, align 1, !dbg !2424, !tbaa !733
  call void @llvm.dbg.value(metadata %struct.halide_buffer_t* %2, metadata !991, metadata !DIExpression()), !dbg !2425
  call void @llvm.dbg.value(metadata i64 0, metadata !994, metadata !DIExpression()), !dbg !2425
  call void @llvm.dbg.value(metadata i32 0, metadata !995, metadata !DIExpression()), !dbg !2427
  br label %177, !dbg !2428

177:                                              ; preds = %191, %174
  %178 = phi i64 [ 0, %174 ], [ %193, %191 ]
  %179 = phi i64 [ 0, %174 ], [ %192, %191 ]
  call void @llvm.dbg.value(metadata i64 %178, metadata !995, metadata !DIExpression()), !dbg !2427
  call void @llvm.dbg.value(metadata i64 %179, metadata !994, metadata !DIExpression()), !dbg !2425
  %180 = getelementptr inbounds %struct.halide_dimension_t, %struct.halide_dimension_t* %154, i64 %178, i32 2, !dbg !2442
  %181 = load i32, i32* %180, align 4, !dbg !2442, !tbaa !763
  %182 = icmp slt i32 %181, 0, !dbg !2443
  br i1 %182, label %183, label %191, !dbg !2444

183:                                              ; preds = %177
  %184 = zext i32 %181 to i64, !dbg !2445
  %185 = getelementptr inbounds %struct.halide_dimension_t, %struct.halide_dimension_t* %154, i64 %178, i32 1, !dbg !2446
  %186 = load i32, i32* %185, align 4, !dbg !2446, !tbaa !828
  %187 = add nsw i32 %186, -1, !dbg !2447
  %188 = zext i32 %187 to i64, !dbg !2448
  %189 = mul nuw i64 %188, %184, !dbg !2449
  %190 = add i64 %189, %179, !dbg !2450
  call void @llvm.dbg.value(metadata i64 %190, metadata !994, metadata !DIExpression()), !dbg !2425
  br label %191, !dbg !2451

191:                                              ; preds = %183, %177
  %192 = phi i64 [ %190, %183 ], [ %179, %177 ], !dbg !2425
  call void @llvm.dbg.value(metadata i64 %192, metadata !994, metadata !DIExpression()), !dbg !2425
  %193 = add nuw nsw i64 %178, 1, !dbg !2452
  call void @llvm.dbg.value(metadata i64 %193, metadata !995, metadata !DIExpression()), !dbg !2427
  %194 = icmp eq i64 %193, %155, !dbg !2453
  br i1 %194, label %195, label %177, !dbg !2428, !llvm.loop !2454

195:                                              ; preds = %191, %149
  %196 = phi i8 [ %151, %149 ], [ %176, %191 ]
  %197 = phi i64 [ 0, %149 ], [ %171, %191 ]
  %198 = phi i64 [ 0, %149 ], [ %192, %191 ], !dbg !2425
  %199 = zext i8 %196 to i64, !dbg !2424
  %200 = add nuw nsw i64 %199, 7, !dbg !2456
  %201 = lshr i64 %200, 3, !dbg !2457
  %202 = add i64 %197, 1, !dbg !2458
  call void @llvm.dbg.value(metadata i64 %202, metadata !978, metadata !DIExpression()), !dbg !2416
  call void @llvm.dbg.value(metadata %struct.halide_buffer_t* %2, metadata !726, metadata !DIExpression(DW_OP_plus_uconst, 32, DW_OP_stack_value)), !dbg !2459
  %203 = sub i64 %202, %198, !dbg !2461
  %204 = mul i64 %203, %201, !dbg !2461
  call void @llvm.dbg.value(metadata %"class.Halide::Runtime::Internal::(anonymous namespace)::Printer"* %4, metadata !2401, metadata !DIExpression()) #10, !dbg !2462
  call void @llvm.dbg.value(metadata i64 %204, metadata !2404, metadata !DIExpression(DW_OP_LLVM_convert, 64, DW_ATE_unsigned, DW_OP_LLVM_convert, 32, DW_ATE_unsigned, DW_OP_stack_value)) #10, !dbg !2462
  %205 = load i8*, i8** %81, align 8, !dbg !2464, !tbaa !2408
  %206 = and i64 %204, 4294967295, !dbg !2465
  %207 = call i8* @halide_uint64_to_string(i8* %145, i8* %205, i64 %206, i32 1) #8, !dbg !2466
  call void @llvm.dbg.value(metadata %"class.Halide::Runtime::Internal::(anonymous namespace)::Printer"* %4, metadata !631, metadata !DIExpression()) #10, !dbg !2467
  call void @llvm.dbg.value(metadata i8* getelementptr inbounds ([2 x i8], [2 x i8]* @.str.12, i64 0, i64 0), metadata !634, metadata !DIExpression()) #10, !dbg !2467
  %208 = call i8* @halide_string_to_string(i8* %207, i8* %205, i8* nonnull getelementptr inbounds ([2 x i8], [2 x i8]* @.str.12, i64 0, i64 0)) #8, !dbg !2469
  call void @llvm.dbg.value(metadata %"class.Halide::Runtime::Internal::(anonymous namespace)::Printer"* %4, metadata !640, metadata !DIExpression()) #10, !dbg !2470
  %209 = load i8*, i8** %74, align 8, !dbg !2472, !tbaa !2337
  %210 = icmp eq i8* %209, null, !dbg !2472
  %211 = load i8*, i8** %71, align 8, !dbg !2473, !tbaa !2330
  br i1 %210, label %212, label %213, !dbg !2474

212:                                              ; preds = %195
  call void @halide_error(i8* %211, i8* getelementptr inbounds ([35 x i8], [35 x i8]* @.str.105, i64 0, i64 0)) #8, !dbg !2475
  br label %220, !dbg !2476

213:                                              ; preds = %195
  call void @llvm.dbg.value(metadata %"class.Halide::Runtime::Internal::(anonymous namespace)::Printer"* undef, metadata !654, metadata !DIExpression()) #10, !dbg !2477
  %214 = ptrtoint i8* %208 to i64, !dbg !2479
  %215 = ptrtoint i8* %209 to i64, !dbg !2479
  %216 = add i64 %214, 1, !dbg !2479
  %217 = sub i64 %216, %215, !dbg !2480
  %218 = call i32 @halide_msan_annotate_memory_is_initialized(i8* %211, i8* nonnull %209, i64 %217) #8, !dbg !2481
  %219 = load i8*, i8** %74, align 8, !dbg !2482, !tbaa !2337
  call void @halide_print(i8* %211, i8* %219) #8, !dbg !2483
  br label %220

220:                                              ; preds = %213, %212
  %221 = load i8, i8* %72, align 8, !dbg !2484, !tbaa !2333, !range !2485
  %222 = icmp eq i8 %221, 0, !dbg !2484
  br i1 %222, label %225, label %223, !dbg !2486

223:                                              ; preds = %220
  %224 = load i8*, i8** %74, align 8, !dbg !2487, !tbaa !2337
  call void @free(i8* %224) #8, !dbg !2488
  br label %225, !dbg !2489

225:                                              ; preds = %220, %223
  call void @llvm.lifetime.end.p0i8(i64 40, i8* nonnull %70) #10, !dbg !2326
  %226 = getelementptr inbounds %"struct.Halide::Runtime::Internal::HexagonDma::dma_device_handle", %"struct.Halide::Runtime::Internal::HexagonDma::dma_device_handle"* %12, i64 0, i32 11, !dbg !2490
  %227 = load i32, i32* %226, align 8, !dbg !2490, !tbaa !1251
  %228 = icmp eq i32 %227, 0, !dbg !2492
  br i1 %228, label %229, label %234, !dbg !2493

229:                                              ; preds = %225
  %230 = load i32, i32* %83, align 4, !dbg !2494, !tbaa !752
  %231 = icmp slt i32 %230, 4, !dbg !2494
  br i1 %231, label %275, label %232, !dbg !2498

232:                                              ; preds = %229
  call void @halide_print(i8* %0, i8* getelementptr inbounds ([119 x i8], [119 x i8]* @.str.75, i64 0, i64 0)) #8, !dbg !2499
  call void @abort() #8, !dbg !2499
  %233 = load i32, i32* %226, align 8, !dbg !2501, !tbaa !1251
  br label %234, !dbg !2499

234:                                              ; preds = %232, %225
  %235 = phi i32 [ %233, %232 ], [ %227, %225 ], !dbg !2501
  switch i32 %235, label %241 [
    i32 2, label %236
    i32 5, label %236
    i32 8, label %236
    i32 11, label %236
  ], !dbg !2503

236:                                              ; preds = %234, %234, %234, %234
  %237 = load i32, i32* %83, align 4, !dbg !2504, !tbaa !752
  %238 = icmp eq i32 %237, 2, !dbg !2504
  br i1 %238, label %241, label %239, !dbg !2508

239:                                              ; preds = %236
  call void @halide_print(i8* %0, i8* getelementptr inbounds ([119 x i8], [119 x i8]* @.str.76, i64 0, i64 0)) #8, !dbg !2509
  call void @abort() #8, !dbg !2509
  %240 = load i32, i32* %226, align 8, !dbg !2511, !tbaa !1251
  br label %241, !dbg !2509

241:                                              ; preds = %234, %236, %239
  %242 = phi i32 [ %235, %234 ], [ %235, %236 ], [ %240, %239 ], !dbg !2511
  switch i32 %242, label %275 [
    i32 3, label %243
    i32 6, label %243
    i32 9, label %243
    i32 12, label %243
  ], !dbg !2513

243:                                              ; preds = %241, %241, %241, %241
  %244 = load i32, i32* %83, align 4, !dbg !2514, !tbaa !752
  %245 = icmp eq i32 %244, 3, !dbg !2514
  br i1 %245, label %247, label %246, !dbg !2518

246:                                              ; preds = %243
  call void @halide_print(i8* %0, i8* getelementptr inbounds ([119 x i8], [119 x i8]* @.str.77, i64 0, i64 0)) #8, !dbg !2519
  call void @abort() #8, !dbg !2519
  br label %247, !dbg !2519

247:                                              ; preds = %243, %246
  %248 = getelementptr inbounds %struct.halide_buffer_t, %struct.halide_buffer_t* %1, i64 0, i32 6, !dbg !2521
  %249 = load %struct.halide_dimension_t*, %struct.halide_dimension_t** %248, align 8, !dbg !2521, !tbaa !755
  %250 = getelementptr inbounds %struct.halide_dimension_t, %struct.halide_dimension_t* %249, i64 0, i32 2, !dbg !2521
  %251 = load i32, i32* %250, align 4, !dbg !2521, !tbaa !763
  %252 = icmp eq i32 %251, 2, !dbg !2521
  br i1 %252, label %255, label %253, !dbg !2524

253:                                              ; preds = %247
  call void @halide_print(i8* %0, i8* getelementptr inbounds ([122 x i8], [122 x i8]* @.str.78, i64 0, i64 0)) #8, !dbg !2525
  call void @abort() #8, !dbg !2525
  %254 = load %struct.halide_dimension_t*, %struct.halide_dimension_t** %248, align 8, !dbg !2527, !tbaa !755
  br label %255, !dbg !2525

255:                                              ; preds = %247, %253
  %256 = phi %struct.halide_dimension_t* [ %249, %247 ], [ %254, %253 ], !dbg !2527
  %257 = getelementptr inbounds %struct.halide_dimension_t, %struct.halide_dimension_t* %256, i64 2, i32 2, !dbg !2527
  %258 = load i32, i32* %257, align 4, !dbg !2527, !tbaa !763
  %259 = icmp eq i32 %258, 1, !dbg !2527
  br i1 %259, label %262, label %260, !dbg !2530

260:                                              ; preds = %255
  call void @halide_print(i8* %0, i8* getelementptr inbounds ([122 x i8], [122 x i8]* @.str.79, i64 0, i64 0)) #8, !dbg !2531
  call void @abort() #8, !dbg !2531
  %261 = load %struct.halide_dimension_t*, %struct.halide_dimension_t** %248, align 8, !dbg !2533, !tbaa !755
  br label %262, !dbg !2531

262:                                              ; preds = %255, %260
  %263 = phi %struct.halide_dimension_t* [ %256, %255 ], [ %261, %260 ], !dbg !2533
  %264 = getelementptr inbounds %struct.halide_dimension_t, %struct.halide_dimension_t* %263, i64 2, i32 0, !dbg !2533
  %265 = load i32, i32* %264, align 4, !dbg !2533, !tbaa !767
  %266 = icmp eq i32 %265, 0, !dbg !2533
  br i1 %266, label %269, label %267, !dbg !2536

267:                                              ; preds = %262
  call void @halide_print(i8* %0, i8* getelementptr inbounds ([119 x i8], [119 x i8]* @.str.80, i64 0, i64 0)) #8, !dbg !2537
  call void @abort() #8, !dbg !2537
  %268 = load %struct.halide_dimension_t*, %struct.halide_dimension_t** %248, align 8, !dbg !2539, !tbaa !755
  br label %269, !dbg !2537

269:                                              ; preds = %262, %267
  %270 = phi %struct.halide_dimension_t* [ %263, %262 ], [ %268, %267 ], !dbg !2539
  %271 = getelementptr inbounds %struct.halide_dimension_t, %struct.halide_dimension_t* %270, i64 2, i32 1, !dbg !2539
  %272 = load i32, i32* %271, align 4, !dbg !2539, !tbaa !828
  %273 = icmp eq i32 %272, 2, !dbg !2539
  br i1 %273, label %275, label %274, !dbg !2542

274:                                              ; preds = %269
  call void @halide_print(i8* %0, i8* getelementptr inbounds ([122 x i8], [122 x i8]* @.str.81, i64 0, i64 0)) #8, !dbg !2543
  call void @abort() #8, !dbg !2543
  br label %275, !dbg !2543

275:                                              ; preds = %229, %241, %269, %274
  %276 = bitcast %struct.stDmaWrapper_RoiAlignInfo* %5 to i8*, !dbg !2545
  call void @llvm.lifetime.start.p0i8(i64 4, i8* nonnull %276) #10, !dbg !2545
  call void @llvm.dbg.declare(metadata %struct.stDmaWrapper_RoiAlignInfo* %5, metadata !2194, metadata !DIExpression()), !dbg !2546
  %277 = getelementptr inbounds %struct.stDmaWrapper_RoiAlignInfo, %struct.stDmaWrapper_RoiAlignInfo* %5, i64 0, i32 0, !dbg !2547
  %278 = getelementptr inbounds %struct.halide_buffer_t, %struct.halide_buffer_t* %2, i64 0, i32 6, !dbg !2548
  %279 = load %struct.halide_dimension_t*, %struct.halide_dimension_t** %278, align 8, !dbg !2548, !tbaa !755
  %280 = getelementptr inbounds %struct.halide_dimension_t, %struct.halide_dimension_t* %279, i64 0, i32 1, !dbg !2549
  %281 = load i32, i32* %280, align 4, !dbg !2549, !tbaa !828
  %282 = getelementptr inbounds %struct.halide_dimension_t, %struct.halide_dimension_t* %279, i64 0, i32 2, !dbg !2550
  %283 = load i32, i32* %282, align 4, !dbg !2550, !tbaa !763
  %284 = mul nsw i32 %283, %281, !dbg !2551
  %285 = trunc i32 %284 to i16, !dbg !2552
  store i16 %285, i16* %277, align 2, !dbg !2547, !tbaa !2553
  %286 = getelementptr inbounds %struct.stDmaWrapper_RoiAlignInfo, %struct.stDmaWrapper_RoiAlignInfo* %5, i64 0, i32 1, !dbg !2547
  %287 = getelementptr inbounds %struct.halide_dimension_t, %struct.halide_dimension_t* %279, i64 1, i32 1, !dbg !2555
  %288 = load i32, i32* %287, align 4, !dbg !2555, !tbaa !828
  %289 = trunc i32 %288 to i16, !dbg !2556
  store i16 %289, i16* %286, align 2, !dbg !2547, !tbaa !2557
  %290 = load i32, i32* %226, align 8, !dbg !2558, !tbaa !1251
  %291 = getelementptr inbounds %"struct.Halide::Runtime::Internal::HexagonDma::dma_device_handle", %"struct.Halide::Runtime::Internal::HexagonDma::dma_device_handle"* %12, i64 0, i32 9, !dbg !2559
  %292 = load i8, i8* %291, align 4, !dbg !2559, !tbaa !1248, !range !2485
  %293 = icmp ne i8 %292, 0, !dbg !2559
  %294 = call i32 @nDmaWrapper_GetRecommendedWalkSize(i32 %290, i1 zeroext %293, %struct.stDmaWrapper_RoiAlignInfo* nonnull %5) #8, !dbg !2560
  call void @llvm.dbg.value(metadata i32 %294, metadata !2200, metadata !DIExpression()), !dbg !2227
  %295 = load i32, i32* %226, align 8, !dbg !2561, !tbaa !1251
  %296 = load i8, i8* %291, align 4, !dbg !2562, !tbaa !1248, !range !2485
  %297 = icmp ne i8 %296, 0, !dbg !2562
  %298 = call i32 @nDmaWrapper_GetRecommendedIntermBufStride(i32 %295, %struct.stDmaWrapper_RoiAlignInfo* nonnull %5, i1 zeroext %297) #8, !dbg !2563
  call void @llvm.dbg.value(metadata i32 %298, metadata !2201, metadata !DIExpression()), !dbg !2227
  %299 = load i16, i16* %277, align 2, !dbg !2564, !tbaa !2553
  call void @llvm.dbg.value(metadata i16 %299, metadata !2202, metadata !DIExpression(DW_OP_LLVM_convert, 16, DW_ATE_unsigned, DW_OP_LLVM_convert, 32, DW_ATE_unsigned, DW_OP_stack_value)), !dbg !2227
  %300 = load i16, i16* %286, align 2, !dbg !2565, !tbaa !2557
  %301 = zext i16 %300 to i32, !dbg !2566
  call void @llvm.dbg.value(metadata i32 %301, metadata !2203, metadata !DIExpression()), !dbg !2227
  %302 = bitcast %"class.Halide::Runtime::Internal::(anonymous namespace)::Printer"* %6 to i8*, !dbg !2567
  call void @llvm.lifetime.start.p0i8(i64 40, i8* nonnull %302) #10, !dbg !2567
  call void @llvm.dbg.value(metadata %"class.Halide::Runtime::Internal::(anonymous namespace)::Printer"* %6, metadata !614, metadata !DIExpression()) #10, !dbg !2568
  call void @llvm.dbg.value(metadata i8* %0, metadata !617, metadata !DIExpression()) #10, !dbg !2568
  call void @llvm.dbg.value(metadata i8* null, metadata !618, metadata !DIExpression()) #10, !dbg !2568
  %303 = getelementptr inbounds %"class.Halide::Runtime::Internal::(anonymous namespace)::Printer", %"class.Halide::Runtime::Internal::(anonymous namespace)::Printer"* %6, i64 0, i32 3, !dbg !2570
  store i8* %0, i8** %303, align 8, !dbg !2570, !tbaa !2330
  %304 = getelementptr inbounds %"class.Halide::Runtime::Internal::(anonymous namespace)::Printer", %"class.Halide::Runtime::Internal::(anonymous namespace)::Printer"* %6, i64 0, i32 4, !dbg !2571
  store i8 1, i8* %304, align 8, !dbg !2571, !tbaa !2333
  %305 = call i8* @malloc(i64 1024) #8, !dbg !2572
  %306 = getelementptr inbounds %"class.Halide::Runtime::Internal::(anonymous namespace)::Printer", %"class.Halide::Runtime::Internal::(anonymous namespace)::Printer"* %6, i64 0, i32 0, !dbg !2573
  store i8* %305, i8** %306, align 8, !dbg !2574, !tbaa !2337
  %307 = getelementptr inbounds %"class.Halide::Runtime::Internal::(anonymous namespace)::Printer", %"class.Halide::Runtime::Internal::(anonymous namespace)::Printer"* %6, i64 0, i32 1, !dbg !2575
  store i8* %305, i8** %307, align 8, !dbg !2576, !tbaa !2352
  %308 = icmp eq i8* %305, null, !dbg !2577
  br i1 %308, label %311, label %309, !dbg !2578

309:                                              ; preds = %275
  %310 = getelementptr inbounds i8, i8* %305, i64 1023, !dbg !2579
  store i8 0, i8* %310, align 1, !dbg !2580, !tbaa !653
  br label %311, !dbg !2581

311:                                              ; preds = %275, %309
  %312 = phi i8* [ %310, %309 ], [ null, %275 ], !dbg !2582
  %313 = getelementptr inbounds %"class.Halide::Runtime::Internal::(anonymous namespace)::Printer", %"class.Halide::Runtime::Internal::(anonymous namespace)::Printer"* %6, i64 0, i32 2, !dbg !2583
  store i8* %312, i8** %313, align 8, !dbg !2584
  call void @llvm.dbg.value(metadata %"class.Halide::Runtime::Internal::(anonymous namespace)::Printer"* %6, metadata !631, metadata !DIExpression()) #10, !dbg !2585
  call void @llvm.dbg.value(metadata i8* getelementptr inbounds ([29 x i8], [29 x i8]* @.str.82, i64 0, i64 0), metadata !634, metadata !DIExpression()) #10, !dbg !2585
  %314 = call i8* @halide_string_to_string(i8* %305, i8* %312, i8* nonnull getelementptr inbounds ([29 x i8], [29 x i8]* @.str.82, i64 0, i64 0)) #8, !dbg !2587
  store i8* %314, i8** %307, align 8, !dbg !2588, !tbaa !2352
  call void @llvm.dbg.value(metadata %"class.Halide::Runtime::Internal::(anonymous namespace)::Printer"* %6, metadata !2148, metadata !DIExpression()) #10, !dbg !2589
  call void @llvm.dbg.value(metadata i16 %299, metadata !2151, metadata !DIExpression(DW_OP_LLVM_convert, 16, DW_ATE_unsigned, DW_OP_LLVM_convert, 32, DW_ATE_unsigned, DW_OP_stack_value)) #10, !dbg !2589
  %315 = load i8*, i8** %313, align 8, !dbg !2591, !tbaa !2408
  %316 = zext i16 %299 to i64, !dbg !2592
  %317 = call i8* @halide_int64_to_string(i8* %314, i8* %315, i64 %316, i32 1) #8, !dbg !2593
  store i8* %317, i8** %307, align 8, !dbg !2594, !tbaa !2352
  call void @llvm.dbg.value(metadata %"class.Halide::Runtime::Internal::(anonymous namespace)::Printer"* %6, metadata !631, metadata !DIExpression()) #10, !dbg !2595
  call void @llvm.dbg.value(metadata i8* getelementptr inbounds ([5 x i8], [5 x i8]* @.str.72, i64 0, i64 0), metadata !634, metadata !DIExpression()) #10, !dbg !2595
  %318 = load i8*, i8** %313, align 8, !dbg !2597, !tbaa !2408
  %319 = call i8* @halide_string_to_string(i8* %317, i8* %318, i8* nonnull getelementptr inbounds ([5 x i8], [5 x i8]* @.str.72, i64 0, i64 0)) #8, !dbg !2598
  store i8* %319, i8** %307, align 8, !dbg !2599, !tbaa !2352
  call void @llvm.dbg.value(metadata %"class.Halide::Runtime::Internal::(anonymous namespace)::Printer"* %6, metadata !2148, metadata !DIExpression()) #10, !dbg !2600
  call void @llvm.dbg.value(metadata i32 %301, metadata !2151, metadata !DIExpression()) #10, !dbg !2600
  %320 = load i8*, i8** %313, align 8, !dbg !2602, !tbaa !2408
  %321 = zext i16 %300 to i64, !dbg !2603
  %322 = call i8* @halide_int64_to_string(i8* %319, i8* %320, i64 %321, i32 1) #8, !dbg !2604
  store i8* %322, i8** %307, align 8, !dbg !2605, !tbaa !2352
  call void @llvm.dbg.value(metadata %"class.Halide::Runtime::Internal::(anonymous namespace)::Printer"* %6, metadata !631, metadata !DIExpression()) #10, !dbg !2606
  call void @llvm.dbg.value(metadata i8* getelementptr inbounds ([5 x i8], [5 x i8]* @.str.73, i64 0, i64 0), metadata !634, metadata !DIExpression()) #10, !dbg !2606
  %323 = load i8*, i8** %313, align 8, !dbg !2608, !tbaa !2408
  %324 = call i8* @halide_string_to_string(i8* %322, i8* %323, i8* nonnull getelementptr inbounds ([5 x i8], [5 x i8]* @.str.73, i64 0, i64 0)) #8, !dbg !2609
  store i8* %324, i8** %307, align 8, !dbg !2610, !tbaa !2352
  call void @llvm.dbg.value(metadata %"class.Halide::Runtime::Internal::(anonymous namespace)::Printer"* %6, metadata !2148, metadata !DIExpression()) #10, !dbg !2611
  call void @llvm.dbg.value(metadata i32 %298, metadata !2151, metadata !DIExpression()) #10, !dbg !2611
  %325 = load i8*, i8** %313, align 8, !dbg !2613, !tbaa !2408
  %326 = sext i32 %298 to i64, !dbg !2614
  %327 = call i8* @halide_int64_to_string(i8* %324, i8* %325, i64 %326, i32 1) #8, !dbg !2615
