; ModuleID = '/media/maaz/Data/Repos/rake/Halide-master-d48fbde/src/runtime/posix_threads_tsan.cpp'
source_filename = "/media/maaz/Data/Repos/rake/Halide-master-d48fbde/src/runtime/posix_threads_tsan.cpp"
target datalayout = "e-p:32:32-i64:64"
target triple = "le32-unknown-nacl-unknown"

%"struct.Halide::Runtime::Internal::work_queue_t" = type { %struct.halide_mutex, i32, i32, %"struct.Halide::Runtime::Internal::work"*, i32, i32, i32, %struct.halide_cond, %struct.halide_cond, %struct.halide_cond, i32, i32, [256 x %struct.halide_thread*], i8, i8, i32 }
%struct.halide_mutex = type { [1 x i32] }
%"struct.Halide::Runtime::Internal::work" = type { %struct.halide_parallel_task_t, i32 (i8*, i32, i8*)*, %"struct.Halide::Runtime::Internal::work"*, %"struct.Halide::Runtime::Internal::work"*, i32, %"struct.Halide::Runtime::Internal::work"*, i32, i8*, i32, i32, i32, i8 }
%struct.halide_parallel_task_t = type { i32 (i8*, i32, i32, i8*, i8*)*, i8*, i8*, %struct.halide_semaphore_acquire_t*, i32, i32, i32, i32, i8 }
%struct.halide_semaphore_acquire_t = type { %struct.halide_semaphore_t*, i32 }
%struct.halide_semaphore_t = type { [2 x i64] }
%struct.halide_cond = type { [1 x i32] }
%struct.halide_thread = type opaque
%"struct.Halide::Runtime::Internal::spawned_thread" = type { void (i8*)*, i8*, i32 }
%"class.Halide::Runtime::Internal::Synchronization::word_lock" = type { i32 }
%"struct.Halide::Runtime::Internal::Synchronization::word_lock_queue_data" = type { %"struct.Halide::Runtime::Internal::Synchronization::thread_parker", %"struct.Halide::Runtime::Internal::Synchronization::word_lock_queue_data"*, %"struct.Halide::Runtime::Internal::Synchronization::word_lock_queue_data"*, %"struct.Halide::Runtime::Internal::Synchronization::word_lock_queue_data"*, [4 x i8] }
%"struct.Halide::Runtime::Internal::Synchronization::thread_parker" = type <{ %struct.pthread_mutex_t, %struct.pthread_cond_t, i8, [7 x i8] }>
%struct.pthread_mutex_t = type { [8 x i64] }
%struct.pthread_cond_t = type { [8 x i64] }
%"class.Halide::Runtime::Internal::Synchronization::spin_control" = type { i32 }
%"struct.Halide::Runtime::Internal::Synchronization::hash_bucket" = type { %"class.Halide::Runtime::Internal::Synchronization::word_lock", %"struct.Halide::Runtime::Internal::Synchronization::queue_data"*, %"struct.Halide::Runtime::Internal::Synchronization::queue_data"* }
%"struct.Halide::Runtime::Internal::Synchronization::queue_data" = type { %"struct.Halide::Runtime::Internal::Synchronization::thread_parker", i32, %"struct.Halide::Runtime::Internal::Synchronization::queue_data"*, i32, [4 x i8] }
%"struct.Halide::Runtime::Internal::Synchronization::bucket_pair" = type { %"struct.Halide::Runtime::Internal::Synchronization::hash_bucket"*, %"struct.Halide::Runtime::Internal::Synchronization::hash_bucket"* }
%"struct.Halide::Runtime::Internal::Synchronization::validate_action" = type { i8, i32 }
%"struct.Halide::Runtime::Internal::Synchronization::parking_control" = type { i1 (i8*, %"struct.Halide::Runtime::Internal::Synchronization::validate_action"*)*, void (i8*)*, i32 (i8*, i32, i1)*, void (i8*, %"struct.Halide::Runtime::Internal::Synchronization::validate_action"*, i1, i1)* }
%"class.Halide::Runtime::Internal::Synchronization::fast_mutex" = type { i32 }
%"struct.Halide::Runtime::Internal::Synchronization::mutex_parking_control" = type { %"struct.Halide::Runtime::Internal::Synchronization::parking_control", i32* }
%"struct.Halide::Runtime::Internal::Synchronization::broadcast_parking_control" = type { %"struct.Halide::Runtime::Internal::Synchronization::parking_control", i32*, %"class.Halide::Runtime::Internal::Synchronization::fast_mutex"* }
%"struct.Halide::Runtime::Internal::Synchronization::signal_parking_control" = type { %"struct.Halide::Runtime::Internal::Synchronization::parking_control", i32*, %"class.Halide::Runtime::Internal::Synchronization::fast_mutex"* }
%"struct.Halide::Runtime::Internal::Synchronization::wait_parking_control" = type { %"struct.Halide::Runtime::Internal::Synchronization::parking_control", i32*, %"class.Halide::Runtime::Internal::Synchronization::fast_mutex"* }
%struct.halide_mutex_array = type { %struct.halide_mutex* }

@.str = private unnamed_addr constant [123 x i8] c"/media/maaz/Data/Repos/rake/Halide-master-d48fbde/src/runtime/synchronization_common.h:395 Assert failed: next != nullptr\0A\00", align 1
@_ZN6Halide7Runtime8Internal15Synchronization13table_storageE = weak dso_local global [12288 x i8] zeroinitializer, align 1, !dbg !0
@.str.1 = private unnamed_addr constant [15 x i8] c"HL_NUM_THREADS\00", align 1
@.str.2 = private unnamed_addr constant [14 x i8] c"HL_NUMTHREADS\00", align 1
@_ZN6Halide7Runtime8Internal10work_queueE = weak dso_local global %"struct.Halide::Runtime::Internal::work_queue_t" zeroinitializer, align 4, !dbg !11
@.str.3 = private unnamed_addr constant [256 x i8] c"/media/maaz/Data/Repos/rake/Halide-master-d48fbde/src/runtime/thread_pool_common.h:520 Assert failed: (min_threads <= ((task_parent->task.min_threads * task_parent->active_workers) - task_parent->threads_reserved)) && \22Logic error: thread over commit.\\n\22\0A\00", align 1
@_ZN6Halide7Runtime8Internal14custom_do_taskE = weak dso_local local_unnamed_addr global i32 (i8*, i32 (i8*, i32, i8*)*, i32, i8*)* @halide_default_do_task, align 4, !dbg !121
@_ZN6Halide7Runtime8Internal19custom_do_loop_taskE = weak dso_local local_unnamed_addr global i32 (i8*, i32 (i8*, i32, i32, i8*, i8*)*, i32, i32, i8*, i8*)* @halide_default_do_loop_task, align 4, !dbg !127
@_ZN6Halide7Runtime8Internal17custom_do_par_forE = weak dso_local local_unnamed_addr global i32 (i8*, i32 (i8*, i32, i8*)*, i32, i32, i8*)* @halide_default_do_par_for, align 4, !dbg !133
@_ZN6Halide7Runtime8Internal24custom_do_parallel_tasksE = weak dso_local local_unnamed_addr global i32 (i8*, i32, %struct.halide_parallel_task_t*, i8*)* @halide_default_do_parallel_tasks, align 4, !dbg !139
@_ZN6Halide7Runtime8Internal21custom_semaphore_initE = weak dso_local local_unnamed_addr global i32 (%struct.halide_semaphore_t*, i32)* @halide_default_semaphore_init, align 4, !dbg !146
@_ZN6Halide7Runtime8Internal28custom_semaphore_try_acquireE = weak dso_local local_unnamed_addr global i1 (%struct.halide_semaphore_t*, i32)* @halide_default_semaphore_try_acquire, align 4, !dbg !152
@_ZN6Halide7Runtime8Internal24custom_semaphore_releaseE = weak dso_local local_unnamed_addr global i32 (%struct.halide_semaphore_t*, i32)* @halide_default_semaphore_release, align 4, !dbg !158
@.str.4 = private unnamed_addr constant [38 x i8] c"halide_set_num_threads: must be >= 0.\00", align 1
@.str.6 = private unnamed_addr constant [118 x i8] c"/media/maaz/Data/Repos/rake/Halide-master-d48fbde/src/runtime/synchronization_common.h:1116 Assert failed: val & 0x1\0A\00", align 1
@.str.7 = private unnamed_addr constant [179 x i8] c"/media/maaz/Data/Repos/rake/Halide-master-d48fbde/src/runtime/thread_pool_common.h:153 Assert failed: bytes == limit && \22Logic error in thread pool work queue initialization.\\n\22\0A\00", align 1
@llvm.global_dtors = appending global [1 x { i32, void ()*, i8* }] [{ i32, void ()*, i8* } { i32 65535, void ()* @halide_thread_pool_cleanup, i8* null }]

; Function Attrs: nounwind mustprogress
define weak dso_local i8* @_ZN6Halide7Runtime8Internal19spawn_thread_helperEPv(i8* %0) #0 !dbg !394 {
  call void @llvm.dbg.value(metadata i8* %0, metadata !398, metadata !DIExpression()), !dbg !400
  call void @llvm.dbg.value(metadata i8* %0, metadata !399, metadata !DIExpression()), !dbg !400
  %2 = bitcast i8* %0 to void (i8*)**, !dbg !401
  %3 = load void (i8*)*, void (i8*)** %2, align 4, !dbg !401, !tbaa !402
  %4 = getelementptr inbounds i8, i8* %0, i32 4, !dbg !408
  %5 = bitcast i8* %4 to i8**, !dbg !408
  %6 = load i8*, i8** %5, align 4, !dbg !408, !tbaa !409
  tail call void %3(i8* %6) #6, !dbg !410
  ret i8* null, !dbg !411
}

; Function Attrs: nofree nosync nounwind readnone speculatable willreturn
declare void @llvm.dbg.declare(metadata, metadata, metadata) #1

; Function Attrs: argmemonly nofree nosync nounwind willreturn
declare void @llvm.lifetime.start.p0i8(i64 immarg, i8* nocapture) #2

; Function Attrs: argmemonly nofree nosync nounwind willreturn
declare void @llvm.lifetime.end.p0i8(i64 immarg, i8* nocapture) #2

; Function Attrs: nounwind mustprogress
define weak dso_local %struct.halide_thread* @halide_spawn_thread(void (i8*)* %0, i8* %1) local_unnamed_addr #0 !dbg !412 {
  call void @llvm.dbg.value(metadata void (i8*)* %0, metadata !416, metadata !DIExpression()), !dbg !419
  call void @llvm.dbg.value(metadata i8* %1, metadata !417, metadata !DIExpression()), !dbg !419
  %3 = tail call i8* @malloc(i32 12) #6, !dbg !420
  call void @llvm.dbg.value(metadata i8* %3, metadata !418, metadata !DIExpression()), !dbg !419
  %4 = bitcast i8* %3 to void (i8*)**, !dbg !421
  store void (i8*)* %0, void (i8*)** %4, align 4, !dbg !422, !tbaa !402
  %5 = getelementptr inbounds i8, i8* %3, i32 4, !dbg !423
  %6 = bitcast i8* %5 to i8**, !dbg !423
  store i8* %1, i8** %6, align 4, !dbg !424, !tbaa !409
  %7 = getelementptr inbounds i8, i8* %3, i32 8, !dbg !425
  %8 = bitcast i8* %7 to i32*, !dbg !425
  store i32 0, i32* %8, align 4, !dbg !426, !tbaa !427
  %9 = tail call i32 @pthread_create(i32* nonnull %8, i8* null, i8* (i8*)* nonnull @_ZN6Halide7Runtime8Internal19spawn_thread_helperEPv, i8* %3) #6, !dbg !428
  %10 = bitcast i8* %3 to %struct.halide_thread*, !dbg !429
  ret %struct.halide_thread* %10, !dbg !430
}

declare !dbg !431 dso_local i8* @malloc(i32) local_unnamed_addr #3

declare !dbg !434 dso_local i32 @pthread_create(i32*, i8*, i8* (i8*)*, i8*) local_unnamed_addr #3

; Function Attrs: nounwind mustprogress
define weak dso_local void @halide_join_thread(%struct.halide_thread* %0) local_unnamed_addr #0 !dbg !441 {
  %2 = alloca i8*, align 4
  call void @llvm.dbg.value(metadata %struct.halide_thread* %0, metadata !445, metadata !DIExpression()), !dbg !448
  %3 = bitcast %struct.halide_thread* %0 to %"struct.Halide::Runtime::Internal::spawned_thread"*, !dbg !449
  call void @llvm.dbg.value(metadata %"struct.Halide::Runtime::Internal::spawned_thread"* %3, metadata !446, metadata !DIExpression()), !dbg !448
  %4 = bitcast i8** %2 to i8*, !dbg !450
  call void @llvm.lifetime.start.p0i8(i64 4, i8* nonnull %4) #7, !dbg !450
  call void @llvm.dbg.value(metadata i8* null, metadata !447, metadata !DIExpression()), !dbg !448
  store i8* null, i8** %2, align 4, !dbg !451, !tbaa !452
  %5 = getelementptr inbounds %"struct.Halide::Runtime::Internal::spawned_thread", %"struct.Halide::Runtime::Internal::spawned_thread"* %3, i32 0, i32 2, !dbg !453
  %6 = load i32, i32* %5, align 4, !dbg !453, !tbaa !427
  call void @llvm.dbg.value(metadata i8** %2, metadata !447, metadata !DIExpression(DW_OP_deref)), !dbg !448
  %7 = call i32 @pthread_join(i32 %6, i8** nonnull %2) #6, !dbg !454
  %8 = bitcast %struct.halide_thread* %0 to i8*, !dbg !455
  call void @free(i8* %8) #6, !dbg !456
  call void @llvm.lifetime.end.p0i8(i64 4, i8* nonnull %4) #7, !dbg !457
  ret void, !dbg !457
}

declare !dbg !458 dso_local i32 @pthread_join(i32, i8**) local_unnamed_addr #3

declare !dbg !462 dso_local void @free(i8*) local_unnamed_addr #3

; Function Attrs: nounwind
define weak dso_local void @_ZN6Halide7Runtime8Internal15Synchronization9word_lock9lock_fullEv(%"class.Halide::Runtime::Internal::Synchronization::word_lock"* nonnull dereferenceable(4) %0) local_unnamed_addr #4 align 2 !dbg !463 {
  %2 = alloca %"struct.Halide::Runtime::Internal::Synchronization::word_lock_queue_data", align 8
  call void @llvm.dbg.value(metadata %"class.Halide::Runtime::Internal::Synchronization::word_lock"* %0, metadata !465, metadata !DIExpression()), !dbg !487
  call void @llvm.dbg.value(metadata i32 40, metadata !467, metadata !DIExpression()), !dbg !487
  %3 = getelementptr inbounds %"class.Halide::Runtime::Internal::Synchronization::word_lock", %"class.Halide::Runtime::Internal::Synchronization::word_lock"* %0, i32 0, i32 0, !dbg !488
  %4 = load i32, i32* %3, align 4, !dbg !489, !tbaa !490
  %5 = bitcast %"struct.Halide::Runtime::Internal::Synchronization::word_lock_queue_data"* %2 to i8*
  %6 = getelementptr inbounds %"struct.Halide::Runtime::Internal::Synchronization::word_lock_queue_data", %"struct.Halide::Runtime::Internal::Synchronization::word_lock_queue_data"* %2, i32 0, i32 0, i32 2
  %7 = getelementptr inbounds %"struct.Halide::Runtime::Internal::Synchronization::word_lock_queue_data", %"struct.Halide::Runtime::Internal::Synchronization::word_lock_queue_data"* %2, i32 0, i32 0, i32 0
  %8 = getelementptr inbounds %"struct.Halide::Runtime::Internal::Synchronization::word_lock_queue_data", %"struct.Halide::Runtime::Internal::Synchronization::word_lock_queue_data"* %2, i32 0, i32 0, i32 1
  %9 = getelementptr inbounds %"struct.Halide::Runtime::Internal::Synchronization::word_lock_queue_data", %"struct.Halide::Runtime::Internal::Synchronization::word_lock_queue_data"* %2, i32 0, i32 1
  %10 = getelementptr inbounds %"struct.Halide::Runtime::Internal::Synchronization::word_lock_queue_data", %"struct.Halide::Runtime::Internal::Synchronization::word_lock_queue_data"* %2, i32 0, i32 2
  %11 = getelementptr inbounds %"struct.Halide::Runtime::Internal::Synchronization::word_lock_queue_data", %"struct.Halide::Runtime::Internal::Synchronization::word_lock_queue_data"* %2, i32 0, i32 3
  %12 = ptrtoint %"struct.Halide::Runtime::Internal::Synchronization::word_lock_queue_data"* %2 to i32
  br label %13, !dbg !492

13:                                               ; preds = %65, %1
  %14 = phi i32 [ %4, %1 ], [ %66, %65 ]
  %15 = phi i32 [ 40, %1 ], [ %67, %65 ]
  br label %16, !dbg !493

16:                                               ; preds = %13, %20
  %17 = phi i32 [ %23, %20 ], [ %14, %13 ], !dbg !487
  call void @llvm.dbg.value(metadata i32 %15, metadata !467, metadata !DIExpression()), !dbg !487
  call void @llvm.dbg.value(metadata i32 %17, metadata !479, metadata !DIExpression()), !dbg !487
  %18 = and i32 %17, 1, !dbg !494
  %19 = icmp eq i32 %18, 0, !dbg !495
  br i1 %19, label %20, label %25, !dbg !493

20:                                               ; preds = %16
  call void @llvm.dbg.value(metadata i32 %17, metadata !479, metadata !DIExpression()), !dbg !487
  %21 = or i32 %17, 1, !dbg !496
  call void @llvm.dbg.value(metadata i32 %21, metadata !480, metadata !DIExpression()), !dbg !497
  call void @llvm.dbg.value(metadata i32* %3, metadata !498, metadata !DIExpression()), !dbg !506
  call void @llvm.dbg.value(metadata i32* undef, metadata !504, metadata !DIExpression()), !dbg !506
  call void @llvm.dbg.value(metadata i32* undef, metadata !505, metadata !DIExpression()), !dbg !506
  call void @llvm.dbg.value(metadata i32* %3, metadata !509, metadata !DIExpression()), !dbg !521
  call void @llvm.dbg.value(metadata i32* undef, metadata !515, metadata !DIExpression()), !dbg !521
  call void @llvm.dbg.value(metadata i32* undef, metadata !516, metadata !DIExpression()), !dbg !521
  call void @llvm.dbg.value(metadata i32 %17, metadata !517, metadata !DIExpression()), !dbg !521
  %22 = cmpxchg i32* %3, i32 %17, i32 %21 seq_cst seq_cst, !dbg !523
  %23 = extractvalue { i32, i1 } %22, 0, !dbg !523
  call void @llvm.dbg.value(metadata i32 %23, metadata !518, metadata !DIExpression()), !dbg !521
  %24 = icmp eq i32 %17, %23, !dbg !524
  br i1 %24, label %68, label %16

25:                                               ; preds = %16
  %26 = icmp ugt i32 %17, 3, !dbg !525
  %27 = icmp sgt i32 %15, 0
  %28 = and i1 %26, %27, !dbg !527
  call void @llvm.dbg.value(metadata %"class.Halide::Runtime::Internal::Synchronization::spin_control"* undef, metadata !528, metadata !DIExpression()), !dbg !532
  br i1 %28, label %29, label %34, !dbg !527

29:                                               ; preds = %25
  call void @llvm.dbg.value(metadata i32 %15, metadata !467, metadata !DIExpression(DW_OP_constu, 1, DW_OP_minus, DW_OP_stack_value)), !dbg !487
  %30 = icmp sgt i32 %15, 1, !dbg !534
  br i1 %30, label %31, label %34, !dbg !535

31:                                               ; preds = %29
  %32 = add nsw i32 %15, -1, !dbg !536
  call void @llvm.dbg.value(metadata i32 %32, metadata !467, metadata !DIExpression()), !dbg !487
  call void @halide_thread_yield() #6, !dbg !539
  %33 = load i32, i32* %3, align 4, !dbg !541, !tbaa !490
  br label %65, !dbg !542

34:                                               ; preds = %29, %25
  %35 = phi i32 [ %15, %25 ], [ 0, %29 ], !dbg !487
  call void @llvm.dbg.value(metadata i32 %35, metadata !467, metadata !DIExpression()), !dbg !487
  call void @llvm.lifetime.start.p0i8(i64 152, i8* nonnull %5) #7, !dbg !543
  call void @llvm.dbg.declare(metadata %"struct.Halide::Runtime::Internal::Synchronization::word_lock_queue_data"* %2, metadata !484, metadata !DIExpression()), !dbg !544
  call void @llvm.dbg.value(metadata %"struct.Halide::Runtime::Internal::Synchronization::word_lock_queue_data"* %2, metadata !545, metadata !DIExpression()) #7, !dbg !548
  call void @llvm.dbg.value(metadata %"struct.Halide::Runtime::Internal::Synchronization::word_lock_queue_data"* %2, metadata !550, metadata !DIExpression()) #7, !dbg !554
  store i8 0, i8* %6, align 8, !dbg !556, !tbaa !557
  %36 = call i32 @pthread_mutex_init(%struct.pthread_mutex_t* nonnull %7, i8* null) #6, !dbg !562
  %37 = call i32 @pthread_cond_init(%struct.pthread_cond_t* nonnull %8, i8* null) #6, !dbg !564
  store %"struct.Halide::Runtime::Internal::Synchronization::word_lock_queue_data"* null, %"struct.Halide::Runtime::Internal::Synchronization::word_lock_queue_data"** %9, align 8, !dbg !565, !tbaa !566
  store %"struct.Halide::Runtime::Internal::Synchronization::word_lock_queue_data"* null, %"struct.Halide::Runtime::Internal::Synchronization::word_lock_queue_data"** %10, align 4, !dbg !568, !tbaa !569
  store %"struct.Halide::Runtime::Internal::Synchronization::word_lock_queue_data"* null, %"struct.Halide::Runtime::Internal::Synchronization::word_lock_queue_data"** %11, align 8, !dbg !570, !tbaa !571
  call void @llvm.dbg.value(metadata %"struct.Halide::Runtime::Internal::Synchronization::word_lock_queue_data"* %2, metadata !572, metadata !DIExpression()), !dbg !575
  store i8 1, i8* %6, align 8, !dbg !577, !tbaa !557
  call void @llvm.dbg.value(metadata i32 %17, metadata !479, metadata !DIExpression()), !dbg !487
  %38 = and i32 %17, -4, !dbg !578
  call void @llvm.dbg.value(metadata i32 %38, metadata !485, metadata !DIExpression()), !dbg !579
  %39 = icmp eq i32 %38, 0, !dbg !580
  br i1 %39, label %40, label %41, !dbg !582

40:                                               ; preds = %34
  store %"struct.Halide::Runtime::Internal::Synchronization::word_lock_queue_data"* %2, %"struct.Halide::Runtime::Internal::Synchronization::word_lock_queue_data"** %11, align 8, !dbg !583, !tbaa !571
  br label %43, !dbg !585

41:                                               ; preds = %34
  %42 = inttoptr i32 %38 to %"struct.Halide::Runtime::Internal::Synchronization::word_lock_queue_data"*, !dbg !586
  call void @llvm.dbg.value(metadata %"struct.Halide::Runtime::Internal::Synchronization::word_lock_queue_data"* %42, metadata !485, metadata !DIExpression()), !dbg !579
  store %"struct.Halide::Runtime::Internal::Synchronization::word_lock_queue_data"* %42, %"struct.Halide::Runtime::Internal::Synchronization::word_lock_queue_data"** %9, align 8, !dbg !587, !tbaa !566
  br label %43

43:                                               ; preds = %41, %40
  call void @llvm.dbg.value(metadata i32 %17, metadata !479, metadata !DIExpression()), !dbg !487
  %44 = and i32 %17, 3, !dbg !589
  %45 = or i32 %44, %12, !dbg !590
  call void @llvm.dbg.value(metadata i32 %45, metadata !486, metadata !DIExpression()), !dbg !579
  call void @llvm.dbg.value(metadata i32* %3, metadata !591, metadata !DIExpression()), !dbg !596
  call void @llvm.dbg.value(metadata i32* undef, metadata !594, metadata !DIExpression()), !dbg !596
  call void @llvm.dbg.value(metadata i32* undef, metadata !595, metadata !DIExpression()), !dbg !596
  call void @llvm.dbg.value(metadata i32* %3, metadata !509, metadata !DIExpression()), !dbg !599
  call void @llvm.dbg.value(metadata i32* undef, metadata !515, metadata !DIExpression()), !dbg !599
  call void @llvm.dbg.value(metadata i32* undef, metadata !516, metadata !DIExpression()), !dbg !599
  call void @llvm.dbg.value(metadata i32 %17, metadata !517, metadata !DIExpression()), !dbg !599
  %46 = cmpxchg i32* %3, i32 %17, i32 %45 seq_cst seq_cst, !dbg !601
  %47 = extractvalue { i32, i1 } %46, 0, !dbg !601
  call void @llvm.dbg.value(metadata i32 %47, metadata !518, metadata !DIExpression()), !dbg !599
  %48 = icmp eq i32 %17, %47, !dbg !602
  br i1 %48, label %49, label %60, !dbg !603

49:                                               ; preds = %43
  call void @llvm.dbg.value(metadata %"struct.Halide::Runtime::Internal::Synchronization::word_lock_queue_data"* %2, metadata !604, metadata !DIExpression()) #7, !dbg !607
  %50 = call i32 @pthread_mutex_lock(%struct.pthread_mutex_t* nonnull %7) #6, !dbg !610
  %51 = load i8, i8* %6, align 8, !dbg !611, !tbaa !557, !range !612
  %52 = icmp eq i8 %51, 0, !dbg !611
  br i1 %52, label %57, label %53, !dbg !613

53:                                               ; preds = %49, %53
  %54 = call i32 @pthread_cond_wait(%struct.pthread_cond_t* nonnull %8, %struct.pthread_mutex_t* nonnull %7) #6, !dbg !614
  %55 = load i8, i8* %6, align 8, !dbg !611, !tbaa !557, !range !612
  %56 = icmp eq i8 %55, 0, !dbg !611
  br i1 %56, label %57, label %53, !dbg !613, !llvm.loop !616

57:                                               ; preds = %53, %49
  %58 = call i32 @pthread_mutex_unlock(%struct.pthread_mutex_t* nonnull %7) #6, !dbg !619
  call void @llvm.dbg.value(metadata i32 40, metadata !467, metadata !DIExpression()), !dbg !487
  %59 = load i32, i32* %3, align 4, !dbg !620, !tbaa !490
  br label %60, !dbg !621

60:                                               ; preds = %57, %43
  %61 = phi i32 [ %59, %57 ], [ %47, %43 ], !dbg !622
  %62 = phi i32 [ 40, %57 ], [ %35, %43 ], !dbg !487
  call void @llvm.dbg.value(metadata i32 %62, metadata !467, metadata !DIExpression()), !dbg !487
  call void @llvm.dbg.value(metadata %"struct.Halide::Runtime::Internal::Synchronization::word_lock_queue_data"* %2, metadata !623, metadata !DIExpression()) #7, !dbg !626
  call void @llvm.dbg.value(metadata %"struct.Halide::Runtime::Internal::Synchronization::word_lock_queue_data"* %2, metadata !628, metadata !DIExpression()) #7, !dbg !631
  %63 = call i32 @pthread_cond_destroy(%struct.pthread_cond_t* nonnull %8) #6, !dbg !634
  %64 = call i32 @pthread_mutex_destroy(%struct.pthread_mutex_t* nonnull %7) #6, !dbg !636
  call void @llvm.lifetime.end.p0i8(i64 152, i8* nonnull %5) #7, !dbg !637
  br label %65, !dbg !492

65:                                               ; preds = %60, %31
  %66 = phi i32 [ %33, %31 ], [ %61, %60 ]
  %67 = phi i32 [ %32, %31 ], [ %62, %60 ]
  br label %13, !dbg !493, !llvm.loop !638

68:                                               ; preds = %20
  ret void, !dbg !639
}

declare !dbg !640 dso_local void @halide_thread_yield() local_unnamed_addr #3

; Function Attrs: nounwind
define weak dso_local void @_ZN6Halide7Runtime8Internal15Synchronization9word_lock11unlock_fullEv(%"class.Halide::Runtime::Internal::Synchronization::word_lock"* nonnull dereferenceable(4) %0) local_unnamed_addr #4 align 2 !dbg !643 {
  call void @llvm.dbg.value(metadata %"class.Halide::Runtime::Internal::Synchronization::word_lock"* %0, metadata !645, metadata !DIExpression()), !dbg !667
  %2 = getelementptr inbounds %"class.Halide::Runtime::Internal::Synchronization::word_lock", %"class.Halide::Runtime::Internal::Synchronization::word_lock"* %0, i32 0, i32 0, !dbg !668
  %3 = load i32, i32* %2, align 4, !dbg !669, !tbaa !490
  call void @llvm.dbg.value(metadata i32* undef, metadata !670, metadata !DIExpression()), !dbg !676
  call void @llvm.dbg.value(metadata i32* undef, metadata !675, metadata !DIExpression()), !dbg !676
  br label %4, !dbg !678

4:                                                ; preds = %10, %1
  %5 = phi i32 [ %3, %1 ], [ %13, %10 ], !dbg !679
  call void @llvm.dbg.value(metadata i32 %5, metadata !646, metadata !DIExpression()), !dbg !667
  %6 = and i32 %5, 2, !dbg !680
  %7 = icmp ne i32 %6, 0, !dbg !681
  call void @llvm.dbg.value(metadata i1 %7, metadata !647, metadata !DIExpression(DW_OP_LLVM_convert, 1, DW_ATE_unsigned, DW_OP_LLVM_convert, 8, DW_ATE_unsigned, DW_OP_stack_value)), !dbg !682
  call void @llvm.dbg.value(metadata i1 undef, metadata !649, metadata !DIExpression(DW_OP_LLVM_convert, 1, DW_ATE_unsigned, DW_OP_LLVM_convert, 8, DW_ATE_unsigned, DW_OP_stack_value)), !dbg !682
  %8 = icmp ult i32 %5, 4
  %9 = or i1 %8, %7, !dbg !683
  call void @llvm.dbg.value(metadata i1 %8, metadata !649, metadata !DIExpression(DW_OP_LLVM_convert, 1, DW_ATE_unsigned, DW_OP_LLVM_convert, 8, DW_ATE_unsigned, DW_OP_stack_value)), !dbg !682
  br i1 %9, label %67, label %10, !dbg !683

10:                                               ; preds = %4
  call void @llvm.dbg.value(metadata i32 %5, metadata !646, metadata !DIExpression()), !dbg !667
  %11 = or i32 %5, 2, !dbg !685
  call void @llvm.dbg.value(metadata i32 %11, metadata !650, metadata !DIExpression()), !dbg !682
  call void @llvm.dbg.value(metadata i32* %2, metadata !498, metadata !DIExpression()), !dbg !686
  call void @llvm.dbg.value(metadata i32* undef, metadata !504, metadata !DIExpression()), !dbg !686
  call void @llvm.dbg.value(metadata i32* undef, metadata !505, metadata !DIExpression()), !dbg !686
  call void @llvm.dbg.value(metadata i32* %2, metadata !509, metadata !DIExpression()), !dbg !689
  call void @llvm.dbg.value(metadata i32* undef, metadata !515, metadata !DIExpression()), !dbg !689
  call void @llvm.dbg.value(metadata i32* undef, metadata !516, metadata !DIExpression()), !dbg !689
  call void @llvm.dbg.value(metadata i32 %5, metadata !517, metadata !DIExpression()), !dbg !689
  %12 = cmpxchg i32* %2, i32 %5, i32 %11 seq_cst seq_cst, !dbg !691
  %13 = extractvalue { i32, i1 } %12, 0, !dbg !691
  call void @llvm.dbg.value(metadata i32 %13, metadata !518, metadata !DIExpression()), !dbg !689
  %14 = icmp eq i32 %5, %13, !dbg !692
  br i1 %14, label %15, label %4

15:                                               ; preds = %10, %65
  %16 = phi i32 [ %66, %65 ], [ %5, %10 ], !dbg !679
  call void @llvm.dbg.value(metadata i32 %16, metadata !646, metadata !DIExpression()), !dbg !667
  %17 = and i32 %16, -4, !dbg !693
  %18 = inttoptr i32 %17 to %"struct.Halide::Runtime::Internal::Synchronization::word_lock_queue_data"*, !dbg !694
  call void @llvm.dbg.value(metadata %"struct.Halide::Runtime::Internal::Synchronization::word_lock_queue_data"* %18, metadata !651, metadata !DIExpression()), !dbg !695
  call void @llvm.dbg.value(metadata %"struct.Halide::Runtime::Internal::Synchronization::word_lock_queue_data"* %18, metadata !653, metadata !DIExpression()), !dbg !695
  %19 = getelementptr inbounds %"struct.Halide::Runtime::Internal::Synchronization::word_lock_queue_data", %"struct.Halide::Runtime::Internal::Synchronization::word_lock_queue_data"* %18, i32 0, i32 3, !dbg !696
  call void @llvm.dbg.value(metadata %"struct.Halide::Runtime::Internal::Synchronization::word_lock_queue_data"* undef, metadata !654, metadata !DIExpression()), !dbg !695
  call void @llvm.dbg.value(metadata i32 0, metadata !655, metadata !DIExpression()), !dbg !695
  %20 = load %"struct.Halide::Runtime::Internal::Synchronization::word_lock_queue_data"*, %"struct.Halide::Runtime::Internal::Synchronization::word_lock_queue_data"** %19, align 8, !dbg !695, !tbaa !571
  call void @llvm.dbg.value(metadata %"struct.Halide::Runtime::Internal::Synchronization::word_lock_queue_data"* %18, metadata !653, metadata !DIExpression()), !dbg !695
  call void @llvm.dbg.value(metadata i32 undef, metadata !655, metadata !DIExpression()), !dbg !695
  call void @llvm.dbg.value(metadata %"struct.Halide::Runtime::Internal::Synchronization::word_lock_queue_data"* %20, metadata !654, metadata !DIExpression()), !dbg !695
  %21 = icmp eq %"struct.Halide::Runtime::Internal::Synchronization::word_lock_queue_data"* %20, null, !dbg !697
  br i1 %21, label %22, label %33, !dbg !698

22:                                               ; preds = %15, %28
  %23 = phi %"struct.Halide::Runtime::Internal::Synchronization::word_lock_queue_data"* [ %25, %28 ], [ %18, %15 ]
  call void @llvm.dbg.value(metadata %"struct.Halide::Runtime::Internal::Synchronization::word_lock_queue_data"* %23, metadata !653, metadata !DIExpression()), !dbg !695
  %24 = getelementptr inbounds %"struct.Halide::Runtime::Internal::Synchronization::word_lock_queue_data", %"struct.Halide::Runtime::Internal::Synchronization::word_lock_queue_data"* %23, i32 0, i32 1, !dbg !699
  %25 = load %"struct.Halide::Runtime::Internal::Synchronization::word_lock_queue_data"*, %"struct.Halide::Runtime::Internal::Synchronization::word_lock_queue_data"** %24, align 8, !dbg !699, !tbaa !566
  call void @llvm.dbg.value(metadata %"struct.Halide::Runtime::Internal::Synchronization::word_lock_queue_data"* %25, metadata !656, metadata !DIExpression()), !dbg !700
  %26 = icmp eq %"struct.Halide::Runtime::Internal::Synchronization::word_lock_queue_data"* %25, null, !dbg !701
  br i1 %26, label %27, label %28, !dbg !704

27:                                               ; preds = %22
  tail call void @halide_print(i8* null, i8* getelementptr inbounds ([123 x i8], [123 x i8]* @.str, i32 0, i32 0)) #6, !dbg !705
  tail call void @abort() #6, !dbg !705
  br label %28, !dbg !705

28:                                               ; preds = %27, %22
  %29 = getelementptr inbounds %"struct.Halide::Runtime::Internal::Synchronization::word_lock_queue_data", %"struct.Halide::Runtime::Internal::Synchronization::word_lock_queue_data"* %25, i32 0, i32 2, !dbg !707
  store %"struct.Halide::Runtime::Internal::Synchronization::word_lock_queue_data"* %23, %"struct.Halide::Runtime::Internal::Synchronization::word_lock_queue_data"** %29, align 4, !dbg !708, !tbaa !569
  call void @llvm.dbg.value(metadata %"struct.Halide::Runtime::Internal::Synchronization::word_lock_queue_data"* %25, metadata !653, metadata !DIExpression()), !dbg !695
  %30 = getelementptr inbounds %"struct.Halide::Runtime::Internal::Synchronization::word_lock_queue_data", %"struct.Halide::Runtime::Internal::Synchronization::word_lock_queue_data"* %25, i32 0, i32 3, !dbg !709
  call void @llvm.dbg.value(metadata %"struct.Halide::Runtime::Internal::Synchronization::word_lock_queue_data"* undef, metadata !654, metadata !DIExpression()), !dbg !695
  call void @llvm.dbg.value(metadata i32 undef, metadata !655, metadata !DIExpression(DW_OP_plus_uconst, 1, DW_OP_stack_value)), !dbg !695
  %31 = load %"struct.Halide::Runtime::Internal::Synchronization::word_lock_queue_data"*, %"struct.Halide::Runtime::Internal::Synchronization::word_lock_queue_data"** %30, align 8, !dbg !695, !tbaa !571
  call void @llvm.dbg.value(metadata i32 undef, metadata !655, metadata !DIExpression()), !dbg !695
  call void @llvm.dbg.value(metadata %"struct.Halide::Runtime::Internal::Synchronization::word_lock_queue_data"* %31, metadata !654, metadata !DIExpression()), !dbg !695
  %32 = icmp eq %"struct.Halide::Runtime::Internal::Synchronization::word_lock_queue_data"* %31, null, !dbg !697
  br i1 %32, label %22, label %33, !dbg !698, !llvm.loop !710

33:                                               ; preds = %28, %15
  %34 = phi %"struct.Halide::Runtime::Internal::Synchronization::word_lock_queue_data"* [ %20, %15 ], [ %31, %28 ], !dbg !695
  store %"struct.Halide::Runtime::Internal::Synchronization::word_lock_queue_data"* %34, %"struct.Halide::Runtime::Internal::Synchronization::word_lock_queue_data"** %19, align 8, !dbg !712, !tbaa !571
  call void @llvm.dbg.value(metadata i32 %16, metadata !646, metadata !DIExpression()), !dbg !667
  %35 = and i32 %16, 1, !dbg !713
  %36 = icmp eq i32 %35, 0, !dbg !714
  br i1 %36, label %42, label %37, !dbg !715

37:                                               ; preds = %33
  call void @llvm.dbg.value(metadata i32 %16, metadata !646, metadata !DIExpression()), !dbg !667
  %38 = and i32 %16, -3, !dbg !716
  call void @llvm.dbg.value(metadata i32 %38, metadata !658, metadata !DIExpression()), !dbg !717
  call void @llvm.dbg.value(metadata i32* %2, metadata !718, metadata !DIExpression()), !dbg !723
  call void @llvm.dbg.value(metadata i32* undef, metadata !721, metadata !DIExpression()), !dbg !723
  call void @llvm.dbg.value(metadata i32* undef, metadata !722, metadata !DIExpression()), !dbg !723
  call void @llvm.dbg.value(metadata i32* %2, metadata !509, metadata !DIExpression()), !dbg !726
  call void @llvm.dbg.value(metadata i32* undef, metadata !515, metadata !DIExpression()), !dbg !726
  call void @llvm.dbg.value(metadata i32* undef, metadata !516, metadata !DIExpression()), !dbg !726
  call void @llvm.dbg.value(metadata i32 %16, metadata !517, metadata !DIExpression()), !dbg !726
  %39 = cmpxchg i32* %2, i32 %16, i32 %38 seq_cst seq_cst, !dbg !728
  %40 = extractvalue { i32, i1 } %39, 0, !dbg !728
  call void @llvm.dbg.value(metadata i32 %40, metadata !518, metadata !DIExpression()), !dbg !726
  %41 = icmp eq i32 %16, %40, !dbg !729
  br i1 %41, label %67, label %65, !dbg !730, !llvm.loop !731

42:                                               ; preds = %33
  %43 = getelementptr inbounds %"struct.Halide::Runtime::Internal::Synchronization::word_lock_queue_data", %"struct.Halide::Runtime::Internal::Synchronization::word_lock_queue_data"* %34, i32 0, i32 2, !dbg !734
  %44 = load %"struct.Halide::Runtime::Internal::Synchronization::word_lock_queue_data"*, %"struct.Halide::Runtime::Internal::Synchronization::word_lock_queue_data"** %43, align 4, !dbg !734, !tbaa !569
  call void @llvm.dbg.value(metadata %"struct.Halide::Runtime::Internal::Synchronization::word_lock_queue_data"* %44, metadata !661, metadata !DIExpression()), !dbg !695
  %45 = icmp eq %"struct.Halide::Runtime::Internal::Synchronization::word_lock_queue_data"* %44, null, !dbg !735
  br i1 %45, label %46, label %54, !dbg !736

46:                                               ; preds = %42, %52
  %47 = phi i32 [ %50, %52 ], [ %16, %42 ]
  call void @llvm.dbg.value(metadata i32 %47, metadata !646, metadata !DIExpression()), !dbg !667
  %48 = and i32 %47, 1, !dbg !737
  call void @llvm.dbg.value(metadata i32 %48, metadata !665, metadata !DIExpression()), !dbg !738
  call void @llvm.dbg.value(metadata i32* %2, metadata !718, metadata !DIExpression()), !dbg !739
  call void @llvm.dbg.value(metadata i32* undef, metadata !721, metadata !DIExpression()), !dbg !739
  call void @llvm.dbg.value(metadata i32* undef, metadata !722, metadata !DIExpression()), !dbg !739
  call void @llvm.dbg.value(metadata i32* %2, metadata !509, metadata !DIExpression()), !dbg !742
  call void @llvm.dbg.value(metadata i32* undef, metadata !515, metadata !DIExpression()), !dbg !742
  call void @llvm.dbg.value(metadata i32* undef, metadata !516, metadata !DIExpression()), !dbg !742
  call void @llvm.dbg.value(metadata i32 %47, metadata !517, metadata !DIExpression()), !dbg !742
  %49 = cmpxchg i32* %2, i32 %47, i32 %48 seq_cst seq_cst, !dbg !744
  %50 = extractvalue { i32, i1 } %49, 0, !dbg !744
  call void @llvm.dbg.value(metadata i32 %50, metadata !518, metadata !DIExpression()), !dbg !742
  %51 = icmp eq i32 %47, %50, !dbg !745
  br i1 %51, label %56, label %52, !dbg !746

52:                                               ; preds = %46
  call void @llvm.dbg.value(metadata i32 %50, metadata !646, metadata !DIExpression()), !dbg !667
  %53 = icmp ult i32 %50, 4, !dbg !747
  br i1 %53, label %46, label %63, !dbg !749, !llvm.loop !750

54:                                               ; preds = %42
  store %"struct.Halide::Runtime::Internal::Synchronization::word_lock_queue_data"* %44, %"struct.Halide::Runtime::Internal::Synchronization::word_lock_queue_data"** %19, align 8, !dbg !753, !tbaa !571
  call void @llvm.dbg.value(metadata i32* %2, metadata !755, metadata !DIExpression()), !dbg !761
  call void @llvm.dbg.value(metadata i32 -3, metadata !760, metadata !DIExpression()), !dbg !761
  %55 = atomicrmw and i32* %2, i32 -3 seq_cst, !dbg !763
  br label %56

56:                                               ; preds = %46, %54
  call void @llvm.dbg.value(metadata %"struct.Halide::Runtime::Internal::Synchronization::word_lock_queue_data"* %34, metadata !764, metadata !DIExpression()) #7, !dbg !767
  %57 = getelementptr inbounds %"struct.Halide::Runtime::Internal::Synchronization::word_lock_queue_data", %"struct.Halide::Runtime::Internal::Synchronization::word_lock_queue_data"* %34, i32 0, i32 0, i32 0, !dbg !769
  %58 = tail call i32 @pthread_mutex_lock(%struct.pthread_mutex_t* nonnull %57) #6, !dbg !770
  call void @llvm.dbg.value(metadata %"struct.Halide::Runtime::Internal::Synchronization::word_lock_queue_data"* %34, metadata !771, metadata !DIExpression()) #7, !dbg !774
  %59 = getelementptr inbounds %"struct.Halide::Runtime::Internal::Synchronization::word_lock_queue_data", %"struct.Halide::Runtime::Internal::Synchronization::word_lock_queue_data"* %34, i32 0, i32 0, i32 2, !dbg !776
  store i8 0, i8* %59, align 8, !dbg !777, !tbaa !557
  %60 = getelementptr inbounds %"struct.Halide::Runtime::Internal::Synchronization::word_lock_queue_data", %"struct.Halide::Runtime::Internal::Synchronization::word_lock_queue_data"* %34, i32 0, i32 0, i32 1, !dbg !778
  %61 = tail call i32 @pthread_cond_signal(%struct.pthread_cond_t* nonnull %60) #6, !dbg !779
  call void @llvm.dbg.value(metadata %"struct.Halide::Runtime::Internal::Synchronization::word_lock_queue_data"* %34, metadata !780, metadata !DIExpression()) #7, !dbg !783
  %62 = tail call i32 @pthread_mutex_unlock(%struct.pthread_mutex_t* nonnull %57) #6, !dbg !785
  br label %67, !dbg !786

63:                                               ; preds = %52
  %64 = extractvalue { i32, i1 } %49, 0, !dbg !744
  call void @llvm.dbg.value(metadata i8 undef, metadata !662, metadata !DIExpression()), !dbg !787
  br label %65

65:                                               ; preds = %37, %63
  %66 = phi i32 [ %64, %63 ], [ %40, %37 ], !dbg !667
  fence seq_cst, !dbg !695
  br label %15

67:                                               ; preds = %4, %37, %56
  ret void, !dbg !788
}

declare !dbg !789 extern_weak dso_local void @halide_print(i8*, i8*) local_unnamed_addr #3

declare !dbg !792 dso_local void @abort() local_unnamed_addr #3

; Function Attrs: nounwind mustprogress
define weak dso_local nonnull align 4 dereferenceable(12) %"struct.Halide::Runtime::Internal::Synchronization::hash_bucket"* @_ZN6Halide7Runtime8Internal15Synchronization11lock_bucketEj(i32 %0) local_unnamed_addr #0 !dbg !793 {
  call void @llvm.dbg.value(metadata i32 %0, metadata !798, metadata !DIExpression()), !dbg !801
  call void @llvm.dbg.value(metadata i32 %0, metadata !802, metadata !DIExpression()), !dbg !808
  call void @llvm.dbg.value(metadata i32 10, metadata !807, metadata !DIExpression()), !dbg !808
  %2 = mul i32 %0, -1640531527, !dbg !810
  %3 = lshr i32 %2, 22, !dbg !813
  call void @llvm.dbg.value(metadata i32 %3, metadata !799, metadata !DIExpression()), !dbg !801
  %4 = getelementptr inbounds [1024 x %"struct.Halide::Runtime::Internal::Synchronization::hash_bucket"], [1024 x %"struct.Halide::Runtime::Internal::Synchronization::hash_bucket"]* bitcast ([12288 x i8]* @_ZN6Halide7Runtime8Internal15Synchronization13table_storageE to [1024 x %"struct.Halide::Runtime::Internal::Synchronization::hash_bucket"]*), i32 0, i32 %3, !dbg !814
  call void @llvm.dbg.value(metadata %"struct.Halide::Runtime::Internal::Synchronization::hash_bucket"* %4, metadata !800, metadata !DIExpression()), !dbg !801
  call void @llvm.dbg.value(metadata %"struct.Halide::Runtime::Internal::Synchronization::hash_bucket"* %4, metadata !815, metadata !DIExpression()) #7, !dbg !820
  %5 = bitcast %"struct.Halide::Runtime::Internal::Synchronization::hash_bucket"* %4 to i8*, !dbg !822
  call void @llvm.dbg.value(metadata i8* %5, metadata !823, metadata !DIExpression()) #7, !dbg !826
  tail call void @__tsan_mutex_pre_lock(i8* nonnull %5, i32 1) #6, !dbg !828
  call void @llvm.dbg.value(metadata i32 0, metadata !818, metadata !DIExpression()) #7, !dbg !820
  call void @llvm.dbg.value(metadata i32 1, metadata !819, metadata !DIExpression()) #7, !dbg !820
  %6 = getelementptr inbounds %"struct.Halide::Runtime::Internal::Synchronization::hash_bucket", %"struct.Halide::Runtime::Internal::Synchronization::hash_bucket"* %4, i32 0, i32 0, i32 0, !dbg !829
  call void @llvm.dbg.value(metadata i32* %6, metadata !498, metadata !DIExpression()) #7, !dbg !831
  call void @llvm.dbg.value(metadata i32* undef, metadata !504, metadata !DIExpression()) #7, !dbg !831
  call void @llvm.dbg.value(metadata i32* undef, metadata !505, metadata !DIExpression()) #7, !dbg !831
  call void @llvm.dbg.value(metadata i32* %6, metadata !509, metadata !DIExpression()) #7, !dbg !833
  call void @llvm.dbg.value(metadata i32* undef, metadata !515, metadata !DIExpression()) #7, !dbg !833
  call void @llvm.dbg.value(metadata i32* undef, metadata !516, metadata !DIExpression()) #7, !dbg !833
  call void @llvm.dbg.value(metadata i32 0, metadata !517, metadata !DIExpression()) #7, !dbg !833
  %7 = cmpxchg i32* %6, i32 0, i32 1 seq_cst seq_cst, !dbg !835
  call void @llvm.dbg.value(metadata i32 undef, metadata !518, metadata !DIExpression()) #7, !dbg !833
  %8 = extractvalue { i32, i1 } %7, 1, !dbg !836
  br i1 %8, label %11, label %9, !dbg !837

9:                                                ; preds = %1
  %10 = getelementptr inbounds %"struct.Halide::Runtime::Internal::Synchronization::hash_bucket", %"struct.Halide::Runtime::Internal::Synchronization::hash_bucket"* %4, i32 0, i32 0, !dbg !838
  call void @llvm.dbg.value(metadata %"class.Halide::Runtime::Internal::Synchronization::word_lock"* %10, metadata !815, metadata !DIExpression()) #7, !dbg !820
  tail call void @_ZN6Halide7Runtime8Internal15Synchronization9word_lock9lock_fullEv(%"class.Halide::Runtime::Internal::Synchronization::word_lock"* nonnull dereferenceable(4) %10) #6, !dbg !839
  br label %11, !dbg !841

11:                                               ; preds = %1, %9
  call void @llvm.dbg.value(metadata i8* %5, metadata !842, metadata !DIExpression()) #7, !dbg !845
  tail call void @__tsan_mutex_post_lock(i8* nonnull %5, i32 1, i32 1) #6, !dbg !847
  ret %"struct.Halide::Runtime::Internal::Synchronization::hash_bucket"* %4, !dbg !848
}

; Function Attrs: nounwind
define weak dso_local void @_ZN6Halide7Runtime8Internal15Synchronization16lock_bucket_pairEjj(%"struct.Halide::Runtime::Internal::Synchronization::bucket_pair"* noalias sret(%"struct.Halide::Runtime::Internal::Synchronization::bucket_pair") align 4 %0, i32 %1, i32 %2) local_unnamed_addr #4 !dbg !849 {
  call void @llvm.dbg.value(metadata i32 %1, metadata !861, metadata !DIExpression()), !dbg !875
  call void @llvm.dbg.value(metadata i32 %2, metadata !862, metadata !DIExpression()), !dbg !875
  call void @llvm.dbg.value(metadata i32 %1, metadata !802, metadata !DIExpression()), !dbg !876
  call void @llvm.dbg.value(metadata i32 10, metadata !807, metadata !DIExpression()), !dbg !876
  %4 = mul i32 %1, -1640531527, !dbg !878
  %5 = lshr i32 %4, 22, !dbg !879
  call void @llvm.dbg.value(metadata i32 %5, metadata !863, metadata !DIExpression()), !dbg !875
  call void @llvm.dbg.value(metadata i32 %2, metadata !802, metadata !DIExpression()), !dbg !880
  call void @llvm.dbg.value(metadata i32 10, metadata !807, metadata !DIExpression()), !dbg !880
  %6 = mul i32 %2, -1640531527, !dbg !882
  %7 = lshr i32 %6, 22, !dbg !883
  call void @llvm.dbg.value(metadata i32 %7, metadata !864, metadata !DIExpression()), !dbg !875
  %8 = icmp eq i32 %5, %7, !dbg !884
  br i1 %8, label %9, label %17, !dbg !885

9:                                                ; preds = %3
  %10 = getelementptr inbounds [1024 x %"struct.Halide::Runtime::Internal::Synchronization::hash_bucket"], [1024 x %"struct.Halide::Runtime::Internal::Synchronization::hash_bucket"]* bitcast ([12288 x i8]* @_ZN6Halide7Runtime8Internal15Synchronization13table_storageE to [1024 x %"struct.Halide::Runtime::Internal::Synchronization::hash_bucket"]*), i32 0, i32 %5, !dbg !886
  call void @llvm.dbg.value(metadata %"struct.Halide::Runtime::Internal::Synchronization::hash_bucket"* %10, metadata !865, metadata !DIExpression()), !dbg !887
  call void @llvm.dbg.value(metadata %"struct.Halide::Runtime::Internal::Synchronization::hash_bucket"* %10, metadata !815, metadata !DIExpression()) #7, !dbg !888
  %11 = bitcast %"struct.Halide::Runtime::Internal::Synchronization::hash_bucket"* %10 to i8*, !dbg !890
  call void @llvm.dbg.value(metadata i8* %11, metadata !823, metadata !DIExpression()) #7, !dbg !891
  tail call void @__tsan_mutex_pre_lock(i8* nonnull %11, i32 1) #6, !dbg !893
  call void @llvm.dbg.value(metadata i32 0, metadata !818, metadata !DIExpression()) #7, !dbg !888
  call void @llvm.dbg.value(metadata i32 1, metadata !819, metadata !DIExpression()) #7, !dbg !888
  %12 = getelementptr inbounds %"struct.Halide::Runtime::Internal::Synchronization::hash_bucket", %"struct.Halide::Runtime::Internal::Synchronization::hash_bucket"* %10, i32 0, i32 0, i32 0, !dbg !894
  call void @llvm.dbg.value(metadata i32* %12, metadata !498, metadata !DIExpression()) #7, !dbg !895
  call void @llvm.dbg.value(metadata i32* undef, metadata !504, metadata !DIExpression()) #7, !dbg !895
  call void @llvm.dbg.value(metadata i32* undef, metadata !505, metadata !DIExpression()) #7, !dbg !895
  call void @llvm.dbg.value(metadata i32* %12, metadata !509, metadata !DIExpression()) #7, !dbg !897
  call void @llvm.dbg.value(metadata i32* undef, metadata !515, metadata !DIExpression()) #7, !dbg !897
  call void @llvm.dbg.value(metadata i32* undef, metadata !516, metadata !DIExpression()) #7, !dbg !897
  call void @llvm.dbg.value(metadata i32 0, metadata !517, metadata !DIExpression()) #7, !dbg !897
  %13 = cmpxchg i32* %12, i32 0, i32 1 seq_cst seq_cst, !dbg !899
  call void @llvm.dbg.value(metadata i32 undef, metadata !518, metadata !DIExpression()) #7, !dbg !897
  %14 = extractvalue { i32, i1 } %13, 1, !dbg !900
  br i1 %14, label %51, label %15, !dbg !901

15:                                               ; preds = %9
  %16 = getelementptr inbounds %"struct.Halide::Runtime::Internal::Synchronization::hash_bucket", %"struct.Halide::Runtime::Internal::Synchronization::hash_bucket"* %10, i32 0, i32 0, !dbg !902
  call void @llvm.dbg.value(metadata %"class.Halide::Runtime::Internal::Synchronization::word_lock"* %16, metadata !815, metadata !DIExpression()) #7, !dbg !888
  tail call void @_ZN6Halide7Runtime8Internal15Synchronization9word_lock9lock_fullEv(%"class.Halide::Runtime::Internal::Synchronization::word_lock"* nonnull dereferenceable(4) %16) #6, !dbg !903
  br label %51, !dbg !904

17:                                               ; preds = %3
  %18 = icmp ult i32 %5, %7, !dbg !905
  br i1 %18, label %19, label %35, !dbg !906

19:                                               ; preds = %17
  %20 = getelementptr inbounds [1024 x %"struct.Halide::Runtime::Internal::Synchronization::hash_bucket"], [1024 x %"struct.Halide::Runtime::Internal::Synchronization::hash_bucket"]* bitcast ([12288 x i8]* @_ZN6Halide7Runtime8Internal15Synchronization13table_storageE to [1024 x %"struct.Halide::Runtime::Internal::Synchronization::hash_bucket"]*), i32 0, i32 %5, !dbg !907
  call void @llvm.dbg.value(metadata %"struct.Halide::Runtime::Internal::Synchronization::hash_bucket"* %20, metadata !868, metadata !DIExpression()), !dbg !908
  %21 = getelementptr inbounds [1024 x %"struct.Halide::Runtime::Internal::Synchronization::hash_bucket"], [1024 x %"struct.Halide::Runtime::Internal::Synchronization::hash_bucket"]* bitcast ([12288 x i8]* @_ZN6Halide7Runtime8Internal15Synchronization13table_storageE to [1024 x %"struct.Halide::Runtime::Internal::Synchronization::hash_bucket"]*), i32 0, i32 %7, !dbg !909
  call void @llvm.dbg.value(metadata %"struct.Halide::Runtime::Internal::Synchronization::hash_bucket"* %21, metadata !871, metadata !DIExpression()), !dbg !908
  call void @llvm.dbg.value(metadata %"struct.Halide::Runtime::Internal::Synchronization::hash_bucket"* %20, metadata !815, metadata !DIExpression()) #7, !dbg !910
  %22 = bitcast %"struct.Halide::Runtime::Internal::Synchronization::hash_bucket"* %20 to i8*, !dbg !912
  call void @llvm.dbg.value(metadata i8* %22, metadata !823, metadata !DIExpression()) #7, !dbg !913
  tail call void @__tsan_mutex_pre_lock(i8* nonnull %22, i32 1) #6, !dbg !915
  call void @llvm.dbg.value(metadata i32 0, metadata !818, metadata !DIExpression()) #7, !dbg !910
  call void @llvm.dbg.value(metadata i32 1, metadata !819, metadata !DIExpression()) #7, !dbg !910
  %23 = getelementptr inbounds %"struct.Halide::Runtime::Internal::Synchronization::hash_bucket", %"struct.Halide::Runtime::Internal::Synchronization::hash_bucket"* %20, i32 0, i32 0, i32 0, !dbg !916
  call void @llvm.dbg.value(metadata i32* %23, metadata !498, metadata !DIExpression()) #7, !dbg !917
  call void @llvm.dbg.value(metadata i32* undef, metadata !504, metadata !DIExpression()) #7, !dbg !917
  call void @llvm.dbg.value(metadata i32* undef, metadata !505, metadata !DIExpression()) #7, !dbg !917
  call void @llvm.dbg.value(metadata i32* %23, metadata !509, metadata !DIExpression()) #7, !dbg !919
  call void @llvm.dbg.value(metadata i32* undef, metadata !515, metadata !DIExpression()) #7, !dbg !919
  call void @llvm.dbg.value(metadata i32* undef, metadata !516, metadata !DIExpression()) #7, !dbg !919
  call void @llvm.dbg.value(metadata i32 0, metadata !517, metadata !DIExpression()) #7, !dbg !919
  %24 = cmpxchg i32* %23, i32 0, i32 1 seq_cst seq_cst, !dbg !921
  call void @llvm.dbg.value(metadata i32 undef, metadata !518, metadata !DIExpression()) #7, !dbg !919
  %25 = extractvalue { i32, i1 } %24, 1, !dbg !922
  br i1 %25, label %28, label %26, !dbg !923

26:                                               ; preds = %19
  %27 = getelementptr inbounds %"struct.Halide::Runtime::Internal::Synchronization::hash_bucket", %"struct.Halide::Runtime::Internal::Synchronization::hash_bucket"* %20, i32 0, i32 0, !dbg !924
  call void @llvm.dbg.value(metadata %"class.Halide::Runtime::Internal::Synchronization::word_lock"* %27, metadata !815, metadata !DIExpression()) #7, !dbg !910
  tail call void @_ZN6Halide7Runtime8Internal15Synchronization9word_lock9lock_fullEv(%"class.Halide::Runtime::Internal::Synchronization::word_lock"* nonnull dereferenceable(4) %27) #6, !dbg !925
  br label %28, !dbg !926

28:                                               ; preds = %19, %26
  call void @llvm.dbg.value(metadata i8* %22, metadata !842, metadata !DIExpression()) #7, !dbg !927
  tail call void @__tsan_mutex_post_lock(i8* nonnull %22, i32 1, i32 1) #6, !dbg !929
  call void @llvm.dbg.value(metadata %"struct.Halide::Runtime::Internal::Synchronization::hash_bucket"* %21, metadata !815, metadata !DIExpression()) #7, !dbg !930
  %29 = bitcast %"struct.Halide::Runtime::Internal::Synchronization::hash_bucket"* %21 to i8*, !dbg !932
  call void @llvm.dbg.value(metadata i8* %29, metadata !823, metadata !DIExpression()) #7, !dbg !933
  tail call void @__tsan_mutex_pre_lock(i8* nonnull %29, i32 1) #6, !dbg !935
  call void @llvm.dbg.value(metadata i32 0, metadata !818, metadata !DIExpression()) #7, !dbg !930
  call void @llvm.dbg.value(metadata i32 1, metadata !819, metadata !DIExpression()) #7, !dbg !930
  %30 = getelementptr inbounds %"struct.Halide::Runtime::Internal::Synchronization::hash_bucket", %"struct.Halide::Runtime::Internal::Synchronization::hash_bucket"* %21, i32 0, i32 0, i32 0, !dbg !936
  call void @llvm.dbg.value(metadata i32* %30, metadata !498, metadata !DIExpression()) #7, !dbg !937
  call void @llvm.dbg.value(metadata i32* undef, metadata !504, metadata !DIExpression()) #7, !dbg !937
  call void @llvm.dbg.value(metadata i32* undef, metadata !505, metadata !DIExpression()) #7, !dbg !937
  call void @llvm.dbg.value(metadata i32* %30, metadata !509, metadata !DIExpression()) #7, !dbg !939
  call void @llvm.dbg.value(metadata i32* undef, metadata !515, metadata !DIExpression()) #7, !dbg !939
  call void @llvm.dbg.value(metadata i32* undef, metadata !516, metadata !DIExpression()) #7, !dbg !939
  call void @llvm.dbg.value(metadata i32 0, metadata !517, metadata !DIExpression()) #7, !dbg !939
  %31 = cmpxchg i32* %30, i32 0, i32 1 seq_cst seq_cst, !dbg !941
  call void @llvm.dbg.value(metadata i32 undef, metadata !518, metadata !DIExpression()) #7, !dbg !939
  %32 = extractvalue { i32, i1 } %31, 1, !dbg !942
  br i1 %32, label %51, label %33, !dbg !943

33:                                               ; preds = %28
  %34 = getelementptr inbounds %"struct.Halide::Runtime::Internal::Synchronization::hash_bucket", %"struct.Halide::Runtime::Internal::Synchronization::hash_bucket"* %21, i32 0, i32 0, !dbg !944
  call void @llvm.dbg.value(metadata %"class.Halide::Runtime::Internal::Synchronization::word_lock"* %34, metadata !815, metadata !DIExpression()) #7, !dbg !930
  tail call void @_ZN6Halide7Runtime8Internal15Synchronization9word_lock9lock_fullEv(%"class.Halide::Runtime::Internal::Synchronization::word_lock"* nonnull dereferenceable(4) %34) #6, !dbg !945
  br label %51, !dbg !946

35:                                               ; preds = %17
  %36 = getelementptr inbounds [1024 x %"struct.Halide::Runtime::Internal::Synchronization::hash_bucket"], [1024 x %"struct.Halide::Runtime::Internal::Synchronization::hash_bucket"]* bitcast ([12288 x i8]* @_ZN6Halide7Runtime8Internal15Synchronization13table_storageE to [1024 x %"struct.Halide::Runtime::Internal::Synchronization::hash_bucket"]*), i32 0, i32 %7, !dbg !947
  call void @llvm.dbg.value(metadata %"struct.Halide::Runtime::Internal::Synchronization::hash_bucket"* %36, metadata !872, metadata !DIExpression()), !dbg !948
  %37 = getelementptr inbounds [1024 x %"struct.Halide::Runtime::Internal::Synchronization::hash_bucket"], [1024 x %"struct.Halide::Runtime::Internal::Synchronization::hash_bucket"]* bitcast ([12288 x i8]* @_ZN6Halide7Runtime8Internal15Synchronization13table_storageE to [1024 x %"struct.Halide::Runtime::Internal::Synchronization::hash_bucket"]*), i32 0, i32 %5, !dbg !949
  call void @llvm.dbg.value(metadata %"struct.Halide::Runtime::Internal::Synchronization::hash_bucket"* %37, metadata !874, metadata !DIExpression()), !dbg !948
  call void @llvm.dbg.value(metadata %"struct.Halide::Runtime::Internal::Synchronization::hash_bucket"* %36, metadata !815, metadata !DIExpression()) #7, !dbg !950
  %38 = bitcast %"struct.Halide::Runtime::Internal::Synchronization::hash_bucket"* %36 to i8*, !dbg !952
  call void @llvm.dbg.value(metadata i8* %38, metadata !823, metadata !DIExpression()) #7, !dbg !953
  tail call void @__tsan_mutex_pre_lock(i8* nonnull %38, i32 1) #6, !dbg !955
  call void @llvm.dbg.value(metadata i32 0, metadata !818, metadata !DIExpression()) #7, !dbg !950
  call void @llvm.dbg.value(metadata i32 1, metadata !819, metadata !DIExpression()) #7, !dbg !950
  %39 = getelementptr inbounds %"struct.Halide::Runtime::Internal::Synchronization::hash_bucket", %"struct.Halide::Runtime::Internal::Synchronization::hash_bucket"* %36, i32 0, i32 0, i32 0, !dbg !956
  call void @llvm.dbg.value(metadata i32* %39, metadata !498, metadata !DIExpression()) #7, !dbg !957
  call void @llvm.dbg.value(metadata i32* undef, metadata !504, metadata !DIExpression()) #7, !dbg !957
  call void @llvm.dbg.value(metadata i32* undef, metadata !505, metadata !DIExpression()) #7, !dbg !957
  call void @llvm.dbg.value(metadata i32* %39, metadata !509, metadata !DIExpression()) #7, !dbg !959
  call void @llvm.dbg.value(metadata i32* undef, metadata !515, metadata !DIExpression()) #7, !dbg !959
  call void @llvm.dbg.value(metadata i32* undef, metadata !516, metadata !DIExpression()) #7, !dbg !959
  call void @llvm.dbg.value(metadata i32 0, metadata !517, metadata !DIExpression()) #7, !dbg !959
  %40 = cmpxchg i32* %39, i32 0, i32 1 seq_cst seq_cst, !dbg !961
  call void @llvm.dbg.value(metadata i32 undef, metadata !518, metadata !DIExpression()) #7, !dbg !959
  %41 = extractvalue { i32, i1 } %40, 1, !dbg !962
  br i1 %41, label %44, label %42, !dbg !963

42:                                               ; preds = %35
  %43 = getelementptr inbounds %"struct.Halide::Runtime::Internal::Synchronization::hash_bucket", %"struct.Halide::Runtime::Internal::Synchronization::hash_bucket"* %36, i32 0, i32 0, !dbg !964
  call void @llvm.dbg.value(metadata %"class.Halide::Runtime::Internal::Synchronization::word_lock"* %43, metadata !815, metadata !DIExpression()) #7, !dbg !950
  tail call void @_ZN6Halide7Runtime8Internal15Synchronization9word_lock9lock_fullEv(%"class.Halide::Runtime::Internal::Synchronization::word_lock"* nonnull dereferenceable(4) %43) #6, !dbg !965
  br label %44, !dbg !966

44:                                               ; preds = %35, %42
  call void @llvm.dbg.value(metadata i8* %38, metadata !842, metadata !DIExpression()) #7, !dbg !967
  tail call void @__tsan_mutex_post_lock(i8* nonnull %38, i32 1, i32 1) #6, !dbg !969
  call void @llvm.dbg.value(metadata %"struct.Halide::Runtime::Internal::Synchronization::hash_bucket"* %37, metadata !815, metadata !DIExpression()) #7, !dbg !970
  %45 = bitcast %"struct.Halide::Runtime::Internal::Synchronization::hash_bucket"* %37 to i8*, !dbg !972
  call void @llvm.dbg.value(metadata i8* %45, metadata !823, metadata !DIExpression()) #7, !dbg !973
  tail call void @__tsan_mutex_pre_lock(i8* nonnull %45, i32 1) #6, !dbg !975
  call void @llvm.dbg.value(metadata i32 0, metadata !818, metadata !DIExpression()) #7, !dbg !970
  call void @llvm.dbg.value(metadata i32 1, metadata !819, metadata !DIExpression()) #7, !dbg !970
  %46 = getelementptr inbounds %"struct.Halide::Runtime::Internal::Synchronization::hash_bucket", %"struct.Halide::Runtime::Internal::Synchronization::hash_bucket"* %37, i32 0, i32 0, i32 0, !dbg !976
  call void @llvm.dbg.value(metadata i32* %46, metadata !498, metadata !DIExpression()) #7, !dbg !977
  call void @llvm.dbg.value(metadata i32* undef, metadata !504, metadata !DIExpression()) #7, !dbg !977
  call void @llvm.dbg.value(metadata i32* undef, metadata !505, metadata !DIExpression()) #7, !dbg !977
  call void @llvm.dbg.value(metadata i32* %46, metadata !509, metadata !DIExpression()) #7, !dbg !979
  call void @llvm.dbg.value(metadata i32* undef, metadata !515, metadata !DIExpression()) #7, !dbg !979
  call void @llvm.dbg.value(metadata i32* undef, metadata !516, metadata !DIExpression()) #7, !dbg !979
  call void @llvm.dbg.value(metadata i32 0, metadata !517, metadata !DIExpression()) #7, !dbg !979
  %47 = cmpxchg i32* %46, i32 0, i32 1 seq_cst seq_cst, !dbg !981
  call void @llvm.dbg.value(metadata i32 undef, metadata !518, metadata !DIExpression()) #7, !dbg !979
  %48 = extractvalue { i32, i1 } %47, 1, !dbg !982
  br i1 %48, label %51, label %49, !dbg !983

49:                                               ; preds = %44
  %50 = getelementptr inbounds %"struct.Halide::Runtime::Internal::Synchronization::hash_bucket", %"struct.Halide::Runtime::Internal::Synchronization::hash_bucket"* %37, i32 0, i32 0, !dbg !984
  call void @llvm.dbg.value(metadata %"class.Halide::Runtime::Internal::Synchronization::word_lock"* %50, metadata !815, metadata !DIExpression()) #7, !dbg !970
  tail call void @_ZN6Halide7Runtime8Internal15Synchronization9word_lock9lock_fullEv(%"class.Halide::Runtime::Internal::Synchronization::word_lock"* nonnull dereferenceable(4) %50) #6, !dbg !985
  br label %51, !dbg !986

51:                                               ; preds = %49, %44, %33, %28, %15, %9
  %52 = phi i8* [ %11, %9 ], [ %11, %15 ], [ %29, %28 ], [ %29, %33 ], [ %45, %44 ], [ %45, %49 ]
  %53 = phi %"struct.Halide::Runtime::Internal::Synchronization::hash_bucket"* [ %10, %9 ], [ %10, %15 ], [ %20, %28 ], [ %20, %33 ], [ %37, %44 ], [ %37, %49 ]
  %54 = phi %"struct.Halide::Runtime::Internal::Synchronization::hash_bucket"* [ %10, %9 ], [ %10, %15 ], [ %21, %28 ], [ %21, %33 ], [ %36, %44 ], [ %36, %49 ]
  tail call void @__tsan_mutex_post_lock(i8* nonnull %52, i32 1, i32 1) #6, !dbg !987
  %55 = getelementptr inbounds %"struct.Halide::Runtime::Internal::Synchronization::bucket_pair", %"struct.Halide::Runtime::Internal::Synchronization::bucket_pair"* %0, i32 0, i32 0, !dbg !987
  store %"struct.Halide::Runtime::Internal::Synchronization::hash_bucket"* %53, %"struct.Halide::Runtime::Internal::Synchronization::hash_bucket"** %55, align 4, !dbg !987, !tbaa !452
  %56 = getelementptr inbounds %"struct.Halide::Runtime::Internal::Synchronization::bucket_pair", %"struct.Halide::Runtime::Internal::Synchronization::bucket_pair"* %0, i32 0, i32 1, !dbg !987
  store %"struct.Halide::Runtime::Internal::Synchronization::hash_bucket"* %54, %"struct.Halide::Runtime::Internal::Synchronization::hash_bucket"** %56, align 4, !dbg !987, !tbaa !452
  ret void, !dbg !988
}

; Function Attrs: nounwind mustprogress
define weak dso_local void @_ZN6Halide7Runtime8Internal15Synchronization18unlock_bucket_pairERNS2_11bucket_pairE(%"struct.Halide::Runtime::Internal::Synchronization::bucket_pair"* nonnull align 4 dereferenceable(8) %0) local_unnamed_addr #0 !dbg !989 {
  call void @llvm.dbg.value(metadata %"struct.Halide::Runtime::Internal::Synchronization::bucket_pair"* %0, metadata !994, metadata !DIExpression()), !dbg !995
  %2 = getelementptr inbounds %"struct.Halide::Runtime::Internal::Synchronization::bucket_pair", %"struct.Halide::Runtime::Internal::Synchronization::bucket_pair"* %0, i32 0, i32 0, !dbg !996
  %3 = load %"struct.Halide::Runtime::Internal::Synchronization::hash_bucket"*, %"struct.Halide::Runtime::Internal::Synchronization::hash_bucket"** %2, align 4, !dbg !996, !tbaa !998
  %4 = getelementptr inbounds %"struct.Halide::Runtime::Internal::Synchronization::bucket_pair", %"struct.Halide::Runtime::Internal::Synchronization::bucket_pair"* %0, i32 0, i32 1, !dbg !1000
  %5 = load %"struct.Halide::Runtime::Internal::Synchronization::hash_bucket"*, %"struct.Halide::Runtime::Internal::Synchronization::hash_bucket"** %4, align 4, !dbg !1000, !tbaa !1001
  %6 = icmp eq %"struct.Halide::Runtime::Internal::Synchronization::hash_bucket"* %3, %5, !dbg !1002
  br i1 %6, label %7, label %18, !dbg !1003

7:                                                ; preds = %1
  call void @llvm.dbg.value(metadata %"struct.Halide::Runtime::Internal::Synchronization::hash_bucket"* %3, metadata !1004, metadata !DIExpression()) #7, !dbg !1010
  %8 = bitcast %"struct.Halide::Runtime::Internal::Synchronization::hash_bucket"* %3 to i8*, !dbg !1013
  call void @llvm.dbg.value(metadata i8* %8, metadata !1014, metadata !DIExpression()) #7, !dbg !1017
  %9 = tail call i32 @__tsan_mutex_pre_unlock(i8* nonnull %8, i32 1) #6, !dbg !1019
  %10 = getelementptr inbounds %"struct.Halide::Runtime::Internal::Synchronization::hash_bucket", %"struct.Halide::Runtime::Internal::Synchronization::hash_bucket"* %3, i32 0, i32 0, i32 0, !dbg !1020
  call void @llvm.dbg.value(metadata i32* %10, metadata !1021, metadata !DIExpression()) #7, !dbg !1025
  call void @llvm.dbg.value(metadata i32 -2, metadata !1024, metadata !DIExpression()) #7, !dbg !1025
  %11 = atomicrmw and i32* %10, i32 -2 seq_cst, !dbg !1027
  call void @llvm.dbg.value(metadata i32 %11, metadata !1007, metadata !DIExpression()) #7, !dbg !1010
  %12 = and i32 %11, 2, !dbg !1028
  %13 = icmp ne i32 %12, 0, !dbg !1029
  call void @llvm.dbg.value(metadata i1 %13, metadata !1008, metadata !DIExpression(DW_OP_LLVM_convert, 1, DW_ATE_unsigned, DW_OP_LLVM_convert, 8, DW_ATE_unsigned, DW_OP_stack_value)) #7, !dbg !1010
  call void @llvm.dbg.value(metadata i1 undef, metadata !1009, metadata !DIExpression(DW_OP_LLVM_convert, 1, DW_ATE_unsigned, DW_OP_LLVM_convert, 8, DW_ATE_unsigned, DW_OP_stack_value)) #7, !dbg !1010
  %14 = icmp ult i32 %11, 4
  %15 = or i1 %14, %13, !dbg !1030
  call void @llvm.dbg.value(metadata i1 %14, metadata !1009, metadata !DIExpression(DW_OP_LLVM_convert, 1, DW_ATE_unsigned, DW_OP_LLVM_convert, 8, DW_ATE_unsigned, DW_OP_stack_value)) #7, !dbg !1010
  br i1 %15, label %66, label %16, !dbg !1030

16:                                               ; preds = %7
  %17 = getelementptr inbounds %"struct.Halide::Runtime::Internal::Synchronization::hash_bucket", %"struct.Halide::Runtime::Internal::Synchronization::hash_bucket"* %3, i32 0, i32 0, !dbg !1032
  call void @llvm.dbg.value(metadata %"class.Halide::Runtime::Internal::Synchronization::word_lock"* %17, metadata !1004, metadata !DIExpression()) #7, !dbg !1010
  tail call void @_ZN6Halide7Runtime8Internal15Synchronization9word_lock11unlock_fullEv(%"class.Halide::Runtime::Internal::Synchronization::word_lock"* nonnull dereferenceable(4) %17) #6, !dbg !1033
  br label %66, !dbg !1035

18:                                               ; preds = %1
  %19 = icmp ugt %"struct.Halide::Runtime::Internal::Synchronization::hash_bucket"* %3, %5, !dbg !1036
  br i1 %19, label %20, label %43, !dbg !1038

20:                                               ; preds = %18
  call void @llvm.dbg.value(metadata %"struct.Halide::Runtime::Internal::Synchronization::hash_bucket"* %3, metadata !1004, metadata !DIExpression()) #7, !dbg !1039
  %21 = bitcast %"struct.Halide::Runtime::Internal::Synchronization::hash_bucket"* %3 to i8*, !dbg !1042
  call void @llvm.dbg.value(metadata i8* %21, metadata !1014, metadata !DIExpression()) #7, !dbg !1043
  %22 = tail call i32 @__tsan_mutex_pre_unlock(i8* nonnull %21, i32 1) #6, !dbg !1045
  %23 = getelementptr inbounds %"struct.Halide::Runtime::Internal::Synchronization::hash_bucket", %"struct.Halide::Runtime::Internal::Synchronization::hash_bucket"* %3, i32 0, i32 0, i32 0, !dbg !1046
  call void @llvm.dbg.value(metadata i32* %23, metadata !1021, metadata !DIExpression()) #7, !dbg !1047
  call void @llvm.dbg.value(metadata i32 -2, metadata !1024, metadata !DIExpression()) #7, !dbg !1047
  %24 = atomicrmw and i32* %23, i32 -2 seq_cst, !dbg !1049
  call void @llvm.dbg.value(metadata i32 %24, metadata !1007, metadata !DIExpression()) #7, !dbg !1039
  %25 = and i32 %24, 2, !dbg !1050
  %26 = icmp ne i32 %25, 0, !dbg !1051
  call void @llvm.dbg.value(metadata i1 %26, metadata !1008, metadata !DIExpression(DW_OP_LLVM_convert, 1, DW_ATE_unsigned, DW_OP_LLVM_convert, 8, DW_ATE_unsigned, DW_OP_stack_value)) #7, !dbg !1039
  call void @llvm.dbg.value(metadata i1 undef, metadata !1009, metadata !DIExpression(DW_OP_LLVM_convert, 1, DW_ATE_unsigned, DW_OP_LLVM_convert, 8, DW_ATE_unsigned, DW_OP_stack_value)) #7, !dbg !1039
  %27 = icmp ult i32 %24, 4
  %28 = or i1 %27, %26, !dbg !1052
  call void @llvm.dbg.value(metadata i1 %27, metadata !1009, metadata !DIExpression(DW_OP_LLVM_convert, 1, DW_ATE_unsigned, DW_OP_LLVM_convert, 8, DW_ATE_unsigned, DW_OP_stack_value)) #7, !dbg !1039
  br i1 %28, label %31, label %29, !dbg !1052

29:                                               ; preds = %20
  %30 = getelementptr inbounds %"struct.Halide::Runtime::Internal::Synchronization::hash_bucket", %"struct.Halide::Runtime::Internal::Synchronization::hash_bucket"* %3, i32 0, i32 0, !dbg !1053
  call void @llvm.dbg.value(metadata %"class.Halide::Runtime::Internal::Synchronization::word_lock"* %30, metadata !1004, metadata !DIExpression()) #7, !dbg !1039
  tail call void @_ZN6Halide7Runtime8Internal15Synchronization9word_lock11unlock_fullEv(%"class.Halide::Runtime::Internal::Synchronization::word_lock"* nonnull dereferenceable(4) %30) #6, !dbg !1054
  br label %31, !dbg !1055

31:                                               ; preds = %20, %29
  call void @llvm.dbg.value(metadata i8* %21, metadata !1056, metadata !DIExpression()) #7, !dbg !1059
  tail call void @__tsan_mutex_post_unlock(i8* nonnull %21, i32 1) #6, !dbg !1061
  %32 = load %"struct.Halide::Runtime::Internal::Synchronization::hash_bucket"*, %"struct.Halide::Runtime::Internal::Synchronization::hash_bucket"** %4, align 4, !dbg !1062, !tbaa !1001
  call void @llvm.dbg.value(metadata %"struct.Halide::Runtime::Internal::Synchronization::hash_bucket"* %32, metadata !1004, metadata !DIExpression()) #7, !dbg !1063
  %33 = bitcast %"struct.Halide::Runtime::Internal::Synchronization::hash_bucket"* %32 to i8*, !dbg !1065
  call void @llvm.dbg.value(metadata i8* %33, metadata !1014, metadata !DIExpression()) #7, !dbg !1066
  %34 = tail call i32 @__tsan_mutex_pre_unlock(i8* nonnull %33, i32 1) #6, !dbg !1068
  %35 = getelementptr inbounds %"struct.Halide::Runtime::Internal::Synchronization::hash_bucket", %"struct.Halide::Runtime::Internal::Synchronization::hash_bucket"* %32, i32 0, i32 0, i32 0, !dbg !1069
  call void @llvm.dbg.value(metadata i32* %35, metadata !1021, metadata !DIExpression()) #7, !dbg !1070
  call void @llvm.dbg.value(metadata i32 -2, metadata !1024, metadata !DIExpression()) #7, !dbg !1070
  %36 = atomicrmw and i32* %35, i32 -2 seq_cst, !dbg !1072
  call void @llvm.dbg.value(metadata i32 %36, metadata !1007, metadata !DIExpression()) #7, !dbg !1063
  %37 = and i32 %36, 2, !dbg !1073
  %38 = icmp ne i32 %37, 0, !dbg !1074
  call void @llvm.dbg.value(metadata i1 %38, metadata !1008, metadata !DIExpression(DW_OP_LLVM_convert, 1, DW_ATE_unsigned, DW_OP_LLVM_convert, 8, DW_ATE_unsigned, DW_OP_stack_value)) #7, !dbg !1063
  call void @llvm.dbg.value(metadata i1 undef, metadata !1009, metadata !DIExpression(DW_OP_LLVM_convert, 1, DW_ATE_unsigned, DW_OP_LLVM_convert, 8, DW_ATE_unsigned, DW_OP_stack_value)) #7, !dbg !1063
  %39 = icmp ult i32 %36, 4
  %40 = or i1 %39, %38, !dbg !1075
  call void @llvm.dbg.value(metadata i1 %39, metadata !1009, metadata !DIExpression(DW_OP_LLVM_convert, 1, DW_ATE_unsigned, DW_OP_LLVM_convert, 8, DW_ATE_unsigned, DW_OP_stack_value)) #7, !dbg !1063
  br i1 %40, label %66, label %41, !dbg !1075

41:                                               ; preds = %31
  %42 = getelementptr inbounds %"struct.Halide::Runtime::Internal::Synchronization::hash_bucket", %"struct.Halide::Runtime::Internal::Synchronization::hash_bucket"* %32, i32 0, i32 0, !dbg !1076
  call void @llvm.dbg.value(metadata %"class.Halide::Runtime::Internal::Synchronization::word_lock"* %42, metadata !1004, metadata !DIExpression()) #7, !dbg !1063
  tail call void @_ZN6Halide7Runtime8Internal15Synchronization9word_lock11unlock_fullEv(%"class.Halide::Runtime::Internal::Synchronization::word_lock"* nonnull dereferenceable(4) %42) #6, !dbg !1077
  br label %66, !dbg !1078

43:                                               ; preds = %18
  call void @llvm.dbg.value(metadata %"struct.Halide::Runtime::Internal::Synchronization::hash_bucket"* %5, metadata !1004, metadata !DIExpression()) #7, !dbg !1079
  %44 = bitcast %"struct.Halide::Runtime::Internal::Synchronization::hash_bucket"* %5 to i8*, !dbg !1082
  call void @llvm.dbg.value(metadata i8* %44, metadata !1014, metadata !DIExpression()) #7, !dbg !1083
  %45 = tail call i32 @__tsan_mutex_pre_unlock(i8* nonnull %44, i32 1) #6, !dbg !1085
  %46 = getelementptr inbounds %"struct.Halide::Runtime::Internal::Synchronization::hash_bucket", %"struct.Halide::Runtime::Internal::Synchronization::hash_bucket"* %5, i32 0, i32 0, i32 0, !dbg !1086
  call void @llvm.dbg.value(metadata i32* %46, metadata !1021, metadata !DIExpression()) #7, !dbg !1087
  call void @llvm.dbg.value(metadata i32 -2, metadata !1024, metadata !DIExpression()) #7, !dbg !1087
  %47 = atomicrmw and i32* %46, i32 -2 seq_cst, !dbg !1089
  call void @llvm.dbg.value(metadata i32 %47, metadata !1007, metadata !DIExpression()) #7, !dbg !1079
  %48 = and i32 %47, 2, !dbg !1090
  %49 = icmp ne i32 %48, 0, !dbg !1091
  call void @llvm.dbg.value(metadata i1 %49, metadata !1008, metadata !DIExpression(DW_OP_LLVM_convert, 1, DW_ATE_unsigned, DW_OP_LLVM_convert, 8, DW_ATE_unsigned, DW_OP_stack_value)) #7, !dbg !1079
  call void @llvm.dbg.value(metadata i1 undef, metadata !1009, metadata !DIExpression(DW_OP_LLVM_convert, 1, DW_ATE_unsigned, DW_OP_LLVM_convert, 8, DW_ATE_unsigned, DW_OP_stack_value)) #7, !dbg !1079
  %50 = icmp ult i32 %47, 4
  %51 = or i1 %50, %49, !dbg !1092
  call void @llvm.dbg.value(metadata i1 %50, metadata !1009, metadata !DIExpression(DW_OP_LLVM_convert, 1, DW_ATE_unsigned, DW_OP_LLVM_convert, 8, DW_ATE_unsigned, DW_OP_stack_value)) #7, !dbg !1079
  br i1 %51, label %54, label %52, !dbg !1092

52:                                               ; preds = %43
  %53 = getelementptr inbounds %"struct.Halide::Runtime::Internal::Synchronization::hash_bucket", %"struct.Halide::Runtime::Internal::Synchronization::hash_bucket"* %5, i32 0, i32 0, !dbg !1093
  call void @llvm.dbg.value(metadata %"class.Halide::Runtime::Internal::Synchronization::word_lock"* %53, metadata !1004, metadata !DIExpression()) #7, !dbg !1079
  tail call void @_ZN6Halide7Runtime8Internal15Synchronization9word_lock11unlock_fullEv(%"class.Halide::Runtime::Internal::Synchronization::word_lock"* nonnull dereferenceable(4) %53) #6, !dbg !1094
  br label %54, !dbg !1095

54:                                               ; preds = %43, %52
  call void @llvm.dbg.value(metadata i8* %44, metadata !1056, metadata !DIExpression()) #7, !dbg !1096
  tail call void @__tsan_mutex_post_unlock(i8* nonnull %44, i32 1) #6, !dbg !1098
  %55 = load %"struct.Halide::Runtime::Internal::Synchronization::hash_bucket"*, %"struct.Halide::Runtime::Internal::Synchronization::hash_bucket"** %2, align 4, !dbg !1099, !tbaa !998
  call void @llvm.dbg.value(metadata %"struct.Halide::Runtime::Internal::Synchronization::hash_bucket"* %55, metadata !1004, metadata !DIExpression()) #7, !dbg !1100
  %56 = bitcast %"struct.Halide::Runtime::Internal::Synchronization::hash_bucket"* %55 to i8*, !dbg !1102
  call void @llvm.dbg.value(metadata i8* %56, metadata !1014, metadata !DIExpression()) #7, !dbg !1103
  %57 = tail call i32 @__tsan_mutex_pre_unlock(i8* nonnull %56, i32 1) #6, !dbg !1105
  %58 = getelementptr inbounds %"struct.Halide::Runtime::Internal::Synchronization::hash_bucket", %"struct.Halide::Runtime::Internal::Synchronization::hash_bucket"* %55, i32 0, i32 0, i32 0, !dbg !1106
  call void @llvm.dbg.value(metadata i32* %58, metadata !1021, metadata !DIExpression()) #7, !dbg !1107
  call void @llvm.dbg.value(metadata i32 -2, metadata !1024, metadata !DIExpression()) #7, !dbg !1107
  %59 = atomicrmw and i32* %58, i32 -2 seq_cst, !dbg !1109
  call void @llvm.dbg.value(metadata i32 %59, metadata !1007, metadata !DIExpression()) #7, !dbg !1100
  %60 = and i32 %59, 2, !dbg !1110
  %61 = icmp ne i32 %60, 0, !dbg !1111
  call void @llvm.dbg.value(metadata i1 %61, metadata !1008, metadata !DIExpression(DW_OP_LLVM_convert, 1, DW_ATE_unsigned, DW_OP_LLVM_convert, 8, DW_ATE_unsigned, DW_OP_stack_value)) #7, !dbg !1100
  call void @llvm.dbg.value(metadata i1 undef, metadata !1009, metadata !DIExpression(DW_OP_LLVM_convert, 1, DW_ATE_unsigned, DW_OP_LLVM_convert, 8, DW_ATE_unsigned, DW_OP_stack_value)) #7, !dbg !1100
  %62 = icmp ult i32 %59, 4
  %63 = or i1 %62, %61, !dbg !1112
  call void @llvm.dbg.value(metadata i1 %62, metadata !1009, metadata !DIExpression(DW_OP_LLVM_convert, 1, DW_ATE_unsigned, DW_OP_LLVM_convert, 8, DW_ATE_unsigned, DW_OP_stack_value)) #7, !dbg !1100
  br i1 %63, label %66, label %64, !dbg !1112

64:                                               ; preds = %54
  %65 = getelementptr inbounds %"struct.Halide::Runtime::Internal::Synchronization::hash_bucket", %"struct.Halide::Runtime::Internal::Synchronization::hash_bucket"* %55, i32 0, i32 0, !dbg !1113
  call void @llvm.dbg.value(metadata %"class.Halide::Runtime::Internal::Synchronization::word_lock"* %65, metadata !1004, metadata !DIExpression()) #7, !dbg !1100
  tail call void @_ZN6Halide7Runtime8Internal15Synchronization9word_lock11unlock_fullEv(%"class.Halide::Runtime::Internal::Synchronization::word_lock"* nonnull dereferenceable(4) %65) #6, !dbg !1114
  br label %66, !dbg !1115

66:                                               ; preds = %64, %54, %41, %31, %16, %7
  %67 = phi i8* [ %8, %7 ], [ %8, %16 ], [ %33, %31 ], [ %33, %41 ], [ %56, %54 ], [ %56, %64 ]
  tail call void @__tsan_mutex_post_unlock(i8* nonnull %67, i32 1) #6, !dbg !1116
  ret void, !dbg !1117
}

; Function Attrs: nounwind willreturn mustprogress
define weak dso_local zeroext i1 @_ZN6Halide7Runtime8Internal15Synchronization24parking_control_validateEPvRNS2_15validate_actionE(i8* %0, %"struct.Halide::Runtime::Internal::Synchronization::validate_action"* nonnull align 4 dereferenceable(8) %1) #5 !dbg !1118 {
  call void @llvm.dbg.value(metadata i8* %0, metadata !1120, metadata !DIExpression()), !dbg !1122
  call void @llvm.dbg.value(metadata %"struct.Halide::Runtime::Internal::Synchronization::validate_action"* %1, metadata !1121, metadata !DIExpression()), !dbg !1122
  ret i1 true, !dbg !1123
}

; Function Attrs: nounwind willreturn mustprogress
define weak dso_local void @_ZN6Halide7Runtime8Internal15Synchronization28parking_control_before_sleepEPv(i8* %0) #5 !dbg !1124 {
  call void @llvm.dbg.value(metadata i8* %0, metadata !1126, metadata !DIExpression()), !dbg !1127
  ret void, !dbg !1128
}

; Function Attrs: nounwind willreturn mustprogress
define weak dso_local i32 @_ZN6Halide7Runtime8Internal15Synchronization22parking_control_unparkEPvib(i8* %0, i32 %1, i1 zeroext %2) #5 !dbg !1129 {
  call void @llvm.dbg.value(metadata i8* %0, metadata !1131, metadata !DIExpression()), !dbg !1134
  call void @llvm.dbg.value(metadata i32 %1, metadata !1132, metadata !DIExpression()), !dbg !1134
  call void @llvm.dbg.value(metadata i1 %2, metadata !1133, metadata !DIExpression(DW_OP_LLVM_convert, 1, DW_ATE_unsigned, DW_OP_LLVM_convert, 8, DW_ATE_unsigned, DW_OP_stack_value)), !dbg !1134
  ret i32 0, !dbg !1135
}

; Function Attrs: nounwind willreturn mustprogress
define weak dso_local void @_ZN6Halide7Runtime8Internal15Synchronization32parking_control_requeue_callbackEPvRKNS2_15validate_actionEbb(i8* %0, %"struct.Halide::Runtime::Internal::Synchronization::validate_action"* nonnull align 4 dereferenceable(8) %1, i1 zeroext %2, i1 zeroext %3) #5 !dbg !1136 {
  call void @llvm.dbg.value(metadata i8* %0, metadata !1138, metadata !DIExpression()), !dbg !1142
  call void @llvm.dbg.value(metadata %"struct.Halide::Runtime::Internal::Synchronization::validate_action"* %1, metadata !1139, metadata !DIExpression()), !dbg !1142
  call void @llvm.dbg.value(metadata i1 %2, metadata !1140, metadata !DIExpression(DW_OP_LLVM_convert, 1, DW_ATE_unsigned, DW_OP_LLVM_convert, 8, DW_ATE_unsigned, DW_OP_stack_value)), !dbg !1142
  call void @llvm.dbg.value(metadata i1 %3, metadata !1141, metadata !DIExpression(DW_OP_LLVM_convert, 1, DW_ATE_unsigned, DW_OP_LLVM_convert, 8, DW_ATE_unsigned, DW_OP_stack_value)), !dbg !1142
  ret void, !dbg !1143
}

; Function Attrs: nounwind
define weak dso_local i32 @_ZN6Halide7Runtime8Internal15Synchronization4parkEjRNS2_15parking_controlE(i32 %0, %"struct.Halide::Runtime::Internal::Synchronization::parking_control"* nonnull align 4 dereferenceable(16) %1) local_unnamed_addr #4 !dbg !1144 {
  %3 = alloca %"struct.Halide::Runtime::Internal::Synchronization::queue_data", align 8
  %4 = alloca %"struct.Halide::Runtime::Internal::Synchronization::validate_action", align 4
  call void @llvm.dbg.value(metadata i32 %0, metadata !1149, metadata !DIExpression()), !dbg !1154
  call void @llvm.dbg.value(metadata %"struct.Halide::Runtime::Internal::Synchronization::parking_control"* %1, metadata !1150, metadata !DIExpression()), !dbg !1154
  %5 = bitcast %"struct.Halide::Runtime::Internal::Synchronization::queue_data"* %3 to i8*, !dbg !1155
  call void @llvm.lifetime.start.p0i8(i64 152, i8* nonnull %5) #7, !dbg !1155
  call void @llvm.dbg.declare(metadata %"struct.Halide::Runtime::Internal::Synchronization::queue_data"* %3, metadata !1151, metadata !DIExpression()), !dbg !1156
  call void @llvm.dbg.value(metadata %"struct.Halide::Runtime::Internal::Synchronization::queue_data"* %3, metadata !1157, metadata !DIExpression()) #7, !dbg !1160
  call void @llvm.dbg.value(metadata %"struct.Halide::Runtime::Internal::Synchronization::queue_data"* %3, metadata !550, metadata !DIExpression()) #7, !dbg !1162
  %6 = getelementptr inbounds %"struct.Halide::Runtime::Internal::Synchronization::queue_data", %"struct.Halide::Runtime::Internal::Synchronization::queue_data"* %3, i32 0, i32 0, i32 2, !dbg !1164
  store i8 0, i8* %6, align 8, !dbg !1164, !tbaa !557
  %7 = getelementptr inbounds %"struct.Halide::Runtime::Internal::Synchronization::queue_data", %"struct.Halide::Runtime::Internal::Synchronization::queue_data"* %3, i32 0, i32 0, i32 0, !dbg !1165
  %8 = call i32 @pthread_mutex_init(%struct.pthread_mutex_t* nonnull %7, i8* null) #6, !dbg !1166
  %9 = getelementptr inbounds %"struct.Halide::Runtime::Internal::Synchronization::queue_data", %"struct.Halide::Runtime::Internal::Synchronization::queue_data"* %3, i32 0, i32 0, i32 1, !dbg !1167
  %10 = call i32 @pthread_cond_init(%struct.pthread_cond_t* nonnull %9, i8* null) #6, !dbg !1168
  %11 = getelementptr inbounds %"struct.Halide::Runtime::Internal::Synchronization::queue_data", %"struct.Halide::Runtime::Internal::Synchronization::queue_data"* %3, i32 0, i32 1, !dbg !1169
  store i32 0, i32* %11, align 8, !dbg !1169, !tbaa !1170
  %12 = getelementptr inbounds %"struct.Halide::Runtime::Internal::Synchronization::queue_data", %"struct.Halide::Runtime::Internal::Synchronization::queue_data"* %3, i32 0, i32 2, !dbg !1172
  store %"struct.Halide::Runtime::Internal::Synchronization::queue_data"* null, %"struct.Halide::Runtime::Internal::Synchronization::queue_data"** %12, align 4, !dbg !1172, !tbaa !1173
  %13 = getelementptr inbounds %"struct.Halide::Runtime::Internal::Synchronization::queue_data", %"struct.Halide::Runtime::Internal::Synchronization::queue_data"* %3, i32 0, i32 3, !dbg !1174
  store i32 0, i32* %13, align 8, !dbg !1174, !tbaa !1175
  %14 = call nonnull align 4 dereferenceable(12) %"struct.Halide::Runtime::Internal::Synchronization::hash_bucket"* @_ZN6Halide7Runtime8Internal15Synchronization11lock_bucketEj(i32 %0) #8, !dbg !1176
  call void @llvm.dbg.value(metadata %"struct.Halide::Runtime::Internal::Synchronization::hash_bucket"* %14, metadata !1152, metadata !DIExpression()), !dbg !1154
  %15 = getelementptr inbounds %"struct.Halide::Runtime::Internal::Synchronization::validate_action", %"struct.Halide::Runtime::Internal::Synchronization::validate_action"* %4, i32 0, i32 0, !dbg !1177
  call void @llvm.lifetime.start.p0i8(i64 8, i8* nonnull %15) #7, !dbg !1177
  call void @llvm.dbg.declare(metadata %"struct.Halide::Runtime::Internal::Synchronization::validate_action"* %4, metadata !1153, metadata !DIExpression()), !dbg !1178
  call void @llvm.dbg.value(metadata %"struct.Halide::Runtime::Internal::Synchronization::validate_action"* %4, metadata !1179, metadata !DIExpression()), !dbg !1183
  store i8 0, i8* %15, align 4, !dbg !1185, !tbaa !1186
  %16 = getelementptr inbounds %"struct.Halide::Runtime::Internal::Synchronization::validate_action", %"struct.Halide::Runtime::Internal::Synchronization::validate_action"* %4, i32 0, i32 1, !dbg !1188
  store i32 0, i32* %16, align 4, !dbg !1188, !tbaa !1189
  %17 = getelementptr inbounds %"struct.Halide::Runtime::Internal::Synchronization::parking_control", %"struct.Halide::Runtime::Internal::Synchronization::parking_control"* %1, i32 0, i32 0, !dbg !1190
  %18 = load i1 (i8*, %"struct.Halide::Runtime::Internal::Synchronization::validate_action"*)*, i1 (i8*, %"struct.Halide::Runtime::Internal::Synchronization::validate_action"*)** %17, align 4, !dbg !1190, !tbaa !1192
  %19 = bitcast %"struct.Halide::Runtime::Internal::Synchronization::parking_control"* %1 to i8*, !dbg !1194
  %20 = call zeroext i1 %18(i8* nonnull %19, %"struct.Halide::Runtime::Internal::Synchronization::validate_action"* nonnull align 4 dereferenceable(8) %4) #6, !dbg !1195
  br i1 %20, label %34, label %21, !dbg !1196

21:                                               ; preds = %2
  call void @llvm.dbg.value(metadata %"struct.Halide::Runtime::Internal::Synchronization::hash_bucket"* %14, metadata !1004, metadata !DIExpression()) #7, !dbg !1197
  %22 = bitcast %"struct.Halide::Runtime::Internal::Synchronization::hash_bucket"* %14 to i8*, !dbg !1200
  call void @llvm.dbg.value(metadata i8* %22, metadata !1014, metadata !DIExpression()) #7, !dbg !1201
  %23 = call i32 @__tsan_mutex_pre_unlock(i8* nonnull %22, i32 1) #6, !dbg !1203
  %24 = getelementptr inbounds %"struct.Halide::Runtime::Internal::Synchronization::hash_bucket", %"struct.Halide::Runtime::Internal::Synchronization::hash_bucket"* %14, i32 0, i32 0, i32 0, !dbg !1204
  call void @llvm.dbg.value(metadata i32* %24, metadata !1021, metadata !DIExpression()) #7, !dbg !1205
  call void @llvm.dbg.value(metadata i32 -2, metadata !1024, metadata !DIExpression()) #7, !dbg !1205
  %25 = atomicrmw and i32* %24, i32 -2 seq_cst, !dbg !1207
  call void @llvm.dbg.value(metadata i32 %25, metadata !1007, metadata !DIExpression()) #7, !dbg !1197
  %26 = and i32 %25, 2, !dbg !1208
  %27 = icmp ne i32 %26, 0, !dbg !1209
  call void @llvm.dbg.value(metadata i1 %27, metadata !1008, metadata !DIExpression(DW_OP_LLVM_convert, 1, DW_ATE_unsigned, DW_OP_LLVM_convert, 8, DW_ATE_unsigned, DW_OP_stack_value)) #7, !dbg !1197
  call void @llvm.dbg.value(metadata i1 undef, metadata !1009, metadata !DIExpression(DW_OP_LLVM_convert, 1, DW_ATE_unsigned, DW_OP_LLVM_convert, 8, DW_ATE_unsigned, DW_OP_stack_value)) #7, !dbg !1197
  %28 = icmp ult i32 %25, 4
  %29 = or i1 %28, %27, !dbg !1210
  call void @llvm.dbg.value(metadata i1 %28, metadata !1009, metadata !DIExpression(DW_OP_LLVM_convert, 1, DW_ATE_unsigned, DW_OP_LLVM_convert, 8, DW_ATE_unsigned, DW_OP_stack_value)) #7, !dbg !1197
  br i1 %29, label %32, label %30, !dbg !1210

30:                                               ; preds = %21
  %31 = getelementptr inbounds %"struct.Halide::Runtime::Internal::Synchronization::hash_bucket", %"struct.Halide::Runtime::Internal::Synchronization::hash_bucket"* %14, i32 0, i32 0, !dbg !1211
  call void @llvm.dbg.value(metadata %"class.Halide::Runtime::Internal::Synchronization::word_lock"* %31, metadata !1004, metadata !DIExpression()) #7, !dbg !1197
  call void @_ZN6Halide7Runtime8Internal15Synchronization9word_lock11unlock_fullEv(%"class.Halide::Runtime::Internal::Synchronization::word_lock"* nonnull dereferenceable(4) %31) #6, !dbg !1212
  br label %32, !dbg !1213

32:                                               ; preds = %21, %30
  call void @llvm.dbg.value(metadata i8* %22, metadata !1056, metadata !DIExpression()) #7, !dbg !1214
  call void @__tsan_mutex_post_unlock(i8* nonnull %22, i32 1) #6, !dbg !1216
  %33 = load i32, i32* %16, align 4, !dbg !1217, !tbaa !1189
  br label %66, !dbg !1218

34:                                               ; preds = %2
  store %"struct.Halide::Runtime::Internal::Synchronization::queue_data"* null, %"struct.Halide::Runtime::Internal::Synchronization::queue_data"** %12, align 4, !dbg !1219, !tbaa !1173
  store i32 %0, i32* %11, align 8, !dbg !1220, !tbaa !1170
  call void @llvm.dbg.value(metadata %"struct.Halide::Runtime::Internal::Synchronization::queue_data"* %3, metadata !572, metadata !DIExpression()), !dbg !1221
  store i8 1, i8* %6, align 8, !dbg !1223, !tbaa !557
  %35 = getelementptr inbounds %"struct.Halide::Runtime::Internal::Synchronization::hash_bucket", %"struct.Halide::Runtime::Internal::Synchronization::hash_bucket"* %14, i32 0, i32 1, !dbg !1224
  %36 = load %"struct.Halide::Runtime::Internal::Synchronization::queue_data"*, %"struct.Halide::Runtime::Internal::Synchronization::queue_data"** %35, align 4, !dbg !1224, !tbaa !1226
  %37 = icmp eq %"struct.Halide::Runtime::Internal::Synchronization::queue_data"* %36, null, !dbg !1229
  %38 = getelementptr inbounds %"struct.Halide::Runtime::Internal::Synchronization::hash_bucket", %"struct.Halide::Runtime::Internal::Synchronization::hash_bucket"* %14, i32 0, i32 2, !dbg !1230
  %39 = load %"struct.Halide::Runtime::Internal::Synchronization::queue_data"*, %"struct.Halide::Runtime::Internal::Synchronization::queue_data"** %38, align 4, !dbg !1230
  %40 = getelementptr inbounds %"struct.Halide::Runtime::Internal::Synchronization::queue_data", %"struct.Halide::Runtime::Internal::Synchronization::queue_data"* %39, i32 0, i32 2, !dbg !1230
  %41 = select i1 %37, %"struct.Halide::Runtime::Internal::Synchronization::queue_data"** %35, %"struct.Halide::Runtime::Internal::Synchronization::queue_data"** %40, !dbg !1230
  store %"struct.Halide::Runtime::Internal::Synchronization::queue_data"* %3, %"struct.Halide::Runtime::Internal::Synchronization::queue_data"** %41, align 4, !dbg !1231, !tbaa !452
  %42 = getelementptr inbounds %"struct.Halide::Runtime::Internal::Synchronization::hash_bucket", %"struct.Halide::Runtime::Internal::Synchronization::hash_bucket"* %14, i32 0, i32 2, !dbg !1232
  store %"struct.Halide::Runtime::Internal::Synchronization::queue_data"* %3, %"struct.Halide::Runtime::Internal::Synchronization::queue_data"** %42, align 4, !dbg !1233, !tbaa !1234
  call void @llvm.dbg.value(metadata %"struct.Halide::Runtime::Internal::Synchronization::hash_bucket"* %14, metadata !1004, metadata !DIExpression()) #7, !dbg !1235
  %43 = bitcast %"struct.Halide::Runtime::Internal::Synchronization::hash_bucket"* %14 to i8*, !dbg !1237
  call void @llvm.dbg.value(metadata i8* %43, metadata !1014, metadata !DIExpression()) #7, !dbg !1238
  %44 = call i32 @__tsan_mutex_pre_unlock(i8* nonnull %43, i32 1) #6, !dbg !1240
  %45 = getelementptr inbounds %"struct.Halide::Runtime::Internal::Synchronization::hash_bucket", %"struct.Halide::Runtime::Internal::Synchronization::hash_bucket"* %14, i32 0, i32 0, i32 0, !dbg !1241
  call void @llvm.dbg.value(metadata i32* %45, metadata !1021, metadata !DIExpression()) #7, !dbg !1242
  call void @llvm.dbg.value(metadata i32 -2, metadata !1024, metadata !DIExpression()) #7, !dbg !1242
  %46 = atomicrmw and i32* %45, i32 -2 seq_cst, !dbg !1244
  call void @llvm.dbg.value(metadata i32 %46, metadata !1007, metadata !DIExpression()) #7, !dbg !1235
  %47 = and i32 %46, 2, !dbg !1245
  %48 = icmp ne i32 %47, 0, !dbg !1246
  call void @llvm.dbg.value(metadata i1 %48, metadata !1008, metadata !DIExpression(DW_OP_LLVM_convert, 1, DW_ATE_unsigned, DW_OP_LLVM_convert, 8, DW_ATE_unsigned, DW_OP_stack_value)) #7, !dbg !1235
  call void @llvm.dbg.value(metadata i1 undef, metadata !1009, metadata !DIExpression(DW_OP_LLVM_convert, 1, DW_ATE_unsigned, DW_OP_LLVM_convert, 8, DW_ATE_unsigned, DW_OP_stack_value)) #7, !dbg !1235
  %49 = icmp ult i32 %46, 4
  %50 = or i1 %49, %48, !dbg !1247
  call void @llvm.dbg.value(metadata i1 %49, metadata !1009, metadata !DIExpression(DW_OP_LLVM_convert, 1, DW_ATE_unsigned, DW_OP_LLVM_convert, 8, DW_ATE_unsigned, DW_OP_stack_value)) #7, !dbg !1235
  br i1 %50, label %53, label %51, !dbg !1247

51:                                               ; preds = %34
  %52 = getelementptr inbounds %"struct.Halide::Runtime::Internal::Synchronization::hash_bucket", %"struct.Halide::Runtime::Internal::Synchronization::hash_bucket"* %14, i32 0, i32 0, !dbg !1248
  call void @llvm.dbg.value(metadata %"class.Halide::Runtime::Internal::Synchronization::word_lock"* %52, metadata !1004, metadata !DIExpression()) #7, !dbg !1235
  call void @_ZN6Halide7Runtime8Internal15Synchronization9word_lock11unlock_fullEv(%"class.Halide::Runtime::Internal::Synchronization::word_lock"* nonnull dereferenceable(4) %52) #6, !dbg !1249
  br label %53, !dbg !1250

53:                                               ; preds = %34, %51
  call void @llvm.dbg.value(metadata i8* %43, metadata !1056, metadata !DIExpression()) #7, !dbg !1251
  call void @__tsan_mutex_post_unlock(i8* nonnull %43, i32 1) #6, !dbg !1253
  %54 = getelementptr inbounds %"struct.Halide::Runtime::Internal::Synchronization::parking_control", %"struct.Halide::Runtime::Internal::Synchronization::parking_control"* %1, i32 0, i32 1, !dbg !1254
  %55 = load void (i8*)*, void (i8*)** %54, align 4, !dbg !1254, !tbaa !1255
  call void %55(i8* nonnull %19) #6, !dbg !1256
  call void @llvm.dbg.value(metadata %"struct.Halide::Runtime::Internal::Synchronization::queue_data"* %3, metadata !604, metadata !DIExpression()) #7, !dbg !1257
  %56 = call i32 @pthread_mutex_lock(%struct.pthread_mutex_t* nonnull %7) #6, !dbg !1259
  %57 = load i8, i8* %6, align 8, !dbg !1260, !tbaa !557, !range !612
  %58 = icmp eq i8 %57, 0, !dbg !1260
  br i1 %58, label %63, label %59, !dbg !1261

59:                                               ; preds = %53, %59
  %60 = call i32 @pthread_cond_wait(%struct.pthread_cond_t* nonnull %9, %struct.pthread_mutex_t* nonnull %7) #6, !dbg !1262
  %61 = load i8, i8* %6, align 8, !dbg !1260, !tbaa !557, !range !612
  %62 = icmp eq i8 %61, 0, !dbg !1260
  br i1 %62, label %63, label %59, !dbg !1261, !llvm.loop !1263

63:                                               ; preds = %59, %53
  %64 = call i32 @pthread_mutex_unlock(%struct.pthread_mutex_t* nonnull %7) #6, !dbg !1265
  %65 = load i32, i32* %13, align 8, !dbg !1266, !tbaa !1175
  br label %66, !dbg !1267

66:                                               ; preds = %63, %32
  %67 = phi i32 [ %65, %63 ], [ %33, %32 ], !dbg !1154
  call void @llvm.lifetime.end.p0i8(i64 8, i8* nonnull %15) #7, !dbg !1268
  call void @llvm.dbg.value(metadata %"struct.Halide::Runtime::Internal::Synchronization::queue_data"* %3, metadata !1269, metadata !DIExpression()) #7, !dbg !1272
  call void @llvm.dbg.value(metadata %"struct.Halide::Runtime::Internal::Synchronization::queue_data"* %3, metadata !628, metadata !DIExpression()) #7, !dbg !1274
  %68 = call i32 @pthread_cond_destroy(%struct.pthread_cond_t* nonnull %9) #6, !dbg !1277
  %69 = call i32 @pthread_mutex_destroy(%struct.pthread_mutex_t* nonnull %7) #6, !dbg !1278
  call void @llvm.lifetime.end.p0i8(i64 152, i8* nonnull %5) #7, !dbg !1268
  ret i32 %67, !dbg !1268
}

; Function Attrs: nounwind mustprogress
define weak dso_local i32 @_ZN6Halide7Runtime8Internal15Synchronization10unpark_oneEjRNS2_15parking_controlE(i32 %0, %"struct.Halide::Runtime::Internal::Synchronization::parking_control"* nonnull align 4 dereferenceable(16) %1) local_unnamed_addr #0 !dbg !1279 {
  call void @llvm.dbg.value(metadata i32 %0, metadata !1281, metadata !DIExpression()), !dbg !1298
  call void @llvm.dbg.value(metadata %"struct.Halide::Runtime::Internal::Synchronization::parking_control"* %1, metadata !1282, metadata !DIExpression()), !dbg !1298
  %3 = tail call nonnull align 4 dereferenceable(12) %"struct.Halide::Runtime::Internal::Synchronization::hash_bucket"* @_ZN6Halide7Runtime8Internal15Synchronization11lock_bucketEj(i32 %0) #8, !dbg !1299
  call void @llvm.dbg.value(metadata %"struct.Halide::Runtime::Internal::Synchronization::hash_bucket"* %3, metadata !1283, metadata !DIExpression()), !dbg !1298
  %4 = getelementptr inbounds %"struct.Halide::Runtime::Internal::Synchronization::hash_bucket", %"struct.Halide::Runtime::Internal::Synchronization::hash_bucket"* %3, i32 0, i32 1, !dbg !1300
  call void @llvm.dbg.value(metadata %"struct.Halide::Runtime::Internal::Synchronization::queue_data"** %4, metadata !1284, metadata !DIExpression()), !dbg !1298
  call void @llvm.dbg.value(metadata %"struct.Halide::Runtime::Internal::Synchronization::queue_data"* null, metadata !1285, metadata !DIExpression()), !dbg !1298
  %5 = load %"struct.Halide::Runtime::Internal::Synchronization::queue_data"*, %"struct.Halide::Runtime::Internal::Synchronization::queue_data"** %4, align 4, !dbg !1301, !tbaa !452
  call void @llvm.dbg.value(metadata %"struct.Halide::Runtime::Internal::Synchronization::queue_data"* %5, metadata !1286, metadata !DIExpression()), !dbg !1298
  %6 = getelementptr inbounds %"struct.Halide::Runtime::Internal::Synchronization::hash_bucket", %"struct.Halide::Runtime::Internal::Synchronization::hash_bucket"* %3, i32 0, i32 2
  %7 = getelementptr inbounds %"struct.Halide::Runtime::Internal::Synchronization::parking_control", %"struct.Halide::Runtime::Internal::Synchronization::parking_control"* %1, i32 0, i32 2
  %8 = bitcast %"struct.Halide::Runtime::Internal::Synchronization::parking_control"* %1 to i8*
  %9 = bitcast %"struct.Halide::Runtime::Internal::Synchronization::hash_bucket"* %3 to i8*
  %10 = getelementptr inbounds %"struct.Halide::Runtime::Internal::Synchronization::hash_bucket", %"struct.Halide::Runtime::Internal::Synchronization::hash_bucket"* %3, i32 0, i32 0, i32 0
  %11 = getelementptr inbounds %"struct.Halide::Runtime::Internal::Synchronization::hash_bucket", %"struct.Halide::Runtime::Internal::Synchronization::hash_bucket"* %3, i32 0, i32 0
  br label %12, !dbg !1302

12:                                               ; preds = %59, %2
  %13 = phi %"struct.Halide::Runtime::Internal::Synchronization::queue_data"** [ %4, %2 ], [ %60, %59 ], !dbg !1303
  %14 = phi %"struct.Halide::Runtime::Internal::Synchronization::queue_data"* [ null, %2 ], [ %61, %59 ], !dbg !1304
  %15 = phi %"struct.Halide::Runtime::Internal::Synchronization::queue_data"* [ %5, %2 ], [ %62, %59 ], !dbg !1305
  %16 = phi i32 [ undef, %2 ], [ %63, %59 ]
  call void @llvm.dbg.value(metadata %"struct.Halide::Runtime::Internal::Synchronization::queue_data"* %15, metadata !1286, metadata !DIExpression()), !dbg !1298
  call void @llvm.dbg.value(metadata %"struct.Halide::Runtime::Internal::Synchronization::queue_data"* %14, metadata !1285, metadata !DIExpression()), !dbg !1298
  call void @llvm.dbg.value(metadata %"struct.Halide::Runtime::Internal::Synchronization::queue_data"** %13, metadata !1284, metadata !DIExpression()), !dbg !1298
  %17 = icmp eq %"struct.Halide::Runtime::Internal::Synchronization::queue_data"* %15, null, !dbg !1306
  br i1 %17, label %64, label %18, !dbg !1302

18:                                               ; preds = %12
  %19 = getelementptr inbounds %"struct.Halide::Runtime::Internal::Synchronization::queue_data", %"struct.Halide::Runtime::Internal::Synchronization::queue_data"* %15, i32 0, i32 1, !dbg !1307
  %20 = load i32, i32* %19, align 4, !dbg !1308, !tbaa !490
  call void @llvm.dbg.value(metadata i32 %20, metadata !1287, metadata !DIExpression()), !dbg !1309
  %21 = icmp eq i32 %20, %0, !dbg !1310
  %22 = getelementptr inbounds %"struct.Halide::Runtime::Internal::Synchronization::queue_data", %"struct.Halide::Runtime::Internal::Synchronization::queue_data"* %15, i32 0, i32 2, !dbg !1311
  %23 = load %"struct.Halide::Runtime::Internal::Synchronization::queue_data"*, %"struct.Halide::Runtime::Internal::Synchronization::queue_data"** %22, align 4, !dbg !1311, !tbaa !1173
  br i1 %21, label %24, label %59, !dbg !1312

24:                                               ; preds = %18
  call void @llvm.dbg.value(metadata %"struct.Halide::Runtime::Internal::Synchronization::queue_data"* %23, metadata !1289, metadata !DIExpression()), !dbg !1313
  store %"struct.Halide::Runtime::Internal::Synchronization::queue_data"* %23, %"struct.Halide::Runtime::Internal::Synchronization::queue_data"** %13, align 4, !dbg !1314, !tbaa !452
  call void @llvm.dbg.value(metadata i8 0, metadata !1292, metadata !DIExpression()), !dbg !1313
  %25 = load %"struct.Halide::Runtime::Internal::Synchronization::queue_data"*, %"struct.Halide::Runtime::Internal::Synchronization::queue_data"** %6, align 4, !dbg !1315, !tbaa !1234
  %26 = icmp eq %"struct.Halide::Runtime::Internal::Synchronization::queue_data"* %25, %15, !dbg !1316
  br i1 %26, label %29, label %27, !dbg !1317

27:                                               ; preds = %24
  call void @llvm.dbg.value(metadata %"struct.Halide::Runtime::Internal::Synchronization::queue_data"* %23, metadata !1293, metadata !DIExpression()), !dbg !1318
  call void @llvm.dbg.value(metadata i8 undef, metadata !1292, metadata !DIExpression()), !dbg !1313
  %28 = icmp eq %"struct.Halide::Runtime::Internal::Synchronization::queue_data"* %23, null, !dbg !1319
  br i1 %28, label %39, label %30, !dbg !1320

29:                                               ; preds = %24
  store %"struct.Halide::Runtime::Internal::Synchronization::queue_data"* %14, %"struct.Halide::Runtime::Internal::Synchronization::queue_data"** %6, align 4, !dbg !1321, !tbaa !1234
  br label %39, !dbg !1323

30:                                               ; preds = %27, %30
  %31 = phi %"struct.Halide::Runtime::Internal::Synchronization::queue_data"* [ %36, %30 ], [ %23, %27 ]
  call void @llvm.dbg.value(metadata %"struct.Halide::Runtime::Internal::Synchronization::queue_data"* %31, metadata !1293, metadata !DIExpression()), !dbg !1318
  %32 = getelementptr inbounds %"struct.Halide::Runtime::Internal::Synchronization::queue_data", %"struct.Halide::Runtime::Internal::Synchronization::queue_data"* %31, i32 0, i32 1, !dbg !1324
  %33 = load i32, i32* %32, align 4, !dbg !1325, !tbaa !490
  call void @llvm.dbg.value(metadata i32 %33, metadata !1296, metadata !DIExpression()), !dbg !1326
  %34 = icmp eq i32 %33, %0, !dbg !1327
  call void @llvm.dbg.value(metadata i1 %34, metadata !1292, metadata !DIExpression(DW_OP_LLVM_convert, 1, DW_ATE_unsigned, DW_OP_LLVM_convert, 8, DW_ATE_unsigned, DW_OP_stack_value)), !dbg !1313
  %35 = getelementptr inbounds %"struct.Halide::Runtime::Internal::Synchronization::queue_data", %"struct.Halide::Runtime::Internal::Synchronization::queue_data"* %31, i32 0, i32 2, !dbg !1328
  %36 = load %"struct.Halide::Runtime::Internal::Synchronization::queue_data"*, %"struct.Halide::Runtime::Internal::Synchronization::queue_data"** %35, align 4, !dbg !1328, !tbaa !1173
  call void @llvm.dbg.value(metadata %"struct.Halide::Runtime::Internal::Synchronization::queue_data"* %36, metadata !1293, metadata !DIExpression()), !dbg !1318
  call void @llvm.dbg.value(metadata i8 undef, metadata !1292, metadata !DIExpression()), !dbg !1313
  %37 = icmp eq %"struct.Halide::Runtime::Internal::Synchronization::queue_data"* %36, null, !dbg !1319
  %38 = or i1 %34, %37, !dbg !1329
  br i1 %38, label %39, label %30, !dbg !1320, !llvm.loop !1330

39:                                               ; preds = %30, %27, %29
  %40 = phi i1 [ false, %29 ], [ false, %27 ], [ %34, %30 ]
  call void @llvm.dbg.value(metadata i8 undef, metadata !1292, metadata !DIExpression()), !dbg !1313
  %41 = load i32 (i8*, i32, i1)*, i32 (i8*, i32, i1)** %7, align 4, !dbg !1332, !tbaa !1333
  %42 = tail call i32 %41(i8* nonnull %8, i32 1, i1 zeroext %40) #6, !dbg !1334
  %43 = getelementptr inbounds %"struct.Halide::Runtime::Internal::Synchronization::queue_data", %"struct.Halide::Runtime::Internal::Synchronization::queue_data"* %15, i32 0, i32 3, !dbg !1335
  store i32 %42, i32* %43, align 8, !dbg !1336, !tbaa !1175
  call void @llvm.dbg.value(metadata %"struct.Halide::Runtime::Internal::Synchronization::queue_data"* %15, metadata !764, metadata !DIExpression()) #7, !dbg !1337
  %44 = getelementptr inbounds %"struct.Halide::Runtime::Internal::Synchronization::queue_data", %"struct.Halide::Runtime::Internal::Synchronization::queue_data"* %15, i32 0, i32 0, i32 0, !dbg !1339
  %45 = tail call i32 @pthread_mutex_lock(%struct.pthread_mutex_t* nonnull %44) #6, !dbg !1340
  call void @llvm.dbg.value(metadata %"struct.Halide::Runtime::Internal::Synchronization::hash_bucket"* %3, metadata !1004, metadata !DIExpression()) #7, !dbg !1341
  call void @llvm.dbg.value(metadata i8* %9, metadata !1014, metadata !DIExpression()) #7, !dbg !1343
  %46 = tail call i32 @__tsan_mutex_pre_unlock(i8* nonnull %9, i32 1) #6, !dbg !1345
  call void @llvm.dbg.value(metadata i32* %10, metadata !1021, metadata !DIExpression()) #7, !dbg !1346
  call void @llvm.dbg.value(metadata i32 -2, metadata !1024, metadata !DIExpression()) #7, !dbg !1346
  %47 = atomicrmw and i32* %10, i32 -2 seq_cst, !dbg !1348
  call void @llvm.dbg.value(metadata i32 %47, metadata !1007, metadata !DIExpression()) #7, !dbg !1341
  %48 = and i32 %47, 2, !dbg !1349
  %49 = icmp ne i32 %48, 0, !dbg !1350
  call void @llvm.dbg.value(metadata i1 %49, metadata !1008, metadata !DIExpression(DW_OP_LLVM_convert, 1, DW_ATE_unsigned, DW_OP_LLVM_convert, 8, DW_ATE_unsigned, DW_OP_stack_value)) #7, !dbg !1341
  call void @llvm.dbg.value(metadata i1 undef, metadata !1009, metadata !DIExpression(DW_OP_LLVM_convert, 1, DW_ATE_unsigned, DW_OP_LLVM_convert, 8, DW_ATE_unsigned, DW_OP_stack_value)) #7, !dbg !1341
  %50 = icmp ult i32 %47, 4
  %51 = or i1 %50, %49, !dbg !1351
  call void @llvm.dbg.value(metadata i1 %50, metadata !1009, metadata !DIExpression(DW_OP_LLVM_convert, 1, DW_ATE_unsigned, DW_OP_LLVM_convert, 8, DW_ATE_unsigned, DW_OP_stack_value)) #7, !dbg !1341
  br i1 %51, label %53, label %52, !dbg !1351

52:                                               ; preds = %39
  call void @llvm.dbg.value(metadata %"class.Halide::Runtime::Internal::Synchronization::word_lock"* %11, metadata !1004, metadata !DIExpression()) #7, !dbg !1341
  tail call void @_ZN6Halide7Runtime8Internal15Synchronization9word_lock11unlock_fullEv(%"class.Halide::Runtime::Internal::Synchronization::word_lock"* nonnull dereferenceable(4) %11) #6, !dbg !1352
  br label %53, !dbg !1353

53:                                               ; preds = %39, %52
  call void @llvm.dbg.value(metadata i8* %9, metadata !1056, metadata !DIExpression()) #7, !dbg !1354
  tail call void @__tsan_mutex_post_unlock(i8* nonnull %9, i32 1) #6, !dbg !1356
  call void @llvm.dbg.value(metadata %"struct.Halide::Runtime::Internal::Synchronization::queue_data"* %15, metadata !771, metadata !DIExpression()) #7, !dbg !1357
  %54 = getelementptr inbounds %"struct.Halide::Runtime::Internal::Synchronization::queue_data", %"struct.Halide::Runtime::Internal::Synchronization::queue_data"* %15, i32 0, i32 0, i32 2, !dbg !1359
  store i8 0, i8* %54, align 8, !dbg !1360, !tbaa !557
  %55 = getelementptr inbounds %"struct.Halide::Runtime::Internal::Synchronization::queue_data", %"struct.Halide::Runtime::Internal::Synchronization::queue_data"* %15, i32 0, i32 0, i32 1, !dbg !1361
  %56 = tail call i32 @pthread_cond_signal(%struct.pthread_cond_t* nonnull %55) #6, !dbg !1362
  call void @llvm.dbg.value(metadata %"struct.Halide::Runtime::Internal::Synchronization::queue_data"* %15, metadata !780, metadata !DIExpression()) #7, !dbg !1363
  %57 = tail call i32 @pthread_mutex_unlock(%struct.pthread_mutex_t* nonnull %44) #6, !dbg !1365
  %58 = zext i1 %40 to i32, !dbg !1366
  br label %59

59:                                               ; preds = %18, %53
  %60 = phi %"struct.Halide::Runtime::Internal::Synchronization::queue_data"** [ %13, %53 ], [ %22, %18 ], !dbg !1298
  %61 = phi %"struct.Halide::Runtime::Internal::Synchronization::queue_data"* [ %14, %53 ], [ %15, %18 ], !dbg !1298
  %62 = phi %"struct.Halide::Runtime::Internal::Synchronization::queue_data"* [ %15, %53 ], [ %23, %18 ], !dbg !1298
  %63 = phi i32 [ %58, %53 ], [ %16, %18 ]
  call void @llvm.dbg.value(metadata %"struct.Halide::Runtime::Internal::Synchronization::queue_data"* %62, metadata !1286, metadata !DIExpression()), !dbg !1298
  call void @llvm.dbg.value(metadata %"struct.Halide::Runtime::Internal::Synchronization::queue_data"* %61, metadata !1285, metadata !DIExpression()), !dbg !1298
  call void @llvm.dbg.value(metadata %"struct.Halide::Runtime::Internal::Synchronization::queue_data"** %60, metadata !1284, metadata !DIExpression()), !dbg !1298
  br i1 %21, label %75, label %12, !llvm.loop !1367

64:                                               ; preds = %12
  %65 = load i32 (i8*, i32, i1)*, i32 (i8*, i32, i1)** %7, align 4, !dbg !1369, !tbaa !1333
  %66 = tail call i32 %65(i8* nonnull %8, i32 0, i1 zeroext false) #6, !dbg !1370
  call void @llvm.dbg.value(metadata %"struct.Halide::Runtime::Internal::Synchronization::hash_bucket"* %3, metadata !1004, metadata !DIExpression()) #7, !dbg !1371
  call void @llvm.dbg.value(metadata i8* %9, metadata !1014, metadata !DIExpression()) #7, !dbg !1373
  %67 = tail call i32 @__tsan_mutex_pre_unlock(i8* nonnull %9, i32 1) #6, !dbg !1375
  call void @llvm.dbg.value(metadata i32* %10, metadata !1021, metadata !DIExpression()) #7, !dbg !1376
  call void @llvm.dbg.value(metadata i32 -2, metadata !1024, metadata !DIExpression()) #7, !dbg !1376
  %68 = atomicrmw and i32* %10, i32 -2 seq_cst, !dbg !1378
  call void @llvm.dbg.value(metadata i32 %68, metadata !1007, metadata !DIExpression()) #7, !dbg !1371
  %69 = and i32 %68, 2, !dbg !1379
  %70 = icmp ne i32 %69, 0, !dbg !1380
  call void @llvm.dbg.value(metadata i1 %70, metadata !1008, metadata !DIExpression(DW_OP_LLVM_convert, 1, DW_ATE_unsigned, DW_OP_LLVM_convert, 8, DW_ATE_unsigned, DW_OP_stack_value)) #7, !dbg !1371
  call void @llvm.dbg.value(metadata i1 undef, metadata !1009, metadata !DIExpression(DW_OP_LLVM_convert, 1, DW_ATE_unsigned, DW_OP_LLVM_convert, 8, DW_ATE_unsigned, DW_OP_stack_value)) #7, !dbg !1371
  %71 = icmp ult i32 %68, 4
  %72 = or i1 %71, %70, !dbg !1381
  call void @llvm.dbg.value(metadata i1 %71, metadata !1009, metadata !DIExpression(DW_OP_LLVM_convert, 1, DW_ATE_unsigned, DW_OP_LLVM_convert, 8, DW_ATE_unsigned, DW_OP_stack_value)) #7, !dbg !1371
  br i1 %72, label %74, label %73, !dbg !1381

73:                                               ; preds = %64
  call void @llvm.dbg.value(metadata %"class.Halide::Runtime::Internal::Synchronization::word_lock"* %11, metadata !1004, metadata !DIExpression()) #7, !dbg !1371
  tail call void @_ZN6Halide7Runtime8Internal15Synchronization9word_lock11unlock_fullEv(%"class.Halide::Runtime::Internal::Synchronization::word_lock"* nonnull dereferenceable(4) %11) #6, !dbg !1382
  br label %74, !dbg !1383

74:                                               ; preds = %64, %73
  call void @llvm.dbg.value(metadata i8* %9, metadata !1056, metadata !DIExpression()) #7, !dbg !1384
  tail call void @__tsan_mutex_post_unlock(i8* nonnull %9, i32 1) #6, !dbg !1386
  br label %75, !dbg !1387

75:                                               ; preds = %59, %74
  %76 = phi i32 [ 0, %74 ], [ %63, %59 ], !dbg !1298
  ret i32 %76, !dbg !1388
}

; Function Attrs: nounwind mustprogress
define weak dso_local i32 @_ZN6Halide7Runtime8Internal15Synchronization10unpark_allEjj(i32 %0, i32 %1) local_unnamed_addr #0 !dbg !1389 {
  %3 = alloca [16 x %"struct.Halide::Runtime::Internal::Synchronization::queue_data"*], align 4
  call void @llvm.dbg.value(metadata i32 %0, metadata !1393, metadata !DIExpression()), !dbg !1421
  call void @llvm.dbg.value(metadata i32 %1, metadata !1394, metadata !DIExpression()), !dbg !1421
  %4 = tail call nonnull align 4 dereferenceable(12) %"struct.Halide::Runtime::Internal::Synchronization::hash_bucket"* @_ZN6Halide7Runtime8Internal15Synchronization11lock_bucketEj(i32 %0) #8, !dbg !1422
  call void @llvm.dbg.value(metadata %"struct.Halide::Runtime::Internal::Synchronization::hash_bucket"* %4, metadata !1395, metadata !DIExpression()), !dbg !1421
  %5 = getelementptr inbounds %"struct.Halide::Runtime::Internal::Synchronization::hash_bucket", %"struct.Halide::Runtime::Internal::Synchronization::hash_bucket"* %4, i32 0, i32 1, !dbg !1423
  call void @llvm.dbg.value(metadata %"struct.Halide::Runtime::Internal::Synchronization::queue_data"** %5, metadata !1396, metadata !DIExpression()), !dbg !1421
  call void @llvm.dbg.value(metadata %"struct.Halide::Runtime::Internal::Synchronization::queue_data"* null, metadata !1397, metadata !DIExpression()), !dbg !1421
  %6 = load %"struct.Halide::Runtime::Internal::Synchronization::queue_data"*, %"struct.Halide::Runtime::Internal::Synchronization::queue_data"** %5, align 4, !dbg !1424, !tbaa !452
  call void @llvm.dbg.value(metadata %"struct.Halide::Runtime::Internal::Synchronization::queue_data"* %6, metadata !1398, metadata !DIExpression()), !dbg !1421
  call void @llvm.dbg.value(metadata i32 0, metadata !1399, metadata !DIExpression()), !dbg !1421
  %7 = bitcast [16 x %"struct.Halide::Runtime::Internal::Synchronization::queue_data"*]* %3 to i8*, !dbg !1425
  call void @llvm.lifetime.start.p0i8(i64 64, i8* nonnull %7) #7, !dbg !1425
  call void @llvm.dbg.declare(metadata [16 x %"struct.Halide::Runtime::Internal::Synchronization::queue_data"*]* %3, metadata !1401, metadata !DIExpression()), !dbg !1426
  %8 = getelementptr inbounds [16 x %"struct.Halide::Runtime::Internal::Synchronization::queue_data"*], [16 x %"struct.Halide::Runtime::Internal::Synchronization::queue_data"*]* %3, i32 0, i32 0, !dbg !1427
  call void @llvm.dbg.value(metadata %"struct.Halide::Runtime::Internal::Synchronization::queue_data"** %8, metadata !1405, metadata !DIExpression()), !dbg !1421
  call void @llvm.dbg.value(metadata i32 16, metadata !1406, metadata !DIExpression()), !dbg !1421
  call void @llvm.dbg.value(metadata %"struct.Halide::Runtime::Internal::Synchronization::queue_data"* null, metadata !1397, metadata !DIExpression()), !dbg !1421
  call void @llvm.dbg.value(metadata %"struct.Halide::Runtime::Internal::Synchronization::queue_data"* %6, metadata !1398, metadata !DIExpression()), !dbg !1421
  call void @llvm.dbg.value(metadata i32 0, metadata !1399, metadata !DIExpression()), !dbg !1421
  %9 = icmp eq %"struct.Halide::Runtime::Internal::Synchronization::queue_data"* %6, null, !dbg !1428
  br i1 %9, label %60, label %10, !dbg !1429

10:                                               ; preds = %2
  %11 = getelementptr inbounds %"struct.Halide::Runtime::Internal::Synchronization::hash_bucket", %"struct.Halide::Runtime::Internal::Synchronization::hash_bucket"* %4, i32 0, i32 2
  br label %12, !dbg !1429

12:                                               ; preds = %10, %54
  %13 = phi %"struct.Halide::Runtime::Internal::Synchronization::queue_data"* [ null, %10 ], [ %58, %54 ]
  %14 = phi %"struct.Halide::Runtime::Internal::Synchronization::queue_data"* [ %6, %10 ], [ %21, %54 ]
  %15 = phi i32 [ 16, %10 ], [ %57, %54 ]
  %16 = phi %"struct.Halide::Runtime::Internal::Synchronization::queue_data"** [ %8, %10 ], [ %56, %54 ]
  %17 = phi i32 [ 0, %10 ], [ %55, %54 ]
  call void @llvm.dbg.value(metadata %"struct.Halide::Runtime::Internal::Synchronization::queue_data"* %13, metadata !1397, metadata !DIExpression()), !dbg !1421
  call void @llvm.dbg.value(metadata %"struct.Halide::Runtime::Internal::Synchronization::queue_data"* %14, metadata !1398, metadata !DIExpression()), !dbg !1421
  call void @llvm.dbg.value(metadata i32 %15, metadata !1406, metadata !DIExpression()), !dbg !1421
  call void @llvm.dbg.value(metadata %"struct.Halide::Runtime::Internal::Synchronization::queue_data"** %16, metadata !1405, metadata !DIExpression()), !dbg !1421
  call void @llvm.dbg.value(metadata i32 %17, metadata !1399, metadata !DIExpression()), !dbg !1421
  %18 = getelementptr inbounds %"struct.Halide::Runtime::Internal::Synchronization::queue_data", %"struct.Halide::Runtime::Internal::Synchronization::queue_data"* %14, i32 0, i32 1, !dbg !1430
  %19 = load i32, i32* %18, align 4, !dbg !1431, !tbaa !490
  %20 = getelementptr inbounds %"struct.Halide::Runtime::Internal::Synchronization::queue_data", %"struct.Halide::Runtime::Internal::Synchronization::queue_data"* %14, i32 0, i32 2, !dbg !1432
  %21 = load %"struct.Halide::Runtime::Internal::Synchronization::queue_data"*, %"struct.Halide::Runtime::Internal::Synchronization::queue_data"** %20, align 4, !dbg !1432, !tbaa !1173
  call void @llvm.dbg.value(metadata %"struct.Halide::Runtime::Internal::Synchronization::queue_data"* %21, metadata !1409, metadata !DIExpression()), !dbg !1433
  call void @llvm.dbg.value(metadata i32 %19, metadata !1407, metadata !DIExpression()), !dbg !1433
  %22 = icmp eq i32 %19, %0, !dbg !1434
  store %"struct.Halide::Runtime::Internal::Synchronization::queue_data"* %21, %"struct.Halide::Runtime::Internal::Synchronization::queue_data"** %5, align 4, !dbg !1435, !tbaa !452
  br i1 %22, label %23, label %54, !dbg !1436

23:                                               ; preds = %12
  %24 = load %"struct.Halide::Runtime::Internal::Synchronization::queue_data"*, %"struct.Halide::Runtime::Internal::Synchronization::queue_data"** %11, align 4, !dbg !1437, !tbaa !1234
  %25 = icmp eq %"struct.Halide::Runtime::Internal::Synchronization::queue_data"* %24, %14, !dbg !1439
  br i1 %25, label %26, label %27, !dbg !1440

26:                                               ; preds = %23
  store %"struct.Halide::Runtime::Internal::Synchronization::queue_data"* %13, %"struct.Halide::Runtime::Internal::Synchronization::queue_data"** %11, align 4, !dbg !1441, !tbaa !1234
  br label %27, !dbg !1443

27:                                               ; preds = %26, %23
  %28 = icmp eq i32 %17, %15, !dbg !1444
  br i1 %28, label %29, label %46, !dbg !1445

29:                                               ; preds = %27
  call void @llvm.dbg.value(metadata %"struct.Halide::Runtime::Internal::Synchronization::queue_data"** %16, metadata !1410, metadata !DIExpression()), !dbg !1446
  %30 = shl i32 %15, 3, !dbg !1447
  %31 = call i8* @malloc(i32 %30) #6, !dbg !1448
  %32 = bitcast i8* %31 to %"struct.Halide::Runtime::Internal::Synchronization::queue_data"**, !dbg !1449
  call void @llvm.dbg.value(metadata %"struct.Halide::Runtime::Internal::Synchronization::queue_data"** %32, metadata !1405, metadata !DIExpression()), !dbg !1421
  call void @llvm.dbg.value(metadata i32 0, metadata !1415, metadata !DIExpression()), !dbg !1450
  %33 = icmp eq i32 %15, 0, !dbg !1451
  br i1 %33, label %34, label %37, !dbg !1453

34:                                               ; preds = %37, %29
  %35 = shl i32 %15, 1, !dbg !1454
  call void @llvm.dbg.value(metadata i32 %35, metadata !1406, metadata !DIExpression()), !dbg !1421
  %36 = icmp eq %"struct.Halide::Runtime::Internal::Synchronization::queue_data"** %16, %8, !dbg !1455
  br i1 %36, label %46, label %44, !dbg !1457

37:                                               ; preds = %29, %37
  %38 = phi i32 [ %42, %37 ], [ 0, %29 ]
  call void @llvm.dbg.value(metadata i32 %38, metadata !1415, metadata !DIExpression()), !dbg !1450
  %39 = getelementptr inbounds %"struct.Halide::Runtime::Internal::Synchronization::queue_data"*, %"struct.Halide::Runtime::Internal::Synchronization::queue_data"** %16, i32 %38, !dbg !1458
  %40 = load %"struct.Halide::Runtime::Internal::Synchronization::queue_data"*, %"struct.Halide::Runtime::Internal::Synchronization::queue_data"** %39, align 4, !dbg !1458, !tbaa !452
  %41 = getelementptr inbounds %"struct.Halide::Runtime::Internal::Synchronization::queue_data"*, %"struct.Halide::Runtime::Internal::Synchronization::queue_data"** %32, i32 %38, !dbg !1460
  store %"struct.Halide::Runtime::Internal::Synchronization::queue_data"* %40, %"struct.Halide::Runtime::Internal::Synchronization::queue_data"** %41, align 4, !dbg !1461, !tbaa !452
  %42 = add nuw i32 %38, 1, !dbg !1462
  call void @llvm.dbg.value(metadata i32 %42, metadata !1415, metadata !DIExpression()), !dbg !1450
  %43 = icmp ult i32 %42, %15, !dbg !1451
  br i1 %43, label %37, label %34, !dbg !1453, !llvm.loop !1463

44:                                               ; preds = %34
  %45 = bitcast %"struct.Halide::Runtime::Internal::Synchronization::queue_data"** %16 to i8*, !dbg !1465
  call void @free(i8* %45) #6, !dbg !1467
  br label %46, !dbg !1468

46:                                               ; preds = %34, %44, %27
  %47 = phi %"struct.Halide::Runtime::Internal::Synchronization::queue_data"** [ %16, %27 ], [ %32, %44 ], [ %32, %34 ], !dbg !1421
  %48 = phi i32 [ %15, %27 ], [ %35, %44 ], [ %35, %34 ], !dbg !1421
  call void @llvm.dbg.value(metadata i32 %48, metadata !1406, metadata !DIExpression()), !dbg !1421
  call void @llvm.dbg.value(metadata %"struct.Halide::Runtime::Internal::Synchronization::queue_data"** %47, metadata !1405, metadata !DIExpression()), !dbg !1421
  %49 = getelementptr inbounds %"struct.Halide::Runtime::Internal::Synchronization::queue_data", %"struct.Halide::Runtime::Internal::Synchronization::queue_data"* %14, i32 0, i32 3, !dbg !1469
  store i32 %1, i32* %49, align 8, !dbg !1470, !tbaa !1175
  %50 = add i32 %17, 1, !dbg !1471
  call void @llvm.dbg.value(metadata i32 %50, metadata !1399, metadata !DIExpression()), !dbg !1421
  %51 = getelementptr inbounds %"struct.Halide::Runtime::Internal::Synchronization::queue_data"*, %"struct.Halide::Runtime::Internal::Synchronization::queue_data"** %47, i32 %17, !dbg !1472
  store %"struct.Halide::Runtime::Internal::Synchronization::queue_data"* %14, %"struct.Halide::Runtime::Internal::Synchronization::queue_data"** %51, align 4, !dbg !1473, !tbaa !452
  call void @llvm.dbg.value(metadata %"struct.Halide::Runtime::Internal::Synchronization::queue_data"* %14, metadata !764, metadata !DIExpression()) #7, !dbg !1474
  %52 = getelementptr inbounds %"struct.Halide::Runtime::Internal::Synchronization::queue_data", %"struct.Halide::Runtime::Internal::Synchronization::queue_data"* %14, i32 0, i32 0, i32 0, !dbg !1476
  %53 = call i32 @pthread_mutex_lock(%struct.pthread_mutex_t* nonnull %52) #6, !dbg !1477
  call void @llvm.dbg.value(metadata %"struct.Halide::Runtime::Internal::Synchronization::queue_data"* %21, metadata !1398, metadata !DIExpression()), !dbg !1421
  br label %54, !dbg !1478

54:                                               ; preds = %12, %46
  %55 = phi i32 [ %50, %46 ], [ %17, %12 ], !dbg !1421
  %56 = phi %"struct.Halide::Runtime::Internal::Synchronization::queue_data"** [ %47, %46 ], [ %16, %12 ], !dbg !1421
  %57 = phi i32 [ %48, %46 ], [ %15, %12 ], !dbg !1421
  %58 = phi %"struct.Halide::Runtime::Internal::Synchronization::queue_data"* [ %13, %46 ], [ %14, %12 ], !dbg !1421
  call void @llvm.dbg.value(metadata %"struct.Halide::Runtime::Internal::Synchronization::queue_data"* %58, metadata !1397, metadata !DIExpression()), !dbg !1421
  call void @llvm.dbg.value(metadata %"struct.Halide::Runtime::Internal::Synchronization::queue_data"* %21, metadata !1398, metadata !DIExpression()), !dbg !1421
  call void @llvm.dbg.value(metadata i32 %57, metadata !1406, metadata !DIExpression()), !dbg !1421
  call void @llvm.dbg.value(metadata %"struct.Halide::Runtime::Internal::Synchronization::queue_data"** %56, metadata !1405, metadata !DIExpression()), !dbg !1421
  call void @llvm.dbg.value(metadata i32 %55, metadata !1399, metadata !DIExpression()), !dbg !1421
  %59 = icmp eq %"struct.Halide::Runtime::Internal::Synchronization::queue_data"* %21, null, !dbg !1428
  br i1 %59, label %60, label %12, !dbg !1429, !llvm.loop !1479

60:                                               ; preds = %54, %2
  %61 = phi i32 [ 0, %2 ], [ %55, %54 ], !dbg !1421
  %62 = phi %"struct.Halide::Runtime::Internal::Synchronization::queue_data"** [ %8, %2 ], [ %56, %54 ], !dbg !1421
  call void @llvm.dbg.value(metadata %"struct.Halide::Runtime::Internal::Synchronization::hash_bucket"* %4, metadata !1004, metadata !DIExpression()) #7, !dbg !1481
  %63 = bitcast %"struct.Halide::Runtime::Internal::Synchronization::hash_bucket"* %4 to i8*, !dbg !1483
  call void @llvm.dbg.value(metadata i8* %63, metadata !1014, metadata !DIExpression()) #7, !dbg !1484
  %64 = call i32 @__tsan_mutex_pre_unlock(i8* nonnull %63, i32 1) #6, !dbg !1486
  %65 = getelementptr inbounds %"struct.Halide::Runtime::Internal::Synchronization::hash_bucket", %"struct.Halide::Runtime::Internal::Synchronization::hash_bucket"* %4, i32 0, i32 0, i32 0, !dbg !1487
  call void @llvm.dbg.value(metadata i32* %65, metadata !1021, metadata !DIExpression()) #7, !dbg !1488
  call void @llvm.dbg.value(metadata i32 -2, metadata !1024, metadata !DIExpression()) #7, !dbg !1488
  %66 = atomicrmw and i32* %65, i32 -2 seq_cst, !dbg !1490
  call void @llvm.dbg.value(metadata i32 %66, metadata !1007, metadata !DIExpression()) #7, !dbg !1481
  %67 = and i32 %66, 2, !dbg !1491
  %68 = icmp ne i32 %67, 0, !dbg !1492
  call void @llvm.dbg.value(metadata i1 %68, metadata !1008, metadata !DIExpression(DW_OP_LLVM_convert, 1, DW_ATE_unsigned, DW_OP_LLVM_convert, 8, DW_ATE_unsigned, DW_OP_stack_value)) #7, !dbg !1481
  call void @llvm.dbg.value(metadata i1 undef, metadata !1009, metadata !DIExpression(DW_OP_LLVM_convert, 1, DW_ATE_unsigned, DW_OP_LLVM_convert, 8, DW_ATE_unsigned, DW_OP_stack_value)) #7, !dbg !1481
  %69 = icmp ult i32 %66, 4
  %70 = or i1 %69, %68, !dbg !1493
  call void @llvm.dbg.value(metadata i1 %69, metadata !1009, metadata !DIExpression(DW_OP_LLVM_convert, 1, DW_ATE_unsigned, DW_OP_LLVM_convert, 8, DW_ATE_unsigned, DW_OP_stack_value)) #7, !dbg !1481
  br i1 %70, label %73, label %71, !dbg !1493

71:                                               ; preds = %60
  %72 = getelementptr inbounds %"struct.Halide::Runtime::Internal::Synchronization::hash_bucket", %"struct.Halide::Runtime::Internal::Synchronization::hash_bucket"* %4, i32 0, i32 0, !dbg !1494
  call void @llvm.dbg.value(metadata %"class.Halide::Runtime::Internal::Synchronization::word_lock"* %72, metadata !1004, metadata !DIExpression()) #7, !dbg !1481
  call void @_ZN6Halide7Runtime8Internal15Synchronization9word_lock11unlock_fullEv(%"class.Halide::Runtime::Internal::Synchronization::word_lock"* nonnull dereferenceable(4) %72) #6, !dbg !1495
  br label %73, !dbg !1496

73:                                               ; preds = %60, %71
  call void @llvm.dbg.value(metadata i8* %63, metadata !1056, metadata !DIExpression()) #7, !dbg !1497
  call void @__tsan_mutex_post_unlock(i8* nonnull %63, i32 1) #6, !dbg !1499
  call void @llvm.dbg.value(metadata i32 0, metadata !1417, metadata !DIExpression()), !dbg !1500
  %74 = icmp eq i32 %61, 0, !dbg !1501
  br i1 %74, label %84, label %75, !dbg !1503

75:                                               ; preds = %73, %75
  %76 = phi i32 [ %82, %75 ], [ 0, %73 ]
  call void @llvm.dbg.value(metadata i32 %76, metadata !1417, metadata !DIExpression()), !dbg !1500
  %77 = getelementptr inbounds %"struct.Halide::Runtime::Internal::Synchronization::queue_data"*, %"struct.Halide::Runtime::Internal::Synchronization::queue_data"** %62, i32 %76, !dbg !1504
  %78 = load %"struct.Halide::Runtime::Internal::Synchronization::queue_data"*, %"struct.Halide::Runtime::Internal::Synchronization::queue_data"** %77, align 4, !dbg !1504, !tbaa !452
  call void @llvm.dbg.value(metadata %"struct.Halide::Runtime::Internal::Synchronization::queue_data"* %78, metadata !771, metadata !DIExpression()) #7, !dbg !1506
  %79 = getelementptr inbounds %"struct.Halide::Runtime::Internal::Synchronization::queue_data", %"struct.Halide::Runtime::Internal::Synchronization::queue_data"* %78, i32 0, i32 0, i32 2, !dbg !1508
  store i8 0, i8* %79, align 8, !dbg !1509, !tbaa !557
  %80 = getelementptr inbounds %"struct.Halide::Runtime::Internal::Synchronization::queue_data", %"struct.Halide::Runtime::Internal::Synchronization::queue_data"* %78, i32 0, i32 0, i32 1, !dbg !1510
  %81 = call i32 @pthread_cond_signal(%struct.pthread_cond_t* nonnull %80) #6, !dbg !1511
  %82 = add nuw i32 %76, 1, !dbg !1512
  call void @llvm.dbg.value(metadata i32 %82, metadata !1417, metadata !DIExpression()), !dbg !1500
  %83 = icmp ult i32 %82, %61, !dbg !1501
  br i1 %83, label %75, label %86, !dbg !1503, !llvm.loop !1513

84:                                               ; preds = %86, %73
  %85 = icmp eq %"struct.Halide::Runtime::Internal::Synchronization::queue_data"** %62, %8, !dbg !1515
  br i1 %85, label %96, label %94, !dbg !1517

86:                                               ; preds = %75, %86
  %87 = phi i32 [ %92, %86 ], [ 0, %75 ]
  call void @llvm.dbg.value(metadata i32 %87, metadata !1419, metadata !DIExpression()), !dbg !1518
  %88 = getelementptr inbounds %"struct.Halide::Runtime::Internal::Synchronization::queue_data"*, %"struct.Halide::Runtime::Internal::Synchronization::queue_data"** %62, i32 %87, !dbg !1519
  %89 = load %"struct.Halide::Runtime::Internal::Synchronization::queue_data"*, %"struct.Halide::Runtime::Internal::Synchronization::queue_data"** %88, align 4, !dbg !1519, !tbaa !452
  call void @llvm.dbg.value(metadata %"struct.Halide::Runtime::Internal::Synchronization::queue_data"* %89, metadata !780, metadata !DIExpression()) #7, !dbg !1522
  %90 = getelementptr inbounds %"struct.Halide::Runtime::Internal::Synchronization::queue_data", %"struct.Halide::Runtime::Internal::Synchronization::queue_data"* %89, i32 0, i32 0, i32 0, !dbg !1524
  %91 = call i32 @pthread_mutex_unlock(%struct.pthread_mutex_t* nonnull %90) #6, !dbg !1525
  %92 = add nuw i32 %87, 1, !dbg !1526
  call void @llvm.dbg.value(metadata i32 %92, metadata !1419, metadata !DIExpression()), !dbg !1518
  %93 = icmp ult i32 %92, %61, !dbg !1527
  br i1 %93, label %86, label %84, !dbg !1528, !llvm.loop !1529

94:                                               ; preds = %84
  %95 = bitcast %"struct.Halide::Runtime::Internal::Synchronization::queue_data"** %62 to i8*, !dbg !1531
  call void @free(i8* %95) #6, !dbg !1533
  br label %96, !dbg !1534

96:                                               ; preds = %94, %84
  call void @llvm.lifetime.end.p0i8(i64 64, i8* nonnull %7) #7, !dbg !1535
  ret i32 %61, !dbg !1536
}

; Function Attrs: nounwind
define weak dso_local i32 @_ZN6Halide7Runtime8Internal15Synchronization14unpark_requeueEjjRNS2_15parking_controlEj(i32 %0, i32 %1, %"struct.Halide::Runtime::Internal::Synchronization::parking_control"* nonnull align 4 dereferenceable(16) %2, i32 %3) local_unnamed_addr #4 !dbg !1537 {
  %5 = alloca %"struct.Halide::Runtime::Internal::Synchronization::bucket_pair", align 4
  %6 = alloca %"struct.Halide::Runtime::Internal::Synchronization::validate_action", align 4
  call void @llvm.dbg.value(metadata i32 %0, metadata !1541, metadata !DIExpression()), !dbg !1556
  call void @llvm.dbg.value(metadata i32 %1, metadata !1542, metadata !DIExpression()), !dbg !1556
  call void @llvm.dbg.value(metadata %"struct.Halide::Runtime::Internal::Synchronization::parking_control"* %2, metadata !1543, metadata !DIExpression()), !dbg !1556
  call void @llvm.dbg.value(metadata i32 %3, metadata !1544, metadata !DIExpression()), !dbg !1556
  %7 = bitcast %"struct.Halide::Runtime::Internal::Synchronization::bucket_pair"* %5 to i8*, !dbg !1557
  call void @llvm.lifetime.start.p0i8(i64 8, i8* nonnull %7) #7, !dbg !1557
  call void @llvm.dbg.declare(metadata %"struct.Halide::Runtime::Internal::Synchronization::bucket_pair"* %5, metadata !1545, metadata !DIExpression()), !dbg !1558
  call void @llvm.dbg.value(metadata i32 %1, metadata !1542, metadata !DIExpression()), !dbg !1556
  call void @_ZN6Halide7Runtime8Internal15Synchronization16lock_bucket_pairEjj(%"struct.Halide::Runtime::Internal::Synchronization::bucket_pair"* nonnull sret(%"struct.Halide::Runtime::Internal::Synchronization::bucket_pair") align 4 %5, i32 %0, i32 %1) #8, !dbg !1559
  %8 = getelementptr inbounds %"struct.Halide::Runtime::Internal::Synchronization::validate_action", %"struct.Halide::Runtime::Internal::Synchronization::validate_action"* %6, i32 0, i32 0, !dbg !1560
  call void @llvm.lifetime.start.p0i8(i64 8, i8* nonnull %8) #7, !dbg !1560
  call void @llvm.dbg.declare(metadata %"struct.Halide::Runtime::Internal::Synchronization::validate_action"* %6, metadata !1546, metadata !DIExpression()), !dbg !1561
  call void @llvm.dbg.value(metadata %"struct.Halide::Runtime::Internal::Synchronization::validate_action"* %6, metadata !1179, metadata !DIExpression()), !dbg !1562
  store i8 0, i8* %8, align 4, !dbg !1564, !tbaa !1186
  %9 = getelementptr inbounds %"struct.Halide::Runtime::Internal::Synchronization::validate_action", %"struct.Halide::Runtime::Internal::Synchronization::validate_action"* %6, i32 0, i32 1, !dbg !1565
  store i32 0, i32* %9, align 4, !dbg !1565, !tbaa !1189
  %10 = getelementptr inbounds %"struct.Halide::Runtime::Internal::Synchronization::parking_control", %"struct.Halide::Runtime::Internal::Synchronization::parking_control"* %2, i32 0, i32 0, !dbg !1566
  %11 = load i1 (i8*, %"struct.Halide::Runtime::Internal::Synchronization::validate_action"*)*, i1 (i8*, %"struct.Halide::Runtime::Internal::Synchronization::validate_action"*)** %10, align 4, !dbg !1566, !tbaa !1192
  %12 = bitcast %"struct.Halide::Runtime::Internal::Synchronization::parking_control"* %2 to i8*, !dbg !1568
  %13 = call zeroext i1 %11(i8* nonnull %12, %"struct.Halide::Runtime::Internal::Synchronization::validate_action"* nonnull align 4 dereferenceable(8) %6) #6, !dbg !1569
  br i1 %13, label %15, label %14, !dbg !1570

14:                                               ; preds = %4
  call void @_ZN6Halide7Runtime8Internal15Synchronization18unlock_bucket_pairERNS2_11bucket_pairE(%"struct.Halide::Runtime::Internal::Synchronization::bucket_pair"* nonnull align 4 dereferenceable(8) %5) #8, !dbg !1571
  br label %126, !dbg !1573

15:                                               ; preds = %4
  %16 = getelementptr inbounds %"struct.Halide::Runtime::Internal::Synchronization::bucket_pair", %"struct.Halide::Runtime::Internal::Synchronization::bucket_pair"* %5, i32 0, i32 0, !dbg !1574
  %17 = load %"struct.Halide::Runtime::Internal::Synchronization::hash_bucket"*, %"struct.Halide::Runtime::Internal::Synchronization::hash_bucket"** %16, align 4, !dbg !1574, !tbaa !998
  %18 = getelementptr inbounds %"struct.Halide::Runtime::Internal::Synchronization::hash_bucket", %"struct.Halide::Runtime::Internal::Synchronization::hash_bucket"* %17, i32 0, i32 1, !dbg !1575
  call void @llvm.dbg.value(metadata %"struct.Halide::Runtime::Internal::Synchronization::queue_data"** %18, metadata !1547, metadata !DIExpression()), !dbg !1556
  call void @llvm.dbg.value(metadata %"struct.Halide::Runtime::Internal::Synchronization::queue_data"* null, metadata !1548, metadata !DIExpression()), !dbg !1556
  %19 = load %"struct.Halide::Runtime::Internal::Synchronization::queue_data"*, %"struct.Halide::Runtime::Internal::Synchronization::queue_data"** %18, align 4, !dbg !1576, !tbaa !452
  call void @llvm.dbg.value(metadata %"struct.Halide::Runtime::Internal::Synchronization::queue_data"* %19, metadata !1549, metadata !DIExpression()), !dbg !1556
  call void @llvm.dbg.value(metadata %"struct.Halide::Runtime::Internal::Synchronization::queue_data"* null, metadata !1550, metadata !DIExpression()), !dbg !1556
  call void @llvm.dbg.value(metadata %"struct.Halide::Runtime::Internal::Synchronization::queue_data"* null, metadata !1551, metadata !DIExpression()), !dbg !1556
  call void @llvm.dbg.value(metadata %"struct.Halide::Runtime::Internal::Synchronization::queue_data"* null, metadata !1552, metadata !DIExpression()), !dbg !1556
  call void @llvm.dbg.value(metadata %"struct.Halide::Runtime::Internal::Synchronization::queue_data"* null, metadata !1548, metadata !DIExpression()), !dbg !1556
  call void @llvm.dbg.value(metadata %"struct.Halide::Runtime::Internal::Synchronization::queue_data"** %18, metadata !1547, metadata !DIExpression()), !dbg !1556
  %20 = icmp eq %"struct.Halide::Runtime::Internal::Synchronization::queue_data"* %19, null, !dbg !1577
  br i1 %20, label %105, label %21, !dbg !1578

21:                                               ; preds = %15
  %22 = load i8, i8* %8, align 4
  %23 = icmp eq i8 %22, 0
  br i1 %23, label %57, label %24, !dbg !1578

24:                                               ; preds = %21, %50
  %25 = phi %"struct.Halide::Runtime::Internal::Synchronization::queue_data"* [ %55, %50 ], [ null, %21 ]
  %26 = phi %"struct.Halide::Runtime::Internal::Synchronization::queue_data"* [ %54, %50 ], [ null, %21 ]
  %27 = phi %"struct.Halide::Runtime::Internal::Synchronization::queue_data"* [ %53, %50 ], [ null, %21 ]
  %28 = phi %"struct.Halide::Runtime::Internal::Synchronization::queue_data"* [ %34, %50 ], [ %19, %21 ]
  %29 = phi %"struct.Halide::Runtime::Internal::Synchronization::queue_data"* [ %52, %50 ], [ null, %21 ]
  %30 = phi %"struct.Halide::Runtime::Internal::Synchronization::queue_data"** [ %51, %50 ], [ %18, %21 ]
  call void @llvm.dbg.value(metadata %"struct.Halide::Runtime::Internal::Synchronization::queue_data"* %25, metadata !1552, metadata !DIExpression()), !dbg !1556
  call void @llvm.dbg.value(metadata %"struct.Halide::Runtime::Internal::Synchronization::queue_data"* %26, metadata !1551, metadata !DIExpression()), !dbg !1556
  call void @llvm.dbg.value(metadata %"struct.Halide::Runtime::Internal::Synchronization::queue_data"* %27, metadata !1550, metadata !DIExpression()), !dbg !1556
  call void @llvm.dbg.value(metadata %"struct.Halide::Runtime::Internal::Synchronization::queue_data"* %28, metadata !1549, metadata !DIExpression()), !dbg !1556
  call void @llvm.dbg.value(metadata %"struct.Halide::Runtime::Internal::Synchronization::queue_data"* %29, metadata !1548, metadata !DIExpression()), !dbg !1556
  call void @llvm.dbg.value(metadata %"struct.Halide::Runtime::Internal::Synchronization::queue_data"** %30, metadata !1547, metadata !DIExpression()), !dbg !1556
  %31 = getelementptr inbounds %"struct.Halide::Runtime::Internal::Synchronization::queue_data", %"struct.Halide::Runtime::Internal::Synchronization::queue_data"* %28, i32 0, i32 1, !dbg !1579
  %32 = load i32, i32* %31, align 4, !dbg !1580, !tbaa !490
  %33 = getelementptr inbounds %"struct.Halide::Runtime::Internal::Synchronization::queue_data", %"struct.Halide::Runtime::Internal::Synchronization::queue_data"* %28, i32 0, i32 2, !dbg !1581
  %34 = load %"struct.Halide::Runtime::Internal::Synchronization::queue_data"*, %"struct.Halide::Runtime::Internal::Synchronization::queue_data"** %33, align 4, !dbg !1581, !tbaa !1173
  call void @llvm.dbg.value(metadata %"struct.Halide::Runtime::Internal::Synchronization::queue_data"* %34, metadata !1555, metadata !DIExpression()), !dbg !1582
  call void @llvm.dbg.value(metadata i32 %32, metadata !1553, metadata !DIExpression()), !dbg !1582
  %35 = icmp eq i32 %32, %0, !dbg !1583
  br i1 %35, label %36, label %50, !dbg !1585

36:                                               ; preds = %24
  store %"struct.Halide::Runtime::Internal::Synchronization::queue_data"* %34, %"struct.Halide::Runtime::Internal::Synchronization::queue_data"** %30, align 4, !dbg !1586, !tbaa !452
  %37 = load %"struct.Halide::Runtime::Internal::Synchronization::hash_bucket"*, %"struct.Halide::Runtime::Internal::Synchronization::hash_bucket"** %16, align 4, !dbg !1588, !tbaa !998
  %38 = getelementptr inbounds %"struct.Halide::Runtime::Internal::Synchronization::hash_bucket", %"struct.Halide::Runtime::Internal::Synchronization::hash_bucket"* %37, i32 0, i32 2, !dbg !1590
  %39 = load %"struct.Halide::Runtime::Internal::Synchronization::queue_data"*, %"struct.Halide::Runtime::Internal::Synchronization::queue_data"** %38, align 4, !dbg !1590, !tbaa !1234
  %40 = icmp eq %"struct.Halide::Runtime::Internal::Synchronization::queue_data"* %39, %28, !dbg !1591
  br i1 %40, label %41, label %42, !dbg !1592

41:                                               ; preds = %36
  store %"struct.Halide::Runtime::Internal::Synchronization::queue_data"* %29, %"struct.Halide::Runtime::Internal::Synchronization::queue_data"** %38, align 4, !dbg !1593, !tbaa !1234
  br label %42, !dbg !1595

42:                                               ; preds = %41, %36
  %43 = icmp eq %"struct.Halide::Runtime::Internal::Synchronization::queue_data"* %25, null
  br i1 %43, label %50, label %44, !dbg !1596

44:                                               ; preds = %42
  %45 = icmp eq %"struct.Halide::Runtime::Internal::Synchronization::queue_data"* %27, null, !dbg !1598
  br i1 %45, label %48, label %46, !dbg !1601

46:                                               ; preds = %44
  %47 = getelementptr inbounds %"struct.Halide::Runtime::Internal::Synchronization::queue_data", %"struct.Halide::Runtime::Internal::Synchronization::queue_data"* %26, i32 0, i32 2, !dbg !1602
  store %"struct.Halide::Runtime::Internal::Synchronization::queue_data"* %28, %"struct.Halide::Runtime::Internal::Synchronization::queue_data"** %47, align 4, !dbg !1604, !tbaa !1173
  br label %48

48:                                               ; preds = %46, %44
  %49 = phi %"struct.Halide::Runtime::Internal::Synchronization::queue_data"* [ %27, %46 ], [ %28, %44 ], !dbg !1556
  call void @llvm.dbg.value(metadata %"struct.Halide::Runtime::Internal::Synchronization::queue_data"* %49, metadata !1550, metadata !DIExpression()), !dbg !1556
  call void @llvm.dbg.value(metadata %"struct.Halide::Runtime::Internal::Synchronization::queue_data"* %28, metadata !1551, metadata !DIExpression()), !dbg !1556
  call void @llvm.dbg.value(metadata i32* %31, metadata !1605, metadata !DIExpression()), !dbg !1611
  call void @llvm.dbg.value(metadata i32* undef, metadata !1610, metadata !DIExpression()), !dbg !1611
  store i32 %1, i32* %31, align 4, !dbg !1613, !tbaa !490
  br label %50

50:                                               ; preds = %48, %42, %24
  %51 = phi %"struct.Halide::Runtime::Internal::Synchronization::queue_data"** [ %30, %42 ], [ %30, %48 ], [ %33, %24 ], !dbg !1556
  %52 = phi %"struct.Halide::Runtime::Internal::Synchronization::queue_data"* [ %29, %42 ], [ %29, %48 ], [ %28, %24 ], !dbg !1556
  %53 = phi %"struct.Halide::Runtime::Internal::Synchronization::queue_data"* [ %27, %42 ], [ %49, %48 ], [ %27, %24 ], !dbg !1614
  %54 = phi %"struct.Halide::Runtime::Internal::Synchronization::queue_data"* [ %26, %42 ], [ %28, %48 ], [ %26, %24 ], !dbg !1615
  %55 = phi %"struct.Halide::Runtime::Internal::Synchronization::queue_data"* [ %28, %42 ], [ %25, %48 ], [ %25, %24 ], !dbg !1556
  call void @llvm.dbg.value(metadata %"struct.Halide::Runtime::Internal::Synchronization::queue_data"* %55, metadata !1552, metadata !DIExpression()), !dbg !1556
  call void @llvm.dbg.value(metadata %"struct.Halide::Runtime::Internal::Synchronization::queue_data"* %54, metadata !1551, metadata !DIExpression()), !dbg !1556
  call void @llvm.dbg.value(metadata %"struct.Halide::Runtime::Internal::Synchronization::queue_data"* %53, metadata !1550, metadata !DIExpression()), !dbg !1556
  call void @llvm.dbg.value(metadata %"struct.Halide::Runtime::Internal::Synchronization::queue_data"* %34, metadata !1549, metadata !DIExpression()), !dbg !1556
  call void @llvm.dbg.value(metadata %"struct.Halide::Runtime::Internal::Synchronization::queue_data"* %52, metadata !1548, metadata !DIExpression()), !dbg !1556
  call void @llvm.dbg.value(metadata %"struct.Halide::Runtime::Internal::Synchronization::queue_data"** %51, metadata !1547, metadata !DIExpression()), !dbg !1556
  %56 = icmp eq %"struct.Halide::Runtime::Internal::Synchronization::queue_data"* %34, null, !dbg !1577
  br i1 %56, label %86, label %24, !dbg !1578, !llvm.loop !1616

57:                                               ; preds = %21, %80
  %58 = phi %"struct.Halide::Runtime::Internal::Synchronization::queue_data"* [ %84, %80 ], [ null, %21 ]
  %59 = phi %"struct.Halide::Runtime::Internal::Synchronization::queue_data"* [ %83, %80 ], [ null, %21 ]
  %60 = phi %"struct.Halide::Runtime::Internal::Synchronization::queue_data"* [ %66, %80 ], [ %19, %21 ]
  %61 = phi %"struct.Halide::Runtime::Internal::Synchronization::queue_data"* [ %82, %80 ], [ null, %21 ]
  %62 = phi %"struct.Halide::Runtime::Internal::Synchronization::queue_data"** [ %81, %80 ], [ %18, %21 ]
  call void @llvm.dbg.value(metadata %"struct.Halide::Runtime::Internal::Synchronization::queue_data"* null, metadata !1552, metadata !DIExpression()), !dbg !1556
  call void @llvm.dbg.value(metadata %"struct.Halide::Runtime::Internal::Synchronization::queue_data"* %58, metadata !1551, metadata !DIExpression()), !dbg !1556
  call void @llvm.dbg.value(metadata %"struct.Halide::Runtime::Internal::Synchronization::queue_data"* %59, metadata !1550, metadata !DIExpression()), !dbg !1556
  call void @llvm.dbg.value(metadata %"struct.Halide::Runtime::Internal::Synchronization::queue_data"* %60, metadata !1549, metadata !DIExpression()), !dbg !1556
  call void @llvm.dbg.value(metadata %"struct.Halide::Runtime::Internal::Synchronization::queue_data"* %61, metadata !1548, metadata !DIExpression()), !dbg !1556
  call void @llvm.dbg.value(metadata %"struct.Halide::Runtime::Internal::Synchronization::queue_data"** %62, metadata !1547, metadata !DIExpression()), !dbg !1556
  %63 = getelementptr inbounds %"struct.Halide::Runtime::Internal::Synchronization::queue_data", %"struct.Halide::Runtime::Internal::Synchronization::queue_data"* %60, i32 0, i32 1, !dbg !1579
  %64 = load i32, i32* %63, align 4, !dbg !1580, !tbaa !490
  %65 = getelementptr inbounds %"struct.Halide::Runtime::Internal::Synchronization::queue_data", %"struct.Halide::Runtime::Internal::Synchronization::queue_data"* %60, i32 0, i32 2, !dbg !1581
  %66 = load %"struct.Halide::Runtime::Internal::Synchronization::queue_data"*, %"struct.Halide::Runtime::Internal::Synchronization::queue_data"** %65, align 4, !dbg !1581, !tbaa !1173
  call void @llvm.dbg.value(metadata %"struct.Halide::Runtime::Internal::Synchronization::queue_data"* %66, metadata !1555, metadata !DIExpression()), !dbg !1582
  call void @llvm.dbg.value(metadata i32 %64, metadata !1553, metadata !DIExpression()), !dbg !1582
  %67 = icmp eq i32 %64, %0, !dbg !1583
  br i1 %67, label %68, label %80, !dbg !1585

68:                                               ; preds = %57
  store %"struct.Halide::Runtime::Internal::Synchronization::queue_data"* %66, %"struct.Halide::Runtime::Internal::Synchronization::queue_data"** %62, align 4, !dbg !1586, !tbaa !452
  %69 = load %"struct.Halide::Runtime::Internal::Synchronization::hash_bucket"*, %"struct.Halide::Runtime::Internal::Synchronization::hash_bucket"** %16, align 4, !dbg !1588, !tbaa !998
  %70 = getelementptr inbounds %"struct.Halide::Runtime::Internal::Synchronization::hash_bucket", %"struct.Halide::Runtime::Internal::Synchronization::hash_bucket"* %69, i32 0, i32 2, !dbg !1590
  %71 = load %"struct.Halide::Runtime::Internal::Synchronization::queue_data"*, %"struct.Halide::Runtime::Internal::Synchronization::queue_data"** %70, align 4, !dbg !1590, !tbaa !1234
  %72 = icmp eq %"struct.Halide::Runtime::Internal::Synchronization::queue_data"* %71, %60, !dbg !1591
  br i1 %72, label %73, label %74, !dbg !1592

73:                                               ; preds = %68
  store %"struct.Halide::Runtime::Internal::Synchronization::queue_data"* %61, %"struct.Halide::Runtime::Internal::Synchronization::queue_data"** %70, align 4, !dbg !1593, !tbaa !1234
  br label %74, !dbg !1595

74:                                               ; preds = %68, %73
  %75 = icmp eq %"struct.Halide::Runtime::Internal::Synchronization::queue_data"* %59, null, !dbg !1598
  br i1 %75, label %78, label %76, !dbg !1601

76:                                               ; preds = %74
  %77 = getelementptr inbounds %"struct.Halide::Runtime::Internal::Synchronization::queue_data", %"struct.Halide::Runtime::Internal::Synchronization::queue_data"* %58, i32 0, i32 2, !dbg !1602
  store %"struct.Halide::Runtime::Internal::Synchronization::queue_data"* %60, %"struct.Halide::Runtime::Internal::Synchronization::queue_data"** %77, align 4, !dbg !1604, !tbaa !1173
  br label %78

78:                                               ; preds = %74, %76
  %79 = phi %"struct.Halide::Runtime::Internal::Synchronization::queue_data"* [ %59, %76 ], [ %60, %74 ], !dbg !1556
  call void @llvm.dbg.value(metadata %"struct.Halide::Runtime::Internal::Synchronization::queue_data"* %79, metadata !1550, metadata !DIExpression()), !dbg !1556
  call void @llvm.dbg.value(metadata %"struct.Halide::Runtime::Internal::Synchronization::queue_data"* %60, metadata !1551, metadata !DIExpression()), !dbg !1556
  call void @llvm.dbg.value(metadata i32* %63, metadata !1605, metadata !DIExpression()), !dbg !1611
  call void @llvm.dbg.value(metadata i32* undef, metadata !1610, metadata !DIExpression()), !dbg !1611
  store i32 %1, i32* %63, align 4, !dbg !1613, !tbaa !490
  br label %80

80:                                               ; preds = %57, %78
  %81 = phi %"struct.Halide::Runtime::Internal::Synchronization::queue_data"** [ %62, %78 ], [ %65, %57 ], !dbg !1556
  %82 = phi %"struct.Halide::Runtime::Internal::Synchronization::queue_data"* [ %61, %78 ], [ %60, %57 ], !dbg !1556
  %83 = phi %"struct.Halide::Runtime::Internal::Synchronization::queue_data"* [ %79, %78 ], [ %59, %57 ], !dbg !1614
  %84 = phi %"struct.Halide::Runtime::Internal::Synchronization::queue_data"* [ %60, %78 ], [ %58, %57 ], !dbg !1615
  call void @llvm.dbg.value(metadata %"struct.Halide::Runtime::Internal::Synchronization::queue_data"* null, metadata !1552, metadata !DIExpression()), !dbg !1556
  call void @llvm.dbg.value(metadata %"struct.Halide::Runtime::Internal::Synchronization::queue_data"* %84, metadata !1551, metadata !DIExpression()), !dbg !1556
  call void @llvm.dbg.value(metadata %"struct.Halide::Runtime::Internal::Synchronization::queue_data"* %83, metadata !1550, metadata !DIExpression()), !dbg !1556
  call void @llvm.dbg.value(metadata %"struct.Halide::Runtime::Internal::Synchronization::queue_data"* %66, metadata !1549, metadata !DIExpression()), !dbg !1556
  call void @llvm.dbg.value(metadata %"struct.Halide::Runtime::Internal::Synchronization::queue_data"* %82, metadata !1548, metadata !DIExpression()), !dbg !1556
  call void @llvm.dbg.value(metadata %"struct.Halide::Runtime::Internal::Synchronization::queue_data"** %81, metadata !1547, metadata !DIExpression()), !dbg !1556
  %85 = icmp eq %"struct.Halide::Runtime::Internal::Synchronization::queue_data"* %66, null, !dbg !1577
  br i1 %85, label %86, label %57, !dbg !1578, !llvm.loop !1616

86:                                               ; preds = %50, %80
  %87 = phi %"struct.Halide::Runtime::Internal::Synchronization::queue_data"* [ %83, %80 ], [ %53, %50 ], !dbg !1614
  %88 = phi %"struct.Halide::Runtime::Internal::Synchronization::queue_data"* [ %84, %80 ], [ %54, %50 ], !dbg !1615
  %89 = phi %"struct.Halide::Runtime::Internal::Synchronization::queue_data"* [ null, %80 ], [ %55, %50 ], !dbg !1556
  %90 = icmp eq %"struct.Halide::Runtime::Internal::Synchronization::queue_data"* %87, null, !dbg !1618
  br i1 %90, label %105, label %91, !dbg !1620

91:                                               ; preds = %86
  %92 = getelementptr inbounds %"struct.Halide::Runtime::Internal::Synchronization::queue_data", %"struct.Halide::Runtime::Internal::Synchronization::queue_data"* %88, i32 0, i32 2, !dbg !1621
  store %"struct.Halide::Runtime::Internal::Synchronization::queue_data"* null, %"struct.Halide::Runtime::Internal::Synchronization::queue_data"** %92, align 4, !dbg !1623, !tbaa !1173
  %93 = getelementptr inbounds %"struct.Halide::Runtime::Internal::Synchronization::bucket_pair", %"struct.Halide::Runtime::Internal::Synchronization::bucket_pair"* %5, i32 0, i32 1, !dbg !1624
  %94 = load %"struct.Halide::Runtime::Internal::Synchronization::hash_bucket"*, %"struct.Halide::Runtime::Internal::Synchronization::hash_bucket"** %93, align 4, !dbg !1624, !tbaa !1001
  %95 = getelementptr inbounds %"struct.Halide::Runtime::Internal::Synchronization::hash_bucket", %"struct.Halide::Runtime::Internal::Synchronization::hash_bucket"* %94, i32 0, i32 1, !dbg !1626
  %96 = load %"struct.Halide::Runtime::Internal::Synchronization::queue_data"*, %"struct.Halide::Runtime::Internal::Synchronization::queue_data"** %95, align 4, !dbg !1626, !tbaa !1226
  %97 = icmp eq %"struct.Halide::Runtime::Internal::Synchronization::queue_data"* %96, null, !dbg !1627
  br i1 %97, label %102, label %98, !dbg !1628

98:                                               ; preds = %91
  %99 = getelementptr inbounds %"struct.Halide::Runtime::Internal::Synchronization::hash_bucket", %"struct.Halide::Runtime::Internal::Synchronization::hash_bucket"* %94, i32 0, i32 2, !dbg !1629
  %100 = load %"struct.Halide::Runtime::Internal::Synchronization::queue_data"*, %"struct.Halide::Runtime::Internal::Synchronization::queue_data"** %99, align 4, !dbg !1629, !tbaa !1234
  %101 = getelementptr inbounds %"struct.Halide::Runtime::Internal::Synchronization::queue_data", %"struct.Halide::Runtime::Internal::Synchronization::queue_data"* %100, i32 0, i32 2, !dbg !1631
  br label %102

102:                                              ; preds = %91, %98
  %103 = phi %"struct.Halide::Runtime::Internal::Synchronization::queue_data"** [ %101, %98 ], [ %95, %91 ]
  store %"struct.Halide::Runtime::Internal::Synchronization::queue_data"* %87, %"struct.Halide::Runtime::Internal::Synchronization::queue_data"** %103, align 4, !dbg !1632, !tbaa !452
  %104 = getelementptr inbounds %"struct.Halide::Runtime::Internal::Synchronization::hash_bucket", %"struct.Halide::Runtime::Internal::Synchronization::hash_bucket"* %94, i32 0, i32 2, !dbg !1633
  store %"struct.Halide::Runtime::Internal::Synchronization::queue_data"* %88, %"struct.Halide::Runtime::Internal::Synchronization::queue_data"** %104, align 4, !dbg !1634, !tbaa !1234
  br label %105, !dbg !1635

105:                                              ; preds = %15, %102, %86
  %106 = phi i1 [ true, %102 ], [ false, %86 ], [ false, %15 ]
  %107 = phi %"struct.Halide::Runtime::Internal::Synchronization::queue_data"* [ %89, %102 ], [ %89, %86 ], [ null, %15 ]
  %108 = getelementptr inbounds %"struct.Halide::Runtime::Internal::Synchronization::parking_control", %"struct.Halide::Runtime::Internal::Synchronization::parking_control"* %2, i32 0, i32 3, !dbg !1636
  %109 = load void (i8*, %"struct.Halide::Runtime::Internal::Synchronization::validate_action"*, i1, i1)*, void (i8*, %"struct.Halide::Runtime::Internal::Synchronization::validate_action"*, i1, i1)** %108, align 4, !dbg !1636, !tbaa !1637
  %110 = icmp ne %"struct.Halide::Runtime::Internal::Synchronization::queue_data"* %107, null, !dbg !1638
  call void %109(i8* nonnull %12, %"struct.Halide::Runtime::Internal::Synchronization::validate_action"* nonnull align 4 dereferenceable(8) %6, i1 zeroext %110, i1 zeroext %106) #6, !dbg !1639
  br i1 %110, label %111, label %119, !dbg !1640

111:                                              ; preds = %105
  %112 = getelementptr inbounds %"struct.Halide::Runtime::Internal::Synchronization::queue_data", %"struct.Halide::Runtime::Internal::Synchronization::queue_data"* %107, i32 0, i32 3, !dbg !1641
  store i32 %3, i32* %112, align 8, !dbg !1644, !tbaa !1175
  call void @llvm.dbg.value(metadata %"struct.Halide::Runtime::Internal::Synchronization::queue_data"* %89, metadata !764, metadata !DIExpression()) #7, !dbg !1645
  %113 = getelementptr inbounds %"struct.Halide::Runtime::Internal::Synchronization::queue_data", %"struct.Halide::Runtime::Internal::Synchronization::queue_data"* %107, i32 0, i32 0, i32 0, !dbg !1647
  %114 = call i32 @pthread_mutex_lock(%struct.pthread_mutex_t* nonnull %113) #6, !dbg !1648
  call void @_ZN6Halide7Runtime8Internal15Synchronization18unlock_bucket_pairERNS2_11bucket_pairE(%"struct.Halide::Runtime::Internal::Synchronization::bucket_pair"* nonnull align 4 dereferenceable(8) %5) #8, !dbg !1649
  call void @llvm.dbg.value(metadata %"struct.Halide::Runtime::Internal::Synchronization::queue_data"* %89, metadata !771, metadata !DIExpression()) #7, !dbg !1650
  %115 = getelementptr inbounds %"struct.Halide::Runtime::Internal::Synchronization::queue_data", %"struct.Halide::Runtime::Internal::Synchronization::queue_data"* %107, i32 0, i32 0, i32 2, !dbg !1652
  store i8 0, i8* %115, align 8, !dbg !1653, !tbaa !557
  %116 = getelementptr inbounds %"struct.Halide::Runtime::Internal::Synchronization::queue_data", %"struct.Halide::Runtime::Internal::Synchronization::queue_data"* %107, i32 0, i32 0, i32 1, !dbg !1654
  %117 = call i32 @pthread_cond_signal(%struct.pthread_cond_t* nonnull %116) #6, !dbg !1655
  call void @llvm.dbg.value(metadata %"struct.Halide::Runtime::Internal::Synchronization::queue_data"* %89, metadata !780, metadata !DIExpression()) #7, !dbg !1656
  %118 = call i32 @pthread_mutex_unlock(%struct.pthread_mutex_t* nonnull %113) #6, !dbg !1658
  br label %120, !dbg !1659

119:                                              ; preds = %105
  call void @_ZN6Halide7Runtime8Internal15Synchronization18unlock_bucket_pairERNS2_11bucket_pairE(%"struct.Halide::Runtime::Internal::Synchronization::bucket_pair"* nonnull align 4 dereferenceable(8) %5) #8, !dbg !1660
  br label %120

120:                                              ; preds = %119, %111
  %121 = load i8, i8* %8, align 4, !dbg !1662
  %122 = and i8 %121, 1, !dbg !1662
  %123 = icmp ne i8 %122, 0, !dbg !1662
  %124 = and i1 %110, %123, !dbg !1662
  %125 = zext i1 %124 to i32, !dbg !1663
  br label %126

126:                                              ; preds = %120, %14
  %127 = phi i32 [ %125, %120 ], [ 0, %14 ], !dbg !1556
  call void @llvm.lifetime.end.p0i8(i64 8, i8* nonnull %8) #7, !dbg !1664
  call void @llvm.lifetime.end.p0i8(i64 8, i8* nonnull %7) #7, !dbg !1664
  ret i32 %127, !dbg !1664
}

; Function Attrs: nounwind willreturn mustprogress
define weak dso_local zeroext i1 @_ZN6Halide7Runtime8Internal15Synchronization30mutex_parking_control_validateEPvRNS2_15validate_actionE(i8* %0, %"struct.Halide::Runtime::Internal::Synchronization::validate_action"* nonnull align 4 dereferenceable(8) %1) #5 !dbg !1665 {
  call void @llvm.dbg.value(metadata i8* %0, metadata !1667, metadata !DIExpression()), !dbg !1671
  call void @llvm.dbg.value(metadata %"struct.Halide::Runtime::Internal::Synchronization::validate_action"* %1, metadata !1668, metadata !DIExpression()), !dbg !1671
  call void @llvm.dbg.value(metadata i8* %0, metadata !1669, metadata !DIExpression()), !dbg !1671
  %3 = getelementptr inbounds i8, i8* %0, i32 16, !dbg !1672
  %4 = bitcast i8* %3 to i32**, !dbg !1672
  %5 = load i32*, i32** %4, align 4, !dbg !1672, !tbaa !1673
  %6 = load i32, i32* %5, align 4, !dbg !1675, !tbaa !490
  call void @llvm.dbg.value(metadata i32 %6, metadata !1670, metadata !DIExpression()), !dbg !1671
  %7 = icmp eq i32 %6, 3, !dbg !1676
  ret i1 %7, !dbg !1677
}

; Function Attrs: nounwind willreturn mustprogress
define weak dso_local i32 @_ZN6Halide7Runtime8Internal15Synchronization28mutex_parking_control_unparkEPvib(i8* %0, i32 %1, i1 zeroext %2) #5 !dbg !1678 {
  call void @llvm.dbg.value(metadata i8* %0, metadata !1680, metadata !DIExpression()), !dbg !1685
  call void @llvm.dbg.value(metadata i32 %1, metadata !1681, metadata !DIExpression()), !dbg !1685
  call void @llvm.dbg.value(metadata i1 %2, metadata !1682, metadata !DIExpression(DW_OP_LLVM_convert, 1, DW_ATE_unsigned, DW_OP_LLVM_convert, 8, DW_ATE_unsigned, DW_OP_stack_value)), !dbg !1685
  call void @llvm.dbg.value(metadata i8* %0, metadata !1683, metadata !DIExpression()), !dbg !1685
  %4 = select i1 %2, i32 2, i32 0, !dbg !1686
  call void @llvm.dbg.value(metadata i32 %4, metadata !1684, metadata !DIExpression()), !dbg !1685
  %5 = getelementptr inbounds i8, i8* %0, i32 16, !dbg !1687
  %6 = bitcast i8* %5 to i32**, !dbg !1687
  %7 = load i32*, i32** %6, align 4, !dbg !1687, !tbaa !1673
  call void @llvm.dbg.value(metadata i32* %7, metadata !1688, metadata !DIExpression()), !dbg !1692
  call void @llvm.dbg.value(metadata i32* undef, metadata !1691, metadata !DIExpression()), !dbg !1692
  store i32 %4, i32* %7, align 4, !dbg !1694, !tbaa !490
  fence seq_cst, !dbg !1695
  ret i32 0, !dbg !1696
}

; Function Attrs: nounwind willreturn mustprogress
define weak dso_local i32 @_ZN6Halide7Runtime8Internal15Synchronization29signal_parking_control_unparkEPvib(i8* %0, i32 %1, i1 zeroext %2) #5 !dbg !1697 {
  call void @llvm.dbg.value(metadata i8* %0, metadata !1699, metadata !DIExpression()), !dbg !1706
  call void @llvm.dbg.value(metadata i32 %1, metadata !1700, metadata !DIExpression()), !dbg !1706
  call void @llvm.dbg.value(metadata i1 %2, metadata !1701, metadata !DIExpression(DW_OP_LLVM_convert, 1, DW_ATE_unsigned, DW_OP_LLVM_convert, 8, DW_ATE_unsigned, DW_OP_stack_value)), !dbg !1706
  call void @llvm.dbg.value(metadata i8* %0, metadata !1702, metadata !DIExpression()), !dbg !1706
  br i1 %2, label %8, label %4, !dbg !1707

4:                                                ; preds = %3
  call void @llvm.dbg.value(metadata i8* %0, metadata !1702, metadata !DIExpression()), !dbg !1706
  call void @llvm.dbg.value(metadata i32 0, metadata !1703, metadata !DIExpression()), !dbg !1708
  %5 = getelementptr inbounds i8, i8* %0, i32 16, !dbg !1709
  %6 = bitcast i8* %5 to i32**, !dbg !1709
  %7 = load i32*, i32** %6, align 4, !dbg !1709, !tbaa !1710
  call void @llvm.dbg.value(metadata i32* %7, metadata !1605, metadata !DIExpression()), !dbg !1712
  call void @llvm.dbg.value(metadata i32* undef, metadata !1610, metadata !DIExpression()), !dbg !1712
  store i32 0, i32* %7, align 4, !dbg !1714, !tbaa !490
  br label %8, !dbg !1715

8:                                                ; preds = %4, %3
  ret i32 0, !dbg !1716
}

; Function Attrs: nounwind
define weak dso_local zeroext i1 @_ZN6Halide7Runtime8Internal15Synchronization34broadcast_parking_control_validateEPvRNS2_15validate_actionE(i8* %0, %"struct.Halide::Runtime::Internal::Synchronization::validate_action"* nonnull align 4 dereferenceable(8) %1) #4 !dbg !1717 {
  call void @llvm.dbg.value(metadata i8* %0, metadata !1719, metadata !DIExpression()), !dbg !1723
  call void @llvm.dbg.value(metadata %"struct.Halide::Runtime::Internal::Synchronization::validate_action"* %1, metadata !1720, metadata !DIExpression()), !dbg !1723
  call void @llvm.dbg.value(metadata i8* %0, metadata !1721, metadata !DIExpression()), !dbg !1723
  %3 = getelementptr inbounds i8, i8* %0, i32 16, !dbg !1724
  %4 = bitcast i8* %3 to i32**, !dbg !1724
  %5 = load i32*, i32** %4, align 4, !dbg !1724, !tbaa !1725
  %6 = load i32, i32* %5, align 4, !dbg !1727, !tbaa !490
  call void @llvm.dbg.value(metadata i32 %6, metadata !1722, metadata !DIExpression()), !dbg !1723
  %7 = getelementptr inbounds i8, i8* %0, i32 20, !dbg !1728
  %8 = bitcast i8* %7 to %"class.Halide::Runtime::Internal::Synchronization::fast_mutex"**, !dbg !1728
  %9 = load %"class.Halide::Runtime::Internal::Synchronization::fast_mutex"*, %"class.Halide::Runtime::Internal::Synchronization::fast_mutex"** %8, align 4, !dbg !1728, !tbaa !1730
  %10 = ptrtoint %"class.Halide::Runtime::Internal::Synchronization::fast_mutex"* %9 to i32, !dbg !1731
  %11 = icmp eq i32 %6, %10, !dbg !1732
  br i1 %11, label %12, label %27, !dbg !1733

12:                                               ; preds = %2
  call void @llvm.dbg.value(metadata i32 0, metadata !1722, metadata !DIExpression()), !dbg !1723
  call void @llvm.dbg.value(metadata i32* %5, metadata !1605, metadata !DIExpression()), !dbg !1734
  call void @llvm.dbg.value(metadata i32* undef, metadata !1610, metadata !DIExpression()), !dbg !1734
  store i32 0, i32* %5, align 4, !dbg !1736, !tbaa !490
  call void @llvm.dbg.value(metadata %"class.Halide::Runtime::Internal::Synchronization::fast_mutex"* %9, metadata !1737, metadata !DIExpression()), !dbg !1743
  %13 = getelementptr inbounds %"class.Halide::Runtime::Internal::Synchronization::fast_mutex", %"class.Halide::Runtime::Internal::Synchronization::fast_mutex"* %9, i32 0, i32 0, !dbg !1745
  %14 = load i32, i32* %13, align 4, !dbg !1746, !tbaa !490
  br label %15, !dbg !1747

15:                                               ; preds = %19, %12
  %16 = phi i32 [ %14, %12 ], [ %22, %19 ], !dbg !1743
  call void @llvm.dbg.value(metadata i32 %16, metadata !1740, metadata !DIExpression()), !dbg !1743
  %17 = and i32 %16, 1, !dbg !1748
  %18 = icmp eq i32 %17, 0, !dbg !1750
  br i1 %18, label %24, label %19, !dbg !1751

19:                                               ; preds = %15
  call void @llvm.dbg.value(metadata i32 %16, metadata !1740, metadata !DIExpression()), !dbg !1743
  %20 = or i32 %16, 2, !dbg !1752
  call void @llvm.dbg.value(metadata i32 %20, metadata !1741, metadata !DIExpression()), !dbg !1753
  call void @llvm.dbg.value(metadata i32* %13, metadata !1754, metadata !DIExpression()), !dbg !1759
  call void @llvm.dbg.value(metadata i32* undef, metadata !1757, metadata !DIExpression()), !dbg !1759
  call void @llvm.dbg.value(metadata i32* undef, metadata !1758, metadata !DIExpression()), !dbg !1759
  call void @llvm.dbg.value(metadata i32* %13, metadata !509, metadata !DIExpression()), !dbg !1762
  call void @llvm.dbg.value(metadata i32* undef, metadata !515, metadata !DIExpression()), !dbg !1762
  call void @llvm.dbg.value(metadata i32* undef, metadata !516, metadata !DIExpression()), !dbg !1762
  call void @llvm.dbg.value(metadata i32 %16, metadata !517, metadata !DIExpression()), !dbg !1762
  %21 = cmpxchg i32* %13, i32 %16, i32 %20 seq_cst seq_cst, !dbg !1764
  %22 = extractvalue { i32, i1 } %21, 0, !dbg !1764
  call void @llvm.dbg.value(metadata i32 %22, metadata !518, metadata !DIExpression()), !dbg !1762
  %23 = icmp eq i32 %16, %22, !dbg !1765
  br i1 %23, label %24, label %15, !llvm.loop !1766

24:                                               ; preds = %15, %19
  %25 = phi i8 [ 1, %15 ], [ 0, %19 ]
  %26 = getelementptr inbounds %"struct.Halide::Runtime::Internal::Synchronization::validate_action", %"struct.Halide::Runtime::Internal::Synchronization::validate_action"* %1, i32 0, i32 0, !dbg !1768
  store i8 %25, i8* %26, align 4, !dbg !1769, !tbaa !1186
  br label %27, !dbg !1770

27:                                               ; preds = %2, %24
  ret i1 %11, !dbg !1771
}

; Function Attrs: nounwind willreturn mustprogress
define weak dso_local void @_ZN6Halide7Runtime8Internal15Synchronization42broadcast_parking_control_requeue_callbackEPvRKNS2_15validate_actionEbb(i8* %0, %"struct.Halide::Runtime::Internal::Synchronization::validate_action"* nonnull align 4 dereferenceable(8) %1, i1 zeroext %2, i1 zeroext %3) #5 !dbg !1772 {
  call void @llvm.dbg.value(metadata i8* %0, metadata !1774, metadata !DIExpression()), !dbg !1779
  call void @llvm.dbg.value(metadata %"struct.Halide::Runtime::Internal::Synchronization::validate_action"* %1, metadata !1775, metadata !DIExpression()), !dbg !1779
  call void @llvm.dbg.value(metadata i1 %2, metadata !1776, metadata !DIExpression(DW_OP_LLVM_convert, 1, DW_ATE_unsigned, DW_OP_LLVM_convert, 8, DW_ATE_unsigned, DW_OP_stack_value)), !dbg !1779
  call void @llvm.dbg.value(metadata i1 %3, metadata !1777, metadata !DIExpression(DW_OP_LLVM_convert, 1, DW_ATE_unsigned, DW_OP_LLVM_convert, 8, DW_ATE_unsigned, DW_OP_stack_value)), !dbg !1779
  call void @llvm.dbg.value(metadata i8* %0, metadata !1778, metadata !DIExpression()), !dbg !1779
  %5 = getelementptr inbounds %"struct.Halide::Runtime::Internal::Synchronization::validate_action", %"struct.Halide::Runtime::Internal::Synchronization::validate_action"* %1, i32 0, i32 0, !dbg !1780
  %6 = load i8, i8* %5, align 4, !dbg !1780, !tbaa !1186, !range !612
  %7 = icmp ne i8 %6, 0, !dbg !1780
  %8 = and i1 %7, %3, !dbg !1782
  br i1 %8, label %9, label %15, !dbg !1782

9:                                                ; preds = %4
  %10 = getelementptr inbounds i8, i8* %0, i32 20, !dbg !1783
  %11 = bitcast i8* %10 to %"class.Halide::Runtime::Internal::Synchronization::fast_mutex"**, !dbg !1783
  %12 = load %"class.Halide::Runtime::Internal::Synchronization::fast_mutex"*, %"class.Halide::Runtime::Internal::Synchronization::fast_mutex"** %11, align 4, !dbg !1783, !tbaa !1730
  call void @llvm.dbg.value(metadata %"class.Halide::Runtime::Internal::Synchronization::fast_mutex"* %12, metadata !1785, metadata !DIExpression()), !dbg !1788
  %13 = getelementptr inbounds %"class.Halide::Runtime::Internal::Synchronization::fast_mutex", %"class.Halide::Runtime::Internal::Synchronization::fast_mutex"* %12, i32 0, i32 0, !dbg !1790
  call void @llvm.dbg.value(metadata i32* %13, metadata !1791, metadata !DIExpression()), !dbg !1795
  call void @llvm.dbg.value(metadata i32 2, metadata !1794, metadata !DIExpression()), !dbg !1795
  %14 = atomicrmw or i32* %13, i32 2 seq_cst, !dbg !1797
  br label %15, !dbg !1798

15:                                               ; preds = %4, %9
  ret void, !dbg !1799
}

; Function Attrs: nounwind willreturn mustprogress
define weak dso_local zeroext i1 @_ZN6Halide7Runtime8Internal15Synchronization29wait_parking_control_validateEPvRNS2_15validate_actionE(i8* %0, %"struct.Halide::Runtime::Internal::Synchronization::validate_action"* nonnull align 4 dereferenceable(8) %1) #5 !dbg !1800 {
  call void @llvm.dbg.value(metadata i8* %0, metadata !1802, metadata !DIExpression()), !dbg !1806
  call void @llvm.dbg.value(metadata %"struct.Halide::Runtime::Internal::Synchronization::validate_action"* %1, metadata !1803, metadata !DIExpression()), !dbg !1806
  call void @llvm.dbg.value(metadata i8* %0, metadata !1804, metadata !DIExpression()), !dbg !1806
  %3 = getelementptr inbounds i8, i8* %0, i32 16, !dbg !1807
  %4 = bitcast i8* %3 to i32**, !dbg !1807
  %5 = load i32*, i32** %4, align 4, !dbg !1807, !tbaa !1808
  %6 = load i32, i32* %5, align 4, !dbg !1810, !tbaa !490
  call void @llvm.dbg.value(metadata i32 %6, metadata !1805, metadata !DIExpression()), !dbg !1806
  %7 = icmp eq i32 %6, 0, !dbg !1811
  %8 = getelementptr inbounds i8, i8* %0, i32 20, !dbg !1813
  %9 = bitcast i8* %8 to %"class.Halide::Runtime::Internal::Synchronization::fast_mutex"**, !dbg !1813
  %10 = load %"class.Halide::Runtime::Internal::Synchronization::fast_mutex"*, %"class.Halide::Runtime::Internal::Synchronization::fast_mutex"** %9, align 4, !dbg !1813, !tbaa !1814
  %11 = ptrtoint %"class.Halide::Runtime::Internal::Synchronization::fast_mutex"* %10 to i32, !dbg !1813
  br i1 %7, label %16, label %12, !dbg !1815

12:                                               ; preds = %2
  %13 = icmp eq i32 %6, %11, !dbg !1816
  br i1 %13, label %18, label %14, !dbg !1818

14:                                               ; preds = %12
  %15 = getelementptr inbounds %"struct.Halide::Runtime::Internal::Synchronization::validate_action", %"struct.Halide::Runtime::Internal::Synchronization::validate_action"* %1, i32 0, i32 1, !dbg !1819
  br label %16, !dbg !1821

16:                                               ; preds = %2, %14
  %17 = phi i32* [ %15, %14 ], [ %5, %2 ]
  store i32 %11, i32* %17, align 4, !dbg !1813, !tbaa !490
  br label %18, !dbg !1822

18:                                               ; preds = %16, %12
  %19 = phi i1 [ true, %12 ], [ %7, %16 ], !dbg !1806
  ret i1 %19, !dbg !1822
}

; Function Attrs: nounwind
define weak dso_local void @_ZN6Halide7Runtime8Internal15Synchronization33wait_parking_control_before_sleepEPv(i8* %0) #4 !dbg !1823 {
  %2 = alloca %"struct.Halide::Runtime::Internal::Synchronization::mutex_parking_control", align 4
  call void @llvm.dbg.value(metadata i8* %0, metadata !1825, metadata !DIExpression()), !dbg !1827
  call void @llvm.dbg.value(metadata i8* %0, metadata !1826, metadata !DIExpression()), !dbg !1827
  %3 = getelementptr inbounds i8, i8* %0, i32 20, !dbg !1828
  %4 = bitcast i8* %3 to %"class.Halide::Runtime::Internal::Synchronization::fast_mutex"**, !dbg !1828
  %5 = load %"class.Halide::Runtime::Internal::Synchronization::fast_mutex"*, %"class.Halide::Runtime::Internal::Synchronization::fast_mutex"** %4, align 4, !dbg !1828, !tbaa !1814
  call void @llvm.dbg.value(metadata %"class.Halide::Runtime::Internal::Synchronization::fast_mutex"* %5, metadata !1829, metadata !DIExpression()) #7, !dbg !1834
  call void @llvm.dbg.value(metadata i32 1, metadata !1832, metadata !DIExpression()) #7, !dbg !1834
  call void @llvm.dbg.value(metadata i32 0, metadata !1833, metadata !DIExpression()) #7, !dbg !1834
  %6 = getelementptr inbounds %"class.Halide::Runtime::Internal::Synchronization::fast_mutex", %"class.Halide::Runtime::Internal::Synchronization::fast_mutex"* %5, i32 0, i32 0, !dbg !1836
  call void @llvm.dbg.value(metadata i32* %6, metadata !591, metadata !DIExpression()) #7, !dbg !1838
  call void @llvm.dbg.value(metadata i32* undef, metadata !594, metadata !DIExpression()) #7, !dbg !1838
  call void @llvm.dbg.value(metadata i32* undef, metadata !595, metadata !DIExpression()) #7, !dbg !1838
  call void @llvm.dbg.value(metadata i32* %6, metadata !509, metadata !DIExpression()) #7, !dbg !1840
  call void @llvm.dbg.value(metadata i32* undef, metadata !515, metadata !DIExpression()) #7, !dbg !1840
  call void @llvm.dbg.value(metadata i32* undef, metadata !516, metadata !DIExpression()) #7, !dbg !1840
  call void @llvm.dbg.value(metadata i32 1, metadata !517, metadata !DIExpression()) #7, !dbg !1840
  %7 = cmpxchg i32* %6, i32 1, i32 0 seq_cst seq_cst, !dbg !1842
  call void @llvm.dbg.value(metadata i32 undef, metadata !518, metadata !DIExpression()) #7, !dbg !1840
  %8 = extractvalue { i32, i1 } %7, 1, !dbg !1843
  br i1 %8, label %22, label %9, !dbg !1844

9:                                                ; preds = %1
  call void @llvm.dbg.value(metadata %"class.Halide::Runtime::Internal::Synchronization::fast_mutex"* %5, metadata !1845, metadata !DIExpression()) #7, !dbg !1851
  call void @llvm.dbg.value(metadata i32 1, metadata !1848, metadata !DIExpression()) #7, !dbg !1851
  call void @llvm.dbg.value(metadata i32 0, metadata !1849, metadata !DIExpression()) #7, !dbg !1851
  call void @llvm.dbg.value(metadata i32* %6, metadata !1854, metadata !DIExpression()) #7, !dbg !1859
  call void @llvm.dbg.value(metadata i32* undef, metadata !1857, metadata !DIExpression()) #7, !dbg !1859
  call void @llvm.dbg.value(metadata i32* undef, metadata !1858, metadata !DIExpression()) #7, !dbg !1859
  call void @llvm.dbg.value(metadata i32* %6, metadata !509, metadata !DIExpression()) #7, !dbg !1862
  call void @llvm.dbg.value(metadata i32* undef, metadata !515, metadata !DIExpression()) #7, !dbg !1862
  call void @llvm.dbg.value(metadata i32* undef, metadata !516, metadata !DIExpression()) #7, !dbg !1862
  call void @llvm.dbg.value(metadata i32 1, metadata !517, metadata !DIExpression()) #7, !dbg !1862
  %10 = cmpxchg i32* %6, i32 1, i32 0 seq_cst seq_cst, !dbg !1864
  call void @llvm.dbg.value(metadata i32 undef, metadata !518, metadata !DIExpression()) #7, !dbg !1862
  %11 = extractvalue { i32, i1 } %10, 1, !dbg !1865
  br i1 %11, label %22, label %12, !dbg !1866

12:                                               ; preds = %9
  %13 = bitcast %"struct.Halide::Runtime::Internal::Synchronization::mutex_parking_control"* %2 to i8*, !dbg !1867
  call void @llvm.lifetime.start.p0i8(i64 20, i8* nonnull %13) #7, !dbg !1867
  call void @llvm.dbg.declare(metadata %"struct.Halide::Runtime::Internal::Synchronization::mutex_parking_control"* %2, metadata !1850, metadata !DIExpression()) #7, !dbg !1868
  call void @llvm.dbg.value(metadata %"struct.Halide::Runtime::Internal::Synchronization::mutex_parking_control"* %2, metadata !1869, metadata !DIExpression()) #7, !dbg !1873
  call void @llvm.dbg.value(metadata i32* %6, metadata !1872, metadata !DIExpression()) #7, !dbg !1873
  call void @llvm.dbg.value(metadata %"struct.Halide::Runtime::Internal::Synchronization::mutex_parking_control"* %2, metadata !1875, metadata !DIExpression()) #7, !dbg !1879
  %14 = getelementptr inbounds %"struct.Halide::Runtime::Internal::Synchronization::mutex_parking_control", %"struct.Halide::Runtime::Internal::Synchronization::mutex_parking_control"* %2, i32 0, i32 0, i32 0, !dbg !1881
  %15 = getelementptr inbounds %"struct.Halide::Runtime::Internal::Synchronization::mutex_parking_control", %"struct.Halide::Runtime::Internal::Synchronization::mutex_parking_control"* %2, i32 0, i32 0, i32 1, !dbg !1882
  store void (i8*)* @_ZN6Halide7Runtime8Internal15Synchronization28parking_control_before_sleepEPv, void (i8*)** %15, align 4, !dbg !1882, !tbaa !1255
  %16 = getelementptr inbounds %"struct.Halide::Runtime::Internal::Synchronization::mutex_parking_control", %"struct.Halide::Runtime::Internal::Synchronization::mutex_parking_control"* %2, i32 0, i32 0, i32 2, !dbg !1883
  %17 = getelementptr inbounds %"struct.Halide::Runtime::Internal::Synchronization::mutex_parking_control", %"struct.Halide::Runtime::Internal::Synchronization::mutex_parking_control"* %2, i32 0, i32 0, i32 3, !dbg !1884
  store void (i8*, %"struct.Halide::Runtime::Internal::Synchronization::validate_action"*, i1, i1)* @_ZN6Halide7Runtime8Internal15Synchronization32parking_control_requeue_callbackEPvRKNS2_15validate_actionEbb, void (i8*, %"struct.Halide::Runtime::Internal::Synchronization::validate_action"*, i1, i1)** %17, align 4, !dbg !1884, !tbaa !1637
  %18 = getelementptr inbounds %"struct.Halide::Runtime::Internal::Synchronization::mutex_parking_control", %"struct.Halide::Runtime::Internal::Synchronization::mutex_parking_control"* %2, i32 0, i32 1, !dbg !1885
  store i32* %6, i32** %18, align 4, !dbg !1885, !tbaa !1673
  store i1 (i8*, %"struct.Halide::Runtime::Internal::Synchronization::validate_action"*)* @_ZN6Halide7Runtime8Internal15Synchronization30mutex_parking_control_validateEPvRNS2_15validate_actionE, i1 (i8*, %"struct.Halide::Runtime::Internal::Synchronization::validate_action"*)** %14, align 4, !dbg !1886, !tbaa !1192
  store i32 (i8*, i32, i1)* @_ZN6Halide7Runtime8Internal15Synchronization28mutex_parking_control_unparkEPvib, i32 (i8*, i32, i1)** %16, align 4, !dbg !1888, !tbaa !1333
  %19 = ptrtoint %"class.Halide::Runtime::Internal::Synchronization::fast_mutex"* %5 to i32, !dbg !1889
  %20 = getelementptr inbounds %"struct.Halide::Runtime::Internal::Synchronization::mutex_parking_control", %"struct.Halide::Runtime::Internal::Synchronization::mutex_parking_control"* %2, i32 0, i32 0, !dbg !1890
  %21 = call i32 @_ZN6Halide7Runtime8Internal15Synchronization10unpark_oneEjRNS2_15parking_controlE(i32 %19, %"struct.Halide::Runtime::Internal::Synchronization::parking_control"* nonnull align 4 dereferenceable(16) %20) #6, !dbg !1891
  call void @llvm.lifetime.end.p0i8(i64 20, i8* nonnull %13) #7, !dbg !1892
  br label %22, !dbg !1892

22:                                               ; preds = %1, %9, %12
  ret void, !dbg !1893
}

; Function Attrs: nounwind willreturn mustprogress
define weak dso_local i32 @_ZN6Halide7Runtime8Internal15Synchronization27wait_parking_control_unparkEPvib(i8* %0, i32 %1, i1 zeroext %2) #5 !dbg !1894 {
  call void @llvm.dbg.value(metadata i8* %0, metadata !1896, metadata !DIExpression()), !dbg !1903
  call void @llvm.dbg.value(metadata i32 %1, metadata !1897, metadata !DIExpression()), !dbg !1903
  call void @llvm.dbg.value(metadata i1 %2, metadata !1898, metadata !DIExpression(DW_OP_LLVM_convert, 1, DW_ATE_unsigned, DW_OP_LLVM_convert, 8, DW_ATE_unsigned, DW_OP_stack_value)), !dbg !1903
  call void @llvm.dbg.value(metadata i8* %0, metadata !1899, metadata !DIExpression()), !dbg !1903
  br i1 %2, label %8, label %4, !dbg !1904

4:                                                ; preds = %3
  call void @llvm.dbg.value(metadata i8* %0, metadata !1899, metadata !DIExpression()), !dbg !1903
  call void @llvm.dbg.value(metadata i32 0, metadata !1900, metadata !DIExpression()), !dbg !1905
  %5 = getelementptr inbounds i8, i8* %0, i32 16, !dbg !1906
  %6 = bitcast i8* %5 to i32**, !dbg !1906
  %7 = load i32*, i32** %6, align 4, !dbg !1906, !tbaa !1808
  call void @llvm.dbg.value(metadata i32* %7, metadata !1605, metadata !DIExpression()), !dbg !1907
  call void @llvm.dbg.value(metadata i32* undef, metadata !1610, metadata !DIExpression()), !dbg !1907
  store i32 0, i32* %7, align 4, !dbg !1909, !tbaa !490
  br label %8, !dbg !1910

8:                                                ; preds = %4, %3
  ret i32 0, !dbg !1911
}

; Function Attrs: nounwind
define weak dso_local void @halide_mutex_lock(%struct.halide_mutex* %0) local_unnamed_addr #4 !dbg !1912 {
  %2 = alloca %"struct.Halide::Runtime::Internal::Synchronization::mutex_parking_control", align 4
  call void @llvm.dbg.value(metadata %struct.halide_mutex* %0, metadata !1916, metadata !DIExpression()), !dbg !1918
  call void @llvm.dbg.value(metadata %struct.halide_mutex* %0, metadata !1917, metadata !DIExpression()), !dbg !1918
  call void @llvm.dbg.value(metadata %struct.halide_mutex* %0, metadata !1919, metadata !DIExpression()) #7, !dbg !1924
  call void @llvm.dbg.value(metadata i32 0, metadata !1922, metadata !DIExpression()) #7, !dbg !1924
  call void @llvm.dbg.value(metadata i32 1, metadata !1923, metadata !DIExpression()) #7, !dbg !1924
  %3 = getelementptr %struct.halide_mutex, %struct.halide_mutex* %0, i32 0, i32 0, i32 0, !dbg !1926
  call void @llvm.dbg.value(metadata i32* %3, metadata !498, metadata !DIExpression()) #7, !dbg !1928
  call void @llvm.dbg.value(metadata i32* undef, metadata !504, metadata !DIExpression()) #7, !dbg !1928
  call void @llvm.dbg.value(metadata i32* undef, metadata !505, metadata !DIExpression()) #7, !dbg !1928
  call void @llvm.dbg.value(metadata i32* %3, metadata !509, metadata !DIExpression()) #7, !dbg !1930
  call void @llvm.dbg.value(metadata i32* undef, metadata !515, metadata !DIExpression()) #7, !dbg !1930
  call void @llvm.dbg.value(metadata i32* undef, metadata !516, metadata !DIExpression()) #7, !dbg !1930
  call void @llvm.dbg.value(metadata i32 0, metadata !517, metadata !DIExpression()) #7, !dbg !1930
  %4 = cmpxchg i32* %3, i32 0, i32 1 seq_cst seq_cst, !dbg !1932
  call void @llvm.dbg.value(metadata i32 undef, metadata !518, metadata !DIExpression()) #7, !dbg !1930
  %5 = extractvalue { i32, i1 } %4, 1, !dbg !1933
  br i1 %5, label %53, label %6, !dbg !1934

6:                                                ; preds = %1
  call void @llvm.dbg.value(metadata %struct.halide_mutex* %0, metadata !1919, metadata !DIExpression()) #7, !dbg !1924
  call void @llvm.dbg.value(metadata %struct.halide_mutex* %0, metadata !1917, metadata !DIExpression()), !dbg !1918
  call void @llvm.dbg.value(metadata %struct.halide_mutex* %0, metadata !1935, metadata !DIExpression()) #7, !dbg !1949
  call void @llvm.dbg.value(metadata i32 40, metadata !1938, metadata !DIExpression()) #7, !dbg !1949
  %7 = load i32, i32* %3, align 4, !dbg !1952, !tbaa !490
  %8 = bitcast %"struct.Halide::Runtime::Internal::Synchronization::mutex_parking_control"* %2 to i8*
  %9 = getelementptr inbounds %"struct.Halide::Runtime::Internal::Synchronization::mutex_parking_control", %"struct.Halide::Runtime::Internal::Synchronization::mutex_parking_control"* %2, i32 0, i32 0, i32 0
  %10 = getelementptr inbounds %"struct.Halide::Runtime::Internal::Synchronization::mutex_parking_control", %"struct.Halide::Runtime::Internal::Synchronization::mutex_parking_control"* %2, i32 0, i32 0, i32 1
  %11 = getelementptr inbounds %"struct.Halide::Runtime::Internal::Synchronization::mutex_parking_control", %"struct.Halide::Runtime::Internal::Synchronization::mutex_parking_control"* %2, i32 0, i32 0, i32 2
  %12 = getelementptr inbounds %"struct.Halide::Runtime::Internal::Synchronization::mutex_parking_control", %"struct.Halide::Runtime::Internal::Synchronization::mutex_parking_control"* %2, i32 0, i32 0, i32 3
  %13 = getelementptr inbounds %"struct.Halide::Runtime::Internal::Synchronization::mutex_parking_control", %"struct.Halide::Runtime::Internal::Synchronization::mutex_parking_control"* %2, i32 0, i32 1
  %14 = ptrtoint %struct.halide_mutex* %0 to i32
  %15 = getelementptr inbounds %"struct.Halide::Runtime::Internal::Synchronization::mutex_parking_control", %"struct.Halide::Runtime::Internal::Synchronization::mutex_parking_control"* %2, i32 0, i32 0
  br label %16, !dbg !1953

16:                                               ; preds = %49, %6
  %17 = phi i32 [ %7, %6 ], [ %50, %49 ]
  %18 = phi i32 [ 40, %6 ], [ %51, %49 ]
  br label %19, !dbg !1954

19:                                               ; preds = %23, %16
  %20 = phi i32 [ %26, %23 ], [ %17, %16 ], !dbg !1949
  call void @llvm.dbg.value(metadata i32 %18, metadata !1938, metadata !DIExpression()) #7, !dbg !1949
  call void @llvm.dbg.value(metadata i32 %20, metadata !1939, metadata !DIExpression()) #7, !dbg !1949
  %21 = and i32 %20, 1, !dbg !1955
  %22 = icmp eq i32 %21, 0, !dbg !1956
  br i1 %22, label %23, label %28, !dbg !1954

23:                                               ; preds = %19
  call void @llvm.dbg.value(metadata i32 %20, metadata !1939, metadata !DIExpression()) #7, !dbg !1949
  %24 = or i32 %20, 1, !dbg !1957
  call void @llvm.dbg.value(metadata i32 %24, metadata !1940, metadata !DIExpression()) #7, !dbg !1958
  call void @llvm.dbg.value(metadata i32* %3, metadata !498, metadata !DIExpression()) #7, !dbg !1959
  call void @llvm.dbg.value(metadata i32* undef, metadata !504, metadata !DIExpression()) #7, !dbg !1959
  call void @llvm.dbg.value(metadata i32* undef, metadata !505, metadata !DIExpression()) #7, !dbg !1959
  call void @llvm.dbg.value(metadata i32* %3, metadata !509, metadata !DIExpression()) #7, !dbg !1962
  call void @llvm.dbg.value(metadata i32* undef, metadata !515, metadata !DIExpression()) #7, !dbg !1962
  call void @llvm.dbg.value(metadata i32* undef, metadata !516, metadata !DIExpression()) #7, !dbg !1962
  call void @llvm.dbg.value(metadata i32 %20, metadata !517, metadata !DIExpression()) #7, !dbg !1962
  %25 = cmpxchg i32* %3, i32 %20, i32 %24 seq_cst seq_cst, !dbg !1964
  %26 = extractvalue { i32, i1 } %25, 0, !dbg !1964
  call void @llvm.dbg.value(metadata i32 %26, metadata !518, metadata !DIExpression()) #7, !dbg !1962
  %27 = icmp eq i32 %20, %26, !dbg !1965
  br i1 %27, label %53, label %19

28:                                               ; preds = %19
  call void @llvm.dbg.value(metadata %"class.Halide::Runtime::Internal::Synchronization::spin_control"* undef, metadata !528, metadata !DIExpression()) #7, !dbg !1966
  %29 = icmp sgt i32 %18, 0, !dbg !1969
  br i1 %29, label %30, label %35, !dbg !1970

30:                                               ; preds = %28
  call void @llvm.dbg.value(metadata i32 %18, metadata !1938, metadata !DIExpression(DW_OP_constu, 1, DW_OP_minus, DW_OP_stack_value)) #7, !dbg !1949
  %31 = icmp eq i32 %18, 1, !dbg !1971
  br i1 %31, label %35, label %32, !dbg !1972

32:                                               ; preds = %30
  %33 = add nsw i32 %18, -1, !dbg !1973
  call void @llvm.dbg.value(metadata i32 %33, metadata !1938, metadata !DIExpression()) #7, !dbg !1949
  call void @halide_thread_yield() #6, !dbg !1974
  %34 = load i32, i32* %3, align 4, !dbg !1976, !tbaa !490
  br label %49, !dbg !1977

35:                                               ; preds = %30, %28
  %36 = phi i32 [ 0, %30 ], [ %18, %28 ]
  call void @llvm.dbg.value(metadata i32 %20, metadata !1939, metadata !DIExpression()) #7, !dbg !1949
  %37 = and i32 %20, 2, !dbg !1978
  %38 = icmp eq i32 %37, 0, !dbg !1979
  br i1 %38, label %39, label %44, !dbg !1980

39:                                               ; preds = %35
  call void @llvm.dbg.value(metadata i32 %20, metadata !1939, metadata !DIExpression()) #7, !dbg !1949
  %40 = or i32 %20, 2, !dbg !1981
  call void @llvm.dbg.value(metadata i32 %40, metadata !1944, metadata !DIExpression()) #7, !dbg !1982
  call void @llvm.dbg.value(metadata i32* %3, metadata !1754, metadata !DIExpression()) #7, !dbg !1983
  call void @llvm.dbg.value(metadata i32* undef, metadata !1757, metadata !DIExpression()) #7, !dbg !1983
  call void @llvm.dbg.value(metadata i32* undef, metadata !1758, metadata !DIExpression()) #7, !dbg !1983
  call void @llvm.dbg.value(metadata i32* %3, metadata !509, metadata !DIExpression()) #7, !dbg !1986
  call void @llvm.dbg.value(metadata i32* undef, metadata !515, metadata !DIExpression()) #7, !dbg !1986
  call void @llvm.dbg.value(metadata i32* undef, metadata !516, metadata !DIExpression()) #7, !dbg !1986
  call void @llvm.dbg.value(metadata i32 %20, metadata !517, metadata !DIExpression()) #7, !dbg !1986
  %41 = cmpxchg i32* %3, i32 %20, i32 %40 seq_cst seq_cst, !dbg !1988
  %42 = extractvalue { i32, i1 } %41, 0, !dbg !1988
  call void @llvm.dbg.value(metadata i32 %42, metadata !518, metadata !DIExpression()) #7, !dbg !1986
  %43 = icmp eq i32 %20, %42, !dbg !1989
  br i1 %43, label %44, label %49

44:                                               ; preds = %39, %35
  call void @llvm.lifetime.start.p0i8(i64 20, i8* nonnull %8) #7, !dbg !1990
  call void @llvm.dbg.declare(metadata %"struct.Halide::Runtime::Internal::Synchronization::mutex_parking_control"* %2, metadata !1947, metadata !DIExpression()) #7, !dbg !1991
  call void @llvm.dbg.value(metadata %"struct.Halide::Runtime::Internal::Synchronization::mutex_parking_control"* %2, metadata !1869, metadata !DIExpression()) #7, !dbg !1992
  call void @llvm.dbg.value(metadata i32* %3, metadata !1872, metadata !DIExpression()) #7, !dbg !1992
  call void @llvm.dbg.value(metadata %"struct.Halide::Runtime::Internal::Synchronization::mutex_parking_control"* %2, metadata !1875, metadata !DIExpression()) #7, !dbg !1994
  store void (i8*)* @_ZN6Halide7Runtime8Internal15Synchronization28parking_control_before_sleepEPv, void (i8*)** %10, align 4, !dbg !1996, !tbaa !1255
  store void (i8*, %"struct.Halide::Runtime::Internal::Synchronization::validate_action"*, i1, i1)* @_ZN6Halide7Runtime8Internal15Synchronization32parking_control_requeue_callbackEPvRKNS2_15validate_actionEbb, void (i8*, %"struct.Halide::Runtime::Internal::Synchronization::validate_action"*, i1, i1)** %12, align 4, !dbg !1997, !tbaa !1637
  store i32* %3, i32** %13, align 4, !dbg !1998, !tbaa !1673
  store i1 (i8*, %"struct.Halide::Runtime::Internal::Synchronization::validate_action"*)* @_ZN6Halide7Runtime8Internal15Synchronization30mutex_parking_control_validateEPvRNS2_15validate_actionE, i1 (i8*, %"struct.Halide::Runtime::Internal::Synchronization::validate_action"*)** %9, align 4, !dbg !1999, !tbaa !1192
  store i32 (i8*, i32, i1)* @_ZN6Halide7Runtime8Internal15Synchronization28mutex_parking_control_unparkEPvib, i32 (i8*, i32, i1)** %11, align 4, !dbg !2000, !tbaa !1333
  %45 = call i32 @_ZN6Halide7Runtime8Internal15Synchronization4parkEjRNS2_15parking_controlE(i32 %14, %"struct.Halide::Runtime::Internal::Synchronization::parking_control"* nonnull align 4 dereferenceable(16) %15) #6, !dbg !2001
  call void @llvm.dbg.value(metadata i32 %45, metadata !1948, metadata !DIExpression()) #7, !dbg !2002
  %46 = icmp eq i32 %45, %14, !dbg !2003
  br i1 %46, label %52, label %47, !dbg !2005

47:                                               ; preds = %44
  call void @llvm.dbg.value(metadata i32 40, metadata !1938, metadata !DIExpression()) #7, !dbg !1949
  %48 = load i32, i32* %3, align 4, !dbg !2006, !tbaa !490
  call void @llvm.lifetime.end.p0i8(i64 20, i8* nonnull %8) #7, !dbg !2007
  br label %49

49:                                               ; preds = %47, %39, %32
  %50 = phi i32 [ %42, %39 ], [ %48, %47 ], [ %34, %32 ]
  %51 = phi i32 [ %36, %39 ], [ 40, %47 ], [ %33, %32 ]
  br label %16, !dbg !1954, !llvm.loop !2008

52:                                               ; preds = %44
  call void @llvm.lifetime.end.p0i8(i64 20, i8* nonnull %8) #7, !dbg !2007
  br label %53

53:                                               ; preds = %23, %1, %52
  ret void, !dbg !2009
}

; Function Attrs: nounwind
define weak dso_local void @halide_mutex_unlock(%struct.halide_mutex* %0) local_unnamed_addr #4 !dbg !2010 {
  %2 = alloca %"struct.Halide::Runtime::Internal::Synchronization::mutex_parking_control", align 4
  call void @llvm.dbg.value(metadata %struct.halide_mutex* %0, metadata !2012, metadata !DIExpression()), !dbg !2014
  call void @llvm.dbg.value(metadata %struct.halide_mutex* %0, metadata !2013, metadata !DIExpression()), !dbg !2014
  call void @llvm.dbg.value(metadata %struct.halide_mutex* %0, metadata !1829, metadata !DIExpression()) #7, !dbg !2015
  call void @llvm.dbg.value(metadata i32 1, metadata !1832, metadata !DIExpression()) #7, !dbg !2015
  call void @llvm.dbg.value(metadata i32 0, metadata !1833, metadata !DIExpression()) #7, !dbg !2015
  %3 = getelementptr %struct.halide_mutex, %struct.halide_mutex* %0, i32 0, i32 0, i32 0, !dbg !2017
  call void @llvm.dbg.value(metadata i32* %3, metadata !591, metadata !DIExpression()) #7, !dbg !2018
  call void @llvm.dbg.value(metadata i32* undef, metadata !594, metadata !DIExpression()) #7, !dbg !2018
  call void @llvm.dbg.value(metadata i32* undef, metadata !595, metadata !DIExpression()) #7, !dbg !2018
  call void @llvm.dbg.value(metadata i32* %3, metadata !509, metadata !DIExpression()) #7, !dbg !2020
  call void @llvm.dbg.value(metadata i32* undef, metadata !515, metadata !DIExpression()) #7, !dbg !2020
  call void @llvm.dbg.value(metadata i32* undef, metadata !516, metadata !DIExpression()) #7, !dbg !2020
  call void @llvm.dbg.value(metadata i32 1, metadata !517, metadata !DIExpression()) #7, !dbg !2020
  %4 = cmpxchg i32* %3, i32 1, i32 0 seq_cst seq_cst, !dbg !2022
  call void @llvm.dbg.value(metadata i32 undef, metadata !518, metadata !DIExpression()) #7, !dbg !2020
  %5 = extractvalue { i32, i1 } %4, 1, !dbg !2023
  br i1 %5, label %19, label %6, !dbg !2024

6:                                                ; preds = %1
  call void @llvm.dbg.value(metadata %struct.halide_mutex* %0, metadata !1845, metadata !DIExpression()) #7, !dbg !2025
  call void @llvm.dbg.value(metadata i32 1, metadata !1848, metadata !DIExpression()) #7, !dbg !2025
  call void @llvm.dbg.value(metadata i32 0, metadata !1849, metadata !DIExpression()) #7, !dbg !2025
  call void @llvm.dbg.value(metadata i32* %3, metadata !1854, metadata !DIExpression()) #7, !dbg !2027
  call void @llvm.dbg.value(metadata i32* undef, metadata !1857, metadata !DIExpression()) #7, !dbg !2027
  call void @llvm.dbg.value(metadata i32* undef, metadata !1858, metadata !DIExpression()) #7, !dbg !2027
  call void @llvm.dbg.value(metadata i32* %3, metadata !509, metadata !DIExpression()) #7, !dbg !2029
  call void @llvm.dbg.value(metadata i32* undef, metadata !515, metadata !DIExpression()) #7, !dbg !2029
  call void @llvm.dbg.value(metadata i32* undef, metadata !516, metadata !DIExpression()) #7, !dbg !2029
  call void @llvm.dbg.value(metadata i32 1, metadata !517, metadata !DIExpression()) #7, !dbg !2029
  %7 = cmpxchg i32* %3, i32 1, i32 0 seq_cst seq_cst, !dbg !2031
  call void @llvm.dbg.value(metadata i32 undef, metadata !518, metadata !DIExpression()) #7, !dbg !2029
  %8 = extractvalue { i32, i1 } %7, 1, !dbg !2032
  br i1 %8, label %19, label %9, !dbg !2033

9:                                                ; preds = %6
  %10 = bitcast %"struct.Halide::Runtime::Internal::Synchronization::mutex_parking_control"* %2 to i8*, !dbg !2034
  call void @llvm.lifetime.start.p0i8(i64 20, i8* nonnull %10) #7, !dbg !2034
  call void @llvm.dbg.declare(metadata %"struct.Halide::Runtime::Internal::Synchronization::mutex_parking_control"* %2, metadata !1850, metadata !DIExpression()) #7, !dbg !2035
  call void @llvm.dbg.value(metadata %"struct.Halide::Runtime::Internal::Synchronization::mutex_parking_control"* %2, metadata !1869, metadata !DIExpression()) #7, !dbg !2036
  call void @llvm.dbg.value(metadata i32* %3, metadata !1872, metadata !DIExpression()) #7, !dbg !2036
  call void @llvm.dbg.value(metadata %"struct.Halide::Runtime::Internal::Synchronization::mutex_parking_control"* %2, metadata !1875, metadata !DIExpression()) #7, !dbg !2038
  %11 = getelementptr inbounds %"struct.Halide::Runtime::Internal::Synchronization::mutex_parking_control", %"struct.Halide::Runtime::Internal::Synchronization::mutex_parking_control"* %2, i32 0, i32 0, i32 0, !dbg !2040
  %12 = getelementptr inbounds %"struct.Halide::Runtime::Internal::Synchronization::mutex_parking_control", %"struct.Halide::Runtime::Internal::Synchronization::mutex_parking_control"* %2, i32 0, i32 0, i32 1, !dbg !2041
  store void (i8*)* @_ZN6Halide7Runtime8Internal15Synchronization28parking_control_before_sleepEPv, void (i8*)** %12, align 4, !dbg !2041, !tbaa !1255
  %13 = getelementptr inbounds %"struct.Halide::Runtime::Internal::Synchronization::mutex_parking_control", %"struct.Halide::Runtime::Internal::Synchronization::mutex_parking_control"* %2, i32 0, i32 0, i32 2, !dbg !2042
  %14 = getelementptr inbounds %"struct.Halide::Runtime::Internal::Synchronization::mutex_parking_control", %"struct.Halide::Runtime::Internal::Synchronization::mutex_parking_control"* %2, i32 0, i32 0, i32 3, !dbg !2043
  store void (i8*, %"struct.Halide::Runtime::Internal::Synchronization::validate_action"*, i1, i1)* @_ZN6Halide7Runtime8Internal15Synchronization32parking_control_requeue_callbackEPvRKNS2_15validate_actionEbb, void (i8*, %"struct.Halide::Runtime::Internal::Synchronization::validate_action"*, i1, i1)** %14, align 4, !dbg !2043, !tbaa !1637
  %15 = getelementptr inbounds %"struct.Halide::Runtime::Internal::Synchronization::mutex_parking_control", %"struct.Halide::Runtime::Internal::Synchronization::mutex_parking_control"* %2, i32 0, i32 1, !dbg !2044
  store i32* %3, i32** %15, align 4, !dbg !2044, !tbaa !1673
  store i1 (i8*, %"struct.Halide::Runtime::Internal::Synchronization::validate_action"*)* @_ZN6Halide7Runtime8Internal15Synchronization30mutex_parking_control_validateEPvRNS2_15validate_actionE, i1 (i8*, %"struct.Halide::Runtime::Internal::Synchronization::validate_action"*)** %11, align 4, !dbg !2045, !tbaa !1192
  store i32 (i8*, i32, i1)* @_ZN6Halide7Runtime8Internal15Synchronization28mutex_parking_control_unparkEPvib, i32 (i8*, i32, i1)** %13, align 4, !dbg !2046, !tbaa !1333
  %16 = ptrtoint %struct.halide_mutex* %0 to i32, !dbg !2047
  %17 = getelementptr inbounds %"struct.Halide::Runtime::Internal::Synchronization::mutex_parking_control", %"struct.Halide::Runtime::Internal::Synchronization::mutex_parking_control"* %2, i32 0, i32 0, !dbg !2048
  %18 = call i32 @_ZN6Halide7Runtime8Internal15Synchronization10unpark_oneEjRNS2_15parking_controlE(i32 %16, %"struct.Halide::Runtime::Internal::Synchronization::parking_control"* nonnull align 4 dereferenceable(16) %17) #6, !dbg !2049
  call void @llvm.lifetime.end.p0i8(i64 20, i8* nonnull %10) #7, !dbg !2050
  br label %19, !dbg !2050

19:                                               ; preds = %1, %6, %9
  ret void, !dbg !2051
}

; Function Attrs: nounwind
define weak dso_local void @halide_cond_broadcast(%struct.halide_cond* %0) local_unnamed_addr #4 !dbg !2052 {
  %2 = alloca %"struct.Halide::Runtime::Internal::Synchronization::broadcast_parking_control", align 4
  call void @llvm.dbg.value(metadata %struct.halide_cond* %0, metadata !2057, metadata !DIExpression()), !dbg !2059
  call void @llvm.dbg.value(metadata %struct.halide_cond* %0, metadata !2058, metadata !DIExpression()), !dbg !2059
  call void @llvm.dbg.value(metadata %struct.halide_cond* %0, metadata !2060, metadata !DIExpression()) #7, !dbg !2065
  %3 = bitcast %struct.halide_cond* %0 to i8*, !dbg !2067
  call void @llvm.dbg.value(metadata i8* %3, metadata !2068, metadata !DIExpression()) #7, !dbg !2071
  tail call void @__tsan_mutex_pre_signal(i8* nonnull %3, i32 0) #6, !dbg !2073
  %4 = getelementptr %struct.halide_cond, %struct.halide_cond* %0, i32 0, i32 0, i32 0, !dbg !2074
  %5 = load i32, i32* %4, align 4, !dbg !2075, !tbaa !490
  call void @llvm.dbg.value(metadata i32 %5, metadata !2063, metadata !DIExpression()) #7, !dbg !2065
  %6 = icmp eq i32 %5, 0, !dbg !2076
  br i1 %6, label %7, label %8, !dbg !2078

7:                                                ; preds = %1
  call void @llvm.dbg.value(metadata i8* %3, metadata !2079, metadata !DIExpression()) #7, !dbg !2082
  tail call void @__tsan_mutex_post_signal(i8* nonnull %3, i32 0) #6, !dbg !2085
  br label %20, !dbg !2086

8:                                                ; preds = %1
  call void @llvm.dbg.value(metadata %struct.halide_cond* %0, metadata !2060, metadata !DIExpression()) #7, !dbg !2065
  call void @llvm.dbg.value(metadata %struct.halide_cond* %0, metadata !2058, metadata !DIExpression()), !dbg !2059
  %9 = bitcast %"struct.Halide::Runtime::Internal::Synchronization::broadcast_parking_control"* %2 to i8*, !dbg !2087
  call void @llvm.lifetime.start.p0i8(i64 24, i8* nonnull %9) #7, !dbg !2087
  call void @llvm.dbg.declare(metadata %"struct.Halide::Runtime::Internal::Synchronization::broadcast_parking_control"* %2, metadata !2064, metadata !DIExpression()) #7, !dbg !2088
  call void @llvm.dbg.value(metadata i32 %5, metadata !2063, metadata !DIExpression()) #7, !dbg !2065
  %10 = inttoptr i32 %5 to %"class.Halide::Runtime::Internal::Synchronization::fast_mutex"*, !dbg !2089
  call void @llvm.dbg.value(metadata %"struct.Halide::Runtime::Internal::Synchronization::broadcast_parking_control"* %2, metadata !2090, metadata !DIExpression()) #7, !dbg !2095
  call void @llvm.dbg.value(metadata i32* %4, metadata !2093, metadata !DIExpression()) #7, !dbg !2095
  call void @llvm.dbg.value(metadata %"class.Halide::Runtime::Internal::Synchronization::fast_mutex"* %10, metadata !2094, metadata !DIExpression()) #7, !dbg !2095
  call void @llvm.dbg.value(metadata %"struct.Halide::Runtime::Internal::Synchronization::broadcast_parking_control"* %2, metadata !1875, metadata !DIExpression()) #7, !dbg !2097
  %11 = getelementptr inbounds %"struct.Halide::Runtime::Internal::Synchronization::broadcast_parking_control", %"struct.Halide::Runtime::Internal::Synchronization::broadcast_parking_control"* %2, i32 0, i32 0, i32 0, !dbg !2099
  %12 = getelementptr inbounds %"struct.Halide::Runtime::Internal::Synchronization::broadcast_parking_control", %"struct.Halide::Runtime::Internal::Synchronization::broadcast_parking_control"* %2, i32 0, i32 0, i32 1, !dbg !2100
  store void (i8*)* @_ZN6Halide7Runtime8Internal15Synchronization28parking_control_before_sleepEPv, void (i8*)** %12, align 4, !dbg !2100, !tbaa !1255
  %13 = getelementptr inbounds %"struct.Halide::Runtime::Internal::Synchronization::broadcast_parking_control", %"struct.Halide::Runtime::Internal::Synchronization::broadcast_parking_control"* %2, i32 0, i32 0, i32 2, !dbg !2101
  store i32 (i8*, i32, i1)* @_ZN6Halide7Runtime8Internal15Synchronization22parking_control_unparkEPvib, i32 (i8*, i32, i1)** %13, align 4, !dbg !2101, !tbaa !1333
  %14 = getelementptr inbounds %"struct.Halide::Runtime::Internal::Synchronization::broadcast_parking_control", %"struct.Halide::Runtime::Internal::Synchronization::broadcast_parking_control"* %2, i32 0, i32 0, i32 3, !dbg !2102
  %15 = getelementptr inbounds %"struct.Halide::Runtime::Internal::Synchronization::broadcast_parking_control", %"struct.Halide::Runtime::Internal::Synchronization::broadcast_parking_control"* %2, i32 0, i32 1, !dbg !2103
  store i32* %4, i32** %15, align 4, !dbg !2103, !tbaa !1725
  %16 = getelementptr inbounds %"struct.Halide::Runtime::Internal::Synchronization::broadcast_parking_control", %"struct.Halide::Runtime::Internal::Synchronization::broadcast_parking_control"* %2, i32 0, i32 2, !dbg !2104
  store %"class.Halide::Runtime::Internal::Synchronization::fast_mutex"* %10, %"class.Halide::Runtime::Internal::Synchronization::fast_mutex"** %16, align 4, !dbg !2104, !tbaa !1730
  store i1 (i8*, %"struct.Halide::Runtime::Internal::Synchronization::validate_action"*)* @_ZN6Halide7Runtime8Internal15Synchronization34broadcast_parking_control_validateEPvRNS2_15validate_actionE, i1 (i8*, %"struct.Halide::Runtime::Internal::Synchronization::validate_action"*)** %11, align 4, !dbg !2105, !tbaa !1192
  store void (i8*, %"struct.Halide::Runtime::Internal::Synchronization::validate_action"*, i1, i1)* @_ZN6Halide7Runtime8Internal15Synchronization42broadcast_parking_control_requeue_callbackEPvRKNS2_15validate_actionEbb, void (i8*, %"struct.Halide::Runtime::Internal::Synchronization::validate_action"*, i1, i1)** %14, align 4, !dbg !2107, !tbaa !1637
  %17 = ptrtoint %struct.halide_cond* %0 to i32, !dbg !2108
  call void @llvm.dbg.value(metadata i32 %5, metadata !2063, metadata !DIExpression()) #7, !dbg !2065
  %18 = getelementptr inbounds %"struct.Halide::Runtime::Internal::Synchronization::broadcast_parking_control", %"struct.Halide::Runtime::Internal::Synchronization::broadcast_parking_control"* %2, i32 0, i32 0, !dbg !2109
  %19 = call i32 @_ZN6Halide7Runtime8Internal15Synchronization14unpark_requeueEjjRNS2_15parking_controlEj(i32 %17, i32 %5, %"struct.Halide::Runtime::Internal::Synchronization::parking_control"* nonnull align 4 dereferenceable(16) %18, i32 0) #6, !dbg !2110
  call void @llvm.dbg.value(metadata i8* %3, metadata !2079, metadata !DIExpression()) #7, !dbg !2111
  call void @__tsan_mutex_post_signal(i8* nonnull %3, i32 0) #6, !dbg !2113
  call void @llvm.lifetime.end.p0i8(i64 24, i8* nonnull %9) #7, !dbg !2114
  br label %20, !dbg !2114

20:                                               ; preds = %7, %8
  ret void, !dbg !2115
}

; Function Attrs: nounwind
define weak dso_local void @halide_cond_signal(%struct.halide_cond* %0) local_unnamed_addr #4 !dbg !2116 {
  %2 = alloca %"struct.Halide::Runtime::Internal::Synchronization::signal_parking_control", align 4
  call void @llvm.dbg.value(metadata %struct.halide_cond* %0, metadata !2118, metadata !DIExpression()), !dbg !2120
  call void @llvm.dbg.value(metadata %struct.halide_cond* %0, metadata !2119, metadata !DIExpression()), !dbg !2120
  call void @llvm.dbg.value(metadata %struct.halide_cond* %0, metadata !2121, metadata !DIExpression()) #7, !dbg !2126
  %3 = bitcast %struct.halide_cond* %0 to i8*, !dbg !2128
  call void @llvm.dbg.value(metadata i8* %3, metadata !2068, metadata !DIExpression()) #7, !dbg !2129
  tail call void @__tsan_mutex_pre_signal(i8* nonnull %3, i32 0) #6, !dbg !2131
  %4 = getelementptr %struct.halide_cond, %struct.halide_cond* %0, i32 0, i32 0, i32 0, !dbg !2132
  %5 = load i32, i32* %4, align 4, !dbg !2133, !tbaa !490
  call void @llvm.dbg.value(metadata i32 %5, metadata !2124, metadata !DIExpression()) #7, !dbg !2126
  %6 = icmp eq i32 %5, 0, !dbg !2134
  br i1 %6, label %7, label %8, !dbg !2136

7:                                                ; preds = %1
  call void @llvm.dbg.value(metadata i8* %3, metadata !2079, metadata !DIExpression()) #7, !dbg !2137
  tail call void @__tsan_mutex_post_signal(i8* nonnull %3, i32 0) #6, !dbg !2140
  br label %20, !dbg !2141

8:                                                ; preds = %1
  call void @llvm.dbg.value(metadata %struct.halide_cond* %0, metadata !2121, metadata !DIExpression()) #7, !dbg !2126
  call void @llvm.dbg.value(metadata %struct.halide_cond* %0, metadata !2119, metadata !DIExpression()), !dbg !2120
  %9 = bitcast %"struct.Halide::Runtime::Internal::Synchronization::signal_parking_control"* %2 to i8*, !dbg !2142
  call void @llvm.lifetime.start.p0i8(i64 24, i8* nonnull %9) #7, !dbg !2142
  call void @llvm.dbg.declare(metadata %"struct.Halide::Runtime::Internal::Synchronization::signal_parking_control"* %2, metadata !2125, metadata !DIExpression()) #7, !dbg !2143
  call void @llvm.dbg.value(metadata i32 %5, metadata !2124, metadata !DIExpression()) #7, !dbg !2126
  %10 = inttoptr i32 %5 to %"class.Halide::Runtime::Internal::Synchronization::fast_mutex"*, !dbg !2144
  call void @llvm.dbg.value(metadata %"struct.Halide::Runtime::Internal::Synchronization::signal_parking_control"* %2, metadata !2145, metadata !DIExpression()) #7, !dbg !2150
  call void @llvm.dbg.value(metadata i32* %4, metadata !2148, metadata !DIExpression()) #7, !dbg !2150
  call void @llvm.dbg.value(metadata %"class.Halide::Runtime::Internal::Synchronization::fast_mutex"* %10, metadata !2149, metadata !DIExpression()) #7, !dbg !2150
  call void @llvm.dbg.value(metadata %"struct.Halide::Runtime::Internal::Synchronization::signal_parking_control"* %2, metadata !1875, metadata !DIExpression()) #7, !dbg !2152
  %11 = getelementptr inbounds %"struct.Halide::Runtime::Internal::Synchronization::signal_parking_control", %"struct.Halide::Runtime::Internal::Synchronization::signal_parking_control"* %2, i32 0, i32 0, i32 0, !dbg !2154
  store i1 (i8*, %"struct.Halide::Runtime::Internal::Synchronization::validate_action"*)* @_ZN6Halide7Runtime8Internal15Synchronization24parking_control_validateEPvRNS2_15validate_actionE, i1 (i8*, %"struct.Halide::Runtime::Internal::Synchronization::validate_action"*)** %11, align 4, !dbg !2154, !tbaa !1192
  %12 = getelementptr inbounds %"struct.Halide::Runtime::Internal::Synchronization::signal_parking_control", %"struct.Halide::Runtime::Internal::Synchronization::signal_parking_control"* %2, i32 0, i32 0, i32 1, !dbg !2155
  store void (i8*)* @_ZN6Halide7Runtime8Internal15Synchronization28parking_control_before_sleepEPv, void (i8*)** %12, align 4, !dbg !2155, !tbaa !1255
  %13 = getelementptr inbounds %"struct.Halide::Runtime::Internal::Synchronization::signal_parking_control", %"struct.Halide::Runtime::Internal::Synchronization::signal_parking_control"* %2, i32 0, i32 0, i32 2, !dbg !2156
  %14 = getelementptr inbounds %"struct.Halide::Runtime::Internal::Synchronization::signal_parking_control", %"struct.Halide::Runtime::Internal::Synchronization::signal_parking_control"* %2, i32 0, i32 0, i32 3, !dbg !2157
  store void (i8*, %"struct.Halide::Runtime::Internal::Synchronization::validate_action"*, i1, i1)* @_ZN6Halide7Runtime8Internal15Synchronization32parking_control_requeue_callbackEPvRKNS2_15validate_actionEbb, void (i8*, %"struct.Halide::Runtime::Internal::Synchronization::validate_action"*, i1, i1)** %14, align 4, !dbg !2157, !tbaa !1637
  %15 = getelementptr inbounds %"struct.Halide::Runtime::Internal::Synchronization::signal_parking_control", %"struct.Halide::Runtime::Internal::Synchronization::signal_parking_control"* %2, i32 0, i32 1, !dbg !2158
  store i32* %4, i32** %15, align 4, !dbg !2158, !tbaa !1710
  %16 = getelementptr inbounds %"struct.Halide::Runtime::Internal::Synchronization::signal_parking_control", %"struct.Halide::Runtime::Internal::Synchronization::signal_parking_control"* %2, i32 0, i32 2, !dbg !2159
  store %"class.Halide::Runtime::Internal::Synchronization::fast_mutex"* %10, %"class.Halide::Runtime::Internal::Synchronization::fast_mutex"** %16, align 4, !dbg !2159, !tbaa !2160
  store i32 (i8*, i32, i1)* @_ZN6Halide7Runtime8Internal15Synchronization29signal_parking_control_unparkEPvib, i32 (i8*, i32, i1)** %13, align 4, !dbg !2161, !tbaa !1333
  %17 = ptrtoint %struct.halide_cond* %0 to i32, !dbg !2163
  %18 = getelementptr inbounds %"struct.Halide::Runtime::Internal::Synchronization::signal_parking_control", %"struct.Halide::Runtime::Internal::Synchronization::signal_parking_control"* %2, i32 0, i32 0, !dbg !2164
  %19 = call i32 @_ZN6Halide7Runtime8Internal15Synchronization10unpark_oneEjRNS2_15parking_controlE(i32 %17, %"struct.Halide::Runtime::Internal::Synchronization::parking_control"* nonnull align 4 dereferenceable(16) %18) #6, !dbg !2165
  call void @llvm.dbg.value(metadata i8* %3, metadata !2079, metadata !DIExpression()) #7, !dbg !2166
  call void @__tsan_mutex_post_signal(i8* nonnull %3, i32 0) #6, !dbg !2168
  call void @llvm.lifetime.end.p0i8(i64 24, i8* nonnull %9) #7, !dbg !2169
  br label %20, !dbg !2169

20:                                               ; preds = %7, %8
  ret void, !dbg !2170
}

; Function Attrs: nounwind
define weak dso_local void @halide_cond_wait(%struct.halide_cond* %0, %struct.halide_mutex* %1) local_unnamed_addr #4 !dbg !2171 {
  %3 = alloca %"struct.Halide::Runtime::Internal::Synchronization::mutex_parking_control", align 4
  %4 = alloca %"struct.Halide::Runtime::Internal::Synchronization::wait_parking_control", align 4
  call void @llvm.dbg.value(metadata %struct.halide_cond* %0, metadata !2175, metadata !DIExpression()), !dbg !2179
  call void @llvm.dbg.value(metadata %struct.halide_mutex* %1, metadata !2176, metadata !DIExpression()), !dbg !2179
  call void @llvm.dbg.value(metadata %struct.halide_cond* %0, metadata !2177, metadata !DIExpression()), !dbg !2179
  call void @llvm.dbg.value(metadata %struct.halide_mutex* %1, metadata !2178, metadata !DIExpression()), !dbg !2179
  call void @llvm.dbg.value(metadata %struct.halide_cond* %0, metadata !2180, metadata !DIExpression()) #7, !dbg !2189
  call void @llvm.dbg.value(metadata %struct.halide_mutex* %1, metadata !2183, metadata !DIExpression()) #7, !dbg !2189
  %5 = bitcast %"struct.Halide::Runtime::Internal::Synchronization::wait_parking_control"* %4 to i8*, !dbg !2191
  call void @llvm.lifetime.start.p0i8(i64 24, i8* nonnull %5) #7, !dbg !2191
  call void @llvm.dbg.declare(metadata %"struct.Halide::Runtime::Internal::Synchronization::wait_parking_control"* %4, metadata !2184, metadata !DIExpression()) #7, !dbg !2192
  %6 = getelementptr %struct.halide_cond, %struct.halide_cond* %0, i32 0, i32 0, i32 0, !dbg !2193
  call void @llvm.dbg.value(metadata %"struct.Halide::Runtime::Internal::Synchronization::wait_parking_control"* %4, metadata !2194, metadata !DIExpression()) #7, !dbg !2199
  call void @llvm.dbg.value(metadata i32* %6, metadata !2197, metadata !DIExpression()) #7, !dbg !2199
  call void @llvm.dbg.value(metadata %struct.halide_mutex* %1, metadata !2198, metadata !DIExpression()) #7, !dbg !2199
  call void @llvm.dbg.value(metadata %"struct.Halide::Runtime::Internal::Synchronization::wait_parking_control"* %4, metadata !1875, metadata !DIExpression()) #7, !dbg !2201
  %7 = getelementptr inbounds %"struct.Halide::Runtime::Internal::Synchronization::wait_parking_control", %"struct.Halide::Runtime::Internal::Synchronization::wait_parking_control"* %4, i32 0, i32 0, i32 0, !dbg !2203
  %8 = getelementptr inbounds %"struct.Halide::Runtime::Internal::Synchronization::wait_parking_control", %"struct.Halide::Runtime::Internal::Synchronization::wait_parking_control"* %4, i32 0, i32 0, i32 1, !dbg !2204
  %9 = getelementptr inbounds %"struct.Halide::Runtime::Internal::Synchronization::wait_parking_control", %"struct.Halide::Runtime::Internal::Synchronization::wait_parking_control"* %4, i32 0, i32 0, i32 2, !dbg !2205
  %10 = getelementptr inbounds %"struct.Halide::Runtime::Internal::Synchronization::wait_parking_control", %"struct.Halide::Runtime::Internal::Synchronization::wait_parking_control"* %4, i32 0, i32 0, i32 3, !dbg !2206
  store void (i8*, %"struct.Halide::Runtime::Internal::Synchronization::validate_action"*, i1, i1)* @_ZN6Halide7Runtime8Internal15Synchronization32parking_control_requeue_callbackEPvRKNS2_15validate_actionEbb, void (i8*, %"struct.Halide::Runtime::Internal::Synchronization::validate_action"*, i1, i1)** %10, align 4, !dbg !2206, !tbaa !1637
  %11 = getelementptr inbounds %"struct.Halide::Runtime::Internal::Synchronization::wait_parking_control", %"struct.Halide::Runtime::Internal::Synchronization::wait_parking_control"* %4, i32 0, i32 1, !dbg !2207
  store i32* %6, i32** %11, align 4, !dbg !2207, !tbaa !1808
  %12 = getelementptr inbounds %"struct.Halide::Runtime::Internal::Synchronization::wait_parking_control", %"struct.Halide::Runtime::Internal::Synchronization::wait_parking_control"* %4, i32 0, i32 2, !dbg !2208
  %13 = bitcast %"class.Halide::Runtime::Internal::Synchronization::fast_mutex"** %12 to %struct.halide_mutex**, !dbg !2208
  store %struct.halide_mutex* %1, %struct.halide_mutex** %13, align 4, !dbg !2208, !tbaa !1814
  store i1 (i8*, %"struct.Halide::Runtime::Internal::Synchronization::validate_action"*)* @_ZN6Halide7Runtime8Internal15Synchronization29wait_parking_control_validateEPvRNS2_15validate_actionE, i1 (i8*, %"struct.Halide::Runtime::Internal::Synchronization::validate_action"*)** %7, align 4, !dbg !2209, !tbaa !1192
  store void (i8*)* @_ZN6Halide7Runtime8Internal15Synchronization33wait_parking_control_before_sleepEPv, void (i8*)** %8, align 4, !dbg !2211, !tbaa !1255
  store i32 (i8*, i32, i1)* @_ZN6Halide7Runtime8Internal15Synchronization27wait_parking_control_unparkEPvib, i32 (i8*, i32, i1)** %9, align 4, !dbg !2212, !tbaa !1333
  %14 = ptrtoint %struct.halide_cond* %0 to i32, !dbg !2213
  %15 = getelementptr inbounds %"struct.Halide::Runtime::Internal::Synchronization::wait_parking_control", %"struct.Halide::Runtime::Internal::Synchronization::wait_parking_control"* %4, i32 0, i32 0, !dbg !2214
  %16 = call i32 @_ZN6Halide7Runtime8Internal15Synchronization4parkEjRNS2_15parking_controlE(i32 %14, %"struct.Halide::Runtime::Internal::Synchronization::parking_control"* nonnull align 4 dereferenceable(16) %15) #6, !dbg !2215
  call void @llvm.dbg.value(metadata i32 %16, metadata !2185, metadata !DIExpression()) #7, !dbg !2189
  %17 = ptrtoint %struct.halide_mutex* %1 to i32, !dbg !2216
  %18 = icmp eq i32 %16, %17, !dbg !2217
  br i1 %18, label %69, label %19, !dbg !2218

19:                                               ; preds = %2
  call void @llvm.dbg.value(metadata %struct.halide_mutex* %1, metadata !1919, metadata !DIExpression()) #7, !dbg !2219
  call void @llvm.dbg.value(metadata i32 0, metadata !1922, metadata !DIExpression()) #7, !dbg !2219
  call void @llvm.dbg.value(metadata i32 1, metadata !1923, metadata !DIExpression()) #7, !dbg !2219
  %20 = getelementptr %struct.halide_mutex, %struct.halide_mutex* %1, i32 0, i32 0, i32 0, !dbg !2222
  call void @llvm.dbg.value(metadata i32* %20, metadata !498, metadata !DIExpression()) #7, !dbg !2223
  call void @llvm.dbg.value(metadata i32* undef, metadata !504, metadata !DIExpression()) #7, !dbg !2223
  call void @llvm.dbg.value(metadata i32* undef, metadata !505, metadata !DIExpression()) #7, !dbg !2223
  call void @llvm.dbg.value(metadata i32* %20, metadata !509, metadata !DIExpression()) #7, !dbg !2225
  call void @llvm.dbg.value(metadata i32* undef, metadata !515, metadata !DIExpression()) #7, !dbg !2225
  call void @llvm.dbg.value(metadata i32* undef, metadata !516, metadata !DIExpression()) #7, !dbg !2225
  call void @llvm.dbg.value(metadata i32 0, metadata !517, metadata !DIExpression()) #7, !dbg !2225
  %21 = cmpxchg i32* %20, i32 0, i32 1 seq_cst seq_cst, !dbg !2227
  call void @llvm.dbg.value(metadata i32 undef, metadata !518, metadata !DIExpression()) #7, !dbg !2225
  %22 = extractvalue { i32, i1 } %21, 1, !dbg !2228
  br i1 %22, label %77, label %23, !dbg !2229

23:                                               ; preds = %19
  call void @llvm.dbg.value(metadata %struct.halide_mutex* %1, metadata !1935, metadata !DIExpression()) #7, !dbg !2230
  call void @llvm.dbg.value(metadata i32 40, metadata !1938, metadata !DIExpression()) #7, !dbg !2230
  %24 = load i32, i32* %20, align 4, !dbg !2232, !tbaa !490
  %25 = bitcast %"struct.Halide::Runtime::Internal::Synchronization::mutex_parking_control"* %3 to i8*
  %26 = getelementptr inbounds %"struct.Halide::Runtime::Internal::Synchronization::mutex_parking_control", %"struct.Halide::Runtime::Internal::Synchronization::mutex_parking_control"* %3, i32 0, i32 0, i32 0
  %27 = getelementptr inbounds %"struct.Halide::Runtime::Internal::Synchronization::mutex_parking_control", %"struct.Halide::Runtime::Internal::Synchronization::mutex_parking_control"* %3, i32 0, i32 0, i32 1
  %28 = getelementptr inbounds %"struct.Halide::Runtime::Internal::Synchronization::mutex_parking_control", %"struct.Halide::Runtime::Internal::Synchronization::mutex_parking_control"* %3, i32 0, i32 0, i32 2
  %29 = getelementptr inbounds %"struct.Halide::Runtime::Internal::Synchronization::mutex_parking_control", %"struct.Halide::Runtime::Internal::Synchronization::mutex_parking_control"* %3, i32 0, i32 0, i32 3
  %30 = getelementptr inbounds %"struct.Halide::Runtime::Internal::Synchronization::mutex_parking_control", %"struct.Halide::Runtime::Internal::Synchronization::mutex_parking_control"* %3, i32 0, i32 1
  %31 = getelementptr inbounds %"struct.Halide::Runtime::Internal::Synchronization::mutex_parking_control", %"struct.Halide::Runtime::Internal::Synchronization::mutex_parking_control"* %3, i32 0, i32 0
  br label %32, !dbg !2233

32:                                               ; preds = %65, %23
  %33 = phi i32 [ %24, %23 ], [ %66, %65 ]
  %34 = phi i32 [ 40, %23 ], [ %67, %65 ]
  br label %35, !dbg !2234

35:                                               ; preds = %39, %32
  %36 = phi i32 [ %42, %39 ], [ %33, %32 ], !dbg !2230
  call void @llvm.dbg.value(metadata i32 %34, metadata !1938, metadata !DIExpression()) #7, !dbg !2230
  call void @llvm.dbg.value(metadata i32 %36, metadata !1939, metadata !DIExpression()) #7, !dbg !2230
  %37 = and i32 %36, 1, !dbg !2235
  %38 = icmp eq i32 %37, 0, !dbg !2236
  br i1 %38, label %39, label %44, !dbg !2234

39:                                               ; preds = %35
  call void @llvm.dbg.value(metadata i32 %36, metadata !1939, metadata !DIExpression()) #7, !dbg !2230
  %40 = or i32 %36, 1, !dbg !2237
  call void @llvm.dbg.value(metadata i32 %40, metadata !1940, metadata !DIExpression()) #7, !dbg !2238
  call void @llvm.dbg.value(metadata i32* %20, metadata !498, metadata !DIExpression()) #7, !dbg !2239
  call void @llvm.dbg.value(metadata i32* undef, metadata !504, metadata !DIExpression()) #7, !dbg !2239
  call void @llvm.dbg.value(metadata i32* undef, metadata !505, metadata !DIExpression()) #7, !dbg !2239
  call void @llvm.dbg.value(metadata i32* %20, metadata !509, metadata !DIExpression()) #7, !dbg !2241
  call void @llvm.dbg.value(metadata i32* undef, metadata !515, metadata !DIExpression()) #7, !dbg !2241
  call void @llvm.dbg.value(metadata i32* undef, metadata !516, metadata !DIExpression()) #7, !dbg !2241
  call void @llvm.dbg.value(metadata i32 %36, metadata !517, metadata !DIExpression()) #7, !dbg !2241
  %41 = cmpxchg i32* %20, i32 %36, i32 %40 seq_cst seq_cst, !dbg !2243
  %42 = extractvalue { i32, i1 } %41, 0, !dbg !2243
  call void @llvm.dbg.value(metadata i32 %42, metadata !518, metadata !DIExpression()) #7, !dbg !2241
  %43 = icmp eq i32 %36, %42, !dbg !2244
  br i1 %43, label %77, label %35

44:                                               ; preds = %35
  call void @llvm.dbg.value(metadata %"class.Halide::Runtime::Internal::Synchronization::spin_control"* undef, metadata !528, metadata !DIExpression()) #7, !dbg !2245
  %45 = icmp sgt i32 %34, 0, !dbg !2247
  br i1 %45, label %46, label %51, !dbg !2248

46:                                               ; preds = %44
  call void @llvm.dbg.value(metadata i32 %34, metadata !1938, metadata !DIExpression(DW_OP_constu, 1, DW_OP_minus, DW_OP_stack_value)) #7, !dbg !2230
  %47 = icmp eq i32 %34, 1, !dbg !2249
  br i1 %47, label %51, label %48, !dbg !2250

48:                                               ; preds = %46
  %49 = add nsw i32 %34, -1, !dbg !2251
  call void @llvm.dbg.value(metadata i32 %49, metadata !1938, metadata !DIExpression()) #7, !dbg !2230
  call void @halide_thread_yield() #6, !dbg !2252
  %50 = load i32, i32* %20, align 4, !dbg !2253, !tbaa !490
  br label %65, !dbg !2254

51:                                               ; preds = %46, %44
  %52 = phi i32 [ 0, %46 ], [ %34, %44 ]
  call void @llvm.dbg.value(metadata i32 %36, metadata !1939, metadata !DIExpression()) #7, !dbg !2230
  %53 = and i32 %36, 2, !dbg !2255
  %54 = icmp eq i32 %53, 0, !dbg !2256
  br i1 %54, label %55, label %60, !dbg !2257

55:                                               ; preds = %51
  call void @llvm.dbg.value(metadata i32 %36, metadata !1939, metadata !DIExpression()) #7, !dbg !2230
  %56 = or i32 %36, 2, !dbg !2258
  call void @llvm.dbg.value(metadata i32 %56, metadata !1944, metadata !DIExpression()) #7, !dbg !2259
  call void @llvm.dbg.value(metadata i32* %20, metadata !1754, metadata !DIExpression()) #7, !dbg !2260
  call void @llvm.dbg.value(metadata i32* undef, metadata !1757, metadata !DIExpression()) #7, !dbg !2260
  call void @llvm.dbg.value(metadata i32* undef, metadata !1758, metadata !DIExpression()) #7, !dbg !2260
  call void @llvm.dbg.value(metadata i32* %20, metadata !509, metadata !DIExpression()) #7, !dbg !2262
  call void @llvm.dbg.value(metadata i32* undef, metadata !515, metadata !DIExpression()) #7, !dbg !2262
  call void @llvm.dbg.value(metadata i32* undef, metadata !516, metadata !DIExpression()) #7, !dbg !2262
  call void @llvm.dbg.value(metadata i32 %36, metadata !517, metadata !DIExpression()) #7, !dbg !2262
  %57 = cmpxchg i32* %20, i32 %36, i32 %56 seq_cst seq_cst, !dbg !2264
  %58 = extractvalue { i32, i1 } %57, 0, !dbg !2264
  call void @llvm.dbg.value(metadata i32 %58, metadata !518, metadata !DIExpression()) #7, !dbg !2262
  %59 = icmp eq i32 %36, %58, !dbg !2265
  br i1 %59, label %60, label %65

60:                                               ; preds = %55, %51
  call void @llvm.lifetime.start.p0i8(i64 20, i8* nonnull %25) #7, !dbg !2266
  call void @llvm.dbg.declare(metadata %"struct.Halide::Runtime::Internal::Synchronization::mutex_parking_control"* %3, metadata !1947, metadata !DIExpression()) #7, !dbg !2267
  call void @llvm.dbg.value(metadata %"struct.Halide::Runtime::Internal::Synchronization::mutex_parking_control"* %3, metadata !1869, metadata !DIExpression()) #7, !dbg !2268
  call void @llvm.dbg.value(metadata i32* %20, metadata !1872, metadata !DIExpression()) #7, !dbg !2268
  call void @llvm.dbg.value(metadata %"struct.Halide::Runtime::Internal::Synchronization::mutex_parking_control"* %3, metadata !1875, metadata !DIExpression()) #7, !dbg !2270
  store void (i8*)* @_ZN6Halide7Runtime8Internal15Synchronization28parking_control_before_sleepEPv, void (i8*)** %27, align 4, !dbg !2272, !tbaa !1255
  store void (i8*, %"struct.Halide::Runtime::Internal::Synchronization::validate_action"*, i1, i1)* @_ZN6Halide7Runtime8Internal15Synchronization32parking_control_requeue_callbackEPvRKNS2_15validate_actionEbb, void (i8*, %"struct.Halide::Runtime::Internal::Synchronization::validate_action"*, i1, i1)** %29, align 4, !dbg !2273, !tbaa !1637
  store i32* %20, i32** %30, align 4, !dbg !2274, !tbaa !1673
  store i1 (i8*, %"struct.Halide::Runtime::Internal::Synchronization::validate_action"*)* @_ZN6Halide7Runtime8Internal15Synchronization30mutex_parking_control_validateEPvRNS2_15validate_actionE, i1 (i8*, %"struct.Halide::Runtime::Internal::Synchronization::validate_action"*)** %26, align 4, !dbg !2275, !tbaa !1192
  store i32 (i8*, i32, i1)* @_ZN6Halide7Runtime8Internal15Synchronization28mutex_parking_control_unparkEPvib, i32 (i8*, i32, i1)** %28, align 4, !dbg !2276, !tbaa !1333
  %61 = call i32 @_ZN6Halide7Runtime8Internal15Synchronization4parkEjRNS2_15parking_controlE(i32 %17, %"struct.Halide::Runtime::Internal::Synchronization::parking_control"* nonnull align 4 dereferenceable(16) %31) #6, !dbg !2277
  call void @llvm.dbg.value(metadata i32 %61, metadata !1948, metadata !DIExpression()) #7, !dbg !2278
  %62 = icmp eq i32 %61, %17, !dbg !2279
  br i1 %62, label %68, label %63, !dbg !2280

63:                                               ; preds = %60
  call void @llvm.dbg.value(metadata i32 40, metadata !1938, metadata !DIExpression()) #7, !dbg !2230
  %64 = load i32, i32* %20, align 4, !dbg !2281, !tbaa !490
  call void @llvm.lifetime.end.p0i8(i64 20, i8* nonnull %25) #7, !dbg !2282
  br label %65

65:                                               ; preds = %63, %55, %48
  %66 = phi i32 [ %58, %55 ], [ %64, %63 ], [ %50, %48 ]
  %67 = phi i32 [ %52, %55 ], [ 40, %63 ], [ %49, %48 ]
  br label %32, !dbg !2234, !llvm.loop !2283

68:                                               ; preds = %60
  call void @llvm.lifetime.end.p0i8(i64 20, i8* nonnull %25) #7, !dbg !2282
  br label %77

69:                                               ; preds = %2
  call void @llvm.dbg.value(metadata %struct.halide_mutex* %1, metadata !2198, metadata !DIExpression()) #7, !dbg !2199
  call void @llvm.dbg.value(metadata %struct.halide_mutex* %1, metadata !2183, metadata !DIExpression()) #7, !dbg !2189
  call void @llvm.dbg.value(metadata %struct.halide_mutex* %1, metadata !2178, metadata !DIExpression()), !dbg !2179
  %70 = bitcast %struct.halide_mutex* %1 to i8*, !dbg !2284
  call void @llvm.dbg.value(metadata i8* %70, metadata !823, metadata !DIExpression()) #7, !dbg !2285
  call void @__tsan_mutex_pre_lock(i8* %70, i32 1) #6, !dbg !2287
  %71 = getelementptr %struct.halide_mutex, %struct.halide_mutex* %1, i32 0, i32 0, i32 0, !dbg !2288
  %72 = load i32, i32* %71, align 4, !dbg !2289, !tbaa !490
  call void @llvm.dbg.value(metadata i32 %72, metadata !2186, metadata !DIExpression()) #7, !dbg !2290
  %73 = and i32 %72, 1, !dbg !2291
  %74 = icmp eq i32 %73, 0, !dbg !2291
  br i1 %74, label %75, label %76, !dbg !2294

75:                                               ; preds = %69
  call void @halide_print(i8* null, i8* getelementptr inbounds ([118 x i8], [118 x i8]* @.str.6, i32 0, i32 0)) #6, !dbg !2295
  call void @abort() #6, !dbg !2295
  br label %76, !dbg !2295

76:                                               ; preds = %75, %69
  call void @llvm.dbg.value(metadata i8* %70, metadata !842, metadata !DIExpression()) #7, !dbg !2297
  call void @__tsan_mutex_post_lock(i8* nonnull %70, i32 1, i32 1) #6, !dbg !2299
  br label %77

77:                                               ; preds = %39, %19, %68, %76
  call void @llvm.lifetime.end.p0i8(i64 24, i8* nonnull %5) #7, !dbg !2300
  ret void, !dbg !2301
}

; Function Attrs: nounwind mustprogress
define weak dso_local %struct.halide_mutex_array* @halide_mutex_array_create(i32 %0) local_unnamed_addr #0 !dbg !2302 {
  call void @llvm.dbg.value(metadata i32 %0, metadata !2306, metadata !DIExpression()), !dbg !2308
  %2 = tail call i8* @halide_malloc(i8* null, i32 4) #6, !dbg !2309
  %3 = bitcast i8* %2 to %struct.halide_mutex_array*, !dbg !2310
  call void @llvm.dbg.value(metadata %struct.halide_mutex_array* %3, metadata !2307, metadata !DIExpression()), !dbg !2308
  %4 = icmp eq i8* %2, null, !dbg !2311
  br i1 %4, label %13, label %5, !dbg !2313

5:                                                ; preds = %1
  %6 = shl i32 %0, 2, !dbg !2314
  %7 = tail call i8* @halide_malloc(i8* null, i32 %6) #6, !dbg !2315
  %8 = bitcast i8* %2 to i8**, !dbg !2316
  store i8* %7, i8** %8, align 4, !dbg !2316, !tbaa !2317
  %9 = icmp eq i8* %7, null, !dbg !2319
  br i1 %9, label %10, label %11, !dbg !2321

10:                                               ; preds = %5
  tail call void @halide_free(i8* null, i8* nonnull %2) #6, !dbg !2322
  br label %13, !dbg !2324

11:                                               ; preds = %5
  %12 = tail call i8* @memset(i8* nonnull %7, i32 0, i32 %6) #6, !dbg !2325
  br label %13, !dbg !2326

13:                                               ; preds = %1, %11, %10
  %14 = phi %struct.halide_mutex_array* [ null, %10 ], [ %3, %11 ], [ null, %1 ], !dbg !2308
  ret %struct.halide_mutex_array* %14, !dbg !2327
}

declare !dbg !2328 dso_local i8* @halide_malloc(i8*, i32) local_unnamed_addr #3

declare !dbg !2331 dso_local void @halide_free(i8*, i8*) local_unnamed_addr #3

declare !dbg !2334 dso_local i8* @memset(i8*, i32, i32) local_unnamed_addr #3

; Function Attrs: nounwind mustprogress
define weak dso_local void @halide_mutex_array_destroy(i8* %0, i8* %1) local_unnamed_addr #0 !dbg !2337 {
  call void @llvm.dbg.value(metadata i8* %0, metadata !2339, metadata !DIExpression()), !dbg !2342
  call void @llvm.dbg.value(metadata i8* %1, metadata !2340, metadata !DIExpression()), !dbg !2342
  call void @llvm.dbg.value(metadata i8* %1, metadata !2341, metadata !DIExpression()), !dbg !2342
  %3 = bitcast i8* %1 to i8**, !dbg !2343
  %4 = load i8*, i8** %3, align 4, !dbg !2343, !tbaa !2317
  tail call void @halide_free(i8* %0, i8* %4) #6, !dbg !2344
  tail call void @halide_free(i8* %0, i8* %1) #6, !dbg !2345
  ret void, !dbg !2346
}

; Function Attrs: nounwind mustprogress
define weak dso_local i32 @halide_mutex_array_lock(%struct.halide_mutex_array* %0, i32 %1) local_unnamed_addr #0 !dbg !2347 {
  call void @llvm.dbg.value(metadata %struct.halide_mutex_array* %0, metadata !2351, metadata !DIExpression()), !dbg !2353
  call void @llvm.dbg.value(metadata i32 %1, metadata !2352, metadata !DIExpression()), !dbg !2353
  %3 = getelementptr inbounds %struct.halide_mutex_array, %struct.halide_mutex_array* %0, i32 0, i32 0, !dbg !2354
  %4 = load %struct.halide_mutex*, %struct.halide_mutex** %3, align 4, !dbg !2354, !tbaa !2317
  %5 = getelementptr inbounds %struct.halide_mutex, %struct.halide_mutex* %4, i32 %1, !dbg !2355
  tail call void @halide_mutex_lock(%struct.halide_mutex* %5) #8, !dbg !2356
  ret i32 0, !dbg !2357
}

; Function Attrs: nounwind mustprogress
define weak dso_local i32 @halide_mutex_array_unlock(%struct.halide_mutex_array* %0, i32 %1) local_unnamed_addr #0 !dbg !2358 {
  call void @llvm.dbg.value(metadata %struct.halide_mutex_array* %0, metadata !2360, metadata !DIExpression()), !dbg !2362
  call void @llvm.dbg.value(metadata i32 %1, metadata !2361, metadata !DIExpression()), !dbg !2362
  %3 = getelementptr inbounds %struct.halide_mutex_array, %struct.halide_mutex_array* %0, i32 0, i32 0, !dbg !2363
  %4 = load %struct.halide_mutex*, %struct.halide_mutex** %3, align 4, !dbg !2363, !tbaa !2317
  %5 = getelementptr inbounds %struct.halide_mutex, %struct.halide_mutex* %4, i32 %1, !dbg !2364
  tail call void @halide_mutex_unlock(%struct.halide_mutex* %5) #8, !dbg !2365
  ret i32 0, !dbg !2366
}

; Function Attrs: nounwind willreturn mustprogress
define weak dso_local i32 @_ZN6Halide7Runtime8Internal17clamp_num_threadsEi(i32 %0) local_unnamed_addr #5 !dbg !2367 {
  call void @llvm.dbg.value(metadata i32 %0, metadata !2371, metadata !DIExpression()), !dbg !2372
  %2 = icmp sgt i32 %0, 256, !dbg !2373
  br i1 %2, label %6, label %3, !dbg !2375

3:                                                ; preds = %1
  %4 = icmp sgt i32 %0, 1, !dbg !2376
  %5 = select i1 %4, i32 %0, i32 1, !dbg !2376
  ret i32 %5, !dbg !2376

6:                                                ; preds = %1
  call void @llvm.dbg.value(metadata i32 256, metadata !2371, metadata !DIExpression()), !dbg !2372
  ret i32 256, !dbg !2377
}

; Function Attrs: nounwind mustprogress
define weak dso_local i32 @_ZN6Halide7Runtime8Internal27default_desired_num_threadsEv() local_unnamed_addr #0 !dbg !2378 {
  call void @llvm.dbg.value(metadata i32 0, metadata !2382, metadata !DIExpression()), !dbg !2384
  %1 = tail call i8* @getenv(i8* getelementptr inbounds ([15 x i8], [15 x i8]* @.str.1, i32 0, i32 0)) #6, !dbg !2385
  call void @llvm.dbg.value(metadata i8* %1, metadata !2383, metadata !DIExpression()), !dbg !2384
  %2 = icmp eq i8* %1, null, !dbg !2386
  br i1 %2, label %3, label %6, !dbg !2388

3:                                                ; preds = %0
  %4 = tail call i8* @getenv(i8* getelementptr inbounds ([14 x i8], [14 x i8]* @.str.2, i32 0, i32 0)) #6, !dbg !2389
  call void @llvm.dbg.value(metadata i8* %4, metadata !2383, metadata !DIExpression()), !dbg !2384
  %5 = icmp eq i8* %4, null, !dbg !2391
  br i1 %5, label %9, label %6, !dbg !2393

6:                                                ; preds = %0, %3
  %7 = phi i8* [ %4, %3 ], [ %1, %0 ]
  %8 = tail call i32 @atoi(i8* nonnull %7) #6, !dbg !2394
  call void @llvm.dbg.value(metadata i32 %8, metadata !2382, metadata !DIExpression()), !dbg !2384
  br label %11, !dbg !2396

9:                                                ; preds = %3
  %10 = tail call i32 @halide_host_cpu_count() #6, !dbg !2397
  call void @llvm.dbg.value(metadata i32 %10, metadata !2382, metadata !DIExpression()), !dbg !2384
  br label %11

11:                                               ; preds = %9, %6
  %12 = phi i32 [ %8, %6 ], [ %10, %9 ], !dbg !2399
  call void @llvm.dbg.value(metadata i32 %12, metadata !2382, metadata !DIExpression()), !dbg !2384
  ret i32 %12, !dbg !2400
}

declare !dbg !2401 dso_local i8* @getenv(i8*) local_unnamed_addr #3

declare !dbg !2404 dso_local i32 @atoi(i8*) local_unnamed_addr #3

declare !dbg !2407 extern_weak dso_local i32 @halide_host_cpu_count() local_unnamed_addr #3

; Function Attrs: nounwind mustprogress
define weak dso_local void @_ZN6Halide7Runtime8Internal28worker_thread_already_lockedEPNS1_4workE(%"struct.Halide::Runtime::Internal::work"* %0) local_unnamed_addr #0 !dbg !2408 {
  call void @llvm.dbg.value(metadata %"struct.Halide::Runtime::Internal::work"* %0, metadata !2412, metadata !DIExpression()), !dbg !2438
  call void @llvm.dbg.value(metadata i32 0, metadata !2413, metadata !DIExpression()), !dbg !2438
  call void @llvm.dbg.value(metadata i32 40, metadata !2414, metadata !DIExpression()), !dbg !2438
  %2 = getelementptr inbounds %"struct.Halide::Runtime::Internal::work", %"struct.Halide::Runtime::Internal::work"* %0, i32 0, i32 8, !dbg !2439
  %3 = icmp eq %"struct.Halide::Runtime::Internal::work"* %0, null
  %4 = getelementptr inbounds %"struct.Halide::Runtime::Internal::work", %"struct.Halide::Runtime::Internal::work"* %0, i32 0, i32 0, i32 6
  %5 = getelementptr inbounds %"struct.Halide::Runtime::Internal::work", %"struct.Halide::Runtime::Internal::work"* %0, i32 0, i32 9
  %6 = getelementptr inbounds %"struct.Halide::Runtime::Internal::work", %"struct.Halide::Runtime::Internal::work"* %0, i32 0, i32 5
  %7 = getelementptr inbounds %"struct.Halide::Runtime::Internal::work", %"struct.Halide::Runtime::Internal::work"* %0, i32 0, i32 3
  %8 = getelementptr inbounds %"struct.Halide::Runtime::Internal::work", %"struct.Halide::Runtime::Internal::work"* %0, i32 0, i32 11
  %9 = getelementptr inbounds %"struct.Halide::Runtime::Internal::work", %"struct.Halide::Runtime::Internal::work"* %0, i32 0, i32 2
  br label %10, !dbg !2445

10:                                               ; preds = %390, %1
  %11 = phi i32 [ 0, %1 ], [ %391, %390 ], !dbg !2446
  call void @llvm.dbg.value(metadata i32 %11, metadata !2413, metadata !DIExpression()), !dbg !2438
  br i1 %3, label %15, label %12, !dbg !2447

12:                                               ; preds = %10
  call void @llvm.dbg.value(metadata %"struct.Halide::Runtime::Internal::work"* %0, metadata !2442, metadata !DIExpression()), !dbg !2448
  %13 = load i32, i32* %4, align 4, !dbg !2449, !tbaa !2450
  %14 = icmp eq i32 %13, 0, !dbg !2453
  br i1 %14, label %18, label %21, !dbg !2454

15:                                               ; preds = %10
  %16 = load i8, i8* getelementptr inbounds (%"struct.Halide::Runtime::Internal::work_queue_t", %"struct.Halide::Runtime::Internal::work_queue_t"* @_ZN6Halide7Runtime8Internal10work_queueE, i32 0, i32 13), align 4, !dbg !2455, !tbaa !2456, !range !612
  %17 = icmp eq i8 %16, 0, !dbg !2455
  br i1 %17, label %48, label %405, !dbg !2445

18:                                               ; preds = %12
  %19 = load i32, i32* %2, align 4, !dbg !2439, !tbaa !2460
  %20 = icmp eq i32 %19, 0, !dbg !2439
  br i1 %20, label %405, label %21, !dbg !2445

21:                                               ; preds = %12, %18
  %22 = load %"struct.Halide::Runtime::Internal::work"*, %"struct.Halide::Runtime::Internal::work"** getelementptr inbounds (%"struct.Halide::Runtime::Internal::work_queue_t", %"struct.Halide::Runtime::Internal::work_queue_t"* @_ZN6Halide7Runtime8Internal10work_queueE, i32 0, i32 3), align 4, !dbg !2461, !tbaa !2462
  call void @llvm.dbg.value(metadata %"struct.Halide::Runtime::Internal::work"* %49, metadata !2416, metadata !DIExpression()), !dbg !2463
  call void @llvm.dbg.value(metadata %"struct.Halide::Runtime::Internal::work"** getelementptr inbounds (%"struct.Halide::Runtime::Internal::work_queue_t", %"struct.Halide::Runtime::Internal::work_queue_t"* @_ZN6Halide7Runtime8Internal10work_queueE, i32 0, i32 3), metadata !2418, metadata !DIExpression()), !dbg !2463
  %23 = load i32, i32* %5, align 4, !dbg !2464, !tbaa !2468
  %24 = icmp eq i32 %23, 0, !dbg !2469
  br i1 %24, label %38, label %25, !dbg !2470

25:                                               ; preds = %21
  %26 = load i32, i32* %2, align 4, !dbg !2471, !tbaa !2460
  %27 = icmp eq i32 %26, 0, !dbg !2474
  br i1 %27, label %28, label %46, !dbg !2475

28:                                               ; preds = %25
  call void @llvm.dbg.value(metadata %"struct.Halide::Runtime::Internal::work"* %22, metadata !2416, metadata !DIExpression()), !dbg !2463
  call void @llvm.dbg.value(metadata %"struct.Halide::Runtime::Internal::work"** getelementptr inbounds (%"struct.Halide::Runtime::Internal::work_queue_t", %"struct.Halide::Runtime::Internal::work_queue_t"* @_ZN6Halide7Runtime8Internal10work_queueE, i32 0, i32 3), metadata !2418, metadata !DIExpression()), !dbg !2463
  %29 = icmp eq %"struct.Halide::Runtime::Internal::work"* %22, %0, !dbg !2476
  br i1 %29, label %35, label %30, !dbg !2478

30:                                               ; preds = %28, %30
  %31 = phi %"struct.Halide::Runtime::Internal::work"* [ %33, %30 ], [ %22, %28 ]
  call void @llvm.dbg.value(metadata %"struct.Halide::Runtime::Internal::work"* %31, metadata !2416, metadata !DIExpression()), !dbg !2463
  %32 = getelementptr inbounds %"struct.Halide::Runtime::Internal::work", %"struct.Halide::Runtime::Internal::work"* %31, i32 0, i32 2, !dbg !2479
  call void @llvm.dbg.value(metadata %"struct.Halide::Runtime::Internal::work"** %32, metadata !2418, metadata !DIExpression()), !dbg !2463
  %33 = load %"struct.Halide::Runtime::Internal::work"*, %"struct.Halide::Runtime::Internal::work"** %32, align 4, !dbg !2481, !tbaa !2482
  call void @llvm.dbg.value(metadata %"struct.Halide::Runtime::Internal::work"* %33, metadata !2416, metadata !DIExpression()), !dbg !2463
  %34 = icmp eq %"struct.Halide::Runtime::Internal::work"* %33, %0, !dbg !2476
  br i1 %34, label %35, label %30, !dbg !2478, !llvm.loop !2483

35:                                               ; preds = %30, %28
  %36 = phi %"struct.Halide::Runtime::Internal::work"** [ getelementptr inbounds (%"struct.Halide::Runtime::Internal::work_queue_t", %"struct.Halide::Runtime::Internal::work_queue_t"* @_ZN6Halide7Runtime8Internal10work_queueE, i32 0, i32 3), %28 ], [ %32, %30 ], !dbg !2463
  %37 = load %"struct.Halide::Runtime::Internal::work"*, %"struct.Halide::Runtime::Internal::work"** %9, align 4, !dbg !2485, !tbaa !2482
  store %"struct.Halide::Runtime::Internal::work"* %37, %"struct.Halide::Runtime::Internal::work"** %36, align 4, !dbg !2486, !tbaa !452
  store i32 0, i32* %4, align 4, !dbg !2487, !tbaa !2450
  br label %390, !dbg !2488

38:                                               ; preds = %21
  %39 = load %"struct.Halide::Runtime::Internal::work"*, %"struct.Halide::Runtime::Internal::work"** %6, align 4, !dbg !2489, !tbaa !2491
  %40 = icmp eq %"struct.Halide::Runtime::Internal::work"* %39, null, !dbg !2492
  br i1 %40, label %46, label %41, !dbg !2493

41:                                               ; preds = %38
  %42 = getelementptr inbounds %"struct.Halide::Runtime::Internal::work", %"struct.Halide::Runtime::Internal::work"* %39, i32 0, i32 9, !dbg !2494
  %43 = load i32, i32* %42, align 4, !dbg !2494, !tbaa !2468
  %44 = icmp eq i32 %43, 0, !dbg !2495
  br i1 %44, label %46, label %45, !dbg !2496

45:                                               ; preds = %41
  store i32 %43, i32* %5, align 4, !dbg !2497, !tbaa !2468
  tail call void @halide_cond_broadcast(%struct.halide_cond* getelementptr inbounds (%"struct.Halide::Runtime::Internal::work_queue_t", %"struct.Halide::Runtime::Internal::work_queue_t"* @_ZN6Halide7Runtime8Internal10work_queueE, i32 0, i32 9)) #8, !dbg !2499
  br label %390, !dbg !2500

46:                                               ; preds = %25, %41, %38
  call void @llvm.dbg.value(metadata %"struct.Halide::Runtime::Internal::work"* %22, metadata !2416, metadata !DIExpression()), !dbg !2463
  call void @llvm.dbg.value(metadata %"struct.Halide::Runtime::Internal::work"** getelementptr inbounds (%"struct.Halide::Runtime::Internal::work_queue_t", %"struct.Halide::Runtime::Internal::work_queue_t"* @_ZN6Halide7Runtime8Internal10work_queueE, i32 0, i32 3), metadata !2418, metadata !DIExpression()), !dbg !2463
  %47 = icmp eq %"struct.Halide::Runtime::Internal::work"* %22, null, !dbg !2501
  br i1 %47, label %188, label %51, !dbg !2502

48:                                               ; preds = %15
  %49 = load %"struct.Halide::Runtime::Internal::work"*, %"struct.Halide::Runtime::Internal::work"** getelementptr inbounds (%"struct.Halide::Runtime::Internal::work_queue_t", %"struct.Halide::Runtime::Internal::work_queue_t"* @_ZN6Halide7Runtime8Internal10work_queueE, i32 0, i32 3), align 4, !dbg !2461, !tbaa !2462
  call void @llvm.dbg.value(metadata %"struct.Halide::Runtime::Internal::work"* %22, metadata !2416, metadata !DIExpression()), !dbg !2463
  call void @llvm.dbg.value(metadata %"struct.Halide::Runtime::Internal::work"** getelementptr inbounds (%"struct.Halide::Runtime::Internal::work_queue_t", %"struct.Halide::Runtime::Internal::work_queue_t"* @_ZN6Halide7Runtime8Internal10work_queueE, i32 0, i32 3), metadata !2418, metadata !DIExpression()), !dbg !2463
  %50 = icmp eq %"struct.Halide::Runtime::Internal::work"* %49, null, !dbg !2501
  br i1 %50, label %198, label %52, !dbg !2502

51:                                               ; preds = %46
  br i1 %3, label %52, label %117, !dbg !2502

52:                                               ; preds = %48, %51
  %53 = phi %"struct.Halide::Runtime::Internal::work"* [ %49, %48 ], [ %22, %51 ]
  br label %54, !dbg !2503

54:                                               ; preds = %52, %113
  %55 = phi %"struct.Halide::Runtime::Internal::work"* [ %115, %113 ], [ %53, %52 ]
  %56 = phi %"struct.Halide::Runtime::Internal::work"** [ %114, %113 ], [ getelementptr inbounds (%"struct.Halide::Runtime::Internal::work_queue_t", %"struct.Halide::Runtime::Internal::work_queue_t"* @_ZN6Halide7Runtime8Internal10work_queueE, i32 0, i32 3), %52 ]
  call void @llvm.dbg.value(metadata %"struct.Halide::Runtime::Internal::work"* %55, metadata !2416, metadata !DIExpression()), !dbg !2463
  call void @llvm.dbg.value(metadata %"struct.Halide::Runtime::Internal::work"** %56, metadata !2418, metadata !DIExpression()), !dbg !2463
  %57 = getelementptr inbounds %"struct.Halide::Runtime::Internal::work", %"struct.Halide::Runtime::Internal::work"* %55, i32 0, i32 5, !dbg !2504
  %58 = load %"struct.Halide::Runtime::Internal::work"*, %"struct.Halide::Runtime::Internal::work"** %57, align 4, !dbg !2504, !tbaa !2491
  call void @llvm.dbg.value(metadata %"struct.Halide::Runtime::Internal::work"* %58, metadata !2422, metadata !DIExpression()), !dbg !2505
  %59 = icmp eq %"struct.Halide::Runtime::Internal::work"* %58, null, !dbg !2506
  br i1 %59, label %71, label %60, !dbg !2503

60:                                               ; preds = %54
  %61 = getelementptr inbounds %"struct.Halide::Runtime::Internal::work", %"struct.Halide::Runtime::Internal::work"* %58, i32 0, i32 8, !dbg !2508
  %62 = load i32, i32* %61, align 4, !dbg !2508, !tbaa !2460
  %63 = icmp eq i32 %62, 0, !dbg !2511
  %64 = getelementptr inbounds %"struct.Halide::Runtime::Internal::work", %"struct.Halide::Runtime::Internal::work"* %58, i32 0, i32 0, i32 7, !dbg !2512
  %65 = load i32, i32* %64, align 4, !dbg !2512, !tbaa !2513
  br i1 %63, label %69, label %66, !dbg !2514

66:                                               ; preds = %60
  %67 = mul nsw i32 %65, %62, !dbg !2515
  %68 = getelementptr inbounds %"struct.Halide::Runtime::Internal::work", %"struct.Halide::Runtime::Internal::work"* %58, i32 0, i32 6, !dbg !2517
  call void @llvm.dbg.value(metadata i32 undef, metadata !2423, metadata !DIExpression()), !dbg !2505
  br label %74

69:                                               ; preds = %60
  %70 = getelementptr inbounds %"struct.Halide::Runtime::Internal::work", %"struct.Halide::Runtime::Internal::work"* %58, i32 0, i32 6, !dbg !2518
  call void @llvm.dbg.value(metadata i32 undef, metadata !2423, metadata !DIExpression()), !dbg !2505
  br label %74, !dbg !2520

71:                                               ; preds = %54
  %72 = load i32, i32* getelementptr inbounds (%"struct.Halide::Runtime::Internal::work_queue_t", %"struct.Halide::Runtime::Internal::work_queue_t"* @_ZN6Halide7Runtime8Internal10work_queueE, i32 0, i32 4), align 4, !dbg !2521, !tbaa !2523
  %73 = add nsw i32 %72, 1, !dbg !2524
  call void @llvm.dbg.value(metadata i32 %78, metadata !2423, metadata !DIExpression()), !dbg !2505
  br label %74, !dbg !2525

74:                                               ; preds = %71, %69, %66
  %75 = phi i32* [ getelementptr inbounds (%"struct.Halide::Runtime::Internal::work_queue_t", %"struct.Halide::Runtime::Internal::work_queue_t"* @_ZN6Halide7Runtime8Internal10work_queueE, i32 0, i32 15), %71 ], [ %70, %69 ], [ %68, %66 ]
  %76 = phi i32 [ %73, %71 ], [ %65, %69 ], [ %67, %66 ]
  %77 = load i32, i32* %75, align 4, !dbg !2526, !tbaa !490
  %78 = sub i32 %76, %77, !dbg !2526
  call void @llvm.dbg.value(metadata i32 %78, metadata !2423, metadata !DIExpression()), !dbg !2505
  %79 = getelementptr inbounds %"struct.Halide::Runtime::Internal::work", %"struct.Halide::Runtime::Internal::work"* %55, i32 0, i32 0, i32 7, !dbg !2527
  %80 = load i32, i32* %79, align 4, !dbg !2527, !tbaa !2513
  %81 = icmp sge i32 %78, %80, !dbg !2528
  call void @llvm.dbg.value(metadata i1 %81, metadata !2420, metadata !DIExpression(DW_OP_LLVM_convert, 1, DW_ATE_unsigned, DW_OP_LLVM_convert, 8, DW_ATE_unsigned, DW_OP_stack_value)), !dbg !2505
  call void @llvm.dbg.value(metadata i1 true, metadata !2424, metadata !DIExpression(DW_OP_LLVM_convert, 1, DW_ATE_unsigned, DW_OP_LLVM_convert, 8, DW_ATE_unsigned, DW_OP_stack_value)), !dbg !2505
  %82 = getelementptr inbounds %"struct.Halide::Runtime::Internal::work", %"struct.Halide::Runtime::Internal::work"* %55, i32 0, i32 0, i32 8, !dbg !2529
  %83 = load i8, i8* %82, align 4, !dbg !2529, !tbaa !2530, !range !612
  %84 = icmp eq i8 %83, 0, !dbg !2529
  br i1 %84, label %89, label %85, !dbg !2531

85:                                               ; preds = %74
  %86 = getelementptr inbounds %"struct.Halide::Runtime::Internal::work", %"struct.Halide::Runtime::Internal::work"* %55, i32 0, i32 8, !dbg !2532
  %87 = load i32, i32* %86, align 4, !dbg !2532, !tbaa !2460
  %88 = icmp eq i32 %87, 0, !dbg !2533
  br label %89, !dbg !2531

