; ModuleID = '/media/maaz/Data/Repos/rake/Halide-master-d48fbde/src/runtime/metal.cpp'
source_filename = "/media/maaz/Data/Repos/rake/Halide-master-d48fbde/src/runtime/metal.cpp"
target datalayout = "e-p:32:32-i64:64"
target triple = "le32-unknown-nacl-unknown"

%struct.halide_metal_device = type opaque
%struct.halide_metal_command_queue = type opaque
%"class.Halide::Internal::GPUCompilationCache" = type { %struct.halide_mutex, i32, %"struct.Halide::Internal::GPUCompilationCache<halide_metal_device *, Halide::Runtime::Internal::Metal::mtl_library *>::CachedCompilation"*, i32, i32 }
%struct.halide_mutex = type { [1 x i32] }
%"struct.Halide::Internal::GPUCompilationCache<halide_metal_device *, Halide::Runtime::Internal::Metal::mtl_library *>::CachedCompilation" = type { %struct.halide_metal_device*, %"struct.Halide::Runtime::Internal::Metal::mtl_library"*, i32, i32 }
%"struct.Halide::Runtime::Internal::Metal::mtl_library" = type opaque
%"struct.Halide::Runtime::Internal::Metal::command_buffer_completed_handler_block_descriptor_1" = type { i32, i32 }
%struct.ObjectiveCClass = type opaque
%"struct.Halide::Runtime::Internal::Metal::command_buffer_completed_handler_block_literal" = type { i8*, i32, i32, void (%"struct.Halide::Runtime::Internal::Metal::command_buffer_completed_handler_block_literal"*, %"struct.Halide::Runtime::Internal::Metal::mtl_command_buffer"*)*, %"struct.Halide::Runtime::Internal::Metal::command_buffer_completed_handler_block_descriptor_1"* }
%"struct.Halide::Runtime::Internal::Metal::mtl_command_buffer" = type opaque
%struct.halide_device_interface_t = type { i32 (i8*, %struct.halide_buffer_t*, %struct.halide_device_interface_t*)*, i32 (i8*, %struct.halide_buffer_t*)*, i32 (i8*, %struct.halide_buffer_t*)*, void (i8*, %struct.halide_device_interface_t*)*, i32 (i8*, %struct.halide_buffer_t*)*, i32 (i8*, %struct.halide_buffer_t*, %struct.halide_device_interface_t*)*, i32 (i8*, %struct.halide_buffer_t*, %struct.halide_device_interface_t*)*, i32 (i8*, %struct.halide_buffer_t*)*, i32 (i8*, %struct.halide_buffer_t*, %struct.halide_device_interface_t*, %struct.halide_buffer_t*)*, i32 (i8*, %struct.halide_buffer_t*, %struct.halide_buffer_t*)*, i32 (i8*, %struct.halide_buffer_t*, i32, i32, %struct.halide_buffer_t*)*, i32 (i8*, %struct.halide_buffer_t*)*, i32 (i8*, %struct.halide_buffer_t*, i64, %struct.halide_device_interface_t*)*, i32 (i8*, %struct.halide_buffer_t*)*, i32 (i8*, i32*, i32*)*, %struct.halide_device_interface_impl_t* }
%struct.halide_buffer_t = type { i64, %struct.halide_device_interface_t*, i8*, i64, %struct.halide_type_t, i32, %struct.halide_dimension_t*, i8* }
%struct.halide_type_t = type { i8, i8, i16 }
%struct.halide_dimension_t = type { i32, i32, i32, i32 }
%struct.halide_device_interface_impl_t = type { void ()*, void ()*, i32 (i8*, %struct.halide_buffer_t*)*, i32 (i8*, %struct.halide_buffer_t*)*, i32 (i8*, %struct.halide_buffer_t*)*, i32 (i8*)*, i32 (i8*, %struct.halide_buffer_t*)*, i32 (i8*, %struct.halide_buffer_t*)*, i32 (i8*, %struct.halide_buffer_t*)*, i32 (i8*, %struct.halide_buffer_t*)*, i32 (i8*, %struct.halide_buffer_t*, %struct.halide_device_interface_t*, %struct.halide_buffer_t*)*, i32 (i8*, %struct.halide_buffer_t*, %struct.halide_buffer_t*)*, i32 (i8*, %struct.halide_buffer_t*, i32, i32, %struct.halide_buffer_t*)*, i32 (i8*, %struct.halide_buffer_t*)*, i32 (i8*, %struct.halide_buffer_t*, i64)*, i32 (i8*, %struct.halide_buffer_t*)* }
%"struct.Halide::Runtime::Internal::device_copy" = type { i64, i64, i64, [16 x i64], [16 x i64], [16 x i64], i64 }
%"class.Halide::Runtime::Internal::(anonymous namespace)::Printer" = type <{ i8*, i8*, i8*, i8*, i8, [1 x i8], [2 x i8] }>
%"struct.Halide::Runtime::Internal::Metal::mtl_buffer" = type opaque
%"struct.Halide::Runtime::Internal::Metal::mtl_compute_command_encoder" = type opaque
%"struct.Halide::Runtime::Internal::Metal::mtl_blit_command_encoder" = type opaque
%"struct.Halide::Runtime::Internal::Metal::mtl_compute_pipeline_state" = type opaque
%"struct.Halide::Runtime::Internal::Metal::mtl_function" = type opaque
%"struct.Halide::Runtime::Internal::Metal::NSRange" = type { i32, i32 }
%"class.Halide::Runtime::Internal::(anonymous namespace)::Printer.0" = type <{ i8*, i8*, i8*, i8*, i8, [1 x i8], [2 x i8] }>
%"class.Halide::Runtime::Internal::Metal::MetalContextHolder" = type { i8*, i8*, %struct.halide_metal_device*, %struct.halide_metal_command_queue*, i32 }
%"struct.Halide::Runtime::Internal::Metal::device_handle" = type { %"struct.Halide::Runtime::Internal::Metal::mtl_buffer"*, i64 }
%"struct.Halide::Runtime::Internal::ScopedMutexLock" = type { %struct.halide_mutex* }

$_ZN6Halide8Internal19GPUCompilationCacheIP19halide_metal_devicePNS_7Runtime8Internal5Metal11mtl_libraryEE18kernel_state_setupIPFS8_S3_PKcjEJS3_SC_iEEEbPvPSF_S3_RS8_T_DpT0_ = comdat any

$_ZN6Halide8Internal19GPUCompilationCacheIP19halide_metal_devicePNS_7Runtime8Internal5Metal11mtl_libraryEE6insertERKNS9_17CachedCompilationE = comdat any

$_ZN6Halide8Internal19GPUCompilationCacheIP19halide_metal_devicePNS_7Runtime8Internal5Metal11mtl_libraryEE12resize_tableEi = comdat any

$_ZN6Halide8Internal19GPUCompilationCacheIP19halide_metal_devicePNS_7Runtime8Internal5Metal11mtl_libraryEE15release_contextIFvPvEEEvSB_bS3_RT_ = comdat any

$_ZGVN6Halide7Runtime8Internal5Metal17compilation_cacheE = comdat any

@.str = private unnamed_addr constant [55 x i8] c"copy_memory: no copy needed as pointers are the same.\0A\00", align 1
@.str.1 = private unnamed_addr constant [18 x i8] c"NSAutoreleasePool\00", align 1
@.str.2 = private unnamed_addr constant [6 x i8] c"alloc\00", align 1
@.str.3 = private unnamed_addr constant [5 x i8] c"init\00", align 1
@.str.4 = private unnamed_addr constant [6 x i8] c"drain\00", align 1
@.str.5 = private unnamed_addr constant [7 x i8] c"retain\00", align 1
@.str.6 = private unnamed_addr constant [8 x i8] c"release\00", align 1
@.str.7 = private unnamed_addr constant [9 x i8] c"NSString\00", align 1
@.str.8 = private unnamed_addr constant [50 x i8] c"initWithBytesNoCopy:length:encoding:freeWhenDone:\00", align 1
@.str.9 = private unnamed_addr constant [3 x i8] c"%@\00", align 1
@.str.10 = private unnamed_addr constant [29 x i8] c"newBufferWithLength:options:\00", align 1
@.str.11 = private unnamed_addr constant [16 x i8] c"newCommandQueue\00", align 1
@.str.12 = private unnamed_addr constant [14 x i8] c"commandBuffer\00", align 1
@.str.13 = private unnamed_addr constant [10 x i8] c"setLabel:\00", align 1
@.str.14 = private unnamed_addr constant [21 x i8] c"addCompletedHandler:\00", align 1
@.str.15 = private unnamed_addr constant [6 x i8] c"error\00", align 1
@.str.16 = private unnamed_addr constant [22 x i8] c"computeCommandEncoder\00", align 1
@.str.17 = private unnamed_addr constant [19 x i8] c"blitCommandEncoder\00", align 1
@.str.18 = private unnamed_addr constant [43 x i8] c"newComputePipelineStateWithFunction:error:\00", align 1
@.str.19 = private unnamed_addr constant [30 x i8] c"maxTotalThreadsPerThreadgroup\00", align 1
@.str.20 = private unnamed_addr constant [25 x i8] c"setComputePipelineState:\00", align 1
@.str.21 = private unnamed_addr constant [12 x i8] c"endEncoding\00", align 1
@.str.22 = private unnamed_addr constant [16 x i8] c"didModifyRange:\00", align 1
@.str.23 = private unnamed_addr constant [21 x i8] c"synchronizeResource:\00", align 1
@.str.24 = private unnamed_addr constant [12 x i8] c"storageMode\00", align 1
@.str.25 = private unnamed_addr constant [20 x i8] c"respondsToSelector:\00", align 1
@.str.26 = private unnamed_addr constant [61 x i8] c"copyFromBuffer:sourceOffset:toBuffer:destinationOffset:size:\00", align 1
@.str.27 = private unnamed_addr constant [25 x i8] c"setBytes:length:atIndex:\00", align 1
@.str.28 = private unnamed_addr constant [18 x i8] c"MTLCompileOptions\00", align 1
@.str.29 = private unnamed_addr constant [20 x i8] c"setFastMathEnabled:\00", align 1
@.str.30 = private unnamed_addr constant [36 x i8] c"newLibraryWithSource:options:error:\00", align 1
@.str.31 = private unnamed_addr constant [21 x i8] c"newFunctionWithName:\00", align 1
@.str.32 = private unnamed_addr constant [26 x i8] c"setBuffer:offset:atIndex:\00", align 1
@.str.33 = private unnamed_addr constant [36 x i8] c"setThreadgroupMemoryLength:atIndex:\00", align 1
@.str.34 = private unnamed_addr constant [7 x i8] c"commit\00", align 1
@.str.35 = private unnamed_addr constant [19 x i8] c"waitUntilCompleted\00", align 1
@.str.36 = private unnamed_addr constant [9 x i8] c"contents\00", align 1
@.str.37 = private unnamed_addr constant [12 x i8] c"firstObject\00", align 1
@.str.38 = private unnamed_addr constant [18 x i8] c"MTLCopyAllDevices\00", align 1
@_ZN6Halide7Runtime8Internal5Metal11thread_lockE = weak dso_local global i8 0, align 1, !dbg !0
@_ZN6Halide7Runtime8Internal5Metal6deviceE = weak dso_local local_unnamed_addr global %struct.halide_metal_device* null, align 4, !dbg !23
@_ZN6Halide7Runtime8Internal5Metal5queueE = weak dso_local local_unnamed_addr global %struct.halide_metal_command_queue* null, align 4, !dbg !29
@_ZN6Halide7Runtime8Internal5Metal17compilation_cacheE = weak dso_local global %"class.Halide::Internal::GPUCompilationCache" zeroinitializer, align 4, !dbg !34
@_ZGVN6Halide7Runtime8Internal5Metal17compilation_cacheE = weak dso_local local_unnamed_addr global i64 0, comdat, align 8
@_ZN6Halide7Runtime8Internal5Metal28metal_api_supports_set_bytesE = weak dso_local local_unnamed_addr global i8 0, align 1, !dbg !108
@_ZN6Halide7Runtime8Internal5Metal24metal_api_checked_deviceE = weak dso_local local_unnamed_addr global %struct.halide_metal_device* null, align 4, !dbg !110
@.str.40 = private unnamed_addr constant [50 x i8] c"Metal - Allocating: MTLCreateSystemDefaultDevice\0A\00", align 1
@.str.41 = private unnamed_addr constant [47 x i8] c"Metal: cannot allocate system default device.\0A\00", align 1
@.str.42 = private unnamed_addr constant [39 x i8] c"Metal - Allocating: new_command_queue\0A\00", align 1
@.str.43 = private unnamed_addr constant [39 x i8] c"Metal: cannot allocate command queue.\0A\00", align 1
@.str.44 = private unnamed_addr constant [134 x i8] c"/media/maaz/Data/Repos/rake/Halide-master-d48fbde/src/runtime/metal.cpp:372 Assert failed: (device == nullptr) || (queue != nullptr)\0A\00", align 1
@_ZN6Halide7Runtime8Internal5Metal43command_buffer_completed_handler_descriptorE = weak dso_local global %"struct.Halide::Runtime::Internal::Metal::command_buffer_completed_handler_block_descriptor_1" { i32 0, i32 20 }, align 4, !dbg !112
@_NSConcreteGlobalBlock = external dso_local global %struct.ObjectiveCClass, align 1
@_ZN6Halide7Runtime8Internal5Metal38command_buffer_completed_handler_blockE = weak dso_local global %"struct.Halide::Runtime::Internal::Metal::command_buffer_completed_handler_block_literal" { i8* bitcast (%struct.ObjectiveCClass* @_NSConcreteGlobalBlock to i8*), i32 805306368, i32 0, void (%"struct.Halide::Runtime::Internal::Metal::command_buffer_completed_handler_block_literal"*, %"struct.Halide::Runtime::Internal::Metal::mtl_command_buffer"*)* @_ZN6Halide7Runtime8Internal5Metal39command_buffer_completed_handler_invokeEPNS2_46command_buffer_completed_handler_block_literalEPNS2_18mtl_command_bufferE, %"struct.Halide::Runtime::Internal::Metal::command_buffer_completed_handler_block_descriptor_1"* @_ZN6Halide7Runtime8Internal5Metal43command_buffer_completed_handler_descriptorE }, align 4, !dbg !119
@.str.45 = private unnamed_addr constant [43 x i8] c"halide_metal_device_malloc (user_context: \00", align 1
@.str.46 = private unnamed_addr constant [8 x i8] c", buf: \00", align 1
@.str.47 = private unnamed_addr constant [3 x i8] c")\0A\00", align 1
@.str.48 = private unnamed_addr constant [102 x i8] c"/media/maaz/Data/Repos/rake/Halide-master-d48fbde/src/runtime/metal.cpp:468 Assert failed: size != 0\0A\00", align 1
@.str.49 = private unnamed_addr constant [116 x i8] c"/media/maaz/Data/Repos/rake/Halide-master-d48fbde/src/runtime/metal.cpp:476 Assert failed: buf->dim[i].stride >= 0\0A\00", align 1
@.str.50 = private unnamed_addr constant [16 x i8] c"    allocating \00", align 1
@.str.51 = private unnamed_addr constant [2 x i8] c"\0A\00", align 1
@.str.52 = private unnamed_addr constant [42 x i8] c"Metal: Failed to allocate buffer of size \00", align 1
@.str.53 = private unnamed_addr constant [3 x i8] c".\0A\00", align 1
@_ZN6Halide7Runtime8Internal5Metal22metal_device_interfaceE = weak dso_local global %struct.halide_device_interface_t { i32 (i8*, %struct.halide_buffer_t*, %struct.halide_device_interface_t*)* @halide_device_malloc, i32 (i8*, %struct.halide_buffer_t*)* @halide_device_free, i32 (i8*, %struct.halide_buffer_t*)* @halide_device_sync, void (i8*, %struct.halide_device_interface_t*)* @halide_device_release, i32 (i8*, %struct.halide_buffer_t*)* @halide_copy_to_host, i32 (i8*, %struct.halide_buffer_t*, %struct.halide_device_interface_t*)* @halide_copy_to_device, i32 (i8*, %struct.halide_buffer_t*, %struct.halide_device_interface_t*)* @halide_device_and_host_malloc, i32 (i8*, %struct.halide_buffer_t*)* @halide_device_and_host_free, i32 (i8*, %struct.halide_buffer_t*, %struct.halide_device_interface_t*, %struct.halide_buffer_t*)* @halide_buffer_copy, i32 (i8*, %struct.halide_buffer_t*, %struct.halide_buffer_t*)* @halide_device_crop, i32 (i8*, %struct.halide_buffer_t*, i32, i32, %struct.halide_buffer_t*)* @halide_device_slice, i32 (i8*, %struct.halide_buffer_t*)* @halide_device_release_crop, i32 (i8*, %struct.halide_buffer_t*, i64, %struct.halide_device_interface_t*)* @halide_device_wrap_native, i32 (i8*, %struct.halide_buffer_t*)* @halide_device_detach_native, i32 (i8*, i32*, i32*)* null, %struct.halide_device_interface_impl_t* @_ZN6Halide7Runtime8Internal5Metal27metal_device_interface_implE }, align 4, !dbg !135
@.str.54 = private unnamed_addr constant [11 x i8] c"    Time: \00", align 1
@.str.55 = private unnamed_addr constant [5 x i8] c" ms\0A\00", align 1
@.str.56 = private unnamed_addr constant [40 x i8] c"halide_metal_device_free called on buf \00", align 1
@.str.57 = private unnamed_addr constant [12 x i8] c" device is \00", align 1
@.str.58 = private unnamed_addr constant [211 x i8] c"/media/maaz/Data/Repos/rake/Halide-master-d48fbde/src/runtime/metal.cpp:529 Assert failed: (((device_handle *)buf->device)->offset == 0) && \22halide_metal_device_free on buffer obtained from halide_device_crop\22\0A\00", align 1
@.str.59 = private unnamed_addr constant [111 x i8] c"/media/maaz/Data/Repos/rake/Halide-master-d48fbde/src/runtime/metal.cpp:561 Assert failed: library != nullptr\0A\00", align 1
@.str.60 = private unnamed_addr constant [43 x i8] c"Time for halide_metal_initialize_kernels: \00", align 1
@.str.61 = private unnamed_addr constant [34 x i8] c"halide_metal_device_sync_internal\00", align 1
@.str.62 = private unnamed_addr constant [36 x i8] c"Time for halide_metal_device_sync: \00", align 1
@.str.63 = private unnamed_addr constant [34 x i8] c"Calling delete context on device \00", align 1
@.str.64 = private unnamed_addr constant [38 x i8] c"Metal - Releasing: new_command_queue \00", align 1
@.str.65 = private unnamed_addr constant [49 x i8] c"Metal - Releasing: MTLCreateSystemDefaultDevice \00", align 1
@.str.66 = private unnamed_addr constant [123 x i8] c"/media/maaz/Data/Repos/rake/Halide-master-d48fbde/src/runtime/metal.cpp:661 Assert failed: buffer->host && buffer->device\0A\00", align 1
@.str.67 = private unnamed_addr constant [35 x i8] c"halide_metal_copy_to_device dev = \00", align 1
@.str.68 = private unnamed_addr constant [17 x i8] c" metal_buffer = \00", align 1
@.str.69 = private unnamed_addr constant [9 x i8] c" host = \00", align 1
@.str.70 = private unnamed_addr constant [108 x i8] c"/media/maaz/Data/Repos/rake/Halide-master-d48fbde/src/runtime/metal.cpp:675 Assert failed: total_size != 0\0A\00", align 1
@.str.71 = private unnamed_addr constant [39 x i8] c"Time for halide_metal_copy_to_device: \00", align 1
@.str.72 = private unnamed_addr constant [123 x i8] c"/media/maaz/Data/Repos/rake/Halide-master-d48fbde/src/runtime/metal.cpp:704 Assert failed: buffer->host && buffer->device\0A\00", align 1
@.str.73 = private unnamed_addr constant [128 x i8] c"/media/maaz/Data/Repos/rake/Halide-master-d48fbde/src/runtime/metal.cpp:705 Assert failed: buffer->dimensions <= MAX_COPY_DIMS\0A\00", align 1
@.str.74 = private unnamed_addr constant [37 x i8] c"Time for halide_metal_copy_to_host: \00", align 1
@.str.75 = private unnamed_addr constant [43 x i8] c"Metal: Could not allocate command buffer.\0A\00", align 1
@.str.76 = private unnamed_addr constant [52 x i8] c"Metal: Could not allocate compute command encoder.\0A\00", align 1
@.str.77 = private unnamed_addr constant [120 x i8] c"/media/maaz/Data/Repos/rake/Halide-master-d48fbde/src/runtime/metal.cpp:759 Assert failed: found && library != nullptr\0A\00", align 1
@.str.78 = private unnamed_addr constant [31 x i8] c"Metal: Could not get function \00", align 1
@.str.79 = private unnamed_addr constant [21 x i8] c"from Metal library.\0A\00", align 1
@.str.80 = private unnamed_addr constant [43 x i8] c"Metal: Could not allocate pipeline state.\0A\00", align 1
@.str.81 = private unnamed_addr constant [17 x i8] c"Metal: threadsX(\00", align 1
@.str.82 = private unnamed_addr constant [14 x i8] c") * threadsY(\00", align 1
@.str.83 = private unnamed_addr constant [14 x i8] c") * threadsZ(\00", align 1
@.str.84 = private unnamed_addr constant [4 x i8] c") (\00", align 1
@.str.85 = private unnamed_addr constant [14 x i8] c") must be <= \00", align 1
@.str.86 = private unnamed_addr constant [35 x i8] c". (device threadgroup size limit)\0A\00", align 1
@.str.87 = private unnamed_addr constant [133 x i8] c"/media/maaz/Data/Repos/rake/Halide-master-d48fbde/src/runtime/metal.cpp:795 Assert failed: (arg_sizes[i] & (arg_sizes[i] - 1)) == 0\0A\00", align 1
@.str.88 = private unnamed_addr constant [27 x i8] c"Metal - supports setBytes\0A\00", align 1
@.str.89 = private unnamed_addr constant [20 x i8] c"Total args size is \00", align 1
@.str.90 = private unnamed_addr constant [28 x i8] c" and with padding, size is \00", align 1
@.str.91 = private unnamed_addr constant [128 x i8] c"/media/maaz/Data/Repos/rake/Halide-master-d48fbde/src/runtime/metal.cpp:819 Assert failed: padded_args_size >= total_args_size\0A\00", align 1
@.str.92 = private unnamed_addr constant [45 x i8] c"Metal: Could not allocate arguments buffer.\0A\00", align 1
@.str.93 = private unnamed_addr constant [118 x i8] c"/media/maaz/Data/Repos/rake/Halide-master-d48fbde/src/runtime/metal.cpp:840 Assert failed: offset == total_args_size\0A\00", align 1
@.str.94 = private unnamed_addr constant [125 x i8] c"/media/maaz/Data/Repos/rake/Halide-master-d48fbde/src/runtime/metal.cpp:853 Assert failed: arg_sizes[i] == sizeof(uint64_t)\0A\00", align 1
@.str.95 = private unnamed_addr constant [33 x i8] c"Setting shared memory length to \00", align 1
@_ZZ16halide_metal_runE16total_dispatches = internal unnamed_addr global i32 0, align 4, !dbg !330
@.str.96 = private unnamed_addr constant [34 x i8] c"Dispatching threadgroups (number \00", align 1
@.str.97 = private unnamed_addr constant [10 x i8] c") blocks(\00", align 1
@.str.98 = private unnamed_addr constant [3 x i8] c", \00", align 1
@.str.99 = private unnamed_addr constant [11 x i8] c") threads(\00", align 1
@.str.100 = private unnamed_addr constant [35 x i8] c"Time for halide_metal_device_run: \00", align 1
@.str.101 = private unnamed_addr constant [45 x i8] c"halide_metal_device_and_host_malloc called.\0A\00", align 1
@.str.102 = private unnamed_addr constant [36 x i8] c"halide_metal_device_and_host_malloc\00", align 1
@.str.103 = private unnamed_addr constant [11 x i8] c" device = \00", align 1
@.str.104 = private unnamed_addr constant [43 x i8] c"halide_metal_device_and_host_free called.\0A\00", align 1
@.str.105 = private unnamed_addr constant [52 x i8] c"Buffer has too many dimensions to copy to/from GPU\0A\00", align 1
@.str.106 = private unnamed_addr constant [175 x i8] c"/media/maaz/Data/Repos/rake/Halide-master-d48fbde/src/runtime/metal.cpp:922 Assert failed: dst_device_interface == nullptr || dst_device_interface == &metal_device_interface\0A\00", align 1
@.str.107 = private unnamed_addr constant [140 x i8] c"/media/maaz/Data/Repos/rake/Halide-master-d48fbde/src/runtime/metal.cpp:926 Assert failed: dst_device_interface == &metal_device_interface\0A\00", align 1
@.str.109 = private unnamed_addr constant [115 x i8] c"/media/maaz/Data/Repos/rake/Halide-master-d48fbde/src/runtime/metal.cpp:937 Assert failed: to_host || dst->device\0A\00", align 1
@.str.110 = private unnamed_addr constant [41 x i8] c"halide_metal_buffer_copy (user_context: \00", align 1
@.str.111 = private unnamed_addr constant [8 x i8] c", src: \00", align 1
@.str.112 = private unnamed_addr constant [8 x i8] c", dst: \00", align 1
@.str.113 = private unnamed_addr constant [49 x i8] c"halide_metal_buffer_copy device to device case.\0A\00", align 1
@.str.114 = private unnamed_addr constant [25 x i8] c"halide_metal_buffer_copy\00", align 1
@.str.115 = private unnamed_addr constant [102 x i8] c"/media/maaz/Data/Repos/rake/Halide-master-d48fbde/src/runtime/metal.cpp:982 Assert failed: from_host\0A\00", align 1
@.str.116 = private unnamed_addr constant [108 x i8] c"/media/maaz/Data/Repos/rake/Halide-master-d48fbde/src/runtime/metal.cpp:991 Assert failed: total_size != 0\0A\00", align 1
@.str.117 = private unnamed_addr constant [63 x i8] c"halide_metal_device_crop: malloc failed making device handle.\0A\00", align 1
@.str.118 = private unnamed_addr constant [48 x i8] c"halide_metal_device_release_crop called on buf \00", align 1
@.str.119 = private unnamed_addr constant [110 x i8] c"/media/maaz/Data/Repos/rake/Halide-master-d48fbde/src/runtime/metal.cpp:1082 Assert failed: buf->device == 0\0A\00", align 1
@.str.120 = private unnamed_addr constant [63 x i8] c"halide_metal_wrap_buffer: malloc failed making device handle.\0A\00", align 1
@.str.121 = private unnamed_addr constant [142 x i8] c"/media/maaz/Data/Repos/rake/Halide-master-d48fbde/src/runtime/metal.cpp:1104 Assert failed: buf->device_interface == &metal_device_interface\0A\00", align 1
@.str.122 = private unnamed_addr constant [142 x i8] c"/media/maaz/Data/Repos/rake/Halide-master-d48fbde/src/runtime/metal.cpp:1116 Assert failed: buf->device_interface == &metal_device_interface\0A\00", align 1
@.str.123 = private unnamed_addr constant [142 x i8] c"/media/maaz/Data/Repos/rake/Halide-master-d48fbde/src/runtime/metal.cpp:1124 Assert failed: buf->device_interface == &metal_device_interface\0A\00", align 1
@_ZN6Halide7Runtime8Internal5Metal27metal_device_interface_implE = weak dso_local global %struct.halide_device_interface_impl_t { void ()* @halide_use_jit_module, void ()* @halide_release_jit_module, i32 (i8*, %struct.halide_buffer_t*)* @halide_metal_device_malloc, i32 (i8*, %struct.halide_buffer_t*)* @halide_metal_device_free, i32 (i8*, %struct.halide_buffer_t*)* @halide_metal_device_sync, i32 (i8*)* @halide_metal_device_release, i32 (i8*, %struct.halide_buffer_t*)* @halide_metal_copy_to_host, i32 (i8*, %struct.halide_buffer_t*)* @halide_metal_copy_to_device, i32 (i8*, %struct.halide_buffer_t*)* @halide_metal_device_and_host_malloc, i32 (i8*, %struct.halide_buffer_t*)* @halide_metal_device_and_host_free, i32 (i8*, %struct.halide_buffer_t*, %struct.halide_device_interface_t*, %struct.halide_buffer_t*)* @halide_metal_buffer_copy, i32 (i8*, %struct.halide_buffer_t*, %struct.halide_buffer_t*)* @halide_metal_device_crop, i32 (i8*, %struct.halide_buffer_t*, i32, i32, %struct.halide_buffer_t*)* @halide_metal_device_slice, i32 (i8*, %struct.halide_buffer_t*)* @halide_metal_device_release_crop, i32 (i8*, %struct.halide_buffer_t*, i64)* @halide_metal_wrap_buffer, i32 (i8*, %struct.halide_buffer_t*)* @halide_metal_detach_buffer }, align 4, !dbg !919
@.str.124 = private unnamed_addr constant [35 x i8] c"Printer buffer allocation failed.\0A\00", align 1
@.str.125 = private unnamed_addr constant [10 x i8] c"<nullptr>\00", align 1
@.str.126 = private unnamed_addr constant [26 x i8] c"Caching compiled kernel: \00", align 1
@.str.127 = private unnamed_addr constant [5 x i8] c" id \00", align 1
@.str.128 = private unnamed_addr constant [10 x i8] c" context \00", align 1
@.str.129 = private unnamed_addr constant [108 x i8] c"/media/maaz/Data/Repos/rake/Halide-master-d48fbde/src/runtime/gpu_context_common.h:69 Assert failed: false\0A\00", align 1
@.str.130 = private unnamed_addr constant [110 x i8] c"/media/maaz/Data/Repos/rake/Halide-master-d48fbde/src/runtime/gpu_context_common.h:127 Assert failed: result\0A\00", align 1
@.str.131 = private unnamed_addr constant [110 x i8] c"/media/maaz/Data/Repos/rake/Halide-master-d48fbde/src/runtime/gpu_context_common.h:215 Assert failed: result\0A\00", align 1
@.str.132 = private unnamed_addr constant [31 x i8] c"Releasing cached compilation: \00", align 1
@llvm.global_ctors = appending global [1 x { i32, void ()*, i8* }] [{ i32, void ()*, i8* } { i32 65535, void ()* @_GLOBAL__sub_I_metal.cpp, i8* null }]
@llvm.global_dtors = appending global [1 x { i32, void ()*, i8* }] [{ i32, void ()*, i8* } { i32 65535, void ()* @halide_metal_cleanup, i8* null }]

; Function Attrs: nounwind mustprogress
define weak dso_local void @_ZN6Halide7Runtime8Internal18copy_memory_helperERKNS1_11device_copyEixx(%"struct.Halide::Runtime::Internal::device_copy"* nonnull align 8 dereferenceable(416) %0, i32 %1, i64 %2, i64 %3) local_unnamed_addr #0 !dbg !997 {
  call void @llvm.dbg.value(metadata %"struct.Halide::Runtime::Internal::device_copy"* %0, metadata !1016, metadata !DIExpression()), !dbg !1027
  call void @llvm.dbg.value(metadata i32 %1, metadata !1017, metadata !DIExpression()), !dbg !1027
  call void @llvm.dbg.value(metadata i64 %2, metadata !1018, metadata !DIExpression()), !dbg !1027
  call void @llvm.dbg.value(metadata i64 %3, metadata !1019, metadata !DIExpression()), !dbg !1027
  %5 = icmp sgt i32 %1, -1, !dbg !1028
  br i1 %5, label %6, label %14, !dbg !1029

6:                                                ; preds = %4, %11
  %7 = phi i32 [ %12, %11 ], [ %1, %4 ]
  call void @llvm.dbg.value(metadata i32 %7, metadata !1017, metadata !DIExpression()), !dbg !1027
  %8 = getelementptr inbounds %"struct.Halide::Runtime::Internal::device_copy", %"struct.Halide::Runtime::Internal::device_copy"* %0, i32 0, i32 3, i32 %7, !dbg !1030
  %9 = load i64, i64* %8, align 8, !dbg !1030, !tbaa !1031
  %10 = icmp eq i64 %9, 1, !dbg !1035
  br i1 %10, label %11, label %14, !dbg !1036

11:                                               ; preds = %6
  %12 = add nsw i32 %7, -1, !dbg !1037
  call void @llvm.dbg.value(metadata i32 %12, metadata !1017, metadata !DIExpression()), !dbg !1027
  %13 = icmp sgt i32 %7, 0, !dbg !1028
  br i1 %13, label %6, label %25, !dbg !1029, !llvm.loop !1039

14:                                               ; preds = %6, %4
  %15 = phi i32 [ %1, %4 ], [ %7, %6 ]
  %16 = icmp eq i32 %15, -1, !dbg !1042
  br i1 %16, label %25, label %17, !dbg !1043

17:                                               ; preds = %14
  call void @llvm.dbg.value(metadata i64 0, metadata !1024, metadata !DIExpression()), !dbg !1044
  call void @llvm.dbg.value(metadata i64 %2, metadata !1018, metadata !DIExpression()), !dbg !1027
  call void @llvm.dbg.value(metadata i64 %3, metadata !1019, metadata !DIExpression()), !dbg !1027
  %18 = getelementptr inbounds %"struct.Halide::Runtime::Internal::device_copy", %"struct.Halide::Runtime::Internal::device_copy"* %0, i32 0, i32 3, i32 %15, !dbg !1045
  %19 = load i64, i64* %18, align 8, !dbg !1045, !tbaa !1031
  %20 = icmp eq i64 %19, 0, !dbg !1047
  br i1 %20, label %51, label %21, !dbg !1048

21:                                               ; preds = %17
  %22 = add nsw i32 %15, -1
  %23 = getelementptr inbounds %"struct.Halide::Runtime::Internal::device_copy", %"struct.Halide::Runtime::Internal::device_copy"* %0, i32 0, i32 4, i32 %15
  %24 = getelementptr inbounds %"struct.Halide::Runtime::Internal::device_copy", %"struct.Halide::Runtime::Internal::device_copy"* %0, i32 0, i32 5, i32 %15
  br label %40, !dbg !1048

25:                                               ; preds = %11, %14
  %26 = getelementptr inbounds %"struct.Halide::Runtime::Internal::device_copy", %"struct.Halide::Runtime::Internal::device_copy"* %0, i32 0, i32 0, !dbg !1049
  %27 = load i64, i64* %26, align 8, !dbg !1049, !tbaa !1050
  %28 = add i64 %27, %2, !dbg !1052
  %29 = trunc i64 %28 to i32, !dbg !1053
  %30 = inttoptr i32 %29 to i8*, !dbg !1053
  call void @llvm.dbg.value(metadata i8* %30, metadata !1020, metadata !DIExpression()), !dbg !1054
  %31 = getelementptr inbounds %"struct.Halide::Runtime::Internal::device_copy", %"struct.Halide::Runtime::Internal::device_copy"* %0, i32 0, i32 1, !dbg !1055
  %32 = load i64, i64* %31, align 8, !dbg !1055, !tbaa !1056
  %33 = add i64 %32, %3, !dbg !1057
  %34 = trunc i64 %33 to i32, !dbg !1058
  %35 = inttoptr i32 %34 to i8*, !dbg !1058
  call void @llvm.dbg.value(metadata i8* %35, metadata !1023, metadata !DIExpression()), !dbg !1054
  %36 = getelementptr inbounds %"struct.Halide::Runtime::Internal::device_copy", %"struct.Halide::Runtime::Internal::device_copy"* %0, i32 0, i32 6, !dbg !1059
  %37 = load i64, i64* %36, align 8, !dbg !1059, !tbaa !1060
  %38 = trunc i64 %37 to i32, !dbg !1061
  %39 = tail call i8* @memcpy(i8* %35, i8* %30, i32 %38) #8, !dbg !1062
  br label %51, !dbg !1063

40:                                               ; preds = %21, %40
  %41 = phi i64 [ 0, %21 ], [ %48, %40 ]
  %42 = phi i64 [ %2, %21 ], [ %45, %40 ]
  %43 = phi i64 [ %3, %21 ], [ %47, %40 ]
  call void @llvm.dbg.value(metadata i64 %41, metadata !1024, metadata !DIExpression()), !dbg !1044
  call void @llvm.dbg.value(metadata i64 %42, metadata !1018, metadata !DIExpression()), !dbg !1027
  call void @llvm.dbg.value(metadata i64 %43, metadata !1019, metadata !DIExpression()), !dbg !1027
  tail call void @_ZN6Halide7Runtime8Internal18copy_memory_helperERKNS1_11device_copyEixx(%"struct.Halide::Runtime::Internal::device_copy"* nonnull align 8 dereferenceable(416) %0, i32 %22, i64 %42, i64 %43) #9, !dbg !1064
  %44 = load i64, i64* %23, align 8, !dbg !1066, !tbaa !1031
  %45 = add i64 %44, %42, !dbg !1067
  call void @llvm.dbg.value(metadata i64 %45, metadata !1018, metadata !DIExpression()), !dbg !1027
  %46 = load i64, i64* %24, align 8, !dbg !1068, !tbaa !1031
  %47 = add i64 %46, %43, !dbg !1069
  call void @llvm.dbg.value(metadata i64 %47, metadata !1019, metadata !DIExpression()), !dbg !1027
  %48 = add nuw i64 %41, 1, !dbg !1070
  call void @llvm.dbg.value(metadata i64 %48, metadata !1024, metadata !DIExpression()), !dbg !1044
  %49 = load i64, i64* %18, align 8, !dbg !1045, !tbaa !1031
  %50 = icmp ult i64 %48, %49, !dbg !1047
  br i1 %50, label %40, label %51, !dbg !1048, !llvm.loop !1071

51:                                               ; preds = %40, %17, %25
  ret void, !dbg !1073
}

; Function Attrs: nofree nosync nounwind readnone speculatable willreturn
declare void @llvm.dbg.declare(metadata, metadata, metadata) #1

; Function Attrs: argmemonly nofree nosync nounwind willreturn
declare void @llvm.lifetime.start.p0i8(i64 immarg, i8* nocapture) #2

declare !dbg !1074 dso_local i8* @memcpy(i8*, i8*, i32) local_unnamed_addr #3

; Function Attrs: argmemonly nofree nosync nounwind willreturn
declare void @llvm.lifetime.end.p0i8(i64 immarg, i8* nocapture) #2

; Function Attrs: nounwind
define weak dso_local void @_ZN6Halide7Runtime8Internal11copy_memoryERKNS1_11device_copyEPv(%"struct.Halide::Runtime::Internal::device_copy"* nonnull align 8 dereferenceable(416) %0, i8* %1) local_unnamed_addr #4 !dbg !1078 {
  call void @llvm.dbg.value(metadata %"struct.Halide::Runtime::Internal::device_copy"* %0, metadata !1082, metadata !DIExpression()), !dbg !1084
  call void @llvm.dbg.value(metadata i8* %1, metadata !1083, metadata !DIExpression()), !dbg !1084
  %3 = getelementptr inbounds %"struct.Halide::Runtime::Internal::device_copy", %"struct.Halide::Runtime::Internal::device_copy"* %0, i32 0, i32 0, !dbg !1085
  %4 = load i64, i64* %3, align 8, !dbg !1085, !tbaa !1050
  %5 = getelementptr inbounds %"struct.Halide::Runtime::Internal::device_copy", %"struct.Halide::Runtime::Internal::device_copy"* %0, i32 0, i32 1, !dbg !1087
  %6 = load i64, i64* %5, align 8, !dbg !1087, !tbaa !1056
  %7 = icmp eq i64 %4, %6, !dbg !1088
  br i1 %7, label %11, label %8, !dbg !1089

8:                                                ; preds = %2
  %9 = getelementptr inbounds %"struct.Halide::Runtime::Internal::device_copy", %"struct.Halide::Runtime::Internal::device_copy"* %0, i32 0, i32 2, !dbg !1090
  %10 = load i64, i64* %9, align 8, !dbg !1090, !tbaa !1092
  tail call void @_ZN6Halide7Runtime8Internal18copy_memory_helperERKNS1_11device_copyEixx(%"struct.Halide::Runtime::Internal::device_copy"* nonnull align 8 dereferenceable(416) %0, i32 15, i64 %10, i64 0) #9, !dbg !1093
  br label %26, !dbg !1094

11:                                               ; preds = %2
  call void @llvm.dbg.value(metadata %"class.Halide::Runtime::Internal::(anonymous namespace)::Printer"* undef, metadata !1095, metadata !DIExpression()) #10, !dbg !1101
  call void @llvm.dbg.value(metadata i8* %1, metadata !1098, metadata !DIExpression()) #10, !dbg !1101
  call void @llvm.dbg.value(metadata i8* null, metadata !1099, metadata !DIExpression()) #10, !dbg !1101
  %12 = tail call i8* @malloc(i32 1024) #8, !dbg !1104
  %13 = icmp eq i8* %12, null, !dbg !1109
  br i1 %13, label %14, label %16, !dbg !1111

14:                                               ; preds = %11
  call void @llvm.dbg.value(metadata %"class.Halide::Runtime::Internal::(anonymous namespace)::Printer"* undef, metadata !1112, metadata !DIExpression()) #10, !dbg !1116
  call void @llvm.dbg.value(metadata i8* getelementptr inbounds ([55 x i8], [55 x i8]* @.str, i32 0, i32 0), metadata !1115, metadata !DIExpression()) #10, !dbg !1116
  %15 = tail call i8* @halide_string_to_string(i8* %12, i8* null, i8* nonnull getelementptr inbounds ([55 x i8], [55 x i8]* @.str, i32 0, i32 0)) #8, !dbg !1118
  call void @llvm.dbg.value(metadata %"class.Halide::Runtime::Internal::(anonymous namespace)::Printer"* undef, metadata !1121, metadata !DIExpression()) #10, !dbg !1124
  tail call void @halide_error(i8* %1, i8* getelementptr inbounds ([35 x i8], [35 x i8]* @.str.124, i32 0, i32 0)) #8, !dbg !1126
  br label %25, !dbg !1130

16:                                               ; preds = %11
  %17 = getelementptr inbounds i8, i8* %12, i32 1023, !dbg !1131
  store i8 0, i8* %17, align 1, !dbg !1133, !tbaa !1134
  call void @llvm.dbg.value(metadata %"class.Halide::Runtime::Internal::(anonymous namespace)::Printer"* undef, metadata !1112, metadata !DIExpression()) #10, !dbg !1116
  call void @llvm.dbg.value(metadata i8* getelementptr inbounds ([55 x i8], [55 x i8]* @.str, i32 0, i32 0), metadata !1115, metadata !DIExpression()) #10, !dbg !1116
  %18 = tail call i8* @halide_string_to_string(i8* nonnull %12, i8* nonnull %17, i8* nonnull getelementptr inbounds ([55 x i8], [55 x i8]* @.str, i32 0, i32 0)) #8, !dbg !1118
  call void @llvm.dbg.value(metadata %"class.Halide::Runtime::Internal::(anonymous namespace)::Printer"* undef, metadata !1121, metadata !DIExpression()) #10, !dbg !1124
  call void @llvm.dbg.value(metadata %"class.Halide::Runtime::Internal::(anonymous namespace)::Printer"* undef, metadata !1135, metadata !DIExpression()) #10, !dbg !1138
  %19 = ptrtoint i8* %18 to i32, !dbg !1141
  %20 = ptrtoint i8* %12 to i32, !dbg !1141
  %21 = add i32 %19, 1, !dbg !1141
  %22 = sub i32 %21, %20, !dbg !1142
  %23 = sext i32 %22 to i64, !dbg !1143
  %24 = tail call i32 @halide_msan_annotate_memory_is_initialized(i8* %1, i8* nonnull %12, i64 %23) #8, !dbg !1144
  tail call void @halide_print(i8* %1, i8* nonnull %12) #8, !dbg !1145
  br label %25

25:                                               ; preds = %16, %14
  tail call void @free(i8* %12) #8, !dbg !1149
  br label %26

26:                                               ; preds = %25, %8
  ret void, !dbg !1152
}

; Function Attrs: nounwind mustprogress
define weak dso_local void @_ZN6Halide7Runtime8Internal16make_buffer_copyEPK15halide_buffer_tbS4_b(%"struct.Halide::Runtime::Internal::device_copy"* noalias sret(%"struct.Halide::Runtime::Internal::device_copy") align 8 %0, %struct.halide_buffer_t* %1, i1 zeroext %2, %struct.halide_buffer_t* %3, i1 zeroext %4) local_unnamed_addr #0 !dbg !1153 {
  %6 = alloca %"struct.Halide::Runtime::Internal::device_copy", align 8
  call void @llvm.dbg.value(metadata %struct.halide_buffer_t* %1, metadata !1158, metadata !DIExpression()), !dbg !1185
  call void @llvm.dbg.value(metadata i1 %2, metadata !1159, metadata !DIExpression(DW_OP_LLVM_convert, 1, DW_ATE_unsigned, DW_OP_LLVM_convert, 8, DW_ATE_unsigned, DW_OP_stack_value)), !dbg !1185
  call void @llvm.dbg.value(metadata %struct.halide_buffer_t* %3, metadata !1160, metadata !DIExpression()), !dbg !1185
  call void @llvm.dbg.value(metadata i1 %4, metadata !1161, metadata !DIExpression(DW_OP_LLVM_convert, 1, DW_ATE_unsigned, DW_OP_LLVM_convert, 8, DW_ATE_unsigned, DW_OP_stack_value)), !dbg !1185
  %7 = bitcast %"struct.Halide::Runtime::Internal::device_copy"* %6 to i8*, !dbg !1186
  call void @llvm.lifetime.start.p0i8(i64 416, i8* nonnull %7) #10, !dbg !1186
  call void @llvm.dbg.declare(metadata %"struct.Halide::Runtime::Internal::device_copy"* %6, metadata !1162, metadata !DIExpression()), !dbg !1187
  br i1 %2, label %8, label %13, !dbg !1188

8:                                                ; preds = %5
  %9 = getelementptr inbounds %struct.halide_buffer_t, %struct.halide_buffer_t* %1, i32 0, i32 2, !dbg !1189
  %10 = load i8*, i8** %9, align 4, !dbg !1189, !tbaa !1190
  %11 = ptrtoint i8* %10 to i32, !dbg !1197
  %12 = zext i32 %11 to i64, !dbg !1197
  br label %16, !dbg !1188

13:                                               ; preds = %5
  %14 = getelementptr inbounds %struct.halide_buffer_t, %struct.halide_buffer_t* %1, i32 0, i32 0, !dbg !1198
  %15 = load i64, i64* %14, align 8, !dbg !1198, !tbaa !1199
  br label %16, !dbg !1188

16:                                               ; preds = %13, %8
  %17 = phi i64 [ %12, %8 ], [ %15, %13 ], !dbg !1188
  %18 = getelementptr inbounds %"struct.Halide::Runtime::Internal::device_copy", %"struct.Halide::Runtime::Internal::device_copy"* %6, i32 0, i32 0, !dbg !1200
  store i64 %17, i64* %18, align 8, !dbg !1201, !tbaa !1050
  br i1 %4, label %19, label %24, !dbg !1202

19:                                               ; preds = %16
  %20 = getelementptr inbounds %struct.halide_buffer_t, %struct.halide_buffer_t* %3, i32 0, i32 2, !dbg !1203
  %21 = load i8*, i8** %20, align 4, !dbg !1203, !tbaa !1190
  %22 = ptrtoint i8* %21 to i32, !dbg !1204
  %23 = zext i32 %22 to i64, !dbg !1204
  br label %27, !dbg !1202

24:                                               ; preds = %16
  %25 = getelementptr inbounds %struct.halide_buffer_t, %struct.halide_buffer_t* %3, i32 0, i32 0, !dbg !1205
  %26 = load i64, i64* %25, align 8, !dbg !1205, !tbaa !1199
  br label %27, !dbg !1202

27:                                               ; preds = %24, %19
  %28 = phi i64 [ %23, %19 ], [ %26, %24 ], !dbg !1202
  %29 = getelementptr inbounds %"struct.Halide::Runtime::Internal::device_copy", %"struct.Halide::Runtime::Internal::device_copy"* %6, i32 0, i32 1, !dbg !1206
  store i64 %28, i64* %29, align 8, !dbg !1207, !tbaa !1056
  call void @llvm.dbg.value(metadata %struct.halide_buffer_t* %1, metadata !1208, metadata !DIExpression(DW_OP_plus_uconst, 24, DW_OP_stack_value)), !dbg !1212
  %30 = getelementptr inbounds %struct.halide_buffer_t, %struct.halide_buffer_t* %1, i32 0, i32 4, i32 1, !dbg !1214
  %31 = load i8, i8* %30, align 1, !dbg !1214, !tbaa !1215
  %32 = zext i8 %31 to i32, !dbg !1214
  %33 = add nuw nsw i32 %32, 7, !dbg !1216
  %34 = lshr i32 %33, 3, !dbg !1217
  %35 = zext i32 %34 to i64, !dbg !1218
  %36 = getelementptr inbounds %"struct.Halide::Runtime::Internal::device_copy", %"struct.Halide::Runtime::Internal::device_copy"* %6, i32 0, i32 6, !dbg !1219
  store i64 %35, i64* %36, align 8, !dbg !1220, !tbaa !1060
  call void @llvm.dbg.value(metadata i32 0, metadata !1163, metadata !DIExpression()), !dbg !1221
  call void @llvm.dbg.value(metadata i32 0, metadata !1163, metadata !DIExpression()), !dbg !1221
  %37 = getelementptr inbounds %"struct.Halide::Runtime::Internal::device_copy", %"struct.Halide::Runtime::Internal::device_copy"* %6, i32 0, i32 3, i32 0, !dbg !1222
  store i64 1, i64* %37, align 8, !dbg !1225, !tbaa !1031
  %38 = getelementptr inbounds %"struct.Halide::Runtime::Internal::device_copy", %"struct.Halide::Runtime::Internal::device_copy"* %6, i32 0, i32 4, i32 0, !dbg !1226
  store i64 0, i64* %38, align 8, !dbg !1227, !tbaa !1031
  %39 = getelementptr inbounds %"struct.Halide::Runtime::Internal::device_copy", %"struct.Halide::Runtime::Internal::device_copy"* %6, i32 0, i32 5, i32 0, !dbg !1228
  store i64 0, i64* %39, align 8, !dbg !1229, !tbaa !1031
  call void @llvm.dbg.value(metadata i32 1, metadata !1163, metadata !DIExpression()), !dbg !1221
  call void @llvm.dbg.value(metadata i32 1, metadata !1163, metadata !DIExpression()), !dbg !1221
  %40 = getelementptr inbounds %"struct.Halide::Runtime::Internal::device_copy", %"struct.Halide::Runtime::Internal::device_copy"* %6, i32 0, i32 3, i32 1, !dbg !1222
  store i64 1, i64* %40, align 8, !dbg !1225, !tbaa !1031
  %41 = getelementptr inbounds %"struct.Halide::Runtime::Internal::device_copy", %"struct.Halide::Runtime::Internal::device_copy"* %6, i32 0, i32 4, i32 1, !dbg !1226
  store i64 0, i64* %41, align 8, !dbg !1227, !tbaa !1031
  %42 = getelementptr inbounds %"struct.Halide::Runtime::Internal::device_copy", %"struct.Halide::Runtime::Internal::device_copy"* %6, i32 0, i32 5, i32 1, !dbg !1228
  store i64 0, i64* %42, align 8, !dbg !1229, !tbaa !1031
  call void @llvm.dbg.value(metadata i32 2, metadata !1163, metadata !DIExpression()), !dbg !1221
  call void @llvm.dbg.value(metadata i32 2, metadata !1163, metadata !DIExpression()), !dbg !1221
  %43 = getelementptr inbounds %"struct.Halide::Runtime::Internal::device_copy", %"struct.Halide::Runtime::Internal::device_copy"* %6, i32 0, i32 3, i32 2, !dbg !1222
  store i64 1, i64* %43, align 8, !dbg !1225, !tbaa !1031
  %44 = getelementptr inbounds %"struct.Halide::Runtime::Internal::device_copy", %"struct.Halide::Runtime::Internal::device_copy"* %6, i32 0, i32 4, i32 2, !dbg !1226
  store i64 0, i64* %44, align 8, !dbg !1227, !tbaa !1031
  %45 = getelementptr inbounds %"struct.Halide::Runtime::Internal::device_copy", %"struct.Halide::Runtime::Internal::device_copy"* %6, i32 0, i32 5, i32 2, !dbg !1228
  store i64 0, i64* %45, align 8, !dbg !1229, !tbaa !1031
  call void @llvm.dbg.value(metadata i32 3, metadata !1163, metadata !DIExpression()), !dbg !1221
  call void @llvm.dbg.value(metadata i32 3, metadata !1163, metadata !DIExpression()), !dbg !1221
  %46 = getelementptr inbounds %"struct.Halide::Runtime::Internal::device_copy", %"struct.Halide::Runtime::Internal::device_copy"* %6, i32 0, i32 3, i32 3, !dbg !1222
  store i64 1, i64* %46, align 8, !dbg !1225, !tbaa !1031
  %47 = getelementptr inbounds %"struct.Halide::Runtime::Internal::device_copy", %"struct.Halide::Runtime::Internal::device_copy"* %6, i32 0, i32 4, i32 3, !dbg !1226
  store i64 0, i64* %47, align 8, !dbg !1227, !tbaa !1031
  %48 = getelementptr inbounds %"struct.Halide::Runtime::Internal::device_copy", %"struct.Halide::Runtime::Internal::device_copy"* %6, i32 0, i32 5, i32 3, !dbg !1228
  store i64 0, i64* %48, align 8, !dbg !1229, !tbaa !1031
  call void @llvm.dbg.value(metadata i32 4, metadata !1163, metadata !DIExpression()), !dbg !1221
  call void @llvm.dbg.value(metadata i32 4, metadata !1163, metadata !DIExpression()), !dbg !1221
  %49 = getelementptr inbounds %"struct.Halide::Runtime::Internal::device_copy", %"struct.Halide::Runtime::Internal::device_copy"* %6, i32 0, i32 3, i32 4, !dbg !1222
  store i64 1, i64* %49, align 8, !dbg !1225, !tbaa !1031
  %50 = getelementptr inbounds %"struct.Halide::Runtime::Internal::device_copy", %"struct.Halide::Runtime::Internal::device_copy"* %6, i32 0, i32 4, i32 4, !dbg !1226
  store i64 0, i64* %50, align 8, !dbg !1227, !tbaa !1031
  %51 = getelementptr inbounds %"struct.Halide::Runtime::Internal::device_copy", %"struct.Halide::Runtime::Internal::device_copy"* %6, i32 0, i32 5, i32 4, !dbg !1228
  store i64 0, i64* %51, align 8, !dbg !1229, !tbaa !1031
  call void @llvm.dbg.value(metadata i32 5, metadata !1163, metadata !DIExpression()), !dbg !1221
  call void @llvm.dbg.value(metadata i32 5, metadata !1163, metadata !DIExpression()), !dbg !1221
  %52 = getelementptr inbounds %"struct.Halide::Runtime::Internal::device_copy", %"struct.Halide::Runtime::Internal::device_copy"* %6, i32 0, i32 3, i32 5, !dbg !1222
  store i64 1, i64* %52, align 8, !dbg !1225, !tbaa !1031
  %53 = getelementptr inbounds %"struct.Halide::Runtime::Internal::device_copy", %"struct.Halide::Runtime::Internal::device_copy"* %6, i32 0, i32 4, i32 5, !dbg !1226
  store i64 0, i64* %53, align 8, !dbg !1227, !tbaa !1031
  %54 = getelementptr inbounds %"struct.Halide::Runtime::Internal::device_copy", %"struct.Halide::Runtime::Internal::device_copy"* %6, i32 0, i32 5, i32 5, !dbg !1228
  store i64 0, i64* %54, align 8, !dbg !1229, !tbaa !1031
  call void @llvm.dbg.value(metadata i32 6, metadata !1163, metadata !DIExpression()), !dbg !1221
  call void @llvm.dbg.value(metadata i32 6, metadata !1163, metadata !DIExpression()), !dbg !1221
  %55 = getelementptr inbounds %"struct.Halide::Runtime::Internal::device_copy", %"struct.Halide::Runtime::Internal::device_copy"* %6, i32 0, i32 3, i32 6, !dbg !1222
  store i64 1, i64* %55, align 8, !dbg !1225, !tbaa !1031
  %56 = getelementptr inbounds %"struct.Halide::Runtime::Internal::device_copy", %"struct.Halide::Runtime::Internal::device_copy"* %6, i32 0, i32 4, i32 6, !dbg !1226
  store i64 0, i64* %56, align 8, !dbg !1227, !tbaa !1031
  %57 = getelementptr inbounds %"struct.Halide::Runtime::Internal::device_copy", %"struct.Halide::Runtime::Internal::device_copy"* %6, i32 0, i32 5, i32 6, !dbg !1228
  store i64 0, i64* %57, align 8, !dbg !1229, !tbaa !1031
  call void @llvm.dbg.value(metadata i32 7, metadata !1163, metadata !DIExpression()), !dbg !1221
  call void @llvm.dbg.value(metadata i32 7, metadata !1163, metadata !DIExpression()), !dbg !1221
  %58 = getelementptr inbounds %"struct.Halide::Runtime::Internal::device_copy", %"struct.Halide::Runtime::Internal::device_copy"* %6, i32 0, i32 3, i32 7, !dbg !1222
  store i64 1, i64* %58, align 8, !dbg !1225, !tbaa !1031
  %59 = getelementptr inbounds %"struct.Halide::Runtime::Internal::device_copy", %"struct.Halide::Runtime::Internal::device_copy"* %6, i32 0, i32 4, i32 7, !dbg !1226
  store i64 0, i64* %59, align 8, !dbg !1227, !tbaa !1031
  %60 = getelementptr inbounds %"struct.Halide::Runtime::Internal::device_copy", %"struct.Halide::Runtime::Internal::device_copy"* %6, i32 0, i32 5, i32 7, !dbg !1228
  store i64 0, i64* %60, align 8, !dbg !1229, !tbaa !1031
  call void @llvm.dbg.value(metadata i32 8, metadata !1163, metadata !DIExpression()), !dbg !1221
  call void @llvm.dbg.value(metadata i32 8, metadata !1163, metadata !DIExpression()), !dbg !1221
  %61 = getelementptr inbounds %"struct.Halide::Runtime::Internal::device_copy", %"struct.Halide::Runtime::Internal::device_copy"* %6, i32 0, i32 3, i32 8, !dbg !1222
  store i64 1, i64* %61, align 8, !dbg !1225, !tbaa !1031
  %62 = getelementptr inbounds %"struct.Halide::Runtime::Internal::device_copy", %"struct.Halide::Runtime::Internal::device_copy"* %6, i32 0, i32 4, i32 8, !dbg !1226
  store i64 0, i64* %62, align 8, !dbg !1227, !tbaa !1031
  %63 = getelementptr inbounds %"struct.Halide::Runtime::Internal::device_copy", %"struct.Halide::Runtime::Internal::device_copy"* %6, i32 0, i32 5, i32 8, !dbg !1228
  store i64 0, i64* %63, align 8, !dbg !1229, !tbaa !1031
  call void @llvm.dbg.value(metadata i32 9, metadata !1163, metadata !DIExpression()), !dbg !1221
  call void @llvm.dbg.value(metadata i32 9, metadata !1163, metadata !DIExpression()), !dbg !1221
  %64 = getelementptr inbounds %"struct.Halide::Runtime::Internal::device_copy", %"struct.Halide::Runtime::Internal::device_copy"* %6, i32 0, i32 3, i32 9, !dbg !1222
  store i64 1, i64* %64, align 8, !dbg !1225, !tbaa !1031
  %65 = getelementptr inbounds %"struct.Halide::Runtime::Internal::device_copy", %"struct.Halide::Runtime::Internal::device_copy"* %6, i32 0, i32 4, i32 9, !dbg !1226
  store i64 0, i64* %65, align 8, !dbg !1227, !tbaa !1031
  %66 = getelementptr inbounds %"struct.Halide::Runtime::Internal::device_copy", %"struct.Halide::Runtime::Internal::device_copy"* %6, i32 0, i32 5, i32 9, !dbg !1228
  store i64 0, i64* %66, align 8, !dbg !1229, !tbaa !1031
  call void @llvm.dbg.value(metadata i32 10, metadata !1163, metadata !DIExpression()), !dbg !1221
  call void @llvm.dbg.value(metadata i32 10, metadata !1163, metadata !DIExpression()), !dbg !1221
  %67 = getelementptr inbounds %"struct.Halide::Runtime::Internal::device_copy", %"struct.Halide::Runtime::Internal::device_copy"* %6, i32 0, i32 3, i32 10, !dbg !1222
  store i64 1, i64* %67, align 8, !dbg !1225, !tbaa !1031
  %68 = getelementptr inbounds %"struct.Halide::Runtime::Internal::device_copy", %"struct.Halide::Runtime::Internal::device_copy"* %6, i32 0, i32 4, i32 10, !dbg !1226
  store i64 0, i64* %68, align 8, !dbg !1227, !tbaa !1031
  %69 = getelementptr inbounds %"struct.Halide::Runtime::Internal::device_copy", %"struct.Halide::Runtime::Internal::device_copy"* %6, i32 0, i32 5, i32 10, !dbg !1228
  store i64 0, i64* %69, align 8, !dbg !1229, !tbaa !1031
  call void @llvm.dbg.value(metadata i32 11, metadata !1163, metadata !DIExpression()), !dbg !1221
  call void @llvm.dbg.value(metadata i32 11, metadata !1163, metadata !DIExpression()), !dbg !1221
  %70 = getelementptr inbounds %"struct.Halide::Runtime::Internal::device_copy", %"struct.Halide::Runtime::Internal::device_copy"* %6, i32 0, i32 3, i32 11, !dbg !1222
  store i64 1, i64* %70, align 8, !dbg !1225, !tbaa !1031
  %71 = getelementptr inbounds %"struct.Halide::Runtime::Internal::device_copy", %"struct.Halide::Runtime::Internal::device_copy"* %6, i32 0, i32 4, i32 11, !dbg !1226
  store i64 0, i64* %71, align 8, !dbg !1227, !tbaa !1031
  %72 = getelementptr inbounds %"struct.Halide::Runtime::Internal::device_copy", %"struct.Halide::Runtime::Internal::device_copy"* %6, i32 0, i32 5, i32 11, !dbg !1228
  store i64 0, i64* %72, align 8, !dbg !1229, !tbaa !1031
  call void @llvm.dbg.value(metadata i32 12, metadata !1163, metadata !DIExpression()), !dbg !1221
  call void @llvm.dbg.value(metadata i32 12, metadata !1163, metadata !DIExpression()), !dbg !1221
  %73 = getelementptr inbounds %"struct.Halide::Runtime::Internal::device_copy", %"struct.Halide::Runtime::Internal::device_copy"* %6, i32 0, i32 3, i32 12, !dbg !1222
  store i64 1, i64* %73, align 8, !dbg !1225, !tbaa !1031
  %74 = getelementptr inbounds %"struct.Halide::Runtime::Internal::device_copy", %"struct.Halide::Runtime::Internal::device_copy"* %6, i32 0, i32 4, i32 12, !dbg !1226
  store i64 0, i64* %74, align 8, !dbg !1227, !tbaa !1031
  %75 = getelementptr inbounds %"struct.Halide::Runtime::Internal::device_copy", %"struct.Halide::Runtime::Internal::device_copy"* %6, i32 0, i32 5, i32 12, !dbg !1228
  store i64 0, i64* %75, align 8, !dbg !1229, !tbaa !1031
  call void @llvm.dbg.value(metadata i32 13, metadata !1163, metadata !DIExpression()), !dbg !1221
  call void @llvm.dbg.value(metadata i32 13, metadata !1163, metadata !DIExpression()), !dbg !1221
  %76 = getelementptr inbounds %"struct.Halide::Runtime::Internal::device_copy", %"struct.Halide::Runtime::Internal::device_copy"* %6, i32 0, i32 3, i32 13, !dbg !1222
  store i64 1, i64* %76, align 8, !dbg !1225, !tbaa !1031
  %77 = getelementptr inbounds %"struct.Halide::Runtime::Internal::device_copy", %"struct.Halide::Runtime::Internal::device_copy"* %6, i32 0, i32 4, i32 13, !dbg !1226
  store i64 0, i64* %77, align 8, !dbg !1227, !tbaa !1031
  %78 = getelementptr inbounds %"struct.Halide::Runtime::Internal::device_copy", %"struct.Halide::Runtime::Internal::device_copy"* %6, i32 0, i32 5, i32 13, !dbg !1228
  store i64 0, i64* %78, align 8, !dbg !1229, !tbaa !1031
  call void @llvm.dbg.value(metadata i32 14, metadata !1163, metadata !DIExpression()), !dbg !1221
  call void @llvm.dbg.value(metadata i32 14, metadata !1163, metadata !DIExpression()), !dbg !1221
  %79 = getelementptr inbounds %"struct.Halide::Runtime::Internal::device_copy", %"struct.Halide::Runtime::Internal::device_copy"* %6, i32 0, i32 3, i32 14, !dbg !1222
  store i64 1, i64* %79, align 8, !dbg !1225, !tbaa !1031
  %80 = getelementptr inbounds %"struct.Halide::Runtime::Internal::device_copy", %"struct.Halide::Runtime::Internal::device_copy"* %6, i32 0, i32 4, i32 14, !dbg !1226
  store i64 0, i64* %80, align 8, !dbg !1227, !tbaa !1031
  %81 = getelementptr inbounds %"struct.Halide::Runtime::Internal::device_copy", %"struct.Halide::Runtime::Internal::device_copy"* %6, i32 0, i32 5, i32 14, !dbg !1228
  store i64 0, i64* %81, align 8, !dbg !1229, !tbaa !1031
  call void @llvm.dbg.value(metadata i32 15, metadata !1163, metadata !DIExpression()), !dbg !1221
  call void @llvm.dbg.value(metadata i32 15, metadata !1163, metadata !DIExpression()), !dbg !1221
  %82 = getelementptr inbounds %"struct.Halide::Runtime::Internal::device_copy", %"struct.Halide::Runtime::Internal::device_copy"* %6, i32 0, i32 3, i32 15, !dbg !1222
  store i64 1, i64* %82, align 8, !dbg !1225, !tbaa !1031
  %83 = getelementptr inbounds %"struct.Halide::Runtime::Internal::device_copy", %"struct.Halide::Runtime::Internal::device_copy"* %6, i32 0, i32 4, i32 15, !dbg !1226
  store i64 0, i64* %83, align 8, !dbg !1227, !tbaa !1031
  %84 = getelementptr inbounds %"struct.Halide::Runtime::Internal::device_copy", %"struct.Halide::Runtime::Internal::device_copy"* %6, i32 0, i32 5, i32 15, !dbg !1228
  store i64 0, i64* %84, align 8, !dbg !1229, !tbaa !1031
  call void @llvm.dbg.value(metadata i32 16, metadata !1163, metadata !DIExpression()), !dbg !1221
  %85 = getelementptr inbounds %"struct.Halide::Runtime::Internal::device_copy", %"struct.Halide::Runtime::Internal::device_copy"* %6, i32 0, i32 2, !dbg !1230
  call void @llvm.dbg.value(metadata i32 0, metadata !1165, metadata !DIExpression()), !dbg !1231
  %86 = getelementptr inbounds %struct.halide_buffer_t, %struct.halide_buffer_t* %1, i32 0, i32 5, !dbg !1232
  %87 = load i32, i32* %86, align 4, !dbg !1232, !tbaa !1234
  %88 = icmp sgt i32 %87, 0, !dbg !1235
  br i1 %88, label %89, label %94, !dbg !1236

89:                                               ; preds = %27
  %90 = getelementptr inbounds %struct.halide_buffer_t, %struct.halide_buffer_t* %1, i32 0, i32 6
  %91 = load %struct.halide_dimension_t*, %struct.halide_dimension_t** %90, align 8, !tbaa !1237
  %92 = getelementptr inbounds %struct.halide_buffer_t, %struct.halide_buffer_t* %3, i32 0, i32 6
  %93 = load %struct.halide_dimension_t*, %struct.halide_dimension_t** %92, align 8, !tbaa !1237
  br label %101, !dbg !1236

94:                                               ; preds = %101, %27
  %95 = phi i64 [ 0, %27 ], [ %114, %101 ], !dbg !1238
  %96 = load i64, i64* %36, align 8, !dbg !1239, !tbaa !1060
  %97 = mul i64 %95, %96, !dbg !1238
  store i64 %97, i64* %85, align 8, !dbg !1238, !tbaa !1092
  %98 = getelementptr inbounds %struct.halide_buffer_t, %struct.halide_buffer_t* %3, i32 0, i32 5, !dbg !1240
  %99 = load i32, i32* %98, align 4, !dbg !1240, !tbaa !1234
  %100 = icmp eq i32 %87, %99, !dbg !1241
  br i1 %100, label %117, label %126, !dbg !1242

101:                                              ; preds = %89, %101
  %102 = phi i64 [ 0, %89 ], [ %114, %101 ], !dbg !1231
  %103 = phi i32 [ 0, %89 ], [ %115, %101 ]
  call void @llvm.dbg.value(metadata i32 %103, metadata !1165, metadata !DIExpression()), !dbg !1231
  %104 = getelementptr inbounds %struct.halide_dimension_t, %struct.halide_dimension_t* %91, i32 %103, i32 2, !dbg !1243
  %105 = load i32, i32* %104, align 4, !dbg !1243, !tbaa !1245
  %106 = sext i32 %105 to i64, !dbg !1247
  %107 = getelementptr inbounds %struct.halide_dimension_t, %struct.halide_dimension_t* %93, i32 %103, i32 0, !dbg !1248
  %108 = load i32, i32* %107, align 4, !dbg !1248, !tbaa !1249
  %109 = getelementptr inbounds %struct.halide_dimension_t, %struct.halide_dimension_t* %91, i32 %103, i32 0, !dbg !1250
  %110 = load i32, i32* %109, align 4, !dbg !1250, !tbaa !1249
  %111 = sub nsw i32 %108, %110, !dbg !1251
  %112 = sext i32 %111 to i64, !dbg !1252
  %113 = mul nsw i64 %112, %106, !dbg !1253
  %114 = add i64 %113, %102, !dbg !1254
  %115 = add nuw nsw i32 %103, 1, !dbg !1255
  call void @llvm.dbg.value(metadata i32 %115, metadata !1165, metadata !DIExpression()), !dbg !1231
  %116 = icmp slt i32 %115, %87, !dbg !1235
  br i1 %116, label %101, label %94, !dbg !1236, !llvm.loop !1256

117:                                              ; preds = %94
  call void @llvm.dbg.value(metadata %struct.halide_buffer_t* %1, metadata !1208, metadata !DIExpression(DW_OP_plus_uconst, 24, DW_OP_stack_value)), !dbg !1258
  call void @llvm.dbg.value(metadata %struct.halide_buffer_t* %3, metadata !1208, metadata !DIExpression(DW_OP_plus_uconst, 24, DW_OP_stack_value)), !dbg !1260
  %118 = getelementptr inbounds %struct.halide_buffer_t, %struct.halide_buffer_t* %3, i32 0, i32 4, i32 1, !dbg !1262
  %119 = load i8, i8* %118, align 1, !dbg !1262, !tbaa !1215
  %120 = zext i8 %119 to i32, !dbg !1262
  %121 = add nuw nsw i32 %120, 7, !dbg !1263
  %122 = lshr i32 %121, 3, !dbg !1264
  %123 = icmp ne i32 %34, %122, !dbg !1265
  %124 = icmp sgt i32 %87, 16
  %125 = or i1 %124, %123, !dbg !1266
  br i1 %125, label %126, label %128, !dbg !1266

126:                                              ; preds = %117, %94
  call void @llvm.dbg.declare(metadata %"struct.Halide::Runtime::Internal::device_copy"* %0, metadata !1167, metadata !DIExpression()), !dbg !1267
  %127 = bitcast %"struct.Halide::Runtime::Internal::device_copy"* %0 to i8*, !dbg !1267
  tail call void @llvm.memset.p0i8.i32(i8* nonnull align 8 dereferenceable(416) %127, i8 0, i32 416, i1 false), !dbg !1267
  br label %245, !dbg !1268

128:                                              ; preds = %117
  %129 = icmp eq i64 %96, 0, !dbg !1269
  br i1 %129, label %136, label %130, !dbg !1270

130:                                              ; preds = %128
  call void @llvm.dbg.value(metadata i32 0, metadata !1173, metadata !DIExpression()), !dbg !1271
  br i1 %88, label %131, label %243, !dbg !1272

131:                                              ; preds = %130
  %132 = getelementptr inbounds %struct.halide_buffer_t, %struct.halide_buffer_t* %3, i32 0, i32 6
  %133 = load %struct.halide_dimension_t*, %struct.halide_dimension_t** %132, align 8, !tbaa !1237
  %134 = getelementptr inbounds %struct.halide_buffer_t, %struct.halide_buffer_t* %1, i32 0, i32 6
  %135 = load %struct.halide_dimension_t*, %struct.halide_dimension_t** %134, align 8, !tbaa !1237
  br label %144, !dbg !1272

136:                                              ; preds = %128
  call void @llvm.dbg.declare(metadata %"struct.Halide::Runtime::Internal::device_copy"* %0, metadata !1170, metadata !DIExpression()), !dbg !1273
  %137 = bitcast %"struct.Halide::Runtime::Internal::device_copy"* %0 to i8*, !dbg !1273
  tail call void @llvm.memset.p0i8.i32(i8* nonnull align 8 dereferenceable(416) %137, i8 0, i32 416, i1 false), !dbg !1273
  br label %245, !dbg !1274

138:                                              ; preds = %168
  %139 = load i64, i64* %36, align 8, !dbg !1275, !tbaa !1060
  %140 = load i64, i64* %38, align 8, !dbg !1276, !tbaa !1031
  %141 = icmp eq i64 %139, %140, !dbg !1277
  br i1 %141, label %142, label %243, !dbg !1278

142:                                              ; preds = %138
  %143 = load i64, i64* %39, align 8, !dbg !1279, !tbaa !1031
  br label %190, !dbg !1278

144:                                              ; preds = %131, %168
  %145 = phi i32 [ 0, %131 ], [ %175, %168 ]
  call void @llvm.dbg.value(metadata i32 %145, metadata !1173, metadata !DIExpression()), !dbg !1271
  %146 = getelementptr inbounds %struct.halide_dimension_t, %struct.halide_dimension_t* %133, i32 %145, i32 2, !dbg !1280
  %147 = load i32, i32* %146, align 4, !dbg !1280, !tbaa !1245
  %148 = sext i32 %147 to i64, !dbg !1281
  call void @llvm.dbg.value(metadata %struct.halide_buffer_t* %3, metadata !1208, metadata !DIExpression(DW_OP_plus_uconst, 24, DW_OP_stack_value)), !dbg !1282
  %149 = mul nsw i64 %148, %35, !dbg !1284
  call void @llvm.dbg.value(metadata i64 %149, metadata !1175, metadata !DIExpression()), !dbg !1285
  %150 = getelementptr inbounds %struct.halide_dimension_t, %struct.halide_dimension_t* %135, i32 %145, i32 2, !dbg !1286
  %151 = load i32, i32* %150, align 4, !dbg !1286, !tbaa !1245
  %152 = sext i32 %151 to i64, !dbg !1287
  call void @llvm.dbg.value(metadata %struct.halide_buffer_t* %1, metadata !1208, metadata !DIExpression(DW_OP_plus_uconst, 24, DW_OP_stack_value)), !dbg !1288
  %153 = mul nsw i64 %152, %35, !dbg !1290
  call void @llvm.dbg.value(metadata i64 %153, metadata !1178, metadata !DIExpression()), !dbg !1285
  call void @llvm.dbg.value(metadata i32 0, metadata !1179, metadata !DIExpression()), !dbg !1285
  %154 = icmp eq i32 %145, 0, !dbg !1291
  br i1 %154, label %165, label %155, !dbg !1294

155:                                              ; preds = %144
  %156 = icmp eq i64 %149, 0
  br i1 %156, label %165, label %157, !dbg !1294

157:                                              ; preds = %155, %162
  %158 = phi i32 [ %163, %162 ], [ 0, %155 ]
  call void @llvm.dbg.value(metadata i32 %158, metadata !1179, metadata !DIExpression()), !dbg !1285
  %159 = getelementptr inbounds %"struct.Halide::Runtime::Internal::device_copy", %"struct.Halide::Runtime::Internal::device_copy"* %6, i32 0, i32 5, i32 %158, !dbg !1295
  %160 = load i64, i64* %159, align 8, !dbg !1295, !tbaa !1031
  %161 = icmp ult i64 %149, %160, !dbg !1298
  br i1 %161, label %165, label %162, !dbg !1299

162:                                              ; preds = %157
  %163 = add nuw nsw i32 %158, 1, !dbg !1300
  call void @llvm.dbg.value(metadata i32 %163, metadata !1179, metadata !DIExpression()), !dbg !1285
  %164 = icmp ult i32 %163, %145, !dbg !1291
  br i1 %164, label %157, label %165, !dbg !1294, !llvm.loop !1301

165:                                              ; preds = %162, %157, %155, %144
  %166 = phi i32 [ 0, %144 ], [ %145, %155 ], [ %158, %157 ], [ %145, %162 ], !dbg !1303
  call void @llvm.dbg.value(metadata i32 %145, metadata !1180, metadata !DIExpression()), !dbg !1304
  %167 = icmp ugt i32 %145, %166, !dbg !1305
  br i1 %167, label %177, label %168, !dbg !1307

168:                                              ; preds = %177, %165
  %169 = getelementptr inbounds %struct.halide_dimension_t, %struct.halide_dimension_t* %133, i32 %145, i32 1, !dbg !1308
  %170 = load i32, i32* %169, align 4, !dbg !1308, !tbaa !1309
  %171 = sext i32 %170 to i64, !dbg !1310
  %172 = getelementptr inbounds %"struct.Halide::Runtime::Internal::device_copy", %"struct.Halide::Runtime::Internal::device_copy"* %6, i32 0, i32 3, i32 %166, !dbg !1311
  store i64 %171, i64* %172, align 8, !dbg !1312, !tbaa !1031
  %173 = getelementptr inbounds %"struct.Halide::Runtime::Internal::device_copy", %"struct.Halide::Runtime::Internal::device_copy"* %6, i32 0, i32 5, i32 %166, !dbg !1313
  store i64 %149, i64* %173, align 8, !dbg !1314, !tbaa !1031
  %174 = getelementptr inbounds %"struct.Halide::Runtime::Internal::device_copy", %"struct.Halide::Runtime::Internal::device_copy"* %6, i32 0, i32 4, i32 %166, !dbg !1315
  store i64 %153, i64* %174, align 8, !dbg !1316, !tbaa !1031
  %175 = add nuw nsw i32 %145, 1, !dbg !1317
  call void @llvm.dbg.value(metadata i32 %175, metadata !1173, metadata !DIExpression()), !dbg !1271
  %176 = icmp slt i32 %175, %87, !dbg !1318
  br i1 %176, label %144, label %138, !dbg !1272, !llvm.loop !1319

177:                                              ; preds = %165, %177
  %178 = phi i32 [ %179, %177 ], [ %145, %165 ]
  call void @llvm.dbg.value(metadata i32 %178, metadata !1180, metadata !DIExpression()), !dbg !1304
  %179 = add nsw i32 %178, -1, !dbg !1321
  %180 = getelementptr inbounds %"struct.Halide::Runtime::Internal::device_copy", %"struct.Halide::Runtime::Internal::device_copy"* %6, i32 0, i32 3, i32 %179, !dbg !1323
  %181 = load i64, i64* %180, align 8, !dbg !1323, !tbaa !1031
  %182 = getelementptr inbounds %"struct.Halide::Runtime::Internal::device_copy", %"struct.Halide::Runtime::Internal::device_copy"* %6, i32 0, i32 3, i32 %178, !dbg !1324
  store i64 %181, i64* %182, align 8, !dbg !1325, !tbaa !1031
  %183 = getelementptr inbounds %"struct.Halide::Runtime::Internal::device_copy", %"struct.Halide::Runtime::Internal::device_copy"* %6, i32 0, i32 5, i32 %179, !dbg !1326
  %184 = load i64, i64* %183, align 8, !dbg !1326, !tbaa !1031
  %185 = getelementptr inbounds %"struct.Halide::Runtime::Internal::device_copy", %"struct.Halide::Runtime::Internal::device_copy"* %6, i32 0, i32 5, i32 %178, !dbg !1327
  store i64 %184, i64* %185, align 8, !dbg !1328, !tbaa !1031
  %186 = getelementptr inbounds %"struct.Halide::Runtime::Internal::device_copy", %"struct.Halide::Runtime::Internal::device_copy"* %6, i32 0, i32 4, i32 %179, !dbg !1329
  %187 = load i64, i64* %186, align 8, !dbg !1329, !tbaa !1031
  %188 = getelementptr inbounds %"struct.Halide::Runtime::Internal::device_copy", %"struct.Halide::Runtime::Internal::device_copy"* %6, i32 0, i32 4, i32 %178, !dbg !1330
  store i64 %187, i64* %188, align 8, !dbg !1331, !tbaa !1031
  call void @llvm.dbg.value(metadata i32 %179, metadata !1180, metadata !DIExpression()), !dbg !1304
  %189 = icmp sgt i32 %179, %166, !dbg !1305
  br i1 %189, label %177, label %168, !dbg !1307, !llvm.loop !1332

190:                                              ; preds = %142, %194
  %191 = phi i64 [ %143, %142 ], [ %199, %194 ], !dbg !1279
  %192 = phi i64 [ %140, %142 ], [ %196, %194 ]
  %193 = icmp eq i64 %192, %191, !dbg !1334
  br i1 %193, label %194, label %243, !dbg !1335

194:                                              ; preds = %190
  %195 = load i64, i64* %37, align 8, !dbg !1336, !tbaa !1031
  %196 = mul i64 %195, %191, !dbg !1337
  store i64 %196, i64* %36, align 8, !dbg !1337, !tbaa !1060
  call void @llvm.dbg.value(metadata i32 1, metadata !1182, metadata !DIExpression()), !dbg !1338
  %197 = load i64, i64* %40, align 8, !dbg !1339, !tbaa !1031
  store i64 %197, i64* %37, align 8, !dbg !1342, !tbaa !1031
  %198 = load i64, i64* %41, align 8, !dbg !1343, !tbaa !1031
  store i64 %198, i64* %38, align 8, !dbg !1344, !tbaa !1031
  %199 = load i64, i64* %42, align 8, !dbg !1345, !tbaa !1031
  store i64 %199, i64* %39, align 8, !dbg !1346, !tbaa !1031
  call void @llvm.dbg.value(metadata i32 2, metadata !1182, metadata !DIExpression()), !dbg !1338
  %200 = load i64, i64* %43, align 8, !dbg !1339, !tbaa !1031
  store i64 %200, i64* %40, align 8, !dbg !1342, !tbaa !1031
  %201 = load i64, i64* %44, align 8, !dbg !1343, !tbaa !1031
  store i64 %201, i64* %41, align 8, !dbg !1344, !tbaa !1031
  %202 = load i64, i64* %45, align 8, !dbg !1345, !tbaa !1031
  store i64 %202, i64* %42, align 8, !dbg !1346, !tbaa !1031
  call void @llvm.dbg.value(metadata i32 3, metadata !1182, metadata !DIExpression()), !dbg !1338
  %203 = load i64, i64* %46, align 8, !dbg !1339, !tbaa !1031
  store i64 %203, i64* %43, align 8, !dbg !1342, !tbaa !1031
  %204 = load i64, i64* %47, align 8, !dbg !1343, !tbaa !1031
  store i64 %204, i64* %44, align 8, !dbg !1344, !tbaa !1031
  %205 = load i64, i64* %48, align 8, !dbg !1345, !tbaa !1031
  store i64 %205, i64* %45, align 8, !dbg !1346, !tbaa !1031
  call void @llvm.dbg.value(metadata i32 4, metadata !1182, metadata !DIExpression()), !dbg !1338
  %206 = load i64, i64* %49, align 8, !dbg !1339, !tbaa !1031
  store i64 %206, i64* %46, align 8, !dbg !1342, !tbaa !1031
  %207 = load i64, i64* %50, align 8, !dbg !1343, !tbaa !1031
  store i64 %207, i64* %47, align 8, !dbg !1344, !tbaa !1031
  %208 = load i64, i64* %51, align 8, !dbg !1345, !tbaa !1031
  store i64 %208, i64* %48, align 8, !dbg !1346, !tbaa !1031
  call void @llvm.dbg.value(metadata i32 5, metadata !1182, metadata !DIExpression()), !dbg !1338
  %209 = load i64, i64* %52, align 8, !dbg !1339, !tbaa !1031
  store i64 %209, i64* %49, align 8, !dbg !1342, !tbaa !1031
  %210 = load i64, i64* %53, align 8, !dbg !1343, !tbaa !1031
  store i64 %210, i64* %50, align 8, !dbg !1344, !tbaa !1031
  %211 = load i64, i64* %54, align 8, !dbg !1345, !tbaa !1031
  store i64 %211, i64* %51, align 8, !dbg !1346, !tbaa !1031
  call void @llvm.dbg.value(metadata i32 6, metadata !1182, metadata !DIExpression()), !dbg !1338
  %212 = load i64, i64* %55, align 8, !dbg !1339, !tbaa !1031
  store i64 %212, i64* %52, align 8, !dbg !1342, !tbaa !1031
  %213 = load i64, i64* %56, align 8, !dbg !1343, !tbaa !1031
  store i64 %213, i64* %53, align 8, !dbg !1344, !tbaa !1031
  %214 = load i64, i64* %57, align 8, !dbg !1345, !tbaa !1031
  store i64 %214, i64* %54, align 8, !dbg !1346, !tbaa !1031
  call void @llvm.dbg.value(metadata i32 7, metadata !1182, metadata !DIExpression()), !dbg !1338
  %215 = load i64, i64* %58, align 8, !dbg !1339, !tbaa !1031
  store i64 %215, i64* %55, align 8, !dbg !1342, !tbaa !1031
  %216 = load i64, i64* %59, align 8, !dbg !1343, !tbaa !1031
  store i64 %216, i64* %56, align 8, !dbg !1344, !tbaa !1031
  %217 = load i64, i64* %60, align 8, !dbg !1345, !tbaa !1031
  store i64 %217, i64* %57, align 8, !dbg !1346, !tbaa !1031
  call void @llvm.dbg.value(metadata i32 8, metadata !1182, metadata !DIExpression()), !dbg !1338
  %218 = load i64, i64* %61, align 8, !dbg !1339, !tbaa !1031
  store i64 %218, i64* %58, align 8, !dbg !1342, !tbaa !1031
  %219 = load i64, i64* %62, align 8, !dbg !1343, !tbaa !1031
  store i64 %219, i64* %59, align 8, !dbg !1344, !tbaa !1031
  %220 = load i64, i64* %63, align 8, !dbg !1345, !tbaa !1031
  store i64 %220, i64* %60, align 8, !dbg !1346, !tbaa !1031
  call void @llvm.dbg.value(metadata i32 9, metadata !1182, metadata !DIExpression()), !dbg !1338
  %221 = load i64, i64* %64, align 8, !dbg !1339, !tbaa !1031
  store i64 %221, i64* %61, align 8, !dbg !1342, !tbaa !1031
  %222 = load i64, i64* %65, align 8, !dbg !1343, !tbaa !1031
  store i64 %222, i64* %62, align 8, !dbg !1344, !tbaa !1031
  %223 = load i64, i64* %66, align 8, !dbg !1345, !tbaa !1031
  store i64 %223, i64* %63, align 8, !dbg !1346, !tbaa !1031
  call void @llvm.dbg.value(metadata i32 10, metadata !1182, metadata !DIExpression()), !dbg !1338
  %224 = load i64, i64* %67, align 8, !dbg !1339, !tbaa !1031
  store i64 %224, i64* %64, align 8, !dbg !1342, !tbaa !1031
  %225 = load i64, i64* %68, align 8, !dbg !1343, !tbaa !1031
  store i64 %225, i64* %65, align 8, !dbg !1344, !tbaa !1031
  %226 = load i64, i64* %69, align 8, !dbg !1345, !tbaa !1031
  store i64 %226, i64* %66, align 8, !dbg !1346, !tbaa !1031
  call void @llvm.dbg.value(metadata i32 11, metadata !1182, metadata !DIExpression()), !dbg !1338
  %227 = load i64, i64* %70, align 8, !dbg !1339, !tbaa !1031
  store i64 %227, i64* %67, align 8, !dbg !1342, !tbaa !1031
  %228 = load i64, i64* %71, align 8, !dbg !1343, !tbaa !1031
  store i64 %228, i64* %68, align 8, !dbg !1344, !tbaa !1031
  %229 = load i64, i64* %72, align 8, !dbg !1345, !tbaa !1031
  store i64 %229, i64* %69, align 8, !dbg !1346, !tbaa !1031
  call void @llvm.dbg.value(metadata i32 12, metadata !1182, metadata !DIExpression()), !dbg !1338
  %230 = load i64, i64* %73, align 8, !dbg !1339, !tbaa !1031
  store i64 %230, i64* %70, align 8, !dbg !1342, !tbaa !1031
  %231 = load i64, i64* %74, align 8, !dbg !1343, !tbaa !1031
  store i64 %231, i64* %71, align 8, !dbg !1344, !tbaa !1031
  %232 = load i64, i64* %75, align 8, !dbg !1345, !tbaa !1031
  store i64 %232, i64* %72, align 8, !dbg !1346, !tbaa !1031
  call void @llvm.dbg.value(metadata i32 13, metadata !1182, metadata !DIExpression()), !dbg !1338
  %233 = load i64, i64* %76, align 8, !dbg !1339, !tbaa !1031
  store i64 %233, i64* %73, align 8, !dbg !1342, !tbaa !1031
  %234 = load i64, i64* %77, align 8, !dbg !1343, !tbaa !1031
  store i64 %234, i64* %74, align 8, !dbg !1344, !tbaa !1031
  %235 = load i64, i64* %78, align 8, !dbg !1345, !tbaa !1031
  store i64 %235, i64* %75, align 8, !dbg !1346, !tbaa !1031
  call void @llvm.dbg.value(metadata i32 14, metadata !1182, metadata !DIExpression()), !dbg !1338
  %236 = load i64, i64* %79, align 8, !dbg !1339, !tbaa !1031
  store i64 %236, i64* %76, align 8, !dbg !1342, !tbaa !1031
  %237 = load i64, i64* %80, align 8, !dbg !1343, !tbaa !1031
  store i64 %237, i64* %77, align 8, !dbg !1344, !tbaa !1031
  %238 = load i64, i64* %81, align 8, !dbg !1345, !tbaa !1031
  store i64 %238, i64* %78, align 8, !dbg !1346, !tbaa !1031
  call void @llvm.dbg.value(metadata i32 15, metadata !1182, metadata !DIExpression()), !dbg !1338
  %239 = load i64, i64* %82, align 8, !dbg !1339, !tbaa !1031
  store i64 %239, i64* %79, align 8, !dbg !1342, !tbaa !1031
  %240 = load i64, i64* %83, align 8, !dbg !1343, !tbaa !1031
  store i64 %240, i64* %80, align 8, !dbg !1344, !tbaa !1031
  %241 = load i64, i64* %84, align 8, !dbg !1345, !tbaa !1031
  store i64 %241, i64* %81, align 8, !dbg !1346, !tbaa !1031
  call void @llvm.dbg.value(metadata i32 16, metadata !1182, metadata !DIExpression()), !dbg !1338
  store i64 1, i64* %82, align 8, !dbg !1347, !tbaa !1031
  store i64 0, i64* %83, align 8, !dbg !1348, !tbaa !1031
  store i64 0, i64* %84, align 8, !dbg !1349, !tbaa !1031
  %242 = icmp eq i64 %196, %198, !dbg !1277
  br i1 %242, label %190, label %243, !dbg !1278, !llvm.loop !1350

243:                                              ; preds = %190, %194, %130, %138
  %244 = bitcast %"struct.Halide::Runtime::Internal::device_copy"* %0 to i8*, !dbg !1352
  call void @llvm.memcpy.p0i8.p0i8.i32(i8* nonnull align 8 dereferenceable(416) %244, i8* nonnull align 8 dereferenceable(416) %7, i32 416, i1 false), !dbg !1352, !tbaa.struct !1353
  br label %245, !dbg !1354

245:                                              ; preds = %243, %136, %126
  call void @llvm.lifetime.end.p0i8(i64 416, i8* nonnull %7) #10, !dbg !1355
  ret void, !dbg !1355
}

; Function Attrs: argmemonly nofree nosync nounwind willreturn writeonly
declare void @llvm.memset.p0i8.i32(i8* nocapture writeonly, i8, i32, i1 immarg) #5

; Function Attrs: argmemonly nofree nosync nounwind willreturn
declare void @llvm.memcpy.p0i8.p0i8.i32(i8* noalias nocapture writeonly, i8* noalias nocapture readonly, i32, i1 immarg) #2

; Function Attrs: nounwind mustprogress
define weak dso_local void @_ZN6Halide7Runtime8Internal24make_host_to_device_copyEPK15halide_buffer_t(%"struct.Halide::Runtime::Internal::device_copy"* noalias sret(%"struct.Halide::Runtime::Internal::device_copy") align 8 %0, %struct.halide_buffer_t* %1) local_unnamed_addr #0 !dbg !1356 {
  call void @llvm.dbg.value(metadata %struct.halide_buffer_t* %1, metadata !1360, metadata !DIExpression()), !dbg !1361
  tail call void @_ZN6Halide7Runtime8Internal16make_buffer_copyEPK15halide_buffer_tbS4_b(%"struct.Halide::Runtime::Internal::device_copy"* sret(%"struct.Halide::Runtime::Internal::device_copy") align 8 %0, %struct.halide_buffer_t* %1, i1 zeroext true, %struct.halide_buffer_t* %1, i1 zeroext false) #9, !dbg !1362
  ret void, !dbg !1363
}

; Function Attrs: nounwind mustprogress
define weak dso_local void @_ZN6Halide7Runtime8Internal24make_device_to_host_copyEPK15halide_buffer_t(%"struct.Halide::Runtime::Internal::device_copy"* noalias sret(%"struct.Halide::Runtime::Internal::device_copy") align 8 %0, %struct.halide_buffer_t* %1) local_unnamed_addr #0 !dbg !1364 {
  call void @llvm.dbg.value(metadata %struct.halide_buffer_t* %1, metadata !1366, metadata !DIExpression()), !dbg !1367
  tail call void @_ZN6Halide7Runtime8Internal16make_buffer_copyEPK15halide_buffer_tbS4_b(%"struct.Halide::Runtime::Internal::device_copy"* sret(%"struct.Halide::Runtime::Internal::device_copy") align 8 %0, %struct.halide_buffer_t* %1, i1 zeroext false, %struct.halide_buffer_t* %1, i1 zeroext true) #9, !dbg !1368
  ret void, !dbg !1369
}

; Function Attrs: nounwind mustprogress
define weak dso_local i8* @_ZN6Halide7Runtime8Internal23create_autorelease_poolEv() local_unnamed_addr #0 !dbg !477 {
  call void @llvm.dbg.value(metadata i8* (i8*, i8*)* bitcast (void ()* @objc_msgSend to i8* (i8*, i8*)*), metadata !482, metadata !DIExpression()), !dbg !1370
  %1 = tail call i8* @objc_getClass(i8* getelementptr inbounds ([18 x i8], [18 x i8]* @.str.1, i32 0, i32 0)) #8, !dbg !1371
  %2 = tail call i8* @sel_getUid(i8* getelementptr inbounds ([6 x i8], [6 x i8]* @.str.2, i32 0, i32 0)) #8, !dbg !1372
  %3 = tail call i8* bitcast (void ()* @objc_msgSend to i8* (i8*, i8*)*)(i8* %1, i8* %2) #8, !dbg !1373
  call void @llvm.dbg.value(metadata i8* %3, metadata !483, metadata !DIExpression()), !dbg !1370
  %4 = tail call i8* @sel_getUid(i8* getelementptr inbounds ([5 x i8], [5 x i8]* @.str.3, i32 0, i32 0)) #8, !dbg !1374
  %5 = tail call i8* bitcast (void ()* @objc_msgSend to i8* (i8*, i8*)*)(i8* %3, i8* %4) #8, !dbg !1375
  call void @llvm.dbg.value(metadata i8* %5, metadata !483, metadata !DIExpression()), !dbg !1370
  ret i8* %5, !dbg !1376
}

declare dso_local void @objc_msgSend() local_unnamed_addr #3

declare !dbg !1377 dso_local i8* @objc_getClass(i8*) local_unnamed_addr #3

declare !dbg !1380 dso_local i8* @sel_getUid(i8*) local_unnamed_addr #3

; Function Attrs: nounwind mustprogress
define weak dso_local void @_ZN6Halide7Runtime8Internal22drain_autorelease_poolEPv(i8* %0) local_unnamed_addr #0 !dbg !489 {
  call void @llvm.dbg.value(metadata i8* %0, metadata !493, metadata !DIExpression()), !dbg !1381
  call void @llvm.dbg.value(metadata i8* (i8*, i8*)* bitcast (void ()* @objc_msgSend to i8* (i8*, i8*)*), metadata !494, metadata !DIExpression()), !dbg !1381
  %2 = tail call i8* @sel_getUid(i8* getelementptr inbounds ([6 x i8], [6 x i8]* @.str.4, i32 0, i32 0)) #8, !dbg !1382
  %3 = tail call i8* bitcast (void ()* @objc_msgSend to i8* (i8*, i8*)*)(i8* %0, i8* %2) #8, !dbg !1383
  ret void, !dbg !1384
}

; Function Attrs: nounwind mustprogress
define weak dso_local void @_ZN6Halide7Runtime8Internal16retain_ns_objectEPv(i8* %0) local_unnamed_addr #0 !dbg !496 {
  call void @llvm.dbg.value(metadata i8* %0, metadata !498, metadata !DIExpression()), !dbg !1385
  call void @llvm.dbg.value(metadata i8* (i8*, i8*)* bitcast (void ()* @objc_msgSend to i8* (i8*, i8*)*), metadata !499, metadata !DIExpression()), !dbg !1385
  %2 = tail call i8* @sel_getUid(i8* getelementptr inbounds ([7 x i8], [7 x i8]* @.str.5, i32 0, i32 0)) #8, !dbg !1386
  %3 = tail call i8* bitcast (void ()* @objc_msgSend to i8* (i8*, i8*)*)(i8* %0, i8* %2) #8, !dbg !1387
  ret void, !dbg !1388
}

; Function Attrs: nounwind mustprogress
define weak dso_local void @_ZN6Halide7Runtime8Internal17release_ns_objectEPv(i8* %0) #0 !dbg !501 {
  call void @llvm.dbg.value(metadata i8* %0, metadata !503, metadata !DIExpression()), !dbg !1389
  call void @llvm.dbg.value(metadata i8* (i8*, i8*)* bitcast (void ()* @objc_msgSend to i8* (i8*, i8*)*), metadata !504, metadata !DIExpression()), !dbg !1389
  %2 = tail call i8* @sel_getUid(i8* getelementptr inbounds ([8 x i8], [8 x i8]* @.str.6, i32 0, i32 0)) #8, !dbg !1390
  %3 = tail call i8* bitcast (void ()* @objc_msgSend to i8* (i8*, i8*)*)(i8* %0, i8* %2) #8, !dbg !1391
  ret void, !dbg !1392
}

; Function Attrs: nounwind mustprogress
define weak dso_local i8* @_ZN6Halide7Runtime8Internal24wrap_string_as_ns_stringEPKcj(i8* %0, i32 %1) local_unnamed_addr #0 !dbg !506 {
  call void @llvm.dbg.value(metadata i8* %0, metadata !510, metadata !DIExpression()), !dbg !1393
  call void @llvm.dbg.value(metadata i32 %1, metadata !511, metadata !DIExpression()), !dbg !1393
  call void @llvm.dbg.value(metadata i8* (i8*, i8*)* bitcast (void ()* @objc_msgSend to i8* (i8*, i8*)*), metadata !512, metadata !DIExpression()), !dbg !1393
  %3 = tail call i8* @objc_getClass(i8* getelementptr inbounds ([9 x i8], [9 x i8]* @.str.7, i32 0, i32 0)) #8, !dbg !1394
  %4 = tail call i8* @sel_getUid(i8* getelementptr inbounds ([6 x i8], [6 x i8]* @.str.2, i32 0, i32 0)) #8, !dbg !1395
  %5 = tail call i8* bitcast (void ()* @objc_msgSend to i8* (i8*, i8*)*)(i8* %3, i8* %4) #8, !dbg !1396
  call void @llvm.dbg.value(metadata i8* %5, metadata !513, metadata !DIExpression()), !dbg !1393
  call void @llvm.dbg.value(metadata i8* (i8*, i8*, i8*, i32, i32, i8)* bitcast (void ()* @objc_msgSend to i8* (i8*, i8*, i8*, i32, i32, i8)*), metadata !514, metadata !DIExpression()), !dbg !1393
  %6 = tail call i8* @sel_getUid(i8* getelementptr inbounds ([50 x i8], [50 x i8]* @.str.8, i32 0, i32 0)) #8, !dbg !1397
  %7 = tail call i8* bitcast (void ()* @objc_msgSend to i8* (i8*, i8*, i8*, i32, i32, i8)*)(i8* %5, i8* %6, i8* %0, i32 %1, i32 4, i8 zeroext 0) #8, !dbg !1398
  ret i8* %7, !dbg !1399
}

; Function Attrs: nounwind mustprogress
define weak dso_local void @_ZN6Halide7Runtime8Internal18ns_log_utf8_stringEPKc(i8* %0) local_unnamed_addr #0 !dbg !1400 {
  call void @llvm.dbg.value(metadata i8* %0, metadata !1404, metadata !DIExpression()), !dbg !1407
  %2 = tail call i8* @_ZN6Halide7Runtime8Internal24wrap_string_as_ns_stringEPKcj(i8* getelementptr inbounds ([3 x i8], [3 x i8]* @.str.9, i32 0, i32 0), i32 2) #9, !dbg !1408
  call void @llvm.dbg.value(metadata i8* %2, metadata !1405, metadata !DIExpression()), !dbg !1407
  %3 = tail call i32 @strlen(i8* %0) #8, !dbg !1409
  %4 = tail call i8* @_ZN6Halide7Runtime8Internal24wrap_string_as_ns_stringEPKcj(i8* %0, i32 %3) #9, !dbg !1410
  call void @llvm.dbg.value(metadata i8* %4, metadata !1406, metadata !DIExpression()), !dbg !1407
  tail call void (i8*, ...) @NSLog(i8* %2, i8* %4) #8, !dbg !1411
  tail call void @_ZN6Halide7Runtime8Internal17release_ns_objectEPv(i8* %4) #9, !dbg !1412
  tail call void @_ZN6Halide7Runtime8Internal17release_ns_objectEPv(i8* %2) #9, !dbg !1413
  ret void, !dbg !1414
}

declare !dbg !1415 dso_local i32 @strlen(i8*) local_unnamed_addr #3

declare !dbg !1418 dso_local void @NSLog(i8*, ...) local_unnamed_addr #3

; Function Attrs: nounwind mustprogress
define weak dso_local void @_ZN6Halide7Runtime8Internal13ns_log_objectEPv(i8* %0) local_unnamed_addr #0 !dbg !1421 {
  call void @llvm.dbg.value(metadata i8* %0, metadata !1423, metadata !DIExpression()), !dbg !1425
  %2 = tail call i8* @_ZN6Halide7Runtime8Internal24wrap_string_as_ns_stringEPKcj(i8* getelementptr inbounds ([3 x i8], [3 x i8]* @.str.9, i32 0, i32 0), i32 2) #9, !dbg !1426
  call void @llvm.dbg.value(metadata i8* %2, metadata !1424, metadata !DIExpression()), !dbg !1425
  tail call void (i8*, ...) @NSLog(i8* %2, i8* %0) #8, !dbg !1427
  tail call void @_ZN6Halide7Runtime8Internal17release_ns_objectEPv(i8* %2) #9, !dbg !1428
  ret void, !dbg !1429
}

; Function Attrs: nounwind mustprogress
define weak dso_local %"struct.Halide::Runtime::Internal::Metal::mtl_buffer"* @_ZN6Halide7Runtime8Internal5Metal10new_bufferEP19halide_metal_devicej(%struct.halide_metal_device* %0, i32 %1) local_unnamed_addr #0 !dbg !520 {
  call void @llvm.dbg.value(metadata %struct.halide_metal_device* %0, metadata !526, metadata !DIExpression()), !dbg !1430
  call void @llvm.dbg.value(metadata i32 %1, metadata !527, metadata !DIExpression()), !dbg !1430
  call void @llvm.dbg.value(metadata %"struct.Halide::Runtime::Internal::Metal::mtl_buffer"* (i8*, i8*, i32, i32)* bitcast (void ()* @objc_msgSend to %"struct.Halide::Runtime::Internal::Metal::mtl_buffer"* (i8*, i8*, i32, i32)*), metadata !528, metadata !DIExpression()), !dbg !1430
  %3 = bitcast %struct.halide_metal_device* %0 to i8*, !dbg !1431
  %4 = tail call i8* @sel_getUid(i8* getelementptr inbounds ([29 x i8], [29 x i8]* @.str.10, i32 0, i32 0)) #8, !dbg !1432
  %5 = tail call %"struct.Halide::Runtime::Internal::Metal::mtl_buffer"* bitcast (void ()* @objc_msgSend to %"struct.Halide::Runtime::Internal::Metal::mtl_buffer"* (i8*, i8*, i32, i32)*)(i8* %3, i8* %4, i32 %1, i32 0) #8, !dbg !1433
  ret %"struct.Halide::Runtime::Internal::Metal::mtl_buffer"* %5, !dbg !1434
}

; Function Attrs: nounwind mustprogress
define weak dso_local %struct.halide_metal_command_queue* @_ZN6Halide7Runtime8Internal5Metal17new_command_queueEP19halide_metal_device(%struct.halide_metal_device* %0) local_unnamed_addr #0 !dbg !533 {
  call void @llvm.dbg.value(metadata %struct.halide_metal_device* %0, metadata !537, metadata !DIExpression()), !dbg !1435
  call void @llvm.dbg.value(metadata %struct.halide_metal_command_queue* (i8*, i8*)* bitcast (void ()* @objc_msgSend to %struct.halide_metal_command_queue* (i8*, i8*)*), metadata !538, metadata !DIExpression()), !dbg !1435
  %2 = bitcast %struct.halide_metal_device* %0 to i8*, !dbg !1436
  %3 = tail call i8* @sel_getUid(i8* getelementptr inbounds ([16 x i8], [16 x i8]* @.str.11, i32 0, i32 0)) #8, !dbg !1437
  %4 = tail call %struct.halide_metal_command_queue* bitcast (void ()* @objc_msgSend to %struct.halide_metal_command_queue* (i8*, i8*)*)(i8* %2, i8* %3) #8, !dbg !1438
  ret %struct.halide_metal_command_queue* %4, !dbg !1439
}

; Function Attrs: nounwind mustprogress
define weak dso_local %"struct.Halide::Runtime::Internal::Metal::mtl_command_buffer"* @_ZN6Halide7Runtime8Internal5Metal18new_command_bufferEP26halide_metal_command_queuePKcj(%struct.halide_metal_command_queue* %0, i8* %1, i32 %2) local_unnamed_addr #0 !dbg !543 {
  call void @llvm.dbg.value(metadata %struct.halide_metal_command_queue* %0, metadata !547, metadata !DIExpression()), !dbg !1440
  call void @llvm.dbg.value(metadata i8* %1, metadata !548, metadata !DIExpression()), !dbg !1440
  call void @llvm.dbg.value(metadata i32 %2, metadata !549, metadata !DIExpression()), !dbg !1440
  %4 = tail call i8* @_ZN6Halide7Runtime8Internal24wrap_string_as_ns_stringEPKcj(i8* %1, i32 %2) #9, !dbg !1441
  call void @llvm.dbg.value(metadata i8* %4, metadata !550, metadata !DIExpression()), !dbg !1440
  call void @llvm.dbg.value(metadata %"struct.Halide::Runtime::Internal::Metal::mtl_command_buffer"* (i8*, i8*)* bitcast (void ()* @objc_msgSend to %"struct.Halide::Runtime::Internal::Metal::mtl_command_buffer"* (i8*, i8*)*), metadata !551, metadata !DIExpression()), !dbg !1440
  %5 = bitcast %struct.halide_metal_command_queue* %0 to i8*, !dbg !1442
  %6 = tail call i8* @sel_getUid(i8* getelementptr inbounds ([14 x i8], [14 x i8]* @.str.12, i32 0, i32 0)) #8, !dbg !1443
  %7 = tail call %"struct.Halide::Runtime::Internal::Metal::mtl_command_buffer"* bitcast (void ()* @objc_msgSend to %"struct.Halide::Runtime::Internal::Metal::mtl_command_buffer"* (i8*, i8*)*)(i8* %5, i8* %6) #8, !dbg !1444
  call void @llvm.dbg.value(metadata %"struct.Halide::Runtime::Internal::Metal::mtl_command_buffer"* %7, metadata !552, metadata !DIExpression()), !dbg !1440
  call void @llvm.dbg.value(metadata void (i8*, i8*, i8*)* bitcast (void ()* @objc_msgSend to void (i8*, i8*, i8*)*), metadata !553, metadata !DIExpression()), !dbg !1440
  %8 = bitcast %"struct.Halide::Runtime::Internal::Metal::mtl_command_buffer"* %7 to i8*, !dbg !1445
  %9 = tail call i8* @sel_getUid(i8* getelementptr inbounds ([10 x i8], [10 x i8]* @.str.13, i32 0, i32 0)) #8, !dbg !1446
  tail call void bitcast (void ()* @objc_msgSend to void (i8*, i8*, i8*)*)(i8* %8, i8* %9, i8* %4) #8, !dbg !1447
  tail call void @_ZN6Halide7Runtime8Internal17release_ns_objectEPv(i8* %4) #9, !dbg !1448
  ret %"struct.Halide::Runtime::Internal::Metal::mtl_command_buffer"* %7, !dbg !1449
}

; Function Attrs: nounwind mustprogress
define weak dso_local void @_ZN6Halide7Runtime8Internal5Metal36add_command_buffer_completed_handlerEPNS2_18mtl_command_bufferEPNS2_46command_buffer_completed_handler_block_literalE(%"struct.Halide::Runtime::Internal::Metal::mtl_command_buffer"* %0, %"struct.Halide::Runtime::Internal::Metal::command_buffer_completed_handler_block_literal"* %1) local_unnamed_addr #0 !dbg !562 {
  call void @llvm.dbg.value(metadata %"struct.Halide::Runtime::Internal::Metal::mtl_command_buffer"* %0, metadata !566, metadata !DIExpression()), !dbg !1450
  call void @llvm.dbg.value(metadata %"struct.Halide::Runtime::Internal::Metal::command_buffer_completed_handler_block_literal"* %1, metadata !567, metadata !DIExpression()), !dbg !1450
  call void @llvm.dbg.value(metadata void (i8*, i8*, %"struct.Halide::Runtime::Internal::Metal::command_buffer_completed_handler_block_literal"*)* bitcast (void ()* @objc_msgSend to void (i8*, i8*, %"struct.Halide::Runtime::Internal::Metal::command_buffer_completed_handler_block_literal"*)*), metadata !568, metadata !DIExpression()), !dbg !1450
  %3 = bitcast %"struct.Halide::Runtime::Internal::Metal::mtl_command_buffer"* %0 to i8*, !dbg !1451
  %4 = tail call i8* @sel_getUid(i8* getelementptr inbounds ([21 x i8], [21 x i8]* @.str.14, i32 0, i32 0)) #8, !dbg !1452
  tail call void bitcast (void ()* @objc_msgSend to void (i8*, i8*, %"struct.Halide::Runtime::Internal::Metal::command_buffer_completed_handler_block_literal"*)*)(i8* %3, i8* %4, %"struct.Halide::Runtime::Internal::Metal::command_buffer_completed_handler_block_literal"* %1) #8, !dbg !1453
  ret void, !dbg !1454
}

; Function Attrs: nounwind mustprogress
define weak dso_local i8* @_ZN6Halide7Runtime8Internal5Metal20command_buffer_errorEPNS2_18mtl_command_bufferE(%"struct.Halide::Runtime::Internal::Metal::mtl_command_buffer"* %0) local_unnamed_addr #0 !dbg !573 {
  call void @llvm.dbg.value(metadata %"struct.Halide::Runtime::Internal::Metal::mtl_command_buffer"* %0, metadata !577, metadata !DIExpression()), !dbg !1455
  call void @llvm.dbg.value(metadata i8* (i8*, i8*)* bitcast (void ()* @objc_msgSend to i8* (i8*, i8*)*), metadata !578, metadata !DIExpression()), !dbg !1455
  %2 = bitcast %"struct.Halide::Runtime::Internal::Metal::mtl_command_buffer"* %0 to i8*, !dbg !1456
  %3 = tail call i8* @sel_getUid(i8* getelementptr inbounds ([6 x i8], [6 x i8]* @.str.15, i32 0, i32 0)) #8, !dbg !1457
  %4 = tail call i8* bitcast (void ()* @objc_msgSend to i8* (i8*, i8*)*)(i8* %2, i8* %3) #8, !dbg !1458
  ret i8* %4, !dbg !1459
}

; Function Attrs: nounwind mustprogress
define weak dso_local %"struct.Halide::Runtime::Internal::Metal::mtl_compute_command_encoder"* @_ZN6Halide7Runtime8Internal5Metal27new_compute_command_encoderEPNS2_18mtl_command_bufferE(%"struct.Halide::Runtime::Internal::Metal::mtl_command_buffer"* %0) local_unnamed_addr #0 !dbg !580 {
  call void @llvm.dbg.value(metadata %"struct.Halide::Runtime::Internal::Metal::mtl_command_buffer"* %0, metadata !587, metadata !DIExpression()), !dbg !1460
  call void @llvm.dbg.value(metadata %"struct.Halide::Runtime::Internal::Metal::mtl_compute_command_encoder"* (i8*, i8*)* bitcast (void ()* @objc_msgSend to %"struct.Halide::Runtime::Internal::Metal::mtl_compute_command_encoder"* (i8*, i8*)*), metadata !588, metadata !DIExpression()), !dbg !1460
  %2 = bitcast %"struct.Halide::Runtime::Internal::Metal::mtl_command_buffer"* %0 to i8*, !dbg !1461
  %3 = tail call i8* @sel_getUid(i8* getelementptr inbounds ([22 x i8], [22 x i8]* @.str.16, i32 0, i32 0)) #8, !dbg !1462
  %4 = tail call %"struct.Halide::Runtime::Internal::Metal::mtl_compute_command_encoder"* bitcast (void ()* @objc_msgSend to %"struct.Halide::Runtime::Internal::Metal::mtl_compute_command_encoder"* (i8*, i8*)*)(i8* %2, i8* %3) #8, !dbg !1463
  ret %"struct.Halide::Runtime::Internal::Metal::mtl_compute_command_encoder"* %4, !dbg !1464
}

; Function Attrs: nounwind mustprogress
define weak dso_local %"struct.Halide::Runtime::Internal::Metal::mtl_blit_command_encoder"* @_ZN6Halide7Runtime8Internal5Metal24new_blit_command_encoderEPNS2_18mtl_command_bufferE(%"struct.Halide::Runtime::Internal::Metal::mtl_command_buffer"* %0) local_unnamed_addr #0 !dbg !593 {
  call void @llvm.dbg.value(metadata %"struct.Halide::Runtime::Internal::Metal::mtl_command_buffer"* %0, metadata !599, metadata !DIExpression()), !dbg !1465
  call void @llvm.dbg.value(metadata %"struct.Halide::Runtime::Internal::Metal::mtl_blit_command_encoder"* (i8*, i8*)* bitcast (void ()* @objc_msgSend to %"struct.Halide::Runtime::Internal::Metal::mtl_blit_command_encoder"* (i8*, i8*)*), metadata !600, metadata !DIExpression()), !dbg !1465
  %2 = bitcast %"struct.Halide::Runtime::Internal::Metal::mtl_command_buffer"* %0 to i8*, !dbg !1466
  %3 = tail call i8* @sel_getUid(i8* getelementptr inbounds ([19 x i8], [19 x i8]* @.str.17, i32 0, i32 0)) #8, !dbg !1467
  %4 = tail call %"struct.Halide::Runtime::Internal::Metal::mtl_blit_command_encoder"* bitcast (void ()* @objc_msgSend to %"struct.Halide::Runtime::Internal::Metal::mtl_blit_command_encoder"* (i8*, i8*)*)(i8* %2, i8* %3) #8, !dbg !1468
  ret %"struct.Halide::Runtime::Internal::Metal::mtl_blit_command_encoder"* %4, !dbg !1469
}

; Function Attrs: nounwind mustprogress
define weak dso_local %"struct.Halide::Runtime::Internal::Metal::mtl_compute_pipeline_state"* @_ZN6Halide7Runtime8Internal5Metal40new_compute_pipeline_state_with_functionEP19halide_metal_devicePNS2_12mtl_functionE(%struct.halide_metal_device* %0, %"struct.Halide::Runtime::Internal::Metal::mtl_function"* %1) local_unnamed_addr #0 !dbg !605 {
  %3 = alloca i8*, align 4
  call void @llvm.dbg.value(metadata %struct.halide_metal_device* %0, metadata !613, metadata !DIExpression()), !dbg !1470
  call void @llvm.dbg.value(metadata %"struct.Halide::Runtime::Internal::Metal::mtl_function"* %1, metadata !614, metadata !DIExpression()), !dbg !1470
  %4 = bitcast i8** %3 to i8*, !dbg !1471
  call void @llvm.lifetime.start.p0i8(i64 4, i8* nonnull %4) #10, !dbg !1471
  call void @llvm.dbg.value(metadata %"struct.Halide::Runtime::Internal::Metal::mtl_compute_pipeline_state"* (i8*, i8*, i8*, i8**)* bitcast (void ()* @objc_msgSend to %"struct.Halide::Runtime::Internal::Metal::mtl_compute_pipeline_state"* (i8*, i8*, i8*, i8**)*), metadata !616, metadata !DIExpression()), !dbg !1470
  %5 = bitcast %struct.halide_metal_device* %0 to i8*, !dbg !1472
  %6 = tail call i8* @sel_getUid(i8* getelementptr inbounds ([43 x i8], [43 x i8]* @.str.18, i32 0, i32 0)) #8, !dbg !1473
  %7 = bitcast %"struct.Halide::Runtime::Internal::Metal::mtl_function"* %1 to i8*, !dbg !1474
  call void @llvm.dbg.value(metadata i8** %3, metadata !615, metadata !DIExpression(DW_OP_deref)), !dbg !1470
  %8 = call %"struct.Halide::Runtime::Internal::Metal::mtl_compute_pipeline_state"* bitcast (void ()* @objc_msgSend to %"struct.Halide::Runtime::Internal::Metal::mtl_compute_pipeline_state"* (i8*, i8*, i8*, i8**)*)(i8* %5, i8* %6, i8* %7, i8** nonnull %3) #8, !dbg !1475
  call void @llvm.dbg.value(metadata %"struct.Halide::Runtime::Internal::Metal::mtl_compute_pipeline_state"* %8, metadata !617, metadata !DIExpression()), !dbg !1470
  %9 = icmp eq %"struct.Halide::Runtime::Internal::Metal::mtl_compute_pipeline_state"* %8, null, !dbg !1476
  br i1 %9, label %10, label %12, !dbg !1478

10:                                               ; preds = %2
  %11 = load i8*, i8** %3, align 4, !dbg !1479, !tbaa !1481
  call void @llvm.dbg.value(metadata i8* %11, metadata !615, metadata !DIExpression()), !dbg !1470
  call void @_ZN6Halide7Runtime8Internal13ns_log_objectEPv(i8* %11) #9, !dbg !1482
  br label %12, !dbg !1483

12:                                               ; preds = %10, %2
  call void @llvm.lifetime.end.p0i8(i64 4, i8* nonnull %4) #10, !dbg !1484
  ret %"struct.Halide::Runtime::Internal::Metal::mtl_compute_pipeline_state"* %8, !dbg !1485
}

; Function Attrs: nounwind mustprogress
define weak dso_local i32 @_ZN6Halide7Runtime8Internal5Metal37get_max_total_threads_per_threadgroupEPNS2_26mtl_compute_pipeline_stateE(%"struct.Halide::Runtime::Internal::Metal::mtl_compute_pipeline_state"* %0) local_unnamed_addr #0 !dbg !623 {
  call void @llvm.dbg.value(metadata %"struct.Halide::Runtime::Internal::Metal::mtl_compute_pipeline_state"* %0, metadata !627, metadata !DIExpression()), !dbg !1486
  call void @llvm.dbg.value(metadata i32 (i8*, i8*)* bitcast (void ()* @objc_msgSend to i32 (i8*, i8*)*), metadata !628, metadata !DIExpression()), !dbg !1486
  %2 = bitcast %"struct.Halide::Runtime::Internal::Metal::mtl_compute_pipeline_state"* %0 to i8*, !dbg !1487
  %3 = tail call i8* @sel_getUid(i8* getelementptr inbounds ([30 x i8], [30 x i8]* @.str.19, i32 0, i32 0)) #8, !dbg !1488
  %4 = tail call i32 bitcast (void ()* @objc_msgSend to i32 (i8*, i8*)*)(i8* %2, i8* %3) #8, !dbg !1489
  ret i32 %4, !dbg !1490
}

; Function Attrs: nounwind mustprogress
define weak dso_local void @_ZN6Halide7Runtime8Internal5Metal26set_compute_pipeline_stateEPNS2_27mtl_compute_command_encoderEPNS2_26mtl_compute_pipeline_stateE(%"struct.Halide::Runtime::Internal::Metal::mtl_compute_command_encoder"* %0, %"struct.Halide::Runtime::Internal::Metal::mtl_compute_pipeline_state"* %1) local_unnamed_addr #0 !dbg !633 {
  call void @llvm.dbg.value(metadata %"struct.Halide::Runtime::Internal::Metal::mtl_compute_command_encoder"* %0, metadata !637, metadata !DIExpression()), !dbg !1491
  call void @llvm.dbg.value(metadata %"struct.Halide::Runtime::Internal::Metal::mtl_compute_pipeline_state"* %1, metadata !638, metadata !DIExpression()), !dbg !1491
  call void @llvm.dbg.value(metadata void (i8*, i8*, i8*)* bitcast (void ()* @objc_msgSend to void (i8*, i8*, i8*)*), metadata !639, metadata !DIExpression()), !dbg !1491
  %3 = bitcast %"struct.Halide::Runtime::Internal::Metal::mtl_compute_command_encoder"* %0 to i8*, !dbg !1492
  %4 = tail call i8* @sel_getUid(i8* getelementptr inbounds ([25 x i8], [25 x i8]* @.str.20, i32 0, i32 0)) #8, !dbg !1493
  %5 = bitcast %"struct.Halide::Runtime::Internal::Metal::mtl_compute_pipeline_state"* %1 to i8*, !dbg !1494
  tail call void bitcast (void ()* @objc_msgSend to void (i8*, i8*, i8*)*)(i8* %3, i8* %4, i8* %5) #8, !dbg !1495
  ret void, !dbg !1496
}

; Function Attrs: nounwind mustprogress
define weak dso_local void @_ZN6Halide7Runtime8Internal5Metal12end_encodingEPNS2_27mtl_compute_command_encoderE(%"struct.Halide::Runtime::Internal::Metal::mtl_compute_command_encoder"* %0) local_unnamed_addr #0 !dbg !641 {
  call void @llvm.dbg.value(metadata %"struct.Halide::Runtime::Internal::Metal::mtl_compute_command_encoder"* %0, metadata !645, metadata !DIExpression()), !dbg !1497
  call void @llvm.dbg.value(metadata void (i8*, i8*)* bitcast (void ()* @objc_msgSend to void (i8*, i8*)*), metadata !646, metadata !DIExpression()), !dbg !1497
  %2 = bitcast %"struct.Halide::Runtime::Internal::Metal::mtl_compute_command_encoder"* %0 to i8*, !dbg !1498
  %3 = tail call i8* @sel_getUid(i8* getelementptr inbounds ([12 x i8], [12 x i8]* @.str.21, i32 0, i32 0)) #8, !dbg !1499
  tail call void bitcast (void ()* @objc_msgSend to void (i8*, i8*)*)(i8* %2, i8* %3) #8, !dbg !1500
  ret void, !dbg !1501
}

; Function Attrs: nounwind mustprogress
define weak dso_local void @_ZN6Halide7Runtime8Internal5Metal16did_modify_rangeEPNS2_10mtl_bufferENS2_7NSRangeE(%"struct.Halide::Runtime::Internal::Metal::mtl_buffer"* %0, %"struct.Halide::Runtime::Internal::Metal::NSRange"* byval(%"struct.Halide::Runtime::Internal::Metal::NSRange") align 4 %1) local_unnamed_addr #0 !dbg !651 {
  %3 = alloca i64, align 8
  %4 = bitcast i64* %3 to %"struct.Halide::Runtime::Internal::Metal::NSRange"*
  call void @llvm.dbg.value(metadata %"struct.Halide::Runtime::Internal::Metal::mtl_buffer"* %0, metadata !659, metadata !DIExpression()), !dbg !1502
  call void @llvm.dbg.declare(metadata %"struct.Halide::Runtime::Internal::Metal::NSRange"* %1, metadata !660, metadata !DIExpression()), !dbg !1503
  call void @llvm.dbg.value(metadata void (i8*, i8*, %"struct.Halide::Runtime::Internal::Metal::NSRange"*)* bitcast (void ()* @objc_msgSend to void (i8*, i8*, %"struct.Halide::Runtime::Internal::Metal::NSRange"*)*), metadata !661, metadata !DIExpression()), !dbg !1502
  %5 = bitcast %"struct.Halide::Runtime::Internal::Metal::mtl_buffer"* %0 to i8*, !dbg !1504
  %6 = tail call i8* @sel_getUid(i8* getelementptr inbounds ([16 x i8], [16 x i8]* @.str.22, i32 0, i32 0)) #8, !dbg !1505
  %7 = bitcast %"struct.Halide::Runtime::Internal::Metal::NSRange"* %1 to i64*, !dbg !1506
  %8 = load i64, i64* %7, align 4, !dbg !1506
  store i64 %8, i64* %3, align 8, !dbg !1506
  tail call void bitcast (void ()* @objc_msgSend to void (i8*, i8*, %"struct.Halide::Runtime::Internal::Metal::NSRange"*)*)(i8* %5, i8* %6, %"struct.Halide::Runtime::Internal::Metal::NSRange"* nonnull byval(%"struct.Halide::Runtime::Internal::Metal::NSRange") align 4 %4) #8, !dbg !1507
  ret void, !dbg !1508
}

; Function Attrs: nounwind mustprogress
define weak dso_local void @_ZN6Halide7Runtime8Internal5Metal20synchronize_resourceEPNS2_24mtl_blit_command_encoderEPNS2_10mtl_bufferE(%"struct.Halide::Runtime::Internal::Metal::mtl_blit_command_encoder"* %0, %"struct.Halide::Runtime::Internal::Metal::mtl_buffer"* %1) local_unnamed_addr #0 !dbg !666 {
  call void @llvm.dbg.value(metadata %"struct.Halide::Runtime::Internal::Metal::mtl_blit_command_encoder"* %0, metadata !670, metadata !DIExpression()), !dbg !1509
  call void @llvm.dbg.value(metadata %"struct.Halide::Runtime::Internal::Metal::mtl_buffer"* %1, metadata !671, metadata !DIExpression()), !dbg !1509
  call void @llvm.dbg.value(metadata void (i8*, i8*, %"struct.Halide::Runtime::Internal::Metal::mtl_buffer"*)* bitcast (void ()* @objc_msgSend to void (i8*, i8*, %"struct.Halide::Runtime::Internal::Metal::mtl_buffer"*)*), metadata !672, metadata !DIExpression()), !dbg !1509
  %3 = bitcast %"struct.Halide::Runtime::Internal::Metal::mtl_blit_command_encoder"* %0 to i8*, !dbg !1510
  %4 = tail call i8* @sel_getUid(i8* getelementptr inbounds ([21 x i8], [21 x i8]* @.str.23, i32 0, i32 0)) #8, !dbg !1511
  tail call void bitcast (void ()* @objc_msgSend to void (i8*, i8*, %"struct.Halide::Runtime::Internal::Metal::mtl_buffer"*)*)(i8* %3, i8* %4, %"struct.Halide::Runtime::Internal::Metal::mtl_buffer"* %1) #8, !dbg !1512
  ret void, !dbg !1513
}

; Function Attrs: nounwind mustprogress
define weak dso_local zeroext i1 @_ZN6Halide7Runtime8Internal5Metal17is_buffer_managedEPNS2_10mtl_bufferE(%"struct.Halide::Runtime::Internal::Metal::mtl_buffer"* %0) local_unnamed_addr #0 !dbg !677 {
  call void @llvm.dbg.value(metadata %"struct.Halide::Runtime::Internal::Metal::mtl_buffer"* %0, metadata !681, metadata !DIExpression()), !dbg !1514
  call void @llvm.dbg.value(metadata i1 (i8*, i8*, i8*)* bitcast (void ()* @objc_msgSend to i1 (i8*, i8*, i8*)*), metadata !682, metadata !DIExpression()), !dbg !1514
  %2 = tail call i8* @sel_getUid(i8* getelementptr inbounds ([12 x i8], [12 x i8]* @.str.24, i32 0, i32 0)) #8, !dbg !1515
  call void @llvm.dbg.value(metadata i8* %2, metadata !683, metadata !DIExpression()), !dbg !1514
  %3 = bitcast %"struct.Halide::Runtime::Internal::Metal::mtl_buffer"* %0 to i8*, !dbg !1516
  %4 = tail call i8* @sel_getUid(i8* getelementptr inbounds ([20 x i8], [20 x i8]* @.str.25, i32 0, i32 0)) #8, !dbg !1517
  %5 = tail call zeroext i1 bitcast (void ()* @objc_msgSend to i1 (i8*, i8*, i8*)*)(i8* %3, i8* %4, i8* %2) #8, !dbg !1518
  br i1 %5, label %6, label %9, !dbg !1519

6:                                                ; preds = %1
  call void @llvm.dbg.value(metadata i32 (i8*, i8*)* bitcast (void ()* @objc_msgSend to i32 (i8*, i8*)*), metadata !684, metadata !DIExpression()), !dbg !1520
  %7 = tail call i32 bitcast (void ()* @objc_msgSend to i32 (i8*, i8*)*)(i8* %3, i8* %2) #8, !dbg !1521
  call void @llvm.dbg.value(metadata i32 %7, metadata !691, metadata !DIExpression()), !dbg !1520
  %8 = icmp eq i32 %7, 1, !dbg !1522
  br label %9

9:                                                ; preds = %1, %6
  %10 = phi i1 [ %8, %6 ], [ false, %1 ], !dbg !1514
  ret i1 %10, !dbg !1523
}

; Function Attrs: nounwind mustprogress
define weak dso_local void @_ZN6Halide7Runtime8Internal5Metal24buffer_to_buffer_1d_copyEPNS2_24mtl_blit_command_encoderEPNS2_10mtl_bufferEjS6_jj(%"struct.Halide::Runtime::Internal::Metal::mtl_blit_command_encoder"* %0, %"struct.Halide::Runtime::Internal::Metal::mtl_buffer"* %1, i32 %2, %"struct.Halide::Runtime::Internal::Metal::mtl_buffer"* %3, i32 %4, i32 %5) local_unnamed_addr #0 !dbg !696 {
  call void @llvm.dbg.value(metadata %"struct.Halide::Runtime::Internal::Metal::mtl_blit_command_encoder"* %0, metadata !700, metadata !DIExpression()), !dbg !1524
  call void @llvm.dbg.value(metadata %"struct.Halide::Runtime::Internal::Metal::mtl_buffer"* %1, metadata !701, metadata !DIExpression()), !dbg !1524
  call void @llvm.dbg.value(metadata i32 %2, metadata !702, metadata !DIExpression()), !dbg !1524
  call void @llvm.dbg.value(metadata %"struct.Halide::Runtime::Internal::Metal::mtl_buffer"* %3, metadata !703, metadata !DIExpression()), !dbg !1524
  call void @llvm.dbg.value(metadata i32 %4, metadata !704, metadata !DIExpression()), !dbg !1524
  call void @llvm.dbg.value(metadata i32 %5, metadata !705, metadata !DIExpression()), !dbg !1524
  call void @llvm.dbg.value(metadata void (i8*, i8*, i8*, i32, i8*, i32, i32)* bitcast (void ()* @objc_msgSend to void (i8*, i8*, i8*, i32, i8*, i32, i32)*), metadata !706, metadata !DIExpression()), !dbg !1524
  %7 = bitcast %"struct.Halide::Runtime::Internal::Metal::mtl_blit_command_encoder"* %0 to i8*, !dbg !1525
  %8 = tail call i8* @sel_getUid(i8* getelementptr inbounds ([61 x i8], [61 x i8]* @.str.26, i32 0, i32 0)) #8, !dbg !1526
  %9 = bitcast %"struct.Halide::Runtime::Internal::Metal::mtl_buffer"* %1 to i8*, !dbg !1527
  %10 = bitcast %"struct.Halide::Runtime::Internal::Metal::mtl_buffer"* %3 to i8*, !dbg !1528
  tail call void bitcast (void ()* @objc_msgSend to void (i8*, i8*, i8*, i32, i8*, i32, i32)*)(i8* %7, i8* %8, i8* %9, i32 %2, i8* %10, i32 %4, i32 %5) #8, !dbg !1529
  ret void, !dbg !1530
}

; Function Attrs: nounwind mustprogress
define weak dso_local void @_ZN6Halide7Runtime8Internal5Metal12end_encodingEPNS2_24mtl_blit_command_encoderE(%"struct.Halide::Runtime::Internal::Metal::mtl_blit_command_encoder"* %0) local_unnamed_addr #0 !dbg !711 {
  call void @llvm.dbg.value(metadata %"struct.Halide::Runtime::Internal::Metal::mtl_blit_command_encoder"* %0, metadata !715, metadata !DIExpression()), !dbg !1531
  call void @llvm.dbg.value(metadata void (i8*, i8*)* bitcast (void ()* @objc_msgSend to void (i8*, i8*)*), metadata !716, metadata !DIExpression()), !dbg !1531
  %2 = bitcast %"struct.Halide::Runtime::Internal::Metal::mtl_blit_command_encoder"* %0 to i8*, !dbg !1532
  %3 = tail call i8* @sel_getUid(i8* getelementptr inbounds ([12 x i8], [12 x i8]* @.str.21, i32 0, i32 0)) #8, !dbg !1533
  tail call void bitcast (void ()* @objc_msgSend to void (i8*, i8*)*)(i8* %2, i8* %3) #8, !dbg !1534
  ret void, !dbg !1535
}

; Function Attrs: nounwind mustprogress
define weak dso_local zeroext i1 @_ZN6Halide7Runtime8Internal5Metal25buffer_supports_set_bytesEPNS2_27mtl_compute_command_encoderE(%"struct.Halide::Runtime::Internal::Metal::mtl_compute_command_encoder"* %0) local_unnamed_addr #0 !dbg !718 {
  call void @llvm.dbg.value(metadata %"struct.Halide::Runtime::Internal::Metal::mtl_compute_command_encoder"* %0, metadata !722, metadata !DIExpression()), !dbg !1536
  call void @llvm.dbg.value(metadata i1 (i8*, i8*, i8*)* bitcast (void ()* @objc_msgSend to i1 (i8*, i8*, i8*)*), metadata !723, metadata !DIExpression()), !dbg !1536
  %2 = tail call i8* @sel_getUid(i8* getelementptr inbounds ([25 x i8], [25 x i8]* @.str.27, i32 0, i32 0)) #8, !dbg !1537
  call void @llvm.dbg.value(metadata i8* %2, metadata !724, metadata !DIExpression()), !dbg !1536
  %3 = bitcast %"struct.Halide::Runtime::Internal::Metal::mtl_compute_command_encoder"* %0 to i8*, !dbg !1538
  %4 = tail call i8* @sel_getUid(i8* getelementptr inbounds ([20 x i8], [20 x i8]* @.str.25, i32 0, i32 0)) #8, !dbg !1539
  %5 = tail call zeroext i1 bitcast (void ()* @objc_msgSend to i1 (i8*, i8*, i8*)*)(i8* %3, i8* %4, i8* %2) #8, !dbg !1540
  ret i1 %5, !dbg !1541
}

; Function Attrs: nounwind mustprogress
define weak dso_local %"struct.Halide::Runtime::Internal::Metal::mtl_library"* @_ZN6Halide7Runtime8Internal5Metal23new_library_with_sourceEP19halide_metal_devicePKcj(%struct.halide_metal_device* %0, i8* %1, i32 %2) #0 !dbg !726 {
  %4 = alloca i8*, align 4
  call void @llvm.dbg.value(metadata %struct.halide_metal_device* %0, metadata !730, metadata !DIExpression()), !dbg !1542
  call void @llvm.dbg.value(metadata i8* %1, metadata !731, metadata !DIExpression()), !dbg !1542
  call void @llvm.dbg.value(metadata i32 %2, metadata !732, metadata !DIExpression()), !dbg !1542
  %5 = bitcast i8** %4 to i8*, !dbg !1543
  call void @llvm.lifetime.start.p0i8(i64 4, i8* nonnull %5) #10, !dbg !1543
  %6 = tail call i8* @_ZN6Halide7Runtime8Internal24wrap_string_as_ns_stringEPKcj(i8* %1, i32 %2) #9, !dbg !1544
  call void @llvm.dbg.value(metadata i8* %6, metadata !734, metadata !DIExpression()), !dbg !1542
  call void @llvm.dbg.value(metadata i8* (i8*, i8*)* bitcast (void ()* @objc_msgSend to i8* (i8*, i8*)*), metadata !735, metadata !DIExpression()), !dbg !1542
  %7 = tail call i8* @objc_getClass(i8* getelementptr inbounds ([18 x i8], [18 x i8]* @.str.28, i32 0, i32 0)) #8, !dbg !1545
  %8 = tail call i8* @sel_getUid(i8* getelementptr inbounds ([6 x i8], [6 x i8]* @.str.2, i32 0, i32 0)) #8, !dbg !1546
  %9 = tail call i8* bitcast (void ()* @objc_msgSend to i8* (i8*, i8*)*)(i8* %7, i8* %8) #8, !dbg !1547
  call void @llvm.dbg.value(metadata i8* %9, metadata !736, metadata !DIExpression()), !dbg !1542
  %10 = tail call i8* @sel_getUid(i8* getelementptr inbounds ([5 x i8], [5 x i8]* @.str.3, i32 0, i32 0)) #8, !dbg !1548
  %11 = tail call i8* bitcast (void ()* @objc_msgSend to i8* (i8*, i8*)*)(i8* %9, i8* %10) #8, !dbg !1549
  call void @llvm.dbg.value(metadata i8* %11, metadata !736, metadata !DIExpression()), !dbg !1542
  call void @llvm.dbg.value(metadata void (i8*, i8*, i8)* bitcast (void ()* @objc_msgSend to void (i8*, i8*, i8)*), metadata !737, metadata !DIExpression()), !dbg !1542
  %12 = tail call i8* @sel_getUid(i8* getelementptr inbounds ([20 x i8], [20 x i8]* @.str.29, i32 0, i32 0)) #8, !dbg !1550
  tail call void bitcast (void ()* @objc_msgSend to void (i8*, i8*, i8)*)(i8* %11, i8* %12, i8 zeroext 0) #8, !dbg !1551
  call void @llvm.dbg.value(metadata %"struct.Halide::Runtime::Internal::Metal::mtl_library"* (i8*, i8*, i8*, i8*, i8**)* bitcast (void ()* @objc_msgSend to %"struct.Halide::Runtime::Internal::Metal::mtl_library"* (i8*, i8*, i8*, i8*, i8**)*), metadata !742, metadata !DIExpression()), !dbg !1542
  %13 = bitcast %struct.halide_metal_device* %0 to i8*, !dbg !1552
  %14 = tail call i8* @sel_getUid(i8* getelementptr inbounds ([36 x i8], [36 x i8]* @.str.30, i32 0, i32 0)) #8, !dbg !1553
  call void @llvm.dbg.value(metadata i8** %4, metadata !733, metadata !DIExpression(DW_OP_deref)), !dbg !1542
  %15 = call %"struct.Halide::Runtime::Internal::Metal::mtl_library"* bitcast (void ()* @objc_msgSend to %"struct.Halide::Runtime::Internal::Metal::mtl_library"* (i8*, i8*, i8*, i8*, i8**)*)(i8* %13, i8* %14, i8* %6, i8* %11, i8** nonnull %4) #8, !dbg !1554
  call void @llvm.dbg.value(metadata %"struct.Halide::Runtime::Internal::Metal::mtl_library"* %15, metadata !747, metadata !DIExpression()), !dbg !1542
  call void @_ZN6Halide7Runtime8Internal17release_ns_objectEPv(i8* %11) #9, !dbg !1555
  call void @_ZN6Halide7Runtime8Internal17release_ns_objectEPv(i8* %6) #9, !dbg !1556
  %16 = icmp eq %"struct.Halide::Runtime::Internal::Metal::mtl_library"* %15, null, !dbg !1557
  br i1 %16, label %17, label %19, !dbg !1559

17:                                               ; preds = %3
  %18 = load i8*, i8** %4, align 4, !dbg !1560, !tbaa !1481
  call void @llvm.dbg.value(metadata i8* %18, metadata !733, metadata !DIExpression()), !dbg !1542
  call void @_ZN6Halide7Runtime8Internal13ns_log_objectEPv(i8* %18) #9, !dbg !1562
  br label %19, !dbg !1563

19:                                               ; preds = %17, %3
  call void @llvm.lifetime.end.p0i8(i64 4, i8* nonnull %5) #10, !dbg !1564
  ret %"struct.Halide::Runtime::Internal::Metal::mtl_library"* %15, !dbg !1565
}

; Function Attrs: nounwind mustprogress
define weak dso_local %"struct.Halide::Runtime::Internal::Metal::mtl_function"* @_ZN6Halide7Runtime8Internal5Metal22new_function_with_nameEPNS2_11mtl_libraryEPKcj(%"struct.Halide::Runtime::Internal::Metal::mtl_library"* %0, i8* %1, i32 %2) local_unnamed_addr #0 !dbg !749 {
  call void @llvm.dbg.value(metadata %"struct.Halide::Runtime::Internal::Metal::mtl_library"* %0, metadata !753, metadata !DIExpression()), !dbg !1566
  call void @llvm.dbg.value(metadata i8* %1, metadata !754, metadata !DIExpression()), !dbg !1566
  call void @llvm.dbg.value(metadata i32 %2, metadata !755, metadata !DIExpression()), !dbg !1566
  %4 = tail call i8* @_ZN6Halide7Runtime8Internal24wrap_string_as_ns_stringEPKcj(i8* %1, i32 %2) #9, !dbg !1567
  call void @llvm.dbg.value(metadata i8* %4, metadata !756, metadata !DIExpression()), !dbg !1566
  call void @llvm.dbg.value(metadata %"struct.Halide::Runtime::Internal::Metal::mtl_function"* (i8*, i8*, i8*)* bitcast (void ()* @objc_msgSend to %"struct.Halide::Runtime::Internal::Metal::mtl_function"* (i8*, i8*, i8*)*), metadata !757, metadata !DIExpression()), !dbg !1566
  %5 = bitcast %"struct.Halide::Runtime::Internal::Metal::mtl_library"* %0 to i8*, !dbg !1568
  %6 = tail call i8* @sel_getUid(i8* getelementptr inbounds ([21 x i8], [21 x i8]* @.str.31, i32 0, i32 0)) #8, !dbg !1569
  %7 = tail call %"struct.Halide::Runtime::Internal::Metal::mtl_function"* bitcast (void ()* @objc_msgSend to %"struct.Halide::Runtime::Internal::Metal::mtl_function"* (i8*, i8*, i8*)*)(i8* %5, i8* %6, i8* %4) #8, !dbg !1570
  call void @llvm.dbg.value(metadata %"struct.Halide::Runtime::Internal::Metal::mtl_function"* %7, metadata !758, metadata !DIExpression()), !dbg !1566
  tail call void @_ZN6Halide7Runtime8Internal17release_ns_objectEPv(i8* %4) #9, !dbg !1571
  ret %"struct.Halide::Runtime::Internal::Metal::mtl_function"* %7, !dbg !1572
}

; Function Attrs: nounwind mustprogress
define weak dso_local void @_ZN6Halide7Runtime8Internal5Metal16set_input_bufferEPNS2_27mtl_compute_command_encoderEPNS2_10mtl_bufferEyj(%"struct.Halide::Runtime::Internal::Metal::mtl_compute_command_encoder"* %0, %"struct.Halide::Runtime::Internal::Metal::mtl_buffer"* %1, i64 %2, i32 %3) local_unnamed_addr #0 !dbg !763 {
  call void @llvm.dbg.value(metadata %"struct.Halide::Runtime::Internal::Metal::mtl_compute_command_encoder"* %0, metadata !767, metadata !DIExpression()), !dbg !1573
  call void @llvm.dbg.value(metadata %"struct.Halide::Runtime::Internal::Metal::mtl_buffer"* %1, metadata !768, metadata !DIExpression()), !dbg !1573
  call void @llvm.dbg.value(metadata i64 %2, metadata !769, metadata !DIExpression()), !dbg !1573
  call void @llvm.dbg.value(metadata i32 %3, metadata !770, metadata !DIExpression()), !dbg !1573
  call void @llvm.dbg.value(metadata void (i8*, i8*, %"struct.Halide::Runtime::Internal::Metal::mtl_buffer"*, i32, i32)* bitcast (void ()* @objc_msgSend to void (i8*, i8*, %"struct.Halide::Runtime::Internal::Metal::mtl_buffer"*, i32, i32)*), metadata !771, metadata !DIExpression()), !dbg !1573
  %5 = bitcast %"struct.Halide::Runtime::Internal::Metal::mtl_compute_command_encoder"* %0 to i8*, !dbg !1574
  %6 = tail call i8* @sel_getUid(i8* getelementptr inbounds ([26 x i8], [26 x i8]* @.str.32, i32 0, i32 0)) #8, !dbg !1575
  %7 = trunc i64 %2 to i32, !dbg !1576
  tail call void bitcast (void ()* @objc_msgSend to void (i8*, i8*, %"struct.Halide::Runtime::Internal::Metal::mtl_buffer"*, i32, i32)*)(i8* %5, i8* %6, %"struct.Halide::Runtime::Internal::Metal::mtl_buffer"* %1, i32 %7, i32 %3) #8, !dbg !1577
  ret void, !dbg !1578
}

; Function Attrs: nounwind mustprogress
define weak dso_local void @_ZN6Halide7Runtime8Internal5Metal27set_input_buffer_from_bytesEPNS2_27mtl_compute_command_encoderEPhjj(%"struct.Halide::Runtime::Internal::Metal::mtl_compute_command_encoder"* %0, i8* %1, i32 %2, i32 %3) local_unnamed_addr #0 !dbg !776 {
  call void @llvm.dbg.value(metadata %"struct.Halide::Runtime::Internal::Metal::mtl_compute_command_encoder"* %0, metadata !780, metadata !DIExpression()), !dbg !1579
  call void @llvm.dbg.value(metadata i8* %1, metadata !781, metadata !DIExpression()), !dbg !1579
  call void @llvm.dbg.value(metadata i32 %2, metadata !782, metadata !DIExpression()), !dbg !1579
  call void @llvm.dbg.value(metadata i32 %3, metadata !783, metadata !DIExpression()), !dbg !1579
  call void @llvm.dbg.value(metadata void (i8*, i8*, i8*, i32, i32)* bitcast (void ()* @objc_msgSend to void (i8*, i8*, i8*, i32, i32)*), metadata !784, metadata !DIExpression()), !dbg !1579
  %5 = bitcast %"struct.Halide::Runtime::Internal::Metal::mtl_compute_command_encoder"* %0 to i8*, !dbg !1580
  %6 = tail call i8* @sel_getUid(i8* getelementptr inbounds ([25 x i8], [25 x i8]* @.str.27, i32 0, i32 0)) #8, !dbg !1581
  tail call void bitcast (void ()* @objc_msgSend to void (i8*, i8*, i8*, i32, i32)*)(i8* %5, i8* %6, i8* %1, i32 %2, i32 %3) #8, !dbg !1582
  ret void, !dbg !1583
}

; Function Attrs: nounwind mustprogress
define weak dso_local void @_ZN6Halide7Runtime8Internal5Metal29set_threadgroup_memory_lengthEPNS2_27mtl_compute_command_encoderEjj(%"struct.Halide::Runtime::Internal::Metal::mtl_compute_command_encoder"* %0, i32 %1, i32 %2) local_unnamed_addr #0 !dbg !789 {
  call void @llvm.dbg.value(metadata %"struct.Halide::Runtime::Internal::Metal::mtl_compute_command_encoder"* %0, metadata !793, metadata !DIExpression()), !dbg !1584
  call void @llvm.dbg.value(metadata i32 %1, metadata !794, metadata !DIExpression()), !dbg !1584
  call void @llvm.dbg.value(metadata i32 %2, metadata !795, metadata !DIExpression()), !dbg !1584
  call void @llvm.dbg.value(metadata void (i8*, i8*, i32, i32)* bitcast (void ()* @objc_msgSend to void (i8*, i8*, i32, i32)*), metadata !796, metadata !DIExpression()), !dbg !1584
  %4 = bitcast %"struct.Halide::Runtime::Internal::Metal::mtl_compute_command_encoder"* %0 to i8*, !dbg !1585
  %5 = tail call i8* @sel_getUid(i8* getelementptr inbounds ([36 x i8], [36 x i8]* @.str.33, i32 0, i32 0)) #8, !dbg !1586
  tail call void bitcast (void ()* @objc_msgSend to void (i8*, i8*, i32, i32)*)(i8* %4, i8* %5, i32 %1, i32 %2) #8, !dbg !1587
  ret void, !dbg !1588
}

; Function Attrs: nounwind mustprogress
define weak dso_local void @_ZN6Halide7Runtime8Internal5Metal21commit_command_bufferEPNS2_18mtl_command_bufferE(%"struct.Halide::Runtime::Internal::Metal::mtl_command_buffer"* %0) local_unnamed_addr #0 !dbg !801 {
  call void @llvm.dbg.value(metadata %"struct.Halide::Runtime::Internal::Metal::mtl_command_buffer"* %0, metadata !805, metadata !DIExpression()), !dbg !1589
  call void @llvm.dbg.value(metadata void (i8*, i8*)* bitcast (void ()* @objc_msgSend to void (i8*, i8*)*), metadata !806, metadata !DIExpression()), !dbg !1589
  %2 = bitcast %"struct.Halide::Runtime::Internal::Metal::mtl_command_buffer"* %0 to i8*, !dbg !1590
  %3 = tail call i8* @sel_getUid(i8* getelementptr inbounds ([7 x i8], [7 x i8]* @.str.34, i32 0, i32 0)) #8, !dbg !1591
  tail call void bitcast (void ()* @objc_msgSend to void (i8*, i8*)*)(i8* %2, i8* %3) #8, !dbg !1592
  ret void, !dbg !1593
}

; Function Attrs: nounwind mustprogress
define weak dso_local void @_ZN6Halide7Runtime8Internal5Metal20wait_until_completedEPNS2_18mtl_command_bufferE(%"struct.Halide::Runtime::Internal::Metal::mtl_command_buffer"* %0) local_unnamed_addr #0 !dbg !808 {
  call void @llvm.dbg.value(metadata %"struct.Halide::Runtime::Internal::Metal::mtl_command_buffer"* %0, metadata !810, metadata !DIExpression()), !dbg !1594
  call void @llvm.dbg.value(metadata void (i8*, i8*)* bitcast (void ()* @objc_msgSend to void (i8*, i8*)*), metadata !811, metadata !DIExpression()), !dbg !1594
  %2 = bitcast %"struct.Halide::Runtime::Internal::Metal::mtl_command_buffer"* %0 to i8*, !dbg !1595
  %3 = tail call i8* @sel_getUid(i8* getelementptr inbounds ([19 x i8], [19 x i8]* @.str.35, i32 0, i32 0)) #8, !dbg !1596
  tail call void bitcast (void ()* @objc_msgSend to void (i8*, i8*)*)(i8* %2, i8* %3) #8, !dbg !1597
  ret void, !dbg !1598
}

; Function Attrs: nounwind mustprogress
define weak dso_local i8* @_ZN6Halide7Runtime8Internal5Metal15buffer_contentsEPNS2_10mtl_bufferE(%"struct.Halide::Runtime::Internal::Metal::mtl_buffer"* %0) local_unnamed_addr #0 !dbg !813 {
  call void @llvm.dbg.value(metadata %"struct.Halide::Runtime::Internal::Metal::mtl_buffer"* %0, metadata !817, metadata !DIExpression()), !dbg !1599
  call void @llvm.dbg.value(metadata i8* (i8*, i8*)* bitcast (void ()* @objc_msgSend to i8* (i8*, i8*)*), metadata !818, metadata !DIExpression()), !dbg !1599
  %2 = bitcast %"struct.Halide::Runtime::Internal::Metal::mtl_buffer"* %0 to i8*, !dbg !1600
  %3 = tail call i8* @sel_getUid(i8* getelementptr inbounds ([9 x i8], [9 x i8]* @.str.36, i32 0, i32 0)) #8, !dbg !1601
  %4 = tail call i8* bitcast (void ()* @objc_msgSend to i8* (i8*, i8*)*)(i8* %2, i8* %3) #8, !dbg !1602
  ret i8* %4, !dbg !1603
}

; Function Attrs: nounwind mustprogress
define weak dso_local i8* @_ZN6Halide7Runtime8Internal5Metal20nsarray_first_objectEPv(i8* %0) local_unnamed_addr #0 !dbg !823 {
  call void @llvm.dbg.value(metadata i8* %0, metadata !827, metadata !DIExpression()), !dbg !1604
  call void @llvm.dbg.value(metadata i8* (i8*, i8*)* bitcast (void ()* @objc_msgSend to i8* (i8*, i8*)*), metadata !828, metadata !DIExpression()), !dbg !1604
  %2 = tail call i8* @sel_getUid(i8* getelementptr inbounds ([12 x i8], [12 x i8]* @.str.37, i32 0, i32 0)) #8, !dbg !1605
  %3 = tail call i8* bitcast (void ()* @objc_msgSend to i8* (i8*, i8*)*)(i8* %0, i8* %2) #8, !dbg !1606
  ret i8* %3, !dbg !1607
}

; Function Attrs: nounwind mustprogress
define weak dso_local %struct.halide_metal_device* @_ZN6Halide7Runtime8Internal5Metal22get_default_mtl_deviceEv() local_unnamed_addr #0 !dbg !830 {
  %1 = tail call i8* @MTLCreateSystemDefaultDevice() #8, !dbg !1608
  %2 = bitcast i8* %1 to %struct.halide_metal_device*, !dbg !1609
  call void @llvm.dbg.value(metadata %struct.halide_metal_device* %2, metadata !834, metadata !DIExpression()), !dbg !1610
  %3 = icmp eq i8* %1, null, !dbg !1611
  br i1 %3, label %4, label %14, !dbg !1612

4:                                                ; preds = %0
  %5 = tail call i8* @dlsym(i8* nonnull inttoptr (i32 -2 to i8*), i8* getelementptr inbounds ([18 x i8], [18 x i8]* @.str.38, i32 0, i32 0)) #8, !dbg !1613
  call void @llvm.dbg.value(metadata i8* %5, metadata !835, metadata !DIExpression()), !dbg !1614
  %6 = icmp eq i8* %5, null, !dbg !1615
  br i1 %6, label %14, label %7, !dbg !1616

7:                                                ; preds = %4
  %8 = bitcast i8* %5 to i8* ()*, !dbg !1617
  call void @llvm.dbg.value(metadata i8* ()* %8, metadata !838, metadata !DIExpression()), !dbg !1618
  %9 = tail call i8* %8() #8, !dbg !1619
  call void @llvm.dbg.value(metadata i8* %9, metadata !841, metadata !DIExpression()), !dbg !1618
  %10 = icmp eq i8* %9, null, !dbg !1620
  br i1 %10, label %14, label %11, !dbg !1622

11:                                               ; preds = %7
  %12 = tail call i8* @_ZN6Halide7Runtime8Internal5Metal20nsarray_first_objectEPv(i8* nonnull %9) #9, !dbg !1623
  %13 = bitcast i8* %12 to %struct.halide_metal_device*, !dbg !1625
  call void @llvm.dbg.value(metadata %struct.halide_metal_device* %13, metadata !834, metadata !DIExpression()), !dbg !1610
  br label %14, !dbg !1626

14:                                               ; preds = %4, %11, %7, %0
  %15 = phi %struct.halide_metal_device* [ %2, %0 ], [ null, %4 ], [ %13, %11 ], [ null, %7 ], !dbg !1610
  call void @llvm.dbg.value(metadata %struct.halide_metal_device* %15, metadata !834, metadata !DIExpression()), !dbg !1610
  ret %struct.halide_metal_device* %15, !dbg !1627
}

declare !dbg !1628 dso_local i8* @MTLCreateSystemDefaultDevice() local_unnamed_addr #3

declare !dbg !1631 dso_local i8* @dlsym(i8*, i8*) local_unnamed_addr #3

; Function Attrs: nounwind
define weak dso_local i32 @halide_metal_acquire_context(i8* %0, %struct.halide_metal_device** %1, %struct.halide_metal_command_queue** %2, i1 zeroext %3) local_unnamed_addr #4 !dbg !1634 {
  call void @llvm.dbg.value(metadata i8* %0, metadata !1640, metadata !DIExpression()), !dbg !1644
  call void @llvm.dbg.value(metadata %struct.halide_metal_device** %1, metadata !1641, metadata !DIExpression()), !dbg !1644
  call void @llvm.dbg.value(metadata %struct.halide_metal_command_queue** %2, metadata !1642, metadata !DIExpression()), !dbg !1644
  call void @llvm.dbg.value(metadata i1 %3, metadata !1643, metadata !DIExpression(DW_OP_LLVM_convert, 1, DW_ATE_unsigned, DW_OP_LLVM_convert, 8, DW_ATE_unsigned, DW_OP_stack_value)), !dbg !1644
  br label %5, !dbg !1645

5:                                                ; preds = %5, %4
  %6 = atomicrmw volatile xchg i8* @_ZN6Halide7Runtime8Internal5Metal11thread_lockE, i8 1 acquire, !dbg !1646
  %7 = icmp eq i8 %6, 0, !dbg !1646
  br i1 %7, label %8, label %5, !dbg !1645, !llvm.loop !1647

8:                                                ; preds = %5
  %9 = tail call i32 @halide_start_clock(i8* %0) #8, !dbg !1649
  %10 = load %struct.halide_metal_device*, %struct.halide_metal_device** @_ZN6Halide7Runtime8Internal5Metal6deviceE, align 4, !dbg !1650, !tbaa !1481
  %11 = icmp eq %struct.halide_metal_device* %10, null, !dbg !1652
  %12 = and i1 %11, %3, !dbg !1653
  br i1 %12, label %13, label %79, !dbg !1653

13:                                               ; preds = %8
  call void @llvm.dbg.value(metadata %"class.Halide::Runtime::Internal::(anonymous namespace)::Printer"* undef, metadata !1095, metadata !DIExpression()) #10, !dbg !1654
  call void @llvm.dbg.value(metadata i8* %0, metadata !1098, metadata !DIExpression()) #10, !dbg !1654
  call void @llvm.dbg.value(metadata i8* null, metadata !1099, metadata !DIExpression()) #10, !dbg !1654
  %14 = tail call i8* @malloc(i32 1024) #8, !dbg !1657
  %15 = icmp eq i8* %14, null, !dbg !1658
  br i1 %15, label %16, label %18, !dbg !1659

16:                                               ; preds = %13
  call void @llvm.dbg.value(metadata %"class.Halide::Runtime::Internal::(anonymous namespace)::Printer"* undef, metadata !1112, metadata !DIExpression()) #10, !dbg !1660
  call void @llvm.dbg.value(metadata i8* getelementptr inbounds ([50 x i8], [50 x i8]* @.str.40, i32 0, i32 0), metadata !1115, metadata !DIExpression()) #10, !dbg !1660
  %17 = tail call i8* @halide_string_to_string(i8* %14, i8* null, i8* nonnull getelementptr inbounds ([50 x i8], [50 x i8]* @.str.40, i32 0, i32 0)) #8, !dbg !1662
  call void @llvm.dbg.value(metadata %"class.Halide::Runtime::Internal::(anonymous namespace)::Printer"* undef, metadata !1121, metadata !DIExpression()) #10, !dbg !1663
  tail call void @halide_error(i8* %0, i8* getelementptr inbounds ([35 x i8], [35 x i8]* @.str.124, i32 0, i32 0)) #8, !dbg !1665
  br label %27, !dbg !1666

18:                                               ; preds = %13
  %19 = getelementptr inbounds i8, i8* %14, i32 1023, !dbg !1667
  store i8 0, i8* %19, align 1, !dbg !1668, !tbaa !1134
  call void @llvm.dbg.value(metadata %"class.Halide::Runtime::Internal::(anonymous namespace)::Printer"* undef, metadata !1112, metadata !DIExpression()) #10, !dbg !1660
  call void @llvm.dbg.value(metadata i8* getelementptr inbounds ([50 x i8], [50 x i8]* @.str.40, i32 0, i32 0), metadata !1115, metadata !DIExpression()) #10, !dbg !1660
  %20 = tail call i8* @halide_string_to_string(i8* nonnull %14, i8* nonnull %19, i8* nonnull getelementptr inbounds ([50 x i8], [50 x i8]* @.str.40, i32 0, i32 0)) #8, !dbg !1662
  call void @llvm.dbg.value(metadata %"class.Halide::Runtime::Internal::(anonymous namespace)::Printer"* undef, metadata !1121, metadata !DIExpression()) #10, !dbg !1663
  call void @llvm.dbg.value(metadata %"class.Halide::Runtime::Internal::(anonymous namespace)::Printer"* undef, metadata !1135, metadata !DIExpression()) #10, !dbg !1669
  %21 = ptrtoint i8* %20 to i32, !dbg !1671
  %22 = ptrtoint i8* %14 to i32, !dbg !1671
  %23 = add i32 %21, 1, !dbg !1671
  %24 = sub i32 %23, %22, !dbg !1672
  %25 = sext i32 %24 to i64, !dbg !1673
  %26 = tail call i32 @halide_msan_annotate_memory_is_initialized(i8* %0, i8* nonnull %14, i64 %25) #8, !dbg !1674
  tail call void @halide_print(i8* %0, i8* nonnull %14) #8, !dbg !1675
  br label %27

27:                                               ; preds = %18, %16
  tail call void @free(i8* %14) #8, !dbg !1676
  %28 = tail call %struct.halide_metal_device* @_ZN6Halide7Runtime8Internal5Metal22get_default_mtl_deviceEv() #9, !dbg !1677
  store %struct.halide_metal_device* %28, %struct.halide_metal_device** @_ZN6Halide7Runtime8Internal5Metal6deviceE, align 4, !dbg !1678, !tbaa !1481
  %29 = icmp eq %struct.halide_metal_device* %28, null, !dbg !1679
  %30 = tail call i8* @malloc(i32 1024) #8, !dbg !1681
  %31 = icmp eq i8* %30, null, !dbg !1681
  br i1 %29, label %32, label %45, !dbg !1682

32:                                               ; preds = %27
  call void @llvm.dbg.value(metadata %"class.Halide::Runtime::Internal::(anonymous namespace)::Printer.0"* undef, metadata !1683, metadata !DIExpression()) #10, !dbg !1689
  call void @llvm.dbg.value(metadata i8* %0, metadata !1686, metadata !DIExpression()) #10, !dbg !1689
  call void @llvm.dbg.value(metadata i8* null, metadata !1687, metadata !DIExpression()) #10, !dbg !1689
  br i1 %31, label %33, label %35, !dbg !1692

33:                                               ; preds = %32
  call void @llvm.dbg.value(metadata %"class.Halide::Runtime::Internal::(anonymous namespace)::Printer.0"* undef, metadata !1694, metadata !DIExpression()) #10, !dbg !1698
  call void @llvm.dbg.value(metadata i8* getelementptr inbounds ([47 x i8], [47 x i8]* @.str.41, i32 0, i32 0), metadata !1697, metadata !DIExpression()) #10, !dbg !1698
  %34 = tail call i8* @halide_string_to_string(i8* %30, i8* null, i8* nonnull getelementptr inbounds ([47 x i8], [47 x i8]* @.str.41, i32 0, i32 0)) #8, !dbg !1700
  call void @llvm.dbg.value(metadata %"class.Halide::Runtime::Internal::(anonymous namespace)::Printer.0"* undef, metadata !1703, metadata !DIExpression()) #10, !dbg !1706
  tail call void @halide_error(i8* %0, i8* getelementptr inbounds ([35 x i8], [35 x i8]* @.str.124, i32 0, i32 0)) #8, !dbg !1708
  br label %44, !dbg !1712

35:                                               ; preds = %32
  %36 = getelementptr inbounds i8, i8* %30, i32 1023, !dbg !1713
  store i8 0, i8* %36, align 1, !dbg !1716, !tbaa !1134
  call void @llvm.dbg.value(metadata %"class.Halide::Runtime::Internal::(anonymous namespace)::Printer.0"* undef, metadata !1694, metadata !DIExpression()) #10, !dbg !1698
  call void @llvm.dbg.value(metadata i8* getelementptr inbounds ([47 x i8], [47 x i8]* @.str.41, i32 0, i32 0), metadata !1697, metadata !DIExpression()) #10, !dbg !1698
  %37 = tail call i8* @halide_string_to_string(i8* nonnull %30, i8* nonnull %36, i8* nonnull getelementptr inbounds ([47 x i8], [47 x i8]* @.str.41, i32 0, i32 0)) #8, !dbg !1700
  call void @llvm.dbg.value(metadata %"class.Halide::Runtime::Internal::(anonymous namespace)::Printer.0"* undef, metadata !1703, metadata !DIExpression()) #10, !dbg !1706
  call void @llvm.dbg.value(metadata %"class.Halide::Runtime::Internal::(anonymous namespace)::Printer.0"* undef, metadata !1717, metadata !DIExpression()) #10, !dbg !1720
  %38 = ptrtoint i8* %37 to i32, !dbg !1723
  %39 = ptrtoint i8* %30 to i32, !dbg !1723
  %40 = add i32 %38, 1, !dbg !1723
  %41 = sub i32 %40, %39, !dbg !1724
  %42 = sext i32 %41 to i64, !dbg !1725
  %43 = tail call i32 @halide_msan_annotate_memory_is_initialized(i8* %0, i8* nonnull %30, i64 %42) #8, !dbg !1726
  tail call void @halide_error(i8* %0, i8* nonnull %30) #8, !dbg !1727
  br label %44

44:                                               ; preds = %35, %33
  tail call void @free(i8* %30) #8, !dbg !1730
  store atomic volatile i8 0, i8* @_ZN6Halide7Runtime8Internal5Metal11thread_lockE release, align 1, !dbg !1733
  br label %89, !dbg !1734

45:                                               ; preds = %27
  call void @llvm.dbg.value(metadata %"class.Halide::Runtime::Internal::(anonymous namespace)::Printer"* undef, metadata !1095, metadata !DIExpression()) #10, !dbg !1735
  call void @llvm.dbg.value(metadata i8* %0, metadata !1098, metadata !DIExpression()) #10, !dbg !1735
  call void @llvm.dbg.value(metadata i8* null, metadata !1099, metadata !DIExpression()) #10, !dbg !1735
  br i1 %31, label %46, label %48, !dbg !1737

46:                                               ; preds = %45
  call void @llvm.dbg.value(metadata %"class.Halide::Runtime::Internal::(anonymous namespace)::Printer"* undef, metadata !1112, metadata !DIExpression()) #10, !dbg !1738
  call void @llvm.dbg.value(metadata i8* getelementptr inbounds ([39 x i8], [39 x i8]* @.str.42, i32 0, i32 0), metadata !1115, metadata !DIExpression()) #10, !dbg !1738
  %47 = tail call i8* @halide_string_to_string(i8* %30, i8* null, i8* nonnull getelementptr inbounds ([39 x i8], [39 x i8]* @.str.42, i32 0, i32 0)) #8, !dbg !1740
  call void @llvm.dbg.value(metadata %"class.Halide::Runtime::Internal::(anonymous namespace)::Printer"* undef, metadata !1121, metadata !DIExpression()) #10, !dbg !1741
  tail call void @halide_error(i8* %0, i8* getelementptr inbounds ([35 x i8], [35 x i8]* @.str.124, i32 0, i32 0)) #8, !dbg !1743
  br label %57, !dbg !1744

48:                                               ; preds = %45
  %49 = getelementptr inbounds i8, i8* %30, i32 1023, !dbg !1745
  store i8 0, i8* %49, align 1, !dbg !1746, !tbaa !1134
  call void @llvm.dbg.value(metadata %"class.Halide::Runtime::Internal::(anonymous namespace)::Printer"* undef, metadata !1112, metadata !DIExpression()) #10, !dbg !1738
  call void @llvm.dbg.value(metadata i8* getelementptr inbounds ([39 x i8], [39 x i8]* @.str.42, i32 0, i32 0), metadata !1115, metadata !DIExpression()) #10, !dbg !1738
  %50 = tail call i8* @halide_string_to_string(i8* nonnull %30, i8* nonnull %49, i8* nonnull getelementptr inbounds ([39 x i8], [39 x i8]* @.str.42, i32 0, i32 0)) #8, !dbg !1740
  call void @llvm.dbg.value(metadata %"class.Halide::Runtime::Internal::(anonymous namespace)::Printer"* undef, metadata !1121, metadata !DIExpression()) #10, !dbg !1741
  call void @llvm.dbg.value(metadata %"class.Halide::Runtime::Internal::(anonymous namespace)::Printer"* undef, metadata !1135, metadata !DIExpression()) #10, !dbg !1747
  %51 = ptrtoint i8* %50 to i32, !dbg !1749
  %52 = ptrtoint i8* %30 to i32, !dbg !1749
  %53 = add i32 %51, 1, !dbg !1749
  %54 = sub i32 %53, %52, !dbg !1750
  %55 = sext i32 %54 to i64, !dbg !1751
  %56 = tail call i32 @halide_msan_annotate_memory_is_initialized(i8* %0, i8* nonnull %30, i64 %55) #8, !dbg !1752
  tail call void @halide_print(i8* %0, i8* nonnull %30) #8, !dbg !1753
  br label %57

57:                                               ; preds = %48, %46
  tail call void @free(i8* %30) #8, !dbg !1754
  %58 = load %struct.halide_metal_device*, %struct.halide_metal_device** @_ZN6Halide7Runtime8Internal5Metal6deviceE, align 4, !dbg !1755, !tbaa !1481
  %59 = tail call %struct.halide_metal_command_queue* @_ZN6Halide7Runtime8Internal5Metal17new_command_queueEP19halide_metal_device(%struct.halide_metal_device* %58) #9, !dbg !1756
  store %struct.halide_metal_command_queue* %59, %struct.halide_metal_command_queue** @_ZN6Halide7Runtime8Internal5Metal5queueE, align 4, !dbg !1757, !tbaa !1481
  %60 = icmp eq %struct.halide_metal_command_queue* %59, null, !dbg !1758
  br i1 %60, label %63, label %61, !dbg !1760

61:                                               ; preds = %57
  %62 = load %struct.halide_metal_device*, %struct.halide_metal_device** @_ZN6Halide7Runtime8Internal5Metal6deviceE, align 4, !dbg !1761, !tbaa !1481
  br label %86, !dbg !1761

63:                                               ; preds = %57
  call void @llvm.dbg.value(metadata %"class.Halide::Runtime::Internal::(anonymous namespace)::Printer.0"* undef, metadata !1683, metadata !DIExpression()) #10, !dbg !1764
  call void @llvm.dbg.value(metadata i8* %0, metadata !1686, metadata !DIExpression()) #10, !dbg !1764
  call void @llvm.dbg.value(metadata i8* null, metadata !1687, metadata !DIExpression()) #10, !dbg !1764
  %64 = tail call i8* @malloc(i32 1024) #8, !dbg !1767
  %65 = icmp eq i8* %64, null, !dbg !1771
  br i1 %65, label %66, label %68, !dbg !1772

66:                                               ; preds = %63
  call void @llvm.dbg.value(metadata %"class.Halide::Runtime::Internal::(anonymous namespace)::Printer.0"* undef, metadata !1694, metadata !DIExpression()) #10, !dbg !1773
  call void @llvm.dbg.value(metadata i8* getelementptr inbounds ([39 x i8], [39 x i8]* @.str.43, i32 0, i32 0), metadata !1697, metadata !DIExpression()) #10, !dbg !1773
  %67 = tail call i8* @halide_string_to_string(i8* %64, i8* null, i8* nonnull getelementptr inbounds ([39 x i8], [39 x i8]* @.str.43, i32 0, i32 0)) #8, !dbg !1775
  call void @llvm.dbg.value(metadata %"class.Halide::Runtime::Internal::(anonymous namespace)::Printer.0"* undef, metadata !1703, metadata !DIExpression()) #10, !dbg !1776
  tail call void @halide_error(i8* %0, i8* getelementptr inbounds ([35 x i8], [35 x i8]* @.str.124, i32 0, i32 0)) #8, !dbg !1778
  br label %77, !dbg !1779

68:                                               ; preds = %63
  %69 = getelementptr inbounds i8, i8* %64, i32 1023, !dbg !1780
  store i8 0, i8* %69, align 1, !dbg !1781, !tbaa !1134
  call void @llvm.dbg.value(metadata %"class.Halide::Runtime::Internal::(anonymous namespace)::Printer.0"* undef, metadata !1694, metadata !DIExpression()) #10, !dbg !1773
  call void @llvm.dbg.value(metadata i8* getelementptr inbounds ([39 x i8], [39 x i8]* @.str.43, i32 0, i32 0), metadata !1697, metadata !DIExpression()) #10, !dbg !1773
  %70 = tail call i8* @halide_string_to_string(i8* nonnull %64, i8* nonnull %69, i8* nonnull getelementptr inbounds ([39 x i8], [39 x i8]* @.str.43, i32 0, i32 0)) #8, !dbg !1775
  call void @llvm.dbg.value(metadata %"class.Halide::Runtime::Internal::(anonymous namespace)::Printer.0"* undef, metadata !1703, metadata !DIExpression()) #10, !dbg !1776
  call void @llvm.dbg.value(metadata %"class.Halide::Runtime::Internal::(anonymous namespace)::Printer.0"* undef, metadata !1717, metadata !DIExpression()) #10, !dbg !1782
  %71 = ptrtoint i8* %70 to i32, !dbg !1784
  %72 = ptrtoint i8* %64 to i32, !dbg !1784
  %73 = add i32 %71, 1, !dbg !1784
  %74 = sub i32 %73, %72, !dbg !1785
  %75 = sext i32 %74 to i64, !dbg !1786
  %76 = tail call i32 @halide_msan_annotate_memory_is_initialized(i8* %0, i8* nonnull %64, i64 %75) #8, !dbg !1787
  tail call void @halide_error(i8* %0, i8* nonnull %64) #8, !dbg !1788
  br label %77

77:                                               ; preds = %68, %66
  tail call void @free(i8* %64) #8, !dbg !1789
  %78 = load i8*, i8** bitcast (%struct.halide_metal_device** @_ZN6Halide7Runtime8Internal5Metal6deviceE to i8**), align 4, !dbg !1790, !tbaa !1481
  tail call void @_ZN6Halide7Runtime8Internal17release_ns_objectEPv(i8* %78) #9, !dbg !1791
  store %struct.halide_metal_device* null, %struct.halide_metal_device** @_ZN6Halide7Runtime8Internal5Metal6deviceE, align 4, !dbg !1792, !tbaa !1481
  store atomic volatile i8 0, i8* @_ZN6Halide7Runtime8Internal5Metal11thread_lockE release, align 1, !dbg !1793
  br label %89, !dbg !1794

79:                                               ; preds = %8
  %80 = load %struct.halide_metal_command_queue*, %struct.halide_metal_command_queue** @_ZN6Halide7Runtime8Internal5Metal5queueE, align 4, !dbg !1761
  %81 = icmp eq %struct.halide_metal_device* %10, null, !dbg !1761
  %82 = icmp ne %struct.halide_metal_command_queue* %80, null, !dbg !1761
  %83 = or i1 %81, %82, !dbg !1761
  br i1 %83, label %86, label %84, !dbg !1761

84:                                               ; preds = %79
  tail call void @halide_print(i8* %0, i8* getelementptr inbounds ([134 x i8], [134 x i8]* @.str.44, i32 0, i32 0)) #8, !dbg !1795
  tail call void @abort() #8, !dbg !1795
  %85 = load %struct.halide_metal_device*, %struct.halide_metal_device** @_ZN6Halide7Runtime8Internal5Metal6deviceE, align 4, !dbg !1797, !tbaa !1481
  br label %86, !dbg !1795

86:                                               ; preds = %61, %79, %84
  %87 = phi %struct.halide_metal_device* [ %10, %79 ], [ %85, %84 ], [ %62, %61 ], !dbg !1797
  store %struct.halide_metal_device* %87, %struct.halide_metal_device** %1, align 4, !dbg !1798, !tbaa !1481
  %88 = load %struct.halide_metal_command_queue*, %struct.halide_metal_command_queue** @_ZN6Halide7Runtime8Internal5Metal5queueE, align 4, !dbg !1799, !tbaa !1481
  store %struct.halide_metal_command_queue* %88, %struct.halide_metal_command_queue** %2, align 4, !dbg !1800, !tbaa !1481
  br label %89, !dbg !1801

89:                                               ; preds = %86, %77, %44
  %90 = phi i32 [ -1, %44 ], [ -1, %77 ], [ 0, %86 ], !dbg !1644
  ret i32 %90, !dbg !1802
}

declare !dbg !1803 extern_weak dso_local void @halide_print(i8*, i8*) local_unnamed_addr #3

declare !dbg !1806 dso_local void @abort() local_unnamed_addr #3

declare !dbg !1807 extern_weak dso_local i32 @halide_start_clock(i8*) local_unnamed_addr #3

; Function Attrs: nounwind willreturn mustprogress
define weak dso_local i32 @halide_metal_release_context(i8* %0) local_unnamed_addr #6 !dbg !1808 {
  call void @llvm.dbg.value(metadata i8* %0, metadata !1810, metadata !DIExpression()), !dbg !1811
  store atomic volatile i8 0, i8* @_ZN6Halide7Runtime8Internal5Metal11thread_lockE release, align 1, !dbg !1812
  ret i32 0, !dbg !1813
}

; Function Attrs: nounwind mustprogress
define weak dso_local void @_ZN6Halide7Runtime8Internal5Metal18MetalContextHolder4saveEPvb(%"class.Halide::Runtime::Internal::Metal::MetalContextHolder"* nonnull dereferenceable(20) %0, i8* %1, i1 zeroext %2) local_unnamed_addr #0 align 2 !dbg !1814 {
  call void @llvm.dbg.value(metadata %"class.Halide::Runtime::Internal::Metal::MetalContextHolder"* %0, metadata !1816, metadata !DIExpression()), !dbg !1820
  call void @llvm.dbg.value(metadata i8* %1, metadata !1818, metadata !DIExpression()), !dbg !1820
  call void @llvm.dbg.value(metadata i1 %2, metadata !1819, metadata !DIExpression(DW_OP_LLVM_convert, 1, DW_ATE_unsigned, DW_OP_LLVM_convert, 8, DW_ATE_unsigned, DW_OP_stack_value)), !dbg !1820
  %4 = getelementptr inbounds %"class.Halide::Runtime::Internal::Metal::MetalContextHolder", %"class.Halide::Runtime::Internal::Metal::MetalContextHolder"* %0, i32 0, i32 1, !dbg !1821
  store i8* %1, i8** %4, align 4, !dbg !1822, !tbaa !1823
  %5 = tail call i8* @_ZN6Halide7Runtime8Internal23create_autorelease_poolEv() #9, !dbg !1825
  %6 = getelementptr inbounds %"class.Halide::Runtime::Internal::Metal::MetalContextHolder", %"class.Halide::Runtime::Internal::Metal::MetalContextHolder"* %0, i32 0, i32 0, !dbg !1826
  store i8* %5, i8** %6, align 4, !dbg !1827, !tbaa !1828
  %7 = load i8*, i8** %4, align 4, !dbg !1829, !tbaa !1823
  %8 = getelementptr inbounds %"class.Halide::Runtime::Internal::Metal::MetalContextHolder", %"class.Halide::Runtime::Internal::Metal::MetalContextHolder"* %0, i32 0, i32 2, !dbg !1830
  %9 = getelementptr inbounds %"class.Halide::Runtime::Internal::Metal::MetalContextHolder", %"class.Halide::Runtime::Internal::Metal::MetalContextHolder"* %0, i32 0, i32 3, !dbg !1831
  %10 = tail call i32 @halide_metal_acquire_context(i8* %7, %struct.halide_metal_device** nonnull %8, %struct.halide_metal_command_queue** nonnull %9, i1 zeroext %2) #9, !dbg !1832
  %11 = getelementptr inbounds %"class.Halide::Runtime::Internal::Metal::MetalContextHolder", %"class.Halide::Runtime::Internal::Metal::MetalContextHolder"* %0, i32 0, i32 4, !dbg !1833
  store i32 %10, i32* %11, align 4, !dbg !1834, !tbaa !1835
  ret void, !dbg !1836
}

; Function Attrs: nounwind mustprogress
define weak dso_local void @_ZN6Halide7Runtime8Internal5Metal18MetalContextHolder7restoreEv(%"class.Halide::Runtime::Internal::Metal::MetalContextHolder"* nonnull dereferenceable(20) %0) local_unnamed_addr #0 align 2 !dbg !1837 {
  call void @llvm.dbg.value(metadata %"class.Halide::Runtime::Internal::Metal::MetalContextHolder"* %0, metadata !1839, metadata !DIExpression()), !dbg !1840
  %2 = getelementptr inbounds %"class.Halide::Runtime::Internal::Metal::MetalContextHolder", %"class.Halide::Runtime::Internal::Metal::MetalContextHolder"* %0, i32 0, i32 1, !dbg !1841
  %3 = load i8*, i8** %2, align 4, !dbg !1841, !tbaa !1823
  %4 = tail call i32 @halide_metal_release_context(i8* %3) #9, !dbg !1842
  %5 = getelementptr inbounds %"class.Halide::Runtime::Internal::Metal::MetalContextHolder", %"class.Halide::Runtime::Internal::Metal::MetalContextHolder"* %0, i32 0, i32 0, !dbg !1843
  %6 = load i8*, i8** %5, align 4, !dbg !1843, !tbaa !1828
  tail call void @_ZN6Halide7Runtime8Internal22drain_autorelease_poolEPv(i8* %6) #9, !dbg !1844
  ret void, !dbg !1845
}

; Function Attrs: nounwind mustprogress
define weak dso_local void @_ZN6Halide7Runtime8Internal5Metal39command_buffer_completed_handler_invokeEPNS2_46command_buffer_completed_handler_block_literalEPNS2_18mtl_command_bufferE(%"struct.Halide::Runtime::Internal::Metal::command_buffer_completed_handler_block_literal"* %0, %"struct.Halide::Runtime::Internal::Metal::mtl_command_buffer"* %1) #0 !dbg !1846 {
  call void @llvm.dbg.value(metadata %"struct.Halide::Runtime::Internal::Metal::command_buffer_completed_handler_block_literal"* %0, metadata !1848, metadata !DIExpression()), !dbg !1851
  call void @llvm.dbg.value(metadata %"struct.Halide::Runtime::Internal::Metal::mtl_command_buffer"* %1, metadata !1849, metadata !DIExpression()), !dbg !1851
  %3 = tail call i8* @_ZN6Halide7Runtime8Internal5Metal20command_buffer_errorEPNS2_18mtl_command_bufferE(%"struct.Halide::Runtime::Internal::Metal::mtl_command_buffer"* %1) #9, !dbg !1852
  call void @llvm.dbg.value(metadata i8* %3, metadata !1850, metadata !DIExpression()), !dbg !1851
  %4 = icmp eq i8* %3, null, !dbg !1853
  br i1 %4, label %6, label %5, !dbg !1855

5:                                                ; preds = %2
  tail call void @_ZN6Halide7Runtime8Internal13ns_log_objectEPv(i8* nonnull %3) #9, !dbg !1856
  tail call void @_ZN6Halide7Runtime8Internal17release_ns_objectEPv(i8* nonnull %3) #9, !dbg !1858
  br label %6, !dbg !1859

6:                                                ; preds = %5, %2
  ret void, !dbg !1860
}

; Function Attrs: nounwind
define weak dso_local i32 @halide_metal_device_malloc(i8* %0, %struct.halide_buffer_t* %1) #4 !dbg !1861 {
  %3 = alloca %"class.Halide::Runtime::Internal::Metal::MetalContextHolder", align 4
  call void @llvm.dbg.value(metadata i8* %0, metadata !1865, metadata !DIExpression()), !dbg !1875
  call void @llvm.dbg.value(metadata %struct.halide_buffer_t* %1, metadata !1866, metadata !DIExpression()), !dbg !1875
  call void @llvm.dbg.value(metadata %"class.Halide::Runtime::Internal::(anonymous namespace)::Printer"* undef, metadata !1095, metadata !DIExpression()) #10, !dbg !1876
  call void @llvm.dbg.value(metadata i8* %0, metadata !1098, metadata !DIExpression()) #10, !dbg !1876
  call void @llvm.dbg.value(metadata i8* null, metadata !1099, metadata !DIExpression()) #10, !dbg !1876
  %4 = tail call i8* @malloc(i32 1024) #8, !dbg !1878
  %5 = icmp eq i8* %4, null, !dbg !1879
  br i1 %5, label %8, label %6, !dbg !1880

6:                                                ; preds = %2
  %7 = getelementptr inbounds i8, i8* %4, i32 1023, !dbg !1881
  store i8 0, i8* %7, align 1, !dbg !1882, !tbaa !1134
  br label %8, !dbg !1883

8:                                                ; preds = %2, %6
  %9 = phi i8* [ %7, %6 ], [ null, %2 ], !dbg !1884
  call void @llvm.dbg.value(metadata %"class.Halide::Runtime::Internal::(anonymous namespace)::Printer"* undef, metadata !1112, metadata !DIExpression()) #10, !dbg !1885
  call void @llvm.dbg.value(metadata i8* getelementptr inbounds ([43 x i8], [43 x i8]* @.str.45, i32 0, i32 0), metadata !1115, metadata !DIExpression()) #10, !dbg !1885
  %10 = tail call i8* @halide_string_to_string(i8* %4, i8* %9, i8* nonnull getelementptr inbounds ([43 x i8], [43 x i8]* @.str.45, i32 0, i32 0)) #8, !dbg !1887
  call void @llvm.dbg.value(metadata %"class.Halide::Runtime::Internal::(anonymous namespace)::Printer"* undef, metadata !1888, metadata !DIExpression()) #10, !dbg !1892
  call void @llvm.dbg.value(metadata i8* %0, metadata !1891, metadata !DIExpression()) #10, !dbg !1892
  %11 = tail call i8* @halide_pointer_to_string(i8* %10, i8* %9, i8* %0) #8, !dbg !1894
  call void @llvm.dbg.value(metadata %"class.Halide::Runtime::Internal::(anonymous namespace)::Printer"* undef, metadata !1112, metadata !DIExpression()) #10, !dbg !1895
  call void @llvm.dbg.value(metadata i8* getelementptr inbounds ([8 x i8], [8 x i8]* @.str.46, i32 0, i32 0), metadata !1115, metadata !DIExpression()) #10, !dbg !1895
  %12 = tail call i8* @halide_string_to_string(i8* %11, i8* %9, i8* nonnull getelementptr inbounds ([8 x i8], [8 x i8]* @.str.46, i32 0, i32 0)) #8, !dbg !1897
  %13 = bitcast %struct.halide_buffer_t* %1 to i8*, !dbg !1898
  call void @llvm.dbg.value(metadata %"class.Halide::Runtime::Internal::(anonymous namespace)::Printer"* undef, metadata !1888, metadata !DIExpression()) #10, !dbg !1899
  call void @llvm.dbg.value(metadata i8* %13, metadata !1891, metadata !DIExpression()) #10, !dbg !1899
  %14 = tail call i8* @halide_pointer_to_string(i8* %12, i8* %9, i8* %13) #8, !dbg !1901
  call void @llvm.dbg.value(metadata %"class.Halide::Runtime::Internal::(anonymous namespace)::Printer"* undef, metadata !1112, metadata !DIExpression()) #10, !dbg !1902
  call void @llvm.dbg.value(metadata i8* getelementptr inbounds ([3 x i8], [3 x i8]* @.str.47, i32 0, i32 0), metadata !1115, metadata !DIExpression()) #10, !dbg !1902
  %15 = tail call i8* @halide_string_to_string(i8* %14, i8* %9, i8* nonnull getelementptr inbounds ([3 x i8], [3 x i8]* @.str.47, i32 0, i32 0)) #8, !dbg !1904
  call void @llvm.dbg.value(metadata %"class.Halide::Runtime::Internal::(anonymous namespace)::Printer"* undef, metadata !1121, metadata !DIExpression()) #10, !dbg !1905
  br i1 %5, label %16, label %17, !dbg !1907

16:                                               ; preds = %8
  tail call void @halide_error(i8* %0, i8* getelementptr inbounds ([35 x i8], [35 x i8]* @.str.124, i32 0, i32 0)) #8, !dbg !1908
  br label %24, !dbg !1909

17:                                               ; preds = %8
  call void @llvm.dbg.value(metadata %"class.Halide::Runtime::Internal::(anonymous namespace)::Printer"* undef, metadata !1135, metadata !DIExpression()) #10, !dbg !1910
  %18 = ptrtoint i8* %15 to i32, !dbg !1912
  %19 = ptrtoint i8* %4 to i32, !dbg !1912
  %20 = add i32 %18, 1, !dbg !1912
  %21 = sub i32 %20, %19, !dbg !1913
  %22 = sext i32 %21 to i64, !dbg !1914
  %23 = tail call i32 @halide_msan_annotate_memory_is_initialized(i8* %0, i8* nonnull %4, i64 %22) #8, !dbg !1915
  tail call void @halide_print(i8* %0, i8* nonnull %4) #8, !dbg !1916
  br label %24

24:                                               ; preds = %16, %17
  call void @free(i8* %4) #8, !dbg !1917
  call void @llvm.dbg.value(metadata %struct.halide_buffer_t* %1, metadata !1918, metadata !DIExpression()), !dbg !1921
  call void @llvm.dbg.value(metadata %struct.halide_buffer_t* %1, metadata !1923, metadata !DIExpression()), !dbg !1929
  call void @llvm.dbg.value(metadata i32 0, metadata !1926, metadata !DIExpression()), !dbg !1929
  call void @llvm.dbg.value(metadata i32 0, metadata !1927, metadata !DIExpression()), !dbg !1931
  %25 = getelementptr inbounds %struct.halide_buffer_t, %struct.halide_buffer_t* %1, i32 0, i32 5, !dbg !1932
  %26 = load i32, i32* %25, align 4, !dbg !1932, !tbaa !1234
  %27 = icmp sgt i32 %26, 0, !dbg !1934
  br i1 %27, label %31, label %28, !dbg !1935

28:                                               ; preds = %24
  call void @llvm.dbg.value(metadata %struct.halide_buffer_t* %1, metadata !1208, metadata !DIExpression(DW_OP_plus_uconst, 24, DW_OP_stack_value)), !dbg !1936
  %29 = getelementptr inbounds %struct.halide_buffer_t, %struct.halide_buffer_t* %1, i32 0, i32 4, i32 1, !dbg !1938
  %30 = load i8, i8* %29, align 1, !dbg !1938, !tbaa !1215
  call void @llvm.dbg.value(metadata %struct.halide_buffer_t* %1, metadata !1939, metadata !DIExpression()), !dbg !1945
  call void @llvm.dbg.value(metadata i32 0, metadata !1942, metadata !DIExpression()), !dbg !1945
  call void @llvm.dbg.value(metadata i32 0, metadata !1943, metadata !DIExpression()), !dbg !1947
  br label %69, !dbg !1948

31:                                               ; preds = %24
  %32 = getelementptr inbounds %struct.halide_buffer_t, %struct.halide_buffer_t* %1, i32 0, i32 6
  %33 = load %struct.halide_dimension_t*, %struct.halide_dimension_t** %32, align 8, !tbaa !1237
  br label %34, !dbg !1935

34:                                               ; preds = %46, %31
  %35 = phi i32 [ 0, %31 ], [ %48, %46 ]
  %36 = phi i32 [ 0, %31 ], [ %47, %46 ]
  call void @llvm.dbg.value(metadata i32 %35, metadata !1927, metadata !DIExpression()), !dbg !1931
  call void @llvm.dbg.value(metadata i32 %36, metadata !1926, metadata !DIExpression()), !dbg !1929
  %37 = getelementptr inbounds %struct.halide_dimension_t, %struct.halide_dimension_t* %33, i32 %35, i32 2, !dbg !1949
  %38 = load i32, i32* %37, align 4, !dbg !1949, !tbaa !1245
  %39 = icmp sgt i32 %38, 0, !dbg !1952
  br i1 %39, label %40, label %46, !dbg !1953

40:                                               ; preds = %34
  %41 = getelementptr inbounds %struct.halide_dimension_t, %struct.halide_dimension_t* %33, i32 %35, i32 1, !dbg !1954
  %42 = load i32, i32* %41, align 4, !dbg !1954, !tbaa !1309
  %43 = add nsw i32 %42, -1, !dbg !1956
  %44 = mul nsw i32 %43, %38, !dbg !1957
  %45 = add nsw i32 %44, %36, !dbg !1958
  call void @llvm.dbg.value(metadata i32 %45, metadata !1926, metadata !DIExpression()), !dbg !1929
  br label %46, !dbg !1959

46:                                               ; preds = %40, %34
  %47 = phi i32 [ %45, %40 ], [ %36, %34 ], !dbg !1929
  call void @llvm.dbg.value(metadata i32 %47, metadata !1926, metadata !DIExpression()), !dbg !1929
  %48 = add nuw nsw i32 %35, 1, !dbg !1960
  call void @llvm.dbg.value(metadata i32 %48, metadata !1927, metadata !DIExpression()), !dbg !1931
  %49 = icmp slt i32 %48, %26, !dbg !1934
  br i1 %49, label %34, label %50, !dbg !1935, !llvm.loop !1961

50:                                               ; preds = %46
  call void @llvm.dbg.value(metadata i32 %47, metadata !1926, metadata !DIExpression(DW_OP_plus_uconst, 1, DW_OP_stack_value)), !dbg !1929
  call void @llvm.dbg.value(metadata %struct.halide_buffer_t* %1, metadata !1208, metadata !DIExpression(DW_OP_plus_uconst, 24, DW_OP_stack_value)), !dbg !1936
  %51 = getelementptr inbounds %struct.halide_buffer_t, %struct.halide_buffer_t* %1, i32 0, i32 4, i32 1, !dbg !1938
  %52 = load i8, i8* %51, align 1, !dbg !1938, !tbaa !1215
  call void @llvm.dbg.value(metadata %struct.halide_buffer_t* %1, metadata !1939, metadata !DIExpression()), !dbg !1945
  call void @llvm.dbg.value(metadata i32 0, metadata !1942, metadata !DIExpression()), !dbg !1945
  call void @llvm.dbg.value(metadata i32 0, metadata !1943, metadata !DIExpression()), !dbg !1947
  br label %53, !dbg !1948

53:                                               ; preds = %65, %50
  %54 = phi i32 [ 0, %50 ], [ %67, %65 ]
  %55 = phi i32 [ 0, %50 ], [ %66, %65 ]
  call void @llvm.dbg.value(metadata i32 %54, metadata !1943, metadata !DIExpression()), !dbg !1947
  call void @llvm.dbg.value(metadata i32 %55, metadata !1942, metadata !DIExpression()), !dbg !1945
  %56 = getelementptr inbounds %struct.halide_dimension_t, %struct.halide_dimension_t* %33, i32 %54, i32 2, !dbg !1963
  %57 = load i32, i32* %56, align 4, !dbg !1963, !tbaa !1245
  %58 = icmp slt i32 %57, 0, !dbg !1967
  br i1 %58, label %59, label %65, !dbg !1968

59:                                               ; preds = %53
  %60 = getelementptr inbounds %struct.halide_dimension_t, %struct.halide_dimension_t* %33, i32 %54, i32 1, !dbg !1969
  %61 = load i32, i32* %60, align 4, !dbg !1969, !tbaa !1309
  %62 = add nsw i32 %61, -1, !dbg !1971
  %63 = mul nsw i32 %62, %57, !dbg !1972
  %64 = add nsw i32 %63, %55, !dbg !1973
  call void @llvm.dbg.value(metadata i32 %64, metadata !1942, metadata !DIExpression()), !dbg !1945
  br label %65, !dbg !1974

65:                                               ; preds = %59, %53
  %66 = phi i32 [ %64, %59 ], [ %55, %53 ], !dbg !1945
  call void @llvm.dbg.value(metadata i32 %66, metadata !1942, metadata !DIExpression()), !dbg !1945
  %67 = add nuw nsw i32 %54, 1, !dbg !1975
  call void @llvm.dbg.value(metadata i32 %67, metadata !1943, metadata !DIExpression()), !dbg !1947
  %68 = icmp slt i32 %67, %26, !dbg !1976
  br i1 %68, label %53, label %69, !dbg !1948, !llvm.loop !1977

69:                                               ; preds = %65, %28
  %70 = phi i8 [ %30, %28 ], [ %52, %65 ]
  %71 = phi i32 [ 0, %28 ], [ %47, %65 ]
  %72 = phi i32 [ 0, %28 ], [ %66, %65 ], !dbg !1945
  %73 = zext i8 %70 to i32, !dbg !1938
  %74 = add nuw nsw i32 %73, 7, !dbg !1979
  %75 = lshr i32 %74, 3, !dbg !1980
  %76 = add nsw i32 %71, 1, !dbg !1981
  call void @llvm.dbg.value(metadata i32 %76, metadata !1926, metadata !DIExpression()), !dbg !1929
  call void @llvm.dbg.value(metadata %struct.halide_buffer_t* %1, metadata !1208, metadata !DIExpression(DW_OP_plus_uconst, 24, DW_OP_stack_value)), !dbg !1982
  %77 = sub i32 %76, %72, !dbg !1984
  %78 = mul i32 %77, %75, !dbg !1984
  call void @llvm.dbg.value(metadata i32 %78, metadata !1867, metadata !DIExpression()), !dbg !1875
  %79 = icmp eq i32 %78, 0, !dbg !1985
  br i1 %79, label %80, label %81, !dbg !1988

80:                                               ; preds = %69
  call void @halide_print(i8* %0, i8* getelementptr inbounds ([102 x i8], [102 x i8]* @.str.48, i32 0, i32 0)) #8, !dbg !1989
  call void @abort() #8, !dbg !1989
  br label %81, !dbg !1989

81:                                               ; preds = %80, %69
  %82 = getelementptr inbounds %struct.halide_buffer_t, %struct.halide_buffer_t* %1, i32 0, i32 0, !dbg !1991
  %83 = load i64, i64* %82, align 8, !dbg !1991, !tbaa !1199
  %84 = icmp eq i64 %83, 0, !dbg !1993
  br i1 %84, label %85, label %189, !dbg !1994

85:                                               ; preds = %81
  call void @llvm.dbg.value(metadata i32 0, metadata !1868, metadata !DIExpression()), !dbg !1995
  %86 = load i32, i32* %25, align 4, !dbg !1996, !tbaa !1234
  %87 = icmp sgt i32 %86, 0, !dbg !1998
  br i1 %87, label %88, label %90, !dbg !1999

88:                                               ; preds = %85
  %89 = getelementptr inbounds %struct.halide_buffer_t, %struct.halide_buffer_t* %1, i32 0, i32 6
  br label %113, !dbg !1999

90:                                               ; preds = %122, %85
  call void @llvm.dbg.value(metadata %"class.Halide::Runtime::Internal::(anonymous namespace)::Printer"* undef, metadata !1095, metadata !DIExpression()) #10, !dbg !2000
  call void @llvm.dbg.value(metadata i8* %0, metadata !1098, metadata !DIExpression()) #10, !dbg !2000
  call void @llvm.dbg.value(metadata i8* null, metadata !1099, metadata !DIExpression()) #10, !dbg !2000
  %91 = call i8* @malloc(i32 1024) #8, !dbg !2002
  %92 = icmp eq i8* %91, null, !dbg !2003
  br i1 %92, label %95, label %93, !dbg !2004

93:                                               ; preds = %90
  %94 = getelementptr inbounds i8, i8* %91, i32 1023, !dbg !2005
  store i8 0, i8* %94, align 1, !dbg !2006, !tbaa !1134
  br label %95, !dbg !2007

95:                                               ; preds = %90, %93
  %96 = phi i8* [ %94, %93 ], [ null, %90 ], !dbg !2008
  call void @llvm.dbg.value(metadata %"class.Halide::Runtime::Internal::(anonymous namespace)::Printer"* undef, metadata !1112, metadata !DIExpression()) #10, !dbg !2009
  call void @llvm.dbg.value(metadata i8* getelementptr inbounds ([16 x i8], [16 x i8]* @.str.50, i32 0, i32 0), metadata !1115, metadata !DIExpression()) #10, !dbg !2009
  %97 = call i8* @halide_string_to_string(i8* %91, i8* %96, i8* nonnull getelementptr inbounds ([16 x i8], [16 x i8]* @.str.50, i32 0, i32 0)) #8, !dbg !2011
  call void @llvm.dbg.value(metadata %"class.Halide::Runtime::Internal::(anonymous namespace)::Printer"* undef, metadata !2012, metadata !DIExpression()) #10, !dbg !2016
  call void @llvm.dbg.value(metadata %struct.halide_buffer_t* %1, metadata !2015, metadata !DIExpression()) #10, !dbg !2016
  %98 = call i8* @halide_buffer_to_string(i8* %97, i8* %96, %struct.halide_buffer_t* nonnull %1) #8, !dbg !2018
  call void @llvm.dbg.value(metadata %"class.Halide::Runtime::Internal::(anonymous namespace)::Printer"* undef, metadata !1112, metadata !DIExpression()) #10, !dbg !2019
  call void @llvm.dbg.value(metadata i8* getelementptr inbounds ([2 x i8], [2 x i8]* @.str.51, i32 0, i32 0), metadata !1115, metadata !DIExpression()) #10, !dbg !2019
  %99 = call i8* @halide_string_to_string(i8* %98, i8* %96, i8* nonnull getelementptr inbounds ([2 x i8], [2 x i8]* @.str.51, i32 0, i32 0)) #8, !dbg !2021
  call void @llvm.dbg.value(metadata %"class.Halide::Runtime::Internal::(anonymous namespace)::Printer"* undef, metadata !1121, metadata !DIExpression()) #10, !dbg !2022
  br i1 %92, label %100, label %101, !dbg !2024

100:                                              ; preds = %95
  call void @halide_error(i8* %0, i8* getelementptr inbounds ([35 x i8], [35 x i8]* @.str.124, i32 0, i32 0)) #8, !dbg !2025
  br label %108, !dbg !2026

101:                                              ; preds = %95
  call void @llvm.dbg.value(metadata %"class.Halide::Runtime::Internal::(anonymous namespace)::Printer"* undef, metadata !1135, metadata !DIExpression()) #10, !dbg !2027
  %102 = ptrtoint i8* %99 to i32, !dbg !2029
  %103 = ptrtoint i8* %91 to i32, !dbg !2029
  %104 = add i32 %102, 1, !dbg !2029
  %105 = sub i32 %104, %103, !dbg !2030
  %106 = sext i32 %105 to i64, !dbg !2031
  %107 = call i32 @halide_msan_annotate_memory_is_initialized(i8* %0, i8* nonnull %91, i64 %106) #8, !dbg !2032
  call void @halide_print(i8* %0, i8* nonnull %91) #8, !dbg !2033
  br label %108

108:                                              ; preds = %101, %100
  call void @free(i8* %91) #8, !dbg !2034
  %109 = bitcast %"class.Halide::Runtime::Internal::Metal::MetalContextHolder"* %3 to i8*, !dbg !2035
  call void @llvm.lifetime.start.p0i8(i64 20, i8* nonnull %109) #10, !dbg !2035
  call void @llvm.dbg.declare(metadata %"class.Halide::Runtime::Internal::Metal::MetalContextHolder"* %3, metadata !1870, metadata !DIExpression()), !dbg !2036
  call void @llvm.dbg.value(metadata %"class.Halide::Runtime::Internal::Metal::MetalContextHolder"* %3, metadata !2037, metadata !DIExpression()) #10, !dbg !2042
  call void @llvm.dbg.value(metadata i8* %0, metadata !2040, metadata !DIExpression()) #10, !dbg !2042
  call void @llvm.dbg.value(metadata i1 true, metadata !2041, metadata !DIExpression(DW_OP_LLVM_convert, 1, DW_ATE_unsigned, DW_OP_LLVM_convert, 8, DW_ATE_unsigned, DW_OP_stack_value)) #10, !dbg !2042
  call void @_ZN6Halide7Runtime8Internal5Metal18MetalContextHolder4saveEPvb(%"class.Halide::Runtime::Internal::Metal::MetalContextHolder"* nonnull dereferenceable(20) %3, i8* %0, i1 zeroext true) #8, !dbg !2044
  %110 = getelementptr inbounds %"class.Halide::Runtime::Internal::Metal::MetalContextHolder", %"class.Halide::Runtime::Internal::Metal::MetalContextHolder"* %3, i32 0, i32 4, !dbg !2046
  %111 = load i32, i32* %110, align 4, !dbg !2046, !tbaa !1835
  %112 = icmp eq i32 %111, 0, !dbg !2048
  br i1 %112, label %126, label %187, !dbg !2049

113:                                              ; preds = %88, %122
  %114 = phi i32 [ %86, %88 ], [ %123, %122 ]
  %115 = phi i32 [ 0, %88 ], [ %124, %122 ]
  call void @llvm.dbg.value(metadata i32 %115, metadata !1868, metadata !DIExpression()), !dbg !1995
  %116 = load %struct.halide_dimension_t*, %struct.halide_dimension_t** %89, align 8, !dbg !2050, !tbaa !1237
  %117 = getelementptr inbounds %struct.halide_dimension_t, %struct.halide_dimension_t* %116, i32 %115, i32 2, !dbg !2050
  %118 = load i32, i32* %117, align 4, !dbg !2050, !tbaa !1245
  %119 = icmp sgt i32 %118, -1, !dbg !2050
  br i1 %119, label %122, label %120, !dbg !2054

120:                                              ; preds = %113
  call void @halide_print(i8* %0, i8* getelementptr inbounds ([116 x i8], [116 x i8]* @.str.49, i32 0, i32 0)) #8, !dbg !2055
  call void @abort() #8, !dbg !2055
  %121 = load i32, i32* %25, align 4, !dbg !1996, !tbaa !1234
  br label %122, !dbg !2055

122:                                              ; preds = %113, %120
  %123 = phi i32 [ %114, %113 ], [ %121, %120 ], !dbg !1996
  %124 = add nuw nsw i32 %115, 1, !dbg !2057
  call void @llvm.dbg.value(metadata i32 %124, metadata !1868, metadata !DIExpression()), !dbg !1995
  %125 = icmp slt i32 %124, %123, !dbg !1998
  br i1 %125, label %113, label %90, !dbg !1999, !llvm.loop !2058

126:                                              ; preds = %108
  %127 = call i64 @halide_current_time_ns(i8* %0) #8, !dbg !2060
  call void @llvm.dbg.value(metadata i64 %127, metadata !1871, metadata !DIExpression()), !dbg !1875
  %128 = call i8* @malloc(i32 16) #8, !dbg !2061
  call void @llvm.dbg.value(metadata i8* %128, metadata !1872, metadata !DIExpression()), !dbg !1875
  %129 = icmp eq i8* %128, null, !dbg !2062
  br i1 %129, label %187, label %130, !dbg !2064

130:                                              ; preds = %126
  %131 = getelementptr inbounds %"class.Halide::Runtime::Internal::Metal::MetalContextHolder", %"class.Halide::Runtime::Internal::Metal::MetalContextHolder"* %3, i32 0, i32 2, !dbg !2065
  %132 = load %struct.halide_metal_device*, %struct.halide_metal_device** %131, align 4, !dbg !2065, !tbaa !2066
  %133 = call %"struct.Halide::Runtime::Internal::Metal::mtl_buffer"* @_ZN6Halide7Runtime8Internal5Metal10new_bufferEP19halide_metal_devicej(%struct.halide_metal_device* %132, i32 %78) #9, !dbg !2067
  call void @llvm.dbg.value(metadata %"struct.Halide::Runtime::Internal::Metal::mtl_buffer"* %133, metadata !1873, metadata !DIExpression()), !dbg !1875
  %134 = icmp eq %"struct.Halide::Runtime::Internal::Metal::mtl_buffer"* %133, null, !dbg !2068
  br i1 %134, label %135, label %155, !dbg !2070

135:                                              ; preds = %130
  call void @free(i8* nonnull %128) #8, !dbg !2071
  call void @llvm.dbg.value(metadata %"class.Halide::Runtime::Internal::(anonymous namespace)::Printer.0"* undef, metadata !1683, metadata !DIExpression()) #10, !dbg !2073
  call void @llvm.dbg.value(metadata i8* %0, metadata !1686, metadata !DIExpression()) #10, !dbg !2073
  call void @llvm.dbg.value(metadata i8* null, metadata !1687, metadata !DIExpression()) #10, !dbg !2073
  %136 = call i8* @malloc(i32 1024) #8, !dbg !2075
  %137 = icmp eq i8* %136, null, !dbg !2076
  br i1 %137, label %140, label %138, !dbg !2077

138:                                              ; preds = %135
  %139 = getelementptr inbounds i8, i8* %136, i32 1023, !dbg !2078
  store i8 0, i8* %139, align 1, !dbg !2079, !tbaa !1134
  br label %140, !dbg !2080

140:                                              ; preds = %135, %138
  %141 = phi i8* [ %139, %138 ], [ null, %135 ], !dbg !2081
  call void @llvm.dbg.value(metadata %"class.Halide::Runtime::Internal::(anonymous namespace)::Printer.0"* undef, metadata !1694, metadata !DIExpression()) #10, !dbg !2082
  call void @llvm.dbg.value(metadata i8* getelementptr inbounds ([42 x i8], [42 x i8]* @.str.52, i32 0, i32 0), metadata !1697, metadata !DIExpression()) #10, !dbg !2082
  %142 = call i8* @halide_string_to_string(i8* %136, i8* %141, i8* nonnull getelementptr inbounds ([42 x i8], [42 x i8]* @.str.52, i32 0, i32 0)) #8, !dbg !2084
  %143 = zext i32 %78 to i64, !dbg !2085
  call void @llvm.dbg.value(metadata %"class.Halide::Runtime::Internal::(anonymous namespace)::Printer.0"* undef, metadata !2086, metadata !DIExpression()) #10, !dbg !2090
  call void @llvm.dbg.value(metadata i64 %143, metadata !2089, metadata !DIExpression()) #10, !dbg !2090
  %144 = call i8* @halide_int64_to_string(i8* %142, i8* %141, i64 %143, i32 1) #8, !dbg !2092
  call void @llvm.dbg.value(metadata %"class.Halide::Runtime::Internal::(anonymous namespace)::Printer.0"* undef, metadata !1694, metadata !DIExpression()) #10, !dbg !2093
  call void @llvm.dbg.value(metadata i8* getelementptr inbounds ([3 x i8], [3 x i8]* @.str.53, i32 0, i32 0), metadata !1697, metadata !DIExpression()) #10, !dbg !2093
  %145 = call i8* @halide_string_to_string(i8* %144, i8* %141, i8* nonnull getelementptr inbounds ([3 x i8], [3 x i8]* @.str.53, i32 0, i32 0)) #8, !dbg !2095
  call void @llvm.dbg.value(metadata %"class.Halide::Runtime::Internal::(anonymous namespace)::Printer.0"* undef, metadata !1703, metadata !DIExpression()) #10, !dbg !2096
  br i1 %137, label %146, label %147, !dbg !2098

146:                                              ; preds = %140
  call void @halide_error(i8* %0, i8* getelementptr inbounds ([35 x i8], [35 x i8]* @.str.124, i32 0, i32 0)) #8, !dbg !2099
  br label %154, !dbg !2100

147:                                              ; preds = %140
  call void @llvm.dbg.value(metadata %"class.Halide::Runtime::Internal::(anonymous namespace)::Printer.0"* undef, metadata !1717, metadata !DIExpression()) #10, !dbg !2101
  %148 = ptrtoint i8* %145 to i32, !dbg !2103
  %149 = ptrtoint i8* %136 to i32, !dbg !2103
  %150 = add i32 %148, 1, !dbg !2103
  %151 = sub i32 %150, %149, !dbg !2104
  %152 = sext i32 %151 to i64, !dbg !2105
  %153 = call i32 @halide_msan_annotate_memory_is_initialized(i8* %0, i8* nonnull %136, i64 %152) #8, !dbg !2106
  call void @halide_error(i8* %0, i8* nonnull %136) #8, !dbg !2107
  br label %154

154:                                              ; preds = %147, %146
  call void @free(i8* %136) #8, !dbg !2108
  br label %187, !dbg !2109

155:                                              ; preds = %130
  %156 = bitcast i8* %128 to %"struct.Halide::Runtime::Internal::Metal::mtl_buffer"**, !dbg !2110
  store %"struct.Halide::Runtime::Internal::Metal::mtl_buffer"* %133, %"struct.Halide::Runtime::Internal::Metal::mtl_buffer"** %156, align 8, !dbg !2111, !tbaa !2112
  %157 = getelementptr inbounds i8, i8* %128, i32 8, !dbg !2114
  %158 = bitcast i8* %157 to i64*, !dbg !2114
  store i64 0, i64* %158, align 8, !dbg !2115, !tbaa !2116
  %159 = ptrtoint i8* %128 to i32, !dbg !2117
  %160 = zext i32 %159 to i64, !dbg !2117
  store i64 %160, i64* %82, align 8, !dbg !2118, !tbaa !1199
  %161 = getelementptr inbounds %struct.halide_buffer_t, %struct.halide_buffer_t* %1, i32 0, i32 1, !dbg !2119
  store %struct.halide_device_interface_t* @_ZN6Halide7Runtime8Internal5Metal22metal_device_interfaceE, %struct.halide_device_interface_t** %161, align 8, !dbg !2120, !tbaa !2121
  %162 = load %struct.halide_device_interface_impl_t*, %struct.halide_device_interface_impl_t** getelementptr inbounds (%struct.halide_device_interface_t, %struct.halide_device_interface_t* @_ZN6Halide7Runtime8Internal5Metal22metal_device_interfaceE, i32 0, i32 15), align 4, !dbg !2122, !tbaa !2123
  %163 = getelementptr inbounds %struct.halide_device_interface_impl_t, %struct.halide_device_interface_impl_t* %162, i32 0, i32 0, !dbg !2125
  %164 = load void ()*, void ()** %163, align 4, !dbg !2125, !tbaa !2126
  call void %164() #8, !dbg !2128
  %165 = call i64 @halide_current_time_ns(i8* %0) #8, !dbg !2129
  call void @llvm.dbg.value(metadata i64 %165, metadata !1874, metadata !DIExpression()), !dbg !1875
  call void @llvm.dbg.value(metadata %"class.Halide::Runtime::Internal::(anonymous namespace)::Printer"* undef, metadata !1095, metadata !DIExpression()) #10, !dbg !2130
  call void @llvm.dbg.value(metadata i8* %0, metadata !1098, metadata !DIExpression()) #10, !dbg !2130
  call void @llvm.dbg.value(metadata i8* null, metadata !1099, metadata !DIExpression()) #10, !dbg !2130
  %166 = call i8* @malloc(i32 1024) #8, !dbg !2132
  %167 = icmp eq i8* %166, null, !dbg !2133
  br i1 %167, label %170, label %168, !dbg !2134

168:                                              ; preds = %155
  %169 = getelementptr inbounds i8, i8* %166, i32 1023, !dbg !2135
  store i8 0, i8* %169, align 1, !dbg !2136, !tbaa !1134
  br label %170, !dbg !2137

170:                                              ; preds = %155, %168
  %171 = phi i8* [ %169, %168 ], [ null, %155 ], !dbg !2138
  call void @llvm.dbg.value(metadata %"class.Halide::Runtime::Internal::(anonymous namespace)::Printer"* undef, metadata !1112, metadata !DIExpression()) #10, !dbg !2139
  call void @llvm.dbg.value(metadata i8* getelementptr inbounds ([11 x i8], [11 x i8]* @.str.54, i32 0, i32 0), metadata !1115, metadata !DIExpression()) #10, !dbg !2139
  %172 = call i8* @halide_string_to_string(i8* %166, i8* %171, i8* nonnull getelementptr inbounds ([11 x i8], [11 x i8]* @.str.54, i32 0, i32 0)) #8, !dbg !2141
  %173 = sub i64 %165, %127, !dbg !2142
  %174 = uitofp i64 %173 to double, !dbg !2143
  %175 = fdiv double %174, 1.000000e+06, !dbg !2144
  call void @llvm.dbg.value(metadata %"class.Halide::Runtime::Internal::(anonymous namespace)::Printer"* undef, metadata !2145, metadata !DIExpression()) #10, !dbg !2149
  call void @llvm.dbg.value(metadata double %175, metadata !2148, metadata !DIExpression()) #10, !dbg !2149
  %176 = call i8* @halide_double_to_string(i8* %172, i8* %171, double %175, i32 1) #8, !dbg !2151
  call void @llvm.dbg.value(metadata %"class.Halide::Runtime::Internal::(anonymous namespace)::Printer"* undef, metadata !1112, metadata !DIExpression()) #10, !dbg !2152
  call void @llvm.dbg.value(metadata i8* getelementptr inbounds ([5 x i8], [5 x i8]* @.str.55, i32 0, i32 0), metadata !1115, metadata !DIExpression()) #10, !dbg !2152
  %177 = call i8* @halide_string_to_string(i8* %176, i8* %171, i8* nonnull getelementptr inbounds ([5 x i8], [5 x i8]* @.str.55, i32 0, i32 0)) #8, !dbg !2154
  call void @llvm.dbg.value(metadata %"class.Halide::Runtime::Internal::(anonymous namespace)::Printer"* undef, metadata !1121, metadata !DIExpression()) #10, !dbg !2155
  br i1 %167, label %178, label %179, !dbg !2157

178:                                              ; preds = %170
  call void @halide_error(i8* %0, i8* getelementptr inbounds ([35 x i8], [35 x i8]* @.str.124, i32 0, i32 0)) #8, !dbg !2158
  br label %186, !dbg !2159

179:                                              ; preds = %170
  call void @llvm.dbg.value(metadata %"class.Halide::Runtime::Internal::(anonymous namespace)::Printer"* undef, metadata !1135, metadata !DIExpression()) #10, !dbg !2160
  %180 = ptrtoint i8* %177 to i32, !dbg !2162
  %181 = ptrtoint i8* %166 to i32, !dbg !2162
  %182 = add i32 %180, 1, !dbg !2162
  %183 = sub i32 %182, %181, !dbg !2163
  %184 = sext i32 %183 to i64, !dbg !2164
  %185 = call i32 @halide_msan_annotate_memory_is_initialized(i8* %0, i8* nonnull %166, i64 %184) #8, !dbg !2165
  call void @halide_print(i8* %0, i8* nonnull %166) #8, !dbg !2166
  br label %186

186:                                              ; preds = %179, %178
  call void @free(i8* %166) #8, !dbg !2167
  br label %187

187:                                              ; preds = %126, %186, %154, %108
  %188 = phi i32 [ %111, %108 ], [ -11, %126 ], [ -1, %154 ], [ 0, %186 ], !dbg !1875
  call void @llvm.dbg.value(metadata %"class.Halide::Runtime::Internal::Metal::MetalContextHolder"* %3, metadata !2168, metadata !DIExpression()) #10, !dbg !2171
  call void @_ZN6Halide7Runtime8Internal5Metal18MetalContextHolder7restoreEv(%"class.Halide::Runtime::Internal::Metal::MetalContextHolder"* nonnull dereferenceable(20) %3) #8, !dbg !2173
  call void @llvm.lifetime.end.p0i8(i64 20, i8* nonnull %109) #10, !dbg !2175
  br label %189

189:                                              ; preds = %81, %187
  %190 = phi i32 [ %188, %187 ], [ 0, %81 ], !dbg !1875
  ret i32 %190, !dbg !2175
}

declare !dbg !2176 extern_weak dso_local i64 @halide_current_time_ns(i8*) local_unnamed_addr #3

declare !dbg !2179 dso_local i8* @malloc(i32) local_unnamed_addr #3

declare !dbg !2182 dso_local void @free(i8*) local_unnamed_addr #3

; Function Attrs: nounwind
define weak dso_local i32 @halide_metal_device_free(i8* %0, %struct.halide_buffer_t* %1) #4 !dbg !2185 {
  call void @llvm.dbg.value(metadata i8* %0, metadata !2187, metadata !DIExpression()), !dbg !2192
  call void @llvm.dbg.value(metadata %struct.halide_buffer_t* %1, metadata !2188, metadata !DIExpression()), !dbg !2192
  call void @llvm.dbg.value(metadata %"class.Halide::Runtime::Internal::(anonymous namespace)::Printer"* undef, metadata !1095, metadata !DIExpression()) #10, !dbg !2193
  call void @llvm.dbg.value(metadata i8* %0, metadata !1098, metadata !DIExpression()) #10, !dbg !2193
  call void @llvm.dbg.value(metadata i8* null, metadata !1099, metadata !DIExpression()) #10, !dbg !2193
  %3 = tail call i8* @malloc(i32 1024) #8, !dbg !2195
  %4 = icmp eq i8* %3, null, !dbg !2196
  br i1 %4, label %7, label %5, !dbg !2197

5:                                                ; preds = %2
  %6 = getelementptr inbounds i8, i8* %3, i32 1023, !dbg !2198
  store i8 0, i8* %6, align 1, !dbg !2199, !tbaa !1134
  br label %7, !dbg !2200

7:                                                ; preds = %2, %5
  %8 = phi i8* [ %6, %5 ], [ null, %2 ], !dbg !2201
  call void @llvm.dbg.value(metadata %"class.Halide::Runtime::Internal::(anonymous namespace)::Printer"* undef, metadata !1112, metadata !DIExpression()) #10, !dbg !2202
  call void @llvm.dbg.value(metadata i8* getelementptr inbounds ([40 x i8], [40 x i8]* @.str.56, i32 0, i32 0), metadata !1115, metadata !DIExpression()) #10, !dbg !2202
  %9 = tail call i8* @halide_string_to_string(i8* %3, i8* %8, i8* nonnull getelementptr inbounds ([40 x i8], [40 x i8]* @.str.56, i32 0, i32 0)) #8, !dbg !2204
  %10 = bitcast %struct.halide_buffer_t* %1 to i8*, !dbg !2205
  call void @llvm.dbg.value(metadata %"class.Halide::Runtime::Internal::(anonymous namespace)::Printer"* undef, metadata !1888, metadata !DIExpression()) #10, !dbg !2206
  call void @llvm.dbg.value(metadata i8* %10, metadata !1891, metadata !DIExpression()) #10, !dbg !2206
  %11 = tail call i8* @halide_pointer_to_string(i8* %9, i8* %8, i8* %10) #8, !dbg !2208
  call void @llvm.dbg.value(metadata %"class.Halide::Runtime::Internal::(anonymous namespace)::Printer"* undef, metadata !1112, metadata !DIExpression()) #10, !dbg !2209
  call void @llvm.dbg.value(metadata i8* getelementptr inbounds ([12 x i8], [12 x i8]* @.str.57, i32 0, i32 0), metadata !1115, metadata !DIExpression()) #10, !dbg !2209
  %12 = tail call i8* @halide_string_to_string(i8* %11, i8* %8, i8* nonnull getelementptr inbounds ([12 x i8], [12 x i8]* @.str.57, i32 0, i32 0)) #8, !dbg !2211
  %13 = getelementptr inbounds %struct.halide_buffer_t, %struct.halide_buffer_t* %1, i32 0, i32 0, !dbg !2212
  %14 = load i64, i64* %13, align 8, !dbg !2212, !tbaa !1199
  call void @llvm.dbg.value(metadata %"class.Halide::Runtime::Internal::(anonymous namespace)::Printer"* undef, metadata !2213, metadata !DIExpression()) #10, !dbg !2217
  call void @llvm.dbg.value(metadata i64 %14, metadata !2216, metadata !DIExpression()) #10, !dbg !2217
  %15 = tail call i8* @halide_uint64_to_string(i8* %12, i8* %8, i64 %14, i32 1) #8, !dbg !2219
  call void @llvm.dbg.value(metadata %"class.Halide::Runtime::Internal::(anonymous namespace)::Printer"* undef, metadata !1112, metadata !DIExpression()) #10, !dbg !2220
  call void @llvm.dbg.value(metadata i8* getelementptr inbounds ([2 x i8], [2 x i8]* @.str.51, i32 0, i32 0), metadata !1115, metadata !DIExpression()) #10, !dbg !2220
  %16 = tail call i8* @halide_string_to_string(i8* %15, i8* %8, i8* nonnull getelementptr inbounds ([2 x i8], [2 x i8]* @.str.51, i32 0, i32 0)) #8, !dbg !2222
  call void @llvm.dbg.value(metadata %"class.Halide::Runtime::Internal::(anonymous namespace)::Printer"* undef, metadata !1121, metadata !DIExpression()) #10, !dbg !2223
  br i1 %4, label %17, label %18, !dbg !2225

17:                                               ; preds = %7
  tail call void @halide_error(i8* %0, i8* getelementptr inbounds ([35 x i8], [35 x i8]* @.str.124, i32 0, i32 0)) #8, !dbg !2226
  br label %25, !dbg !2227

18:                                               ; preds = %7
  call void @llvm.dbg.value(metadata %"class.Halide::Runtime::Internal::(anonymous namespace)::Printer"* undef, metadata !1135, metadata !DIExpression()) #10, !dbg !2228
  %19 = ptrtoint i8* %16 to i32, !dbg !2230
  %20 = ptrtoint i8* %3 to i32, !dbg !2230
  %21 = add i32 %19, 1, !dbg !2230
  %22 = sub i32 %21, %20, !dbg !2231
  %23 = sext i32 %22 to i64, !dbg !2232
  %24 = tail call i32 @halide_msan_annotate_memory_is_initialized(i8* %0, i8* nonnull %3, i64 %23) #8, !dbg !2233
  tail call void @halide_print(i8* %0, i8* nonnull %3) #8, !dbg !2234
  br label %25

25:                                               ; preds = %17, %18
  call void @free(i8* %3) #8, !dbg !2235
  %26 = load i64, i64* %13, align 8, !dbg !2236, !tbaa !1199
  %27 = icmp eq i64 %26, 0, !dbg !2238
  br i1 %27, label %69, label %28, !dbg !2239

28:                                               ; preds = %25
  %29 = call i64 @halide_current_time_ns(i8* %0) #8, !dbg !2240
  call void @llvm.dbg.value(metadata i64 %29, metadata !2189, metadata !DIExpression()), !dbg !2192
  %30 = load i64, i64* %13, align 8, !dbg !2241, !tbaa !1199
  %31 = trunc i64 %30 to i32, !dbg !2242
  %32 = inttoptr i32 %31 to %"struct.Halide::Runtime::Internal::Metal::device_handle"*, !dbg !2242
  call void @llvm.dbg.value(metadata %"struct.Halide::Runtime::Internal::Metal::device_handle"* %32, metadata !2190, metadata !DIExpression()), !dbg !2192
  %33 = getelementptr inbounds %"struct.Halide::Runtime::Internal::Metal::device_handle", %"struct.Halide::Runtime::Internal::Metal::device_handle"* %32, i32 0, i32 1, !dbg !2243
  %34 = load i64, i64* %33, align 8, !dbg !2243, !tbaa !2116
  %35 = icmp eq i64 %34, 0, !dbg !2243
  br i1 %35, label %37, label %36, !dbg !2246

36:                                               ; preds = %28
  call void @halide_print(i8* %0, i8* getelementptr inbounds ([211 x i8], [211 x i8]* @.str.58, i32 0, i32 0)) #8, !dbg !2247
  call void @abort() #8, !dbg !2247
  br label %37, !dbg !2247

37:                                               ; preds = %36, %28
  %38 = inttoptr i32 %31 to i8**, !dbg !2249
  %39 = load i8*, i8** %38, align 8, !dbg !2249, !tbaa !2112
  call void @_ZN6Halide7Runtime8Internal17release_ns_objectEPv(i8* %39) #9, !dbg !2250
  %40 = inttoptr i32 %31 to i8*, !dbg !2251
  call void @free(i8* %40) #8, !dbg !2252
  store i64 0, i64* %13, align 8, !dbg !2253, !tbaa !1199
  %41 = getelementptr inbounds %struct.halide_buffer_t, %struct.halide_buffer_t* %1, i32 0, i32 1, !dbg !2254
  %42 = load %struct.halide_device_interface_t*, %struct.halide_device_interface_t** %41, align 8, !dbg !2254, !tbaa !2121
  %43 = getelementptr inbounds %struct.halide_device_interface_t, %struct.halide_device_interface_t* %42, i32 0, i32 15, !dbg !2255
  %44 = load %struct.halide_device_interface_impl_t*, %struct.halide_device_interface_impl_t** %43, align 4, !dbg !2255, !tbaa !2123
  %45 = getelementptr inbounds %struct.halide_device_interface_impl_t, %struct.halide_device_interface_impl_t* %44, i32 0, i32 1, !dbg !2256
  %46 = load void ()*, void ()** %45, align 4, !dbg !2256, !tbaa !2257
  call void %46() #8, !dbg !2258
  store %struct.halide_device_interface_t* null, %struct.halide_device_interface_t** %41, align 8, !dbg !2259, !tbaa !2121
  %47 = call i64 @halide_current_time_ns(i8* %0) #8, !dbg !2260
  call void @llvm.dbg.value(metadata i64 %47, metadata !2191, metadata !DIExpression()), !dbg !2192
  call void @llvm.dbg.value(metadata %"class.Halide::Runtime::Internal::(anonymous namespace)::Printer"* undef, metadata !1095, metadata !DIExpression()) #10, !dbg !2261
  call void @llvm.dbg.value(metadata i8* %0, metadata !1098, metadata !DIExpression()) #10, !dbg !2261
  call void @llvm.dbg.value(metadata i8* null, metadata !1099, metadata !DIExpression()) #10, !dbg !2261
  %48 = call i8* @malloc(i32 1024) #8, !dbg !2263
  %49 = icmp eq i8* %48, null, !dbg !2264
  br i1 %49, label %52, label %50, !dbg !2265

50:                                               ; preds = %37
  %51 = getelementptr inbounds i8, i8* %48, i32 1023, !dbg !2266
  store i8 0, i8* %51, align 1, !dbg !2267, !tbaa !1134
  br label %52, !dbg !2268

52:                                               ; preds = %37, %50
  %53 = phi i8* [ %51, %50 ], [ null, %37 ], !dbg !2269
  call void @llvm.dbg.value(metadata %"class.Halide::Runtime::Internal::(anonymous namespace)::Printer"* undef, metadata !1112, metadata !DIExpression()) #10, !dbg !2270
  call void @llvm.dbg.value(metadata i8* getelementptr inbounds ([11 x i8], [11 x i8]* @.str.54, i32 0, i32 0), metadata !1115, metadata !DIExpression()) #10, !dbg !2270
  %54 = call i8* @halide_string_to_string(i8* %48, i8* %53, i8* nonnull getelementptr inbounds ([11 x i8], [11 x i8]* @.str.54, i32 0, i32 0)) #8, !dbg !2272
  %55 = sub i64 %47, %29, !dbg !2273
  %56 = uitofp i64 %55 to double, !dbg !2274
  %57 = fdiv double %56, 1.000000e+06, !dbg !2275
  call void @llvm.dbg.value(metadata %"class.Halide::Runtime::Internal::(anonymous namespace)::Printer"* undef, metadata !2145, metadata !DIExpression()) #10, !dbg !2276
  call void @llvm.dbg.value(metadata double %57, metadata !2148, metadata !DIExpression()) #10, !dbg !2276
  %58 = call i8* @halide_double_to_string(i8* %54, i8* %53, double %57, i32 1) #8, !dbg !2278
  call void @llvm.dbg.value(metadata %"class.Halide::Runtime::Internal::(anonymous namespace)::Printer"* undef, metadata !1112, metadata !DIExpression()) #10, !dbg !2279
  call void @llvm.dbg.value(metadata i8* getelementptr inbounds ([5 x i8], [5 x i8]* @.str.55, i32 0, i32 0), metadata !1115, metadata !DIExpression()) #10, !dbg !2279
  %59 = call i8* @halide_string_to_string(i8* %58, i8* %53, i8* nonnull getelementptr inbounds ([5 x i8], [5 x i8]* @.str.55, i32 0, i32 0)) #8, !dbg !2281
  call void @llvm.dbg.value(metadata %"class.Halide::Runtime::Internal::(anonymous namespace)::Printer"* undef, metadata !1121, metadata !DIExpression()) #10, !dbg !2282
  br i1 %49, label %60, label %61, !dbg !2284

60:                                               ; preds = %52
  call void @halide_error(i8* %0, i8* getelementptr inbounds ([35 x i8], [35 x i8]* @.str.124, i32 0, i32 0)) #8, !dbg !2285
  br label %68, !dbg !2286

61:                                               ; preds = %52
  call void @llvm.dbg.value(metadata %"class.Halide::Runtime::Internal::(anonymous namespace)::Printer"* undef, metadata !1135, metadata !DIExpression()) #10, !dbg !2287
  %62 = ptrtoint i8* %59 to i32, !dbg !2289
  %63 = ptrtoint i8* %48 to i32, !dbg !2289
  %64 = add i32 %62, 1, !dbg !2289
  %65 = sub i32 %64, %63, !dbg !2290
  %66 = sext i32 %65 to i64, !dbg !2291
  %67 = call i32 @halide_msan_annotate_memory_is_initialized(i8* %0, i8* nonnull %48, i64 %66) #8, !dbg !2292
  call void @halide_print(i8* %0, i8* nonnull %48) #8, !dbg !2293
  br label %68

68:                                               ; preds = %61, %60
  call void @free(i8* %48) #8, !dbg !2294
  br label %69

69:                                               ; preds = %25, %68
  ret i32 0, !dbg !2295
}

; Function Attrs: nounwind
define weak dso_local i32 @halide_metal_initialize_kernels(i8* %0, i8** %1, i8* %2, i32 %3) local_unnamed_addr #4 !dbg !2296 {
  %5 = alloca %"class.Halide::Runtime::Internal::Metal::MetalContextHolder", align 4
  %6 = alloca %"struct.Halide::Runtime::Internal::Metal::mtl_library"*, align 4
  call void @llvm.dbg.value(metadata i8* %0, metadata !2300, metadata !DIExpression()), !dbg !2308
  call void @llvm.dbg.value(metadata i8** %1, metadata !2301, metadata !DIExpression()), !dbg !2308
  call void @llvm.dbg.value(metadata i8* %2, metadata !2302, metadata !DIExpression()), !dbg !2308
  call void @llvm.dbg.value(metadata i32 %3, metadata !2303, metadata !DIExpression()), !dbg !2308
  %7 = bitcast %"class.Halide::Runtime::Internal::Metal::MetalContextHolder"* %5 to i8*, !dbg !2309
  call void @llvm.lifetime.start.p0i8(i64 20, i8* nonnull %7) #10, !dbg !2309
  call void @llvm.dbg.declare(metadata %"class.Halide::Runtime::Internal::Metal::MetalContextHolder"* %5, metadata !2304, metadata !DIExpression()), !dbg !2310
  call void @llvm.dbg.value(metadata %"class.Halide::Runtime::Internal::Metal::MetalContextHolder"* %5, metadata !2037, metadata !DIExpression()) #10, !dbg !2311
  call void @llvm.dbg.value(metadata i8* %0, metadata !2040, metadata !DIExpression()) #10, !dbg !2311
  call void @llvm.dbg.value(metadata i1 true, metadata !2041, metadata !DIExpression(DW_OP_LLVM_convert, 1, DW_ATE_unsigned, DW_OP_LLVM_convert, 8, DW_ATE_unsigned, DW_OP_stack_value)) #10, !dbg !2311
  call void @_ZN6Halide7Runtime8Internal5Metal18MetalContextHolder4saveEPvb(%"class.Halide::Runtime::Internal::Metal::MetalContextHolder"* nonnull dereferenceable(20) %5, i8* %0, i1 zeroext true) #8, !dbg !2313
  %8 = getelementptr inbounds %"class.Halide::Runtime::Internal::Metal::MetalContextHolder", %"class.Halide::Runtime::Internal::Metal::MetalContextHolder"* %5, i32 0, i32 4, !dbg !2314
  %9 = load i32, i32* %8, align 4, !dbg !2314, !tbaa !1835
  %10 = icmp eq i32 %9, 0, !dbg !2316
  br i1 %10, label %11, label %46, !dbg !2317

11:                                               ; preds = %4
  %12 = call i64 @halide_current_time_ns(i8* %0) #8, !dbg !2318
  call void @llvm.dbg.value(metadata i64 %12, metadata !2305, metadata !DIExpression()), !dbg !2308
  %13 = bitcast %"struct.Halide::Runtime::Internal::Metal::mtl_library"** %6 to i8*, !dbg !2319
  call void @llvm.lifetime.start.p0i8(i64 4, i8* nonnull %13) #10, !dbg !2319
  call void @llvm.dbg.value(metadata %"struct.Halide::Runtime::Internal::Metal::mtl_library"* null, metadata !2306, metadata !DIExpression()), !dbg !2308
  store %"struct.Halide::Runtime::Internal::Metal::mtl_library"* null, %"struct.Halide::Runtime::Internal::Metal::mtl_library"** %6, align 4, !dbg !2320, !tbaa !1481
  %14 = getelementptr inbounds %"class.Halide::Runtime::Internal::Metal::MetalContextHolder", %"class.Halide::Runtime::Internal::Metal::MetalContextHolder"* %5, i32 0, i32 2, !dbg !2321
  %15 = load %struct.halide_metal_device*, %struct.halide_metal_device** %14, align 4, !dbg !2321, !tbaa !2066
  call void @llvm.dbg.value(metadata %"struct.Halide::Runtime::Internal::Metal::mtl_library"** %6, metadata !2306, metadata !DIExpression(DW_OP_deref)), !dbg !2308
  %16 = call zeroext i1 @_ZN6Halide8Internal19GPUCompilationCacheIP19halide_metal_devicePNS_7Runtime8Internal5Metal11mtl_libraryEE18kernel_state_setupIPFS8_S3_PKcjEJS3_SC_iEEEbPvPSF_S3_RS8_T_DpT0_(%"class.Halide::Internal::GPUCompilationCache"* nonnull dereferenceable(20) @_ZN6Halide7Runtime8Internal5Metal17compilation_cacheE, i8* %0, i8** %1, %struct.halide_metal_device* %15, %"struct.Halide::Runtime::Internal::Metal::mtl_library"** nonnull align 4 dereferenceable(4) %6, %"struct.Halide::Runtime::Internal::Metal::mtl_library"* (%struct.halide_metal_device*, i8*, i32)* nonnull @_ZN6Halide7Runtime8Internal5Metal23new_library_with_sourceEP19halide_metal_devicePKcj, %struct.halide_metal_device* %15, i8* %2, i32 %3) #9, !dbg !2323
  br i1 %16, label %17, label %44, !dbg !2324

17:                                               ; preds = %11
  %18 = load %"struct.Halide::Runtime::Internal::Metal::mtl_library"*, %"struct.Halide::Runtime::Internal::Metal::mtl_library"** %6, align 4, !dbg !2325, !tbaa !1481
  call void @llvm.dbg.value(metadata %"struct.Halide::Runtime::Internal::Metal::mtl_library"* %18, metadata !2306, metadata !DIExpression()), !dbg !2308
  %19 = icmp eq %"struct.Halide::Runtime::Internal::Metal::mtl_library"* %18, null, !dbg !2325
  br i1 %19, label %20, label %21, !dbg !2328

20:                                               ; preds = %17
  call void @halide_print(i8* %0, i8* getelementptr inbounds ([111 x i8], [111 x i8]* @.str.59, i32 0, i32 0)) #8, !dbg !2329
  call void @abort() #8, !dbg !2329
  br label %21, !dbg !2329

21:                                               ; preds = %20, %17
  %22 = call i64 @halide_current_time_ns(i8* %0) #8, !dbg !2331
  call void @llvm.dbg.value(metadata i64 %22, metadata !2307, metadata !DIExpression()), !dbg !2308
  call void @llvm.dbg.value(metadata %"class.Halide::Runtime::Internal::(anonymous namespace)::Printer"* undef, metadata !1095, metadata !DIExpression()) #10, !dbg !2332
  call void @llvm.dbg.value(metadata i8* %0, metadata !1098, metadata !DIExpression()) #10, !dbg !2332
  call void @llvm.dbg.value(metadata i8* null, metadata !1099, metadata !DIExpression()) #10, !dbg !2332
  %23 = call i8* @malloc(i32 1024) #8, !dbg !2334
  %24 = icmp eq i8* %23, null, !dbg !2335
  br i1 %24, label %27, label %25, !dbg !2336

25:                                               ; preds = %21
  %26 = getelementptr inbounds i8, i8* %23, i32 1023, !dbg !2337
  store i8 0, i8* %26, align 1, !dbg !2338, !tbaa !1134
  br label %27, !dbg !2339

27:                                               ; preds = %21, %25
  %28 = phi i8* [ %26, %25 ], [ null, %21 ], !dbg !2340
  call void @llvm.dbg.value(metadata %"class.Halide::Runtime::Internal::(anonymous namespace)::Printer"* undef, metadata !1112, metadata !DIExpression()) #10, !dbg !2341
  call void @llvm.dbg.value(metadata i8* getelementptr inbounds ([43 x i8], [43 x i8]* @.str.60, i32 0, i32 0), metadata !1115, metadata !DIExpression()) #10, !dbg !2341
  %29 = call i8* @halide_string_to_string(i8* %23, i8* %28, i8* nonnull getelementptr inbounds ([43 x i8], [43 x i8]* @.str.60, i32 0, i32 0)) #8, !dbg !2343
  %30 = sub i64 %22, %12, !dbg !2344
  %31 = uitofp i64 %30 to double, !dbg !2345
  %32 = fdiv double %31, 1.000000e+06, !dbg !2346
  call void @llvm.dbg.value(metadata %"class.Halide::Runtime::Internal::(anonymous namespace)::Printer"* undef, metadata !2145, metadata !DIExpression()) #10, !dbg !2347
  call void @llvm.dbg.value(metadata double %32, metadata !2148, metadata !DIExpression()) #10, !dbg !2347
  %33 = call i8* @halide_double_to_string(i8* %29, i8* %28, double %32, i32 1) #8, !dbg !2349
  call void @llvm.dbg.value(metadata %"class.Halide::Runtime::Internal::(anonymous namespace)::Printer"* undef, metadata !1112, metadata !DIExpression()) #10, !dbg !2350
  call void @llvm.dbg.value(metadata i8* getelementptr inbounds ([5 x i8], [5 x i8]* @.str.55, i32 0, i32 0), metadata !1115, metadata !DIExpression()) #10, !dbg !2350
  %34 = call i8* @halide_string_to_string(i8* %33, i8* %28, i8* nonnull getelementptr inbounds ([5 x i8], [5 x i8]* @.str.55, i32 0, i32 0)) #8, !dbg !2352
  call void @llvm.dbg.value(metadata %"class.Halide::Runtime::Internal::(anonymous namespace)::Printer"* undef, metadata !1121, metadata !DIExpression()) #10, !dbg !2353
  br i1 %24, label %35, label %36, !dbg !2355

35:                                               ; preds = %27
  call void @halide_error(i8* %0, i8* getelementptr inbounds ([35 x i8], [35 x i8]* @.str.124, i32 0, i32 0)) #8, !dbg !2356
  br label %43, !dbg !2357

36:                                               ; preds = %27
  call void @llvm.dbg.value(metadata %"class.Halide::Runtime::Internal::(anonymous namespace)::Printer"* undef, metadata !1135, metadata !DIExpression()) #10, !dbg !2358
  %37 = ptrtoint i8* %34 to i32, !dbg !2360
  %38 = ptrtoint i8* %23 to i32, !dbg !2360
  %39 = add i32 %37, 1, !dbg !2360
  %40 = sub i32 %39, %38, !dbg !2361
  %41 = sext i32 %40 to i64, !dbg !2362
  %42 = call i32 @halide_msan_annotate_memory_is_initialized(i8* %0, i8* nonnull %23, i64 %41) #8, !dbg !2363
  call void @halide_print(i8* %0, i8* nonnull %23) #8, !dbg !2364
  br label %43

43:                                               ; preds = %36, %35
  call void @free(i8* %23) #8, !dbg !2365
  br label %44

44:                                               ; preds = %11, %43
  %45 = phi i32 [ 0, %43 ], [ -1, %11 ], !dbg !2308
  call void @llvm.lifetime.end.p0i8(i64 4, i8* nonnull %13) #10, !dbg !2366
  br label %46

46:                                               ; preds = %4, %44
  %47 = phi i32 [ %45, %44 ], [ %9, %4 ], !dbg !2308
  call void @llvm.dbg.value(metadata %"class.Halide::Runtime::Internal::Metal::MetalContextHolder"* %5, metadata !2168, metadata !DIExpression()) #10, !dbg !2367
  call void @_ZN6Halide7Runtime8Internal5Metal18MetalContextHolder7restoreEv(%"class.Halide::Runtime::Internal::Metal::MetalContextHolder"* nonnull dereferenceable(20) %5) #8, !dbg !2369
  call void @llvm.lifetime.end.p0i8(i64 20, i8* nonnull %7) #10, !dbg !2366
  ret i32 %47, !dbg !2366
}

; Function Attrs: nounwind
define linkonce_odr dso_local zeroext i1 @_ZN6Halide8Internal19GPUCompilationCacheIP19halide_metal_devicePNS_7Runtime8Internal5Metal11mtl_libraryEE18kernel_state_setupIPFS8_S3_PKcjEJS3_SC_iEEEbPvPSF_S3_RS8_T_DpT0_(%"class.Halide::Internal::GPUCompilationCache"* nonnull dereferenceable(20) %0, i8* %1, i8** %2, %struct.halide_metal_device* %3, %"struct.Halide::Runtime::Internal::Metal::mtl_library"** nonnull align 4 dereferenceable(4) %4, %"struct.Halide::Runtime::Internal::Metal::mtl_library"* (%struct.halide_metal_device*, i8*, i32)* %5, %struct.halide_metal_device* %6, i8* %7, i32 %8) local_unnamed_addr #4 comdat align 2 !dbg !2370 {
  %10 = alloca %"struct.Halide::Internal::GPUCompilationCache<halide_metal_device *, Halide::Runtime::Internal::Metal::mtl_library *>::CachedCompilation", align 4
  call void @llvm.dbg.value(metadata %"class.Halide::Internal::GPUCompilationCache"* %0, metadata !2385, metadata !DIExpression()), !dbg !2411
  call void @llvm.dbg.value(metadata i8* %1, metadata !2387, metadata !DIExpression()), !dbg !2411
  call void @llvm.dbg.value(metadata i8** %2, metadata !2388, metadata !DIExpression()), !dbg !2411
  call void @llvm.dbg.value(metadata %struct.halide_metal_device* %3, metadata !2389, metadata !DIExpression()), !dbg !2411
  call void @llvm.dbg.value(metadata %"struct.Halide::Runtime::Internal::Metal::mtl_library"** %4, metadata !2390, metadata !DIExpression()), !dbg !2411
  call void @llvm.dbg.value(metadata %"struct.Halide::Runtime::Internal::Metal::mtl_library"* (%struct.halide_metal_device*, i8*, i32)* %5, metadata !2391, metadata !DIExpression()), !dbg !2411
  call void @llvm.dbg.value(metadata %struct.halide_metal_device* %6, metadata !2392, metadata !DIExpression()), !dbg !2411
  call void @llvm.dbg.value(metadata i8* %7, metadata !2393, metadata !DIExpression()), !dbg !2411
  call void @llvm.dbg.value(metadata i32 %8, metadata !2394, metadata !DIExpression()), !dbg !2411
  %11 = getelementptr inbounds %"class.Halide::Internal::GPUCompilationCache", %"class.Halide::Internal::GPUCompilationCache"* %0, i32 0, i32 0, !dbg !2412
  call void @llvm.dbg.value(metadata %"struct.Halide::Runtime::Internal::ScopedMutexLock"* undef, metadata !2413, metadata !DIExpression()) #10, !dbg !2418
  call void @llvm.dbg.value(metadata %struct.halide_mutex* %11, metadata !2416, metadata !DIExpression()) #10, !dbg !2418
  call void @llvm.dbg.value(metadata %struct.halide_mutex* %11, metadata !2395, metadata !DIExpression()), !dbg !2411
  tail call void @halide_mutex_lock(%struct.halide_mutex* nonnull %11) #8, !dbg !2420
  %12 = bitcast i8** %2 to i32*, !dbg !2422
  call void @llvm.dbg.value(metadata i32* %12, metadata !2408, metadata !DIExpression()), !dbg !2411
  %13 = load i32, i32* %12, align 4, !dbg !2423, !tbaa !2425
  %14 = icmp eq i32 %13, 0, !dbg !2426
  br i1 %14, label %15, label %19, !dbg !2427

15:                                               ; preds = %9
  %16 = getelementptr inbounds %"class.Halide::Internal::GPUCompilationCache", %"class.Halide::Internal::GPUCompilationCache"* %0, i32 0, i32 4, !dbg !2428
  %17 = load i32, i32* %16, align 4, !dbg !2430, !tbaa !2431
  %18 = add i32 %17, 1, !dbg !2430
  store i32 %18, i32* %16, align 4, !dbg !2430, !tbaa !2431
  store i32 %17, i32* %12, align 4, !dbg !2434, !tbaa !2425
  br label %19, !dbg !2435

19:                                               ; preds = %15, %9
  %20 = phi i32 [ %17, %15 ], [ %13, %9 ], !dbg !2436
  call void @llvm.dbg.value(metadata %"class.Halide::Internal::GPUCompilationCache"* %0, metadata !2438, metadata !DIExpression()), !dbg !2451
  call void @llvm.dbg.value(metadata %struct.halide_metal_device* %3, metadata !2441, metadata !DIExpression()), !dbg !2451
  call void @llvm.dbg.value(metadata i32 %20, metadata !2442, metadata !DIExpression()), !dbg !2451
  call void @llvm.dbg.value(metadata %"struct.Halide::Runtime::Internal::Metal::mtl_library"*** undef, metadata !2443, metadata !DIExpression()), !dbg !2451
  call void @llvm.dbg.value(metadata i32 1, metadata !2444, metadata !DIExpression()), !dbg !2451
  %21 = getelementptr inbounds %"class.Halide::Internal::GPUCompilationCache", %"class.Halide::Internal::GPUCompilationCache"* %0, i32 0, i32 1, !dbg !2453
  %22 = load i32, i32* %21, align 4, !dbg !2453, !tbaa !2455
  %23 = icmp eq i32 %22, 0, !dbg !2456
  br i1 %23, label %58, label %24, !dbg !2457

24:                                               ; preds = %19
  call void @llvm.dbg.value(metadata %struct.halide_metal_device* %3, metadata !2458, metadata !DIExpression()), !dbg !2464
  call void @llvm.dbg.value(metadata i32 %20, metadata !2461, metadata !DIExpression()), !dbg !2464
  call void @llvm.dbg.value(metadata i32 %22, metadata !2462, metadata !DIExpression()), !dbg !2464
  %25 = ptrtoint %struct.halide_metal_device* %3 to i32, !dbg !2466
  %26 = add i32 %20, %25, !dbg !2467
  call void @llvm.dbg.value(metadata i32 %26, metadata !2463, metadata !DIExpression()), !dbg !2464
  %27 = mul i32 %26, -1640531527, !dbg !2468
  %28 = sub i32 32, %22, !dbg !2471
  %29 = lshr i32 %27, %28, !dbg !2472
  call void @llvm.dbg.value(metadata i32 %29, metadata !2445, metadata !DIExpression()), !dbg !2451
  call void @llvm.dbg.value(metadata i32 0, metadata !2446, metadata !DIExpression()), !dbg !2473
  %30 = shl nuw i32 1, %22, !dbg !2474
  %31 = icmp eq i32 %22, 31, !dbg !2475
  br i1 %31, label %58, label %32, !dbg !2476

32:                                               ; preds = %24
  %33 = add nsw i32 %30, -1
  %34 = getelementptr inbounds %"class.Halide::Internal::GPUCompilationCache", %"class.Halide::Internal::GPUCompilationCache"* %0, i32 0, i32 2
  %35 = load %"struct.Halide::Internal::GPUCompilationCache<halide_metal_device *, Halide::Runtime::Internal::Metal::mtl_library *>::CachedCompilation"*, %"struct.Halide::Internal::GPUCompilationCache<halide_metal_device *, Halide::Runtime::Internal::Metal::mtl_library *>::CachedCompilation"** %34, align 4, !tbaa !2477
  br label %38, !dbg !2476

36:                                               ; preds = %45
  call void @llvm.dbg.value(metadata i32 %51, metadata !2446, metadata !DIExpression()), !dbg !2473
  %37 = icmp slt i32 %51, %30, !dbg !2475
  br i1 %37, label %38, label %58, !dbg !2476, !llvm.loop !2478

38:                                               ; preds = %36, %32
  %39 = phi i32 [ 0, %32 ], [ %51, %36 ]
  call void @llvm.dbg.value(metadata i32 %39, metadata !2446, metadata !DIExpression()), !dbg !2473
  %40 = add i32 %39, %29, !dbg !2480
  %41 = and i32 %40, %33, !dbg !2481
  call void @llvm.dbg.value(metadata i32 %41, metadata !2448, metadata !DIExpression()), !dbg !2482
  %42 = getelementptr inbounds %"struct.Halide::Internal::GPUCompilationCache<halide_metal_device *, Halide::Runtime::Internal::Metal::mtl_library *>::CachedCompilation", %"struct.Halide::Internal::GPUCompilationCache<halide_metal_device *, Halide::Runtime::Internal::Metal::mtl_library *>::CachedCompilation"* %35, i32 %41, i32 2, !dbg !2483
  %43 = load i32, i32* %42, align 4, !dbg !2483, !tbaa !2485
  %44 = icmp eq i32 %43, 0, !dbg !2487
  br i1 %44, label %58, label %45, !dbg !2488

45:                                               ; preds = %38
  %46 = getelementptr inbounds %"struct.Halide::Internal::GPUCompilationCache<halide_metal_device *, Halide::Runtime::Internal::Metal::mtl_library *>::CachedCompilation", %"struct.Halide::Internal::GPUCompilationCache<halide_metal_device *, Halide::Runtime::Internal::Metal::mtl_library *>::CachedCompilation"* %35, i32 %41, i32 0, !dbg !2489
  %47 = load %struct.halide_metal_device*, %struct.halide_metal_device** %46, align 4, !dbg !2489, !tbaa !2491
  %48 = icmp eq %struct.halide_metal_device* %47, %3, !dbg !2492
  %49 = icmp eq i32 %43, %20
  %50 = and i1 %49, %48, !dbg !2493
  %51 = add nuw nsw i32 %39, 1, !dbg !2494
  call void @llvm.dbg.value(metadata i32 %51, metadata !2446, metadata !DIExpression()), !dbg !2473
  br i1 %50, label %52, label %36, !dbg !2493

52:                                               ; preds = %45
  %53 = getelementptr inbounds %"struct.Halide::Internal::GPUCompilationCache<halide_metal_device *, Halide::Runtime::Internal::Metal::mtl_library *>::CachedCompilation", %"struct.Halide::Internal::GPUCompilationCache<halide_metal_device *, Halide::Runtime::Internal::Metal::mtl_library *>::CachedCompilation"* %35, i32 %41, i32 1, !dbg !2495
  %54 = getelementptr inbounds %"struct.Halide::Internal::GPUCompilationCache<halide_metal_device *, Halide::Runtime::Internal::Metal::mtl_library *>::CachedCompilation", %"struct.Halide::Internal::GPUCompilationCache<halide_metal_device *, Halide::Runtime::Internal::Metal::mtl_library *>::CachedCompilation"* %35, i32 %41, i32 3, !dbg !2497
  %55 = load i32, i32* %54, align 4, !dbg !2500, !tbaa !2501
  %56 = add i32 %55, 1, !dbg !2500
  store i32 %56, i32* %54, align 4, !dbg !2500, !tbaa !2501
  call void @llvm.dbg.value(metadata %"struct.Halide::Runtime::Internal::Metal::mtl_library"** %53, metadata !2409, metadata !DIExpression()), !dbg !2411
  %57 = load %"struct.Halide::Runtime::Internal::Metal::mtl_library"*, %"struct.Halide::Runtime::Internal::Metal::mtl_library"** %53, align 4, !dbg !2502, !tbaa !1481
  store %"struct.Halide::Runtime::Internal::Metal::mtl_library"* %57, %"struct.Halide::Runtime::Internal::Metal::mtl_library"** %4, align 4, !dbg !2504, !tbaa !1481
  br label %96, !dbg !2505

58:                                               ; preds = %38, %36, %24, %19
  %59 = tail call %"struct.Halide::Runtime::Internal::Metal::mtl_library"* %5(%struct.halide_metal_device* %6, i8* %7, i32 %8) #8, !dbg !2506
  call void @llvm.dbg.value(metadata %"struct.Halide::Runtime::Internal::Metal::mtl_library"* %59, metadata !2410, metadata !DIExpression()), !dbg !2411
  call void @llvm.dbg.value(metadata %"class.Halide::Runtime::Internal::(anonymous namespace)::Printer"* undef, metadata !1095, metadata !DIExpression()) #10, !dbg !2507
  call void @llvm.dbg.value(metadata i8* %1, metadata !1098, metadata !DIExpression()) #10, !dbg !2507
  call void @llvm.dbg.value(metadata i8* null, metadata !1099, metadata !DIExpression()) #10, !dbg !2507
  %60 = tail call i8* @malloc(i32 1024) #8, !dbg !2509
  %61 = icmp eq i8* %60, null, !dbg !2510
  br i1 %61, label %64, label %62, !dbg !2511

62:                                               ; preds = %58
  %63 = getelementptr inbounds i8, i8* %60, i32 1023, !dbg !2512
  store i8 0, i8* %63, align 1, !dbg !2513, !tbaa !1134
  br label %64, !dbg !2514

64:                                               ; preds = %58, %62
  %65 = phi i8* [ %63, %62 ], [ null, %58 ], !dbg !2515
  call void @llvm.dbg.value(metadata %"class.Halide::Runtime::Internal::(anonymous namespace)::Printer"* undef, metadata !1112, metadata !DIExpression()) #10, !dbg !2516
  call void @llvm.dbg.value(metadata i8* getelementptr inbounds ([26 x i8], [26 x i8]* @.str.126, i32 0, i32 0), metadata !1115, metadata !DIExpression()) #10, !dbg !2516
  %66 = tail call i8* @halide_string_to_string(i8* %60, i8* %65, i8* nonnull getelementptr inbounds ([26 x i8], [26 x i8]* @.str.126, i32 0, i32 0)) #8, !dbg !2518
  %67 = bitcast %"struct.Halide::Runtime::Internal::Metal::mtl_library"* %59 to i8*, !dbg !2519
  call void @llvm.dbg.value(metadata %"class.Halide::Runtime::Internal::(anonymous namespace)::Printer"* undef, metadata !1888, metadata !DIExpression()) #10, !dbg !2520
  call void @llvm.dbg.value(metadata i8* %67, metadata !1891, metadata !DIExpression()) #10, !dbg !2520
  %68 = tail call i8* @halide_pointer_to_string(i8* %66, i8* %65, i8* %67) #8, !dbg !2522
  call void @llvm.dbg.value(metadata %"class.Halide::Runtime::Internal::(anonymous namespace)::Printer"* undef, metadata !1112, metadata !DIExpression()) #10, !dbg !2523
  call void @llvm.dbg.value(metadata i8* getelementptr inbounds ([5 x i8], [5 x i8]* @.str.127, i32 0, i32 0), metadata !1115, metadata !DIExpression()) #10, !dbg !2523
  %69 = tail call i8* @halide_string_to_string(i8* %68, i8* %65, i8* nonnull getelementptr inbounds ([5 x i8], [5 x i8]* @.str.127, i32 0, i32 0)) #8, !dbg !2525
  %70 = load i32, i32* %12, align 4, !dbg !2526, !tbaa !2425
  call void @llvm.dbg.value(metadata %"class.Halide::Runtime::Internal::(anonymous namespace)::Printer"* undef, metadata !2527, metadata !DIExpression()) #10, !dbg !2531
  call void @llvm.dbg.value(metadata i32 %70, metadata !2530, metadata !DIExpression()) #10, !dbg !2531
  %71 = zext i32 %70 to i64, !dbg !2533
  %72 = tail call i8* @halide_uint64_to_string(i8* %69, i8* %65, i64 %71, i32 1) #8, !dbg !2534
  call void @llvm.dbg.value(metadata %"class.Halide::Runtime::Internal::(anonymous namespace)::Printer"* undef, metadata !1112, metadata !DIExpression()) #10, !dbg !2535
  call void @llvm.dbg.value(metadata i8* getelementptr inbounds ([10 x i8], [10 x i8]* @.str.128, i32 0, i32 0), metadata !1115, metadata !DIExpression()) #10, !dbg !2535
  %73 = tail call i8* @halide_string_to_string(i8* %72, i8* %65, i8* nonnull getelementptr inbounds ([10 x i8], [10 x i8]* @.str.128, i32 0, i32 0)) #8, !dbg !2537
  %74 = bitcast %struct.halide_metal_device* %3 to i8*, !dbg !2538
  call void @llvm.dbg.value(metadata %"class.Halide::Runtime::Internal::(anonymous namespace)::Printer"* undef, metadata !1888, metadata !DIExpression()) #10, !dbg !2539
  call void @llvm.dbg.value(metadata i8* %74, metadata !1891, metadata !DIExpression()) #10, !dbg !2539
  %75 = tail call i8* @halide_pointer_to_string(i8* %73, i8* %65, i8* %74) #8, !dbg !2541
  call void @llvm.dbg.value(metadata %"class.Halide::Runtime::Internal::(anonymous namespace)::Printer"* undef, metadata !1112, metadata !DIExpression()) #10, !dbg !2542
  call void @llvm.dbg.value(metadata i8* getelementptr inbounds ([2 x i8], [2 x i8]* @.str.51, i32 0, i32 0), metadata !1115, metadata !DIExpression()) #10, !dbg !2542
  %76 = tail call i8* @halide_string_to_string(i8* %75, i8* %65, i8* nonnull getelementptr inbounds ([2 x i8], [2 x i8]* @.str.51, i32 0, i32 0)) #8, !dbg !2544
  call void @llvm.dbg.value(metadata %"class.Halide::Runtime::Internal::(anonymous namespace)::Printer"* undef, metadata !1121, metadata !DIExpression()) #10, !dbg !2545
  br i1 %61, label %77, label %78, !dbg !2547

77:                                               ; preds = %64
  tail call void @halide_error(i8* %1, i8* getelementptr inbounds ([35 x i8], [35 x i8]* @.str.124, i32 0, i32 0)) #8, !dbg !2548
  br label %85, !dbg !2549

78:                                               ; preds = %64
  call void @llvm.dbg.value(metadata %"class.Halide::Runtime::Internal::(anonymous namespace)::Printer"* undef, metadata !1135, metadata !DIExpression()) #10, !dbg !2550
  %79 = ptrtoint i8* %76 to i32, !dbg !2552
  %80 = ptrtoint i8* %60 to i32, !dbg !2552
  %81 = add i32 %79, 1, !dbg !2552
  %82 = sub i32 %81, %80, !dbg !2553
  %83 = sext i32 %82 to i64, !dbg !2554
  %84 = tail call i32 @halide_msan_annotate_memory_is_initialized(i8* %1, i8* nonnull %60, i64 %83) #8, !dbg !2555
  tail call void @halide_print(i8* %1, i8* nonnull %60) #8, !dbg !2556
  br label %85

85:                                               ; preds = %77, %78
  call void @free(i8* %60) #8, !dbg !2557
  %86 = icmp eq %"struct.Halide::Runtime::Internal::Metal::mtl_library"* %59, null, !dbg !2558
  br i1 %86, label %96, label %87, !dbg !2560

87:                                               ; preds = %85
  %88 = bitcast %"struct.Halide::Internal::GPUCompilationCache<halide_metal_device *, Halide::Runtime::Internal::Metal::mtl_library *>::CachedCompilation"* %10 to i8*, !dbg !2561
  call void @llvm.lifetime.start.p0i8(i64 16, i8* nonnull %88) #10, !dbg !2561
  %89 = load i32, i32* %12, align 4, !dbg !2563, !tbaa !2425
  call void @llvm.dbg.value(metadata %"struct.Halide::Internal::GPUCompilationCache<halide_metal_device *, Halide::Runtime::Internal::Metal::mtl_library *>::CachedCompilation"* %10, metadata !2564, metadata !DIExpression()), !dbg !2571
  call void @llvm.dbg.value(metadata %struct.halide_metal_device* %3, metadata !2567, metadata !DIExpression()), !dbg !2571
  call void @llvm.dbg.value(metadata %"struct.Halide::Runtime::Internal::Metal::mtl_library"* %59, metadata !2568, metadata !DIExpression()), !dbg !2571
  call void @llvm.dbg.value(metadata i32 %89, metadata !2569, metadata !DIExpression()), !dbg !2571
  call void @llvm.dbg.value(metadata i32 1, metadata !2570, metadata !DIExpression()), !dbg !2571
  %90 = getelementptr inbounds %"struct.Halide::Internal::GPUCompilationCache<halide_metal_device *, Halide::Runtime::Internal::Metal::mtl_library *>::CachedCompilation", %"struct.Halide::Internal::GPUCompilationCache<halide_metal_device *, Halide::Runtime::Internal::Metal::mtl_library *>::CachedCompilation"* %10, i32 0, i32 0, !dbg !2573
  store %struct.halide_metal_device* %3, %struct.halide_metal_device** %90, align 4, !dbg !2573, !tbaa !2491
  %91 = getelementptr inbounds %"struct.Halide::Internal::GPUCompilationCache<halide_metal_device *, Halide::Runtime::Internal::Metal::mtl_library *>::CachedCompilation", %"struct.Halide::Internal::GPUCompilationCache<halide_metal_device *, Halide::Runtime::Internal::Metal::mtl_library *>::CachedCompilation"* %10, i32 0, i32 1, !dbg !2574
  store %"struct.Halide::Runtime::Internal::Metal::mtl_library"* %59, %"struct.Halide::Runtime::Internal::Metal::mtl_library"** %91, align 4, !dbg !2574, !tbaa !2575
  %92 = getelementptr inbounds %"struct.Halide::Internal::GPUCompilationCache<halide_metal_device *, Halide::Runtime::Internal::Metal::mtl_library *>::CachedCompilation", %"struct.Halide::Internal::GPUCompilationCache<halide_metal_device *, Halide::Runtime::Internal::Metal::mtl_library *>::CachedCompilation"* %10, i32 0, i32 2, !dbg !2576
  store i32 %89, i32* %92, align 4, !dbg !2576, !tbaa !2485
  %93 = getelementptr inbounds %"struct.Halide::Internal::GPUCompilationCache<halide_metal_device *, Halide::Runtime::Internal::Metal::mtl_library *>::CachedCompilation", %"struct.Halide::Internal::GPUCompilationCache<halide_metal_device *, Halide::Runtime::Internal::Metal::mtl_library *>::CachedCompilation"* %10, i32 0, i32 3, !dbg !2577
  store i32 1, i32* %93, align 4, !dbg !2577, !tbaa !2501
  %94 = call zeroext i1 @_ZN6Halide8Internal19GPUCompilationCacheIP19halide_metal_devicePNS_7Runtime8Internal5Metal11mtl_libraryEE6insertERKNS9_17CachedCompilationE(%"class.Halide::Internal::GPUCompilationCache"* nonnull dereferenceable(20) %0, %"struct.Halide::Internal::GPUCompilationCache<halide_metal_device *, Halide::Runtime::Internal::Metal::mtl_library *>::CachedCompilation"* nonnull align 4 dereferenceable(16) %10) #9, !dbg !2578
  call void @llvm.lifetime.end.p0i8(i64 16, i8* nonnull %88) #10, !dbg !2579
  br i1 %94, label %95, label %96, !dbg !2580

95:                                               ; preds = %87
  store %"struct.Halide::Runtime::Internal::Metal::mtl_library"* %59, %"struct.Halide::Runtime::Internal::Metal::mtl_library"** %4, align 4, !dbg !2581, !tbaa !1481
  br label %96, !dbg !2582

96:                                               ; preds = %95, %85, %87, %52
  %97 = phi i1 [ true, %52 ], [ true, %95 ], [ false, %85 ], [ false, %87 ], !dbg !2411
  call void @llvm.dbg.value(metadata %"struct.Halide::Runtime::Internal::ScopedMutexLock"* undef, metadata !2583, metadata !DIExpression()) #10, !dbg !2586
  call void @halide_mutex_unlock(%struct.halide_mutex* nonnull %11) #8, !dbg !2588
  ret i1 %97, !dbg !2590
}

; Function Attrs: nounwind
define weak dso_local void @halide_metal_finalize_kernels(i8* %0, i8* %1) local_unnamed_addr #4 !dbg !2591 {
  %3 = alloca %"class.Halide::Runtime::Internal::Metal::MetalContextHolder", align 4
  call void @llvm.dbg.value(metadata i8* %0, metadata !2595, metadata !DIExpression()), !dbg !2598
  call void @llvm.dbg.value(metadata i8* %1, metadata !2596, metadata !DIExpression()), !dbg !2598
  %4 = bitcast %"class.Halide::Runtime::Internal::Metal::MetalContextHolder"* %3 to i8*, !dbg !2599
  call void @llvm.lifetime.start.p0i8(i64 20, i8* nonnull %4) #10, !dbg !2599
  call void @llvm.dbg.declare(metadata %"class.Halide::Runtime::Internal::Metal::MetalContextHolder"* %3, metadata !2597, metadata !DIExpression()), !dbg !2600
  call void @llvm.dbg.value(metadata %"class.Halide::Runtime::Internal::Metal::MetalContextHolder"* %3, metadata !2037, metadata !DIExpression()) #10, !dbg !2601
  call void @llvm.dbg.value(metadata i8* %0, metadata !2040, metadata !DIExpression()) #10, !dbg !2601
  call void @llvm.dbg.value(metadata i1 true, metadata !2041, metadata !DIExpression(DW_OP_LLVM_convert, 1, DW_ATE_unsigned, DW_OP_LLVM_convert, 8, DW_ATE_unsigned, DW_OP_stack_value)) #10, !dbg !2601
  call void @_ZN6Halide7Runtime8Internal5Metal18MetalContextHolder4saveEPvb(%"class.Halide::Runtime::Internal::Metal::MetalContextHolder"* nonnull dereferenceable(20) %3, i8* %0, i1 zeroext true) #8, !dbg !2603
  %5 = getelementptr inbounds %"class.Halide::Runtime::Internal::Metal::MetalContextHolder", %"class.Halide::Runtime::Internal::Metal::MetalContextHolder"* %3, i32 0, i32 4, !dbg !2604
  %6 = load i32, i32* %5, align 4, !dbg !2604, !tbaa !1835
  %7 = icmp eq i32 %6, 0, !dbg !2606
  br i1 %7, label %8, label %46, !dbg !2607

8:                                                ; preds = %2
  %9 = getelementptr inbounds %"class.Halide::Runtime::Internal::Metal::MetalContextHolder", %"class.Halide::Runtime::Internal::Metal::MetalContextHolder"* %3, i32 0, i32 2, !dbg !2608
  %10 = load %struct.halide_metal_device*, %struct.halide_metal_device** %9, align 4, !dbg !2608, !tbaa !2066
  call void @llvm.dbg.value(metadata %"class.Halide::Internal::GPUCompilationCache"* @_ZN6Halide7Runtime8Internal5Metal17compilation_cacheE, metadata !2610, metadata !DIExpression()) #10, !dbg !2619
  call void @llvm.dbg.value(metadata i8* %0, metadata !2613, metadata !DIExpression()) #10, !dbg !2619
  call void @llvm.dbg.value(metadata %struct.halide_metal_device* %10, metadata !2614, metadata !DIExpression()) #10, !dbg !2619
  call void @llvm.dbg.value(metadata i8* %1, metadata !2615, metadata !DIExpression()) #10, !dbg !2619
  %11 = ptrtoint i8* %1 to i32, !dbg !2621
  call void @llvm.dbg.value(metadata i32 %11, metadata !2617, metadata !DIExpression()) #10, !dbg !2619
  call void @llvm.dbg.value(metadata %"class.Halide::Internal::GPUCompilationCache"* @_ZN6Halide7Runtime8Internal5Metal17compilation_cacheE, metadata !2438, metadata !DIExpression()) #10, !dbg !2622
  call void @llvm.dbg.value(metadata %struct.halide_metal_device* %10, metadata !2441, metadata !DIExpression()) #10, !dbg !2622
  call void @llvm.dbg.value(metadata i32 %11, metadata !2442, metadata !DIExpression()) #10, !dbg !2622
  call void @llvm.dbg.value(metadata %"struct.Halide::Runtime::Internal::Metal::mtl_library"*** undef, metadata !2443, metadata !DIExpression()) #10, !dbg !2622
  call void @llvm.dbg.value(metadata i32 -1, metadata !2444, metadata !DIExpression()) #10, !dbg !2622
  %12 = load i32, i32* getelementptr inbounds (%"class.Halide::Internal::GPUCompilationCache", %"class.Halide::Internal::GPUCompilationCache"* @_ZN6Halide7Runtime8Internal5Metal17compilation_cacheE, i32 0, i32 1), align 4, !dbg !2624, !tbaa !2455
  %13 = icmp eq i32 %12, 0, !dbg !2625
  br i1 %13, label %45, label %14, !dbg !2626

14:                                               ; preds = %8
  call void @llvm.dbg.value(metadata %struct.halide_metal_device* %10, metadata !2458, metadata !DIExpression()) #10, !dbg !2627
  call void @llvm.dbg.value(metadata i32 %11, metadata !2461, metadata !DIExpression()) #10, !dbg !2627
  call void @llvm.dbg.value(metadata i32 %12, metadata !2462, metadata !DIExpression()) #10, !dbg !2627
  %15 = ptrtoint %struct.halide_metal_device* %10 to i32, !dbg !2629
  %16 = add i32 %15, %11, !dbg !2630
  call void @llvm.dbg.value(metadata i32 %16, metadata !2463, metadata !DIExpression()) #10, !dbg !2627
  %17 = mul i32 %16, -1640531527, !dbg !2631
  %18 = sub i32 32, %12, !dbg !2632
  %19 = lshr i32 %17, %18, !dbg !2633
  call void @llvm.dbg.value(metadata i32 %19, metadata !2445, metadata !DIExpression()) #10, !dbg !2622
  call void @llvm.dbg.value(metadata i32 0, metadata !2446, metadata !DIExpression()) #10, !dbg !2634
  %20 = shl nuw i32 1, %12, !dbg !2635
  %21 = icmp eq i32 %12, 31, !dbg !2636
  br i1 %21, label %45, label %22, !dbg !2637

22:                                               ; preds = %14
  %23 = add nsw i32 %20, -1
  %24 = load %"struct.Halide::Internal::GPUCompilationCache<halide_metal_device *, Halide::Runtime::Internal::Metal::mtl_library *>::CachedCompilation"*, %"struct.Halide::Internal::GPUCompilationCache<halide_metal_device *, Halide::Runtime::Internal::Metal::mtl_library *>::CachedCompilation"** getelementptr inbounds (%"class.Halide::Internal::GPUCompilationCache", %"class.Halide::Internal::GPUCompilationCache"* @_ZN6Halide7Runtime8Internal5Metal17compilation_cacheE, i32 0, i32 2), align 4, !tbaa !2477
  br label %27, !dbg !2637

25:                                               ; preds = %34
  call void @llvm.dbg.value(metadata i32 %40, metadata !2446, metadata !DIExpression()) #10, !dbg !2634
  %26 = icmp slt i32 %40, %20, !dbg !2636
  br i1 %26, label %27, label %45, !dbg !2637, !llvm.loop !2638

27:                                               ; preds = %25, %22
  %28 = phi i32 [ 0, %22 ], [ %40, %25 ]
  call void @llvm.dbg.value(metadata i32 %28, metadata !2446, metadata !DIExpression()) #10, !dbg !2634
  %29 = add i32 %28, %19, !dbg !2640
  %30 = and i32 %29, %23, !dbg !2641
  call void @llvm.dbg.value(metadata i32 %30, metadata !2448, metadata !DIExpression()) #10, !dbg !2642
  %31 = getelementptr inbounds %"struct.Halide::Internal::GPUCompilationCache<halide_metal_device *, Halide::Runtime::Internal::Metal::mtl_library *>::CachedCompilation", %"struct.Halide::Internal::GPUCompilationCache<halide_metal_device *, Halide::Runtime::Internal::Metal::mtl_library *>::CachedCompilation"* %24, i32 %30, i32 2, !dbg !2643
  %32 = load i32, i32* %31, align 4, !dbg !2643, !tbaa !2485
  %33 = icmp eq i32 %32, 0, !dbg !2644
  br i1 %33, label %45, label %34, !dbg !2645

34:                                               ; preds = %27
  %35 = getelementptr inbounds %"struct.Halide::Internal::GPUCompilationCache<halide_metal_device *, Halide::Runtime::Internal::Metal::mtl_library *>::CachedCompilation", %"struct.Halide::Internal::GPUCompilationCache<halide_metal_device *, Halide::Runtime::Internal::Metal::mtl_library *>::CachedCompilation"* %24, i32 %30, i32 0, !dbg !2646
  %36 = load %struct.halide_metal_device*, %struct.halide_metal_device** %35, align 4, !dbg !2646, !tbaa !2491
  %37 = icmp eq %struct.halide_metal_device* %36, %10, !dbg !2647
  %38 = icmp eq i32 %32, %11
  %39 = and i1 %38, %37, !dbg !2648
  %40 = add nuw nsw i32 %28, 1, !dbg !2649
  call void @llvm.dbg.value(metadata i32 %40, metadata !2446, metadata !DIExpression()) #10, !dbg !2634
  br i1 %39, label %41, label %25, !dbg !2648

41:                                               ; preds = %34
  %42 = getelementptr inbounds %"struct.Halide::Internal::GPUCompilationCache<halide_metal_device *, Halide::Runtime::Internal::Metal::mtl_library *>::CachedCompilation", %"struct.Halide::Internal::GPUCompilationCache<halide_metal_device *, Halide::Runtime::Internal::Metal::mtl_library *>::CachedCompilation"* %24, i32 %30, i32 3, !dbg !2650
  %43 = load i32, i32* %42, align 4, !dbg !2651, !tbaa !2501
  %44 = add i32 %43, -1, !dbg !2651
  store i32 %44, i32* %42, align 4, !dbg !2651, !tbaa !2501
  call void @llvm.dbg.value(metadata i1 true, metadata !2618, metadata !DIExpression(DW_OP_LLVM_convert, 1, DW_ATE_unsigned, DW_OP_LLVM_convert, 8, DW_ATE_unsigned, DW_OP_stack_value)) #10, !dbg !2619
  br label %46, !dbg !2652

45:                                               ; preds = %27, %25, %14, %8
  call void @halide_print(i8* %0, i8* getelementptr inbounds ([110 x i8], [110 x i8]* @.str.131, i32 0, i32 0)) #8, !dbg !2654
  call void @abort() #8, !dbg !2654
  br label %46, !dbg !2654

46:                                               ; preds = %45, %41, %2
  call void @llvm.dbg.value(metadata %"class.Halide::Runtime::Internal::Metal::MetalContextHolder"* %3, metadata !2168, metadata !DIExpression()) #10, !dbg !2657
  call void @_ZN6Halide7Runtime8Internal5Metal18MetalContextHolder7restoreEv(%"class.Halide::Runtime::Internal::Metal::MetalContextHolder"* nonnull dereferenceable(20) %3) #8, !dbg !2659
  call void @llvm.lifetime.end.p0i8(i64 20, i8* nonnull %4) #10, !dbg !2660
  ret void, !dbg !2660
}

; Function Attrs: nounwind mustprogress
define weak dso_local void @halide_metal_device_sync_internal(%struct.halide_metal_command_queue* %0, %struct.halide_buffer_t* %1) local_unnamed_addr #0 !dbg !2661 {
  call void @llvm.dbg.value(metadata %struct.halide_metal_command_queue* %0, metadata !2666, metadata !DIExpression()), !dbg !2676
  call void @llvm.dbg.value(metadata %struct.halide_buffer_t* %1, metadata !2667, metadata !DIExpression()), !dbg !2676
  call void @llvm.dbg.value(metadata i8* getelementptr inbounds ([34 x i8], [34 x i8]* @.str.61, i32 0, i32 0), metadata !2668, metadata !DIExpression()), !dbg !2676
  %3 = tail call i32 @strlen(i8* getelementptr inbounds ([34 x i8], [34 x i8]* @.str.61, i32 0, i32 0)) #8, !dbg !2677
  %4 = tail call %"struct.Halide::Runtime::Internal::Metal::mtl_command_buffer"* @_ZN6Halide7Runtime8Internal5Metal18new_command_bufferEP26halide_metal_command_queuePKcj(%struct.halide_metal_command_queue* %0, i8* getelementptr inbounds ([34 x i8], [34 x i8]* @.str.61, i32 0, i32 0), i32 %3) #9, !dbg !2678
  call void @llvm.dbg.value(metadata %"struct.Halide::Runtime::Internal::Metal::mtl_command_buffer"* %4, metadata !2669, metadata !DIExpression()), !dbg !2676
  %5 = icmp eq %struct.halide_buffer_t* %1, null, !dbg !2679
  br i1 %5, label %16, label %6, !dbg !2680

6:                                                ; preds = %2
  %7 = getelementptr inbounds %struct.halide_buffer_t, %struct.halide_buffer_t* %1, i32 0, i32 0, !dbg !2681
  %8 = load i64, i64* %7, align 8, !dbg !2681, !tbaa !1199
  %9 = trunc i64 %8 to i32, !dbg !2682
  %10 = inttoptr i32 %9 to %"struct.Halide::Runtime::Internal::Metal::device_handle"*, !dbg !2682
  %11 = getelementptr inbounds %"struct.Halide::Runtime::Internal::Metal::device_handle", %"struct.Halide::Runtime::Internal::Metal::device_handle"* %10, i32 0, i32 0, !dbg !2683
  %12 = load %"struct.Halide::Runtime::Internal::Metal::mtl_buffer"*, %"struct.Halide::Runtime::Internal::Metal::mtl_buffer"** %11, align 8, !dbg !2683, !tbaa !2112
  call void @llvm.dbg.value(metadata %"struct.Halide::Runtime::Internal::Metal::mtl_buffer"* %12, metadata !2670, metadata !DIExpression()), !dbg !2684
  %13 = tail call zeroext i1 @_ZN6Halide7Runtime8Internal5Metal17is_buffer_managedEPNS2_10mtl_bufferE(%"struct.Halide::Runtime::Internal::Metal::mtl_buffer"* %12) #9, !dbg !2685
  br i1 %13, label %14, label %16, !dbg !2686

14:                                               ; preds = %6
  %15 = tail call %"struct.Halide::Runtime::Internal::Metal::mtl_blit_command_encoder"* @_ZN6Halide7Runtime8Internal5Metal24new_blit_command_encoderEPNS2_18mtl_command_bufferE(%"struct.Halide::Runtime::Internal::Metal::mtl_command_buffer"* %4) #9, !dbg !2687
  call void @llvm.dbg.value(metadata %"struct.Halide::Runtime::Internal::Metal::mtl_blit_command_encoder"* %15, metadata !2673, metadata !DIExpression()), !dbg !2688
  tail call void @_ZN6Halide7Runtime8Internal5Metal20synchronize_resourceEPNS2_24mtl_blit_command_encoderEPNS2_10mtl_bufferE(%"struct.Halide::Runtime::Internal::Metal::mtl_blit_command_encoder"* %15, %"struct.Halide::Runtime::Internal::Metal::mtl_buffer"* %12) #9, !dbg !2689
  tail call void @_ZN6Halide7Runtime8Internal5Metal12end_encodingEPNS2_24mtl_blit_command_encoderE(%"struct.Halide::Runtime::Internal::Metal::mtl_blit_command_encoder"* %15) #9, !dbg !2690
  br label %16, !dbg !2691

16:                                               ; preds = %6, %14, %2
  tail call void @_ZN6Halide7Runtime8Internal5Metal21commit_command_bufferEPNS2_18mtl_command_bufferE(%"struct.Halide::Runtime::Internal::Metal::mtl_command_buffer"* %4) #9, !dbg !2692
  tail call void @_ZN6Halide7Runtime8Internal5Metal20wait_until_completedEPNS2_18mtl_command_bufferE(%"struct.Halide::Runtime::Internal::Metal::mtl_command_buffer"* %4) #9, !dbg !2693
  ret void, !dbg !2694
}

; Function Attrs: nounwind
define weak dso_local i32 @halide_metal_device_sync(i8* %0, %struct.halide_buffer_t* %1) #4 !dbg !2695 {
  %3 = alloca %"class.Halide::Runtime::Internal::Metal::MetalContextHolder", align 4
  call void @llvm.dbg.value(metadata i8* %0, metadata !2697, metadata !DIExpression()), !dbg !2702
  call void @llvm.dbg.value(metadata %struct.halide_buffer_t* %1, metadata !2698, metadata !DIExpression()), !dbg !2702
  %4 = tail call i64 @halide_current_time_ns(i8* %0) #8, !dbg !2703
  call void @llvm.dbg.value(metadata i64 %4, metadata !2699, metadata !DIExpression()), !dbg !2702
  %5 = bitcast %"class.Halide::Runtime::Internal::Metal::MetalContextHolder"* %3 to i8*, !dbg !2704
  call void @llvm.lifetime.start.p0i8(i64 20, i8* nonnull %5) #10, !dbg !2704
  call void @llvm.dbg.declare(metadata %"class.Halide::Runtime::Internal::Metal::MetalContextHolder"* %3, metadata !2700, metadata !DIExpression()), !dbg !2705
  call void @llvm.dbg.value(metadata %"class.Halide::Runtime::Internal::Metal::MetalContextHolder"* %3, metadata !2037, metadata !DIExpression()) #10, !dbg !2706
  call void @llvm.dbg.value(metadata i8* %0, metadata !2040, metadata !DIExpression()) #10, !dbg !2706
  call void @llvm.dbg.value(metadata i1 true, metadata !2041, metadata !DIExpression(DW_OP_LLVM_convert, 1, DW_ATE_unsigned, DW_OP_LLVM_convert, 8, DW_ATE_unsigned, DW_OP_stack_value)) #10, !dbg !2706
  call void @_ZN6Halide7Runtime8Internal5Metal18MetalContextHolder4saveEPvb(%"class.Halide::Runtime::Internal::Metal::MetalContextHolder"* nonnull dereferenceable(20) %3, i8* %0, i1 zeroext true) #8, !dbg !2708
  %6 = getelementptr inbounds %"class.Halide::Runtime::Internal::Metal::MetalContextHolder", %"class.Halide::Runtime::Internal::Metal::MetalContextHolder"* %3, i32 0, i32 4, !dbg !2709
  %7 = load i32, i32* %6, align 4, !dbg !2709, !tbaa !1835
  %8 = icmp eq i32 %7, 0, !dbg !2711
  br i1 %8, label %9, label %34, !dbg !2712

9:                                                ; preds = %2
  %10 = getelementptr inbounds %"class.Halide::Runtime::Internal::Metal::MetalContextHolder", %"class.Halide::Runtime::Internal::Metal::MetalContextHolder"* %3, i32 0, i32 3, !dbg !2713
  %11 = load %struct.halide_metal_command_queue*, %struct.halide_metal_command_queue** %10, align 4, !dbg !2713, !tbaa !2714
  call void @halide_metal_device_sync_internal(%struct.halide_metal_command_queue* %11, %struct.halide_buffer_t* %1) #9, !dbg !2715
  %12 = call i64 @halide_current_time_ns(i8* %0) #8, !dbg !2716
  call void @llvm.dbg.value(metadata i64 %12, metadata !2701, metadata !DIExpression()), !dbg !2702
  call void @llvm.dbg.value(metadata %"class.Halide::Runtime::Internal::(anonymous namespace)::Printer"* undef, metadata !1095, metadata !DIExpression()) #10, !dbg !2717
  call void @llvm.dbg.value(metadata i8* %0, metadata !1098, metadata !DIExpression()) #10, !dbg !2717
  call void @llvm.dbg.value(metadata i8* null, metadata !1099, metadata !DIExpression()) #10, !dbg !2717
  %13 = call i8* @malloc(i32 1024) #8, !dbg !2719
  %14 = icmp eq i8* %13, null, !dbg !2720
  br i1 %14, label %17, label %15, !dbg !2721

15:                                               ; preds = %9
  %16 = getelementptr inbounds i8, i8* %13, i32 1023, !dbg !2722
  store i8 0, i8* %16, align 1, !dbg !2723, !tbaa !1134
  br label %17, !dbg !2724

17:                                               ; preds = %9, %15
  %18 = phi i8* [ %16, %15 ], [ null, %9 ], !dbg !2725
  call void @llvm.dbg.value(metadata %"class.Halide::Runtime::Internal::(anonymous namespace)::Printer"* undef, metadata !1112, metadata !DIExpression()) #10, !dbg !2726
  call void @llvm.dbg.value(metadata i8* getelementptr inbounds ([36 x i8], [36 x i8]* @.str.62, i32 0, i32 0), metadata !1115, metadata !DIExpression()) #10, !dbg !2726
  %19 = call i8* @halide_string_to_string(i8* %13, i8* %18, i8* nonnull getelementptr inbounds ([36 x i8], [36 x i8]* @.str.62, i32 0, i32 0)) #8, !dbg !2728
  %20 = sub i64 %12, %4, !dbg !2729
  %21 = uitofp i64 %20 to double, !dbg !2730
  %22 = fdiv double %21, 1.000000e+06, !dbg !2731
  call void @llvm.dbg.value(metadata %"class.Halide::Runtime::Internal::(anonymous namespace)::Printer"* undef, metadata !2145, metadata !DIExpression()) #10, !dbg !2732
  call void @llvm.dbg.value(metadata double %22, metadata !2148, metadata !DIExpression()) #10, !dbg !2732
  %23 = call i8* @halide_double_to_string(i8* %19, i8* %18, double %22, i32 1) #8, !dbg !2734
  call void @llvm.dbg.value(metadata %"class.Halide::Runtime::Internal::(anonymous namespace)::Printer"* undef, metadata !1112, metadata !DIExpression()) #10, !dbg !2735
  call void @llvm.dbg.value(metadata i8* getelementptr inbounds ([5 x i8], [5 x i8]* @.str.55, i32 0, i32 0), metadata !1115, metadata !DIExpression()) #10, !dbg !2735
  %24 = call i8* @halide_string_to_string(i8* %23, i8* %18, i8* nonnull getelementptr inbounds ([5 x i8], [5 x i8]* @.str.55, i32 0, i32 0)) #8, !dbg !2737
  call void @llvm.dbg.value(metadata %"class.Halide::Runtime::Internal::(anonymous namespace)::Printer"* undef, metadata !1121, metadata !DIExpression()) #10, !dbg !2738
  br i1 %14, label %25, label %26, !dbg !2740

25:                                               ; preds = %17
  call void @halide_error(i8* %0, i8* getelementptr inbounds ([35 x i8], [35 x i8]* @.str.124, i32 0, i32 0)) #8, !dbg !2741
  br label %33, !dbg !2742

26:                                               ; preds = %17
  call void @llvm.dbg.value(metadata %"class.Halide::Runtime::Internal::(anonymous namespace)::Printer"* undef, metadata !1135, metadata !DIExpression()) #10, !dbg !2743
  %27 = ptrtoint i8* %24 to i32, !dbg !2745
  %28 = ptrtoint i8* %13 to i32, !dbg !2745
  %29 = add i32 %27, 1, !dbg !2745
  %30 = sub i32 %29, %28, !dbg !2746
  %31 = sext i32 %30 to i64, !dbg !2747
  %32 = call i32 @halide_msan_annotate_memory_is_initialized(i8* %0, i8* nonnull %13, i64 %31) #8, !dbg !2748
  call void @halide_print(i8* %0, i8* nonnull %13) #8, !dbg !2749
  br label %33

33:                                               ; preds = %26, %25
  call void @free(i8* %13) #8, !dbg !2750
  br label %34

34:                                               ; preds = %2, %33
  call void @llvm.dbg.value(metadata %"class.Halide::Runtime::Internal::Metal::MetalContextHolder"* %3, metadata !2168, metadata !DIExpression()) #10, !dbg !2751
  call void @_ZN6Halide7Runtime8Internal5Metal18MetalContextHolder7restoreEv(%"class.Halide::Runtime::Internal::Metal::MetalContextHolder"* nonnull dereferenceable(20) %3) #8, !dbg !2753
  call void @llvm.lifetime.end.p0i8(i64 20, i8* nonnull %5) #10, !dbg !2754
  ret i32 %7, !dbg !2754
}

; Function Attrs: nounwind
define weak dso_local i32 @halide_metal_device_release(i8* %0) #4 !dbg !2755 {
  %2 = alloca %struct.halide_metal_device*, align 4
  %3 = alloca %struct.halide_metal_command_queue*, align 4
  call void @llvm.dbg.value(metadata i8* %0, metadata !2757, metadata !DIExpression()), !dbg !2761
  %4 = bitcast %struct.halide_metal_device** %2 to i8*, !dbg !2762
  call void @llvm.lifetime.start.p0i8(i64 4, i8* nonnull %4) #10, !dbg !2762
  %5 = bitcast %struct.halide_metal_command_queue** %3 to i8*, !dbg !2763
  call void @llvm.lifetime.start.p0i8(i64 4, i8* nonnull %5) #10, !dbg !2763
  call void @llvm.dbg.value(metadata %struct.halide_metal_device** %2, metadata !2759, metadata !DIExpression(DW_OP_deref)), !dbg !2761
  call void @llvm.dbg.value(metadata %struct.halide_metal_command_queue** %3, metadata !2760, metadata !DIExpression(DW_OP_deref)), !dbg !2761
  %6 = call i32 @halide_metal_acquire_context(i8* %0, %struct.halide_metal_device** nonnull %2, %struct.halide_metal_command_queue** nonnull %3, i1 zeroext false) #9, !dbg !2764
  call void @llvm.dbg.value(metadata i32 %6, metadata !2758, metadata !DIExpression()), !dbg !2761
  %7 = icmp eq i32 %6, 0, !dbg !2765
  br i1 %7, label %8, label %80, !dbg !2767

8:                                                ; preds = %1
  %9 = load %struct.halide_metal_device*, %struct.halide_metal_device** %2, align 4, !dbg !2768, !tbaa !1481
  call void @llvm.dbg.value(metadata %struct.halide_metal_device* %9, metadata !2759, metadata !DIExpression()), !dbg !2761
  %10 = icmp eq %struct.halide_metal_device* %9, null, !dbg !2768
  br i1 %10, label %78, label %11, !dbg !2770

11:                                               ; preds = %8
  %12 = load %struct.halide_metal_command_queue*, %struct.halide_metal_command_queue** @_ZN6Halide7Runtime8Internal5Metal5queueE, align 4, !dbg !2771, !tbaa !1481
  call void @halide_metal_device_sync_internal(%struct.halide_metal_command_queue* %12, %struct.halide_buffer_t* null) #9, !dbg !2773
  call void @llvm.dbg.value(metadata %"class.Halide::Runtime::Internal::(anonymous namespace)::Printer"* undef, metadata !1095, metadata !DIExpression()) #10, !dbg !2774
  call void @llvm.dbg.value(metadata i8* %0, metadata !1098, metadata !DIExpression()) #10, !dbg !2774
  call void @llvm.dbg.value(metadata i8* null, metadata !1099, metadata !DIExpression()) #10, !dbg !2774
  %13 = call i8* @malloc(i32 1024) #8, !dbg !2776
  %14 = icmp eq i8* %13, null, !dbg !2777
  br i1 %14, label %17, label %15, !dbg !2778

15:                                               ; preds = %11
  %16 = getelementptr inbounds i8, i8* %13, i32 1023, !dbg !2779
  store i8 0, i8* %16, align 1, !dbg !2780, !tbaa !1134
  br label %17, !dbg !2781

17:                                               ; preds = %11, %15
  %18 = phi i8* [ %16, %15 ], [ null, %11 ], !dbg !2782
  call void @llvm.dbg.value(metadata %"class.Halide::Runtime::Internal::(anonymous namespace)::Printer"* undef, metadata !1112, metadata !DIExpression()) #10, !dbg !2783
  call void @llvm.dbg.value(metadata i8* getelementptr inbounds ([34 x i8], [34 x i8]* @.str.63, i32 0, i32 0), metadata !1115, metadata !DIExpression()) #10, !dbg !2783
  %19 = call i8* @halide_string_to_string(i8* %13, i8* %18, i8* nonnull getelementptr inbounds ([34 x i8], [34 x i8]* @.str.63, i32 0, i32 0)) #8, !dbg !2785
  %20 = bitcast %struct.halide_metal_device** %2 to i8**, !dbg !2786
  %21 = load i8*, i8** %20, align 4, !dbg !2786, !tbaa !1481
  call void @llvm.dbg.value(metadata %struct.halide_metal_device* undef, metadata !2759, metadata !DIExpression()), !dbg !2761
  call void @llvm.dbg.value(metadata %"class.Halide::Runtime::Internal::(anonymous namespace)::Printer"* undef, metadata !1888, metadata !DIExpression()) #10, !dbg !2787
  call void @llvm.dbg.value(metadata i8* %21, metadata !1891, metadata !DIExpression()) #10, !dbg !2787
  %22 = call i8* @halide_pointer_to_string(i8* %19, i8* %18, i8* %21) #8, !dbg !2789
  call void @llvm.dbg.value(metadata %"class.Halide::Runtime::Internal::(anonymous namespace)::Printer"* undef, metadata !1112, metadata !DIExpression()) #10, !dbg !2790
  call void @llvm.dbg.value(metadata i8* getelementptr inbounds ([2 x i8], [2 x i8]* @.str.51, i32 0, i32 0), metadata !1115, metadata !DIExpression()) #10, !dbg !2790
  %23 = call i8* @halide_string_to_string(i8* %22, i8* %18, i8* nonnull getelementptr inbounds ([2 x i8], [2 x i8]* @.str.51, i32 0, i32 0)) #8, !dbg !2792
  call void @llvm.dbg.value(metadata %"class.Halide::Runtime::Internal::(anonymous namespace)::Printer"* undef, metadata !1121, metadata !DIExpression()) #10, !dbg !2793
  br i1 %14, label %24, label %25, !dbg !2795

24:                                               ; preds = %17
  call void @halide_error(i8* %0, i8* getelementptr inbounds ([35 x i8], [35 x i8]* @.str.124, i32 0, i32 0)) #8, !dbg !2796
  br label %32, !dbg !2797

25:                                               ; preds = %17
  call void @llvm.dbg.value(metadata %"class.Halide::Runtime::Internal::(anonymous namespace)::Printer"* undef, metadata !1135, metadata !DIExpression()) #10, !dbg !2798
  %26 = ptrtoint i8* %23 to i32, !dbg !2800
  %27 = ptrtoint i8* %13 to i32, !dbg !2800
  %28 = add i32 %26, 1, !dbg !2800
  %29 = sub i32 %28, %27, !dbg !2801
  %30 = sext i32 %29 to i64, !dbg !2802
  %31 = call i32 @halide_msan_annotate_memory_is_initialized(i8* %0, i8* nonnull %13, i64 %30) #8, !dbg !2803
  call void @halide_print(i8* %0, i8* nonnull %13) #8, !dbg !2804
  br label %32

32:                                               ; preds = %25, %24
  call void @free(i8* %13) #8, !dbg !2805
  %33 = load %struct.halide_metal_device*, %struct.halide_metal_device** %2, align 4, !dbg !2806, !tbaa !1481
  call void @llvm.dbg.value(metadata %struct.halide_metal_device* %33, metadata !2759, metadata !DIExpression()), !dbg !2761
  call void @llvm.dbg.value(metadata %"class.Halide::Internal::GPUCompilationCache"* @_ZN6Halide7Runtime8Internal5Metal17compilation_cacheE, metadata !2807, metadata !DIExpression()) #10, !dbg !2820
  call void @llvm.dbg.value(metadata i8* %0, metadata !2816, metadata !DIExpression()) #10, !dbg !2820
  call void @llvm.dbg.value(metadata %struct.halide_metal_device* %33, metadata !2817, metadata !DIExpression()) #10, !dbg !2820
  call void @llvm.dbg.value(metadata void (i8*)* @_ZN6Halide7Runtime8Internal17release_ns_objectEPv, metadata !2818, metadata !DIExpression()) #10, !dbg !2820
  call void @llvm.dbg.value(metadata %"struct.Halide::Runtime::Internal::ScopedMutexLock"* undef, metadata !2413, metadata !DIExpression()) #10, !dbg !2822
  call void @llvm.dbg.value(metadata %struct.halide_mutex* getelementptr inbounds (%"class.Halide::Internal::GPUCompilationCache", %"class.Halide::Internal::GPUCompilationCache"* @_ZN6Halide7Runtime8Internal5Metal17compilation_cacheE, i32 0, i32 0), metadata !2416, metadata !DIExpression()) #10, !dbg !2822
  call void @llvm.dbg.value(metadata %struct.halide_mutex* getelementptr inbounds (%"class.Halide::Internal::GPUCompilationCache", %"class.Halide::Internal::GPUCompilationCache"* @_ZN6Halide7Runtime8Internal5Metal17compilation_cacheE, i32 0, i32 0), metadata !2819, metadata !DIExpression()) #10, !dbg !2820
  call void @halide_mutex_lock(%struct.halide_mutex* nonnull getelementptr inbounds (%"class.Halide::Internal::GPUCompilationCache", %"class.Halide::Internal::GPUCompilationCache"* @_ZN6Halide7Runtime8Internal5Metal17compilation_cacheE, i32 0, i32 0)) #8, !dbg !2824
  call void @_ZN6Halide8Internal19GPUCompilationCacheIP19halide_metal_devicePNS_7Runtime8Internal5Metal11mtl_libraryEE15release_contextIFvPvEEEvSB_bS3_RT_(%"class.Halide::Internal::GPUCompilationCache"* nonnull dereferenceable(20) @_ZN6Halide7Runtime8Internal5Metal17compilation_cacheE, i8* %0, i1 zeroext false, %struct.halide_metal_device* %33, void (i8*)* nonnull @_ZN6Halide7Runtime8Internal17release_ns_objectEPv) #8, !dbg !2825
  call void @llvm.dbg.value(metadata %"struct.Halide::Runtime::Internal::ScopedMutexLock"* undef, metadata !2583, metadata !DIExpression()) #10, !dbg !2826
  call void @halide_mutex_unlock(%struct.halide_mutex* nonnull getelementptr inbounds (%"class.Halide::Internal::GPUCompilationCache", %"class.Halide::Internal::GPUCompilationCache"* @_ZN6Halide7Runtime8Internal5Metal17compilation_cacheE, i32 0, i32 0)) #8, !dbg !2828
  %34 = load %struct.halide_metal_device*, %struct.halide_metal_device** %2, align 4, !dbg !2829, !tbaa !1481
  call void @llvm.dbg.value(metadata %struct.halide_metal_device* %34, metadata !2759, metadata !DIExpression()), !dbg !2761
  %35 = load %struct.halide_metal_device*, %struct.halide_metal_device** @_ZN6Halide7Runtime8Internal5Metal6deviceE, align 4, !dbg !2831, !tbaa !1481
  %36 = icmp eq %struct.halide_metal_device* %34, %35, !dbg !2832
  br i1 %36, label %37, label %78, !dbg !2833

37:                                               ; preds = %32
  call void @llvm.dbg.value(metadata %"class.Halide::Runtime::Internal::(anonymous namespace)::Printer"* undef, metadata !1095, metadata !DIExpression()) #10, !dbg !2834
  call void @llvm.dbg.value(metadata i8* %0, metadata !1098, metadata !DIExpression()) #10, !dbg !2834
  call void @llvm.dbg.value(metadata i8* null, metadata !1099, metadata !DIExpression()) #10, !dbg !2834
  %38 = call i8* @malloc(i32 1024) #8, !dbg !2837
  %39 = icmp eq i8* %38, null, !dbg !2838
  br i1 %39, label %42, label %40, !dbg !2839

40:                                               ; preds = %37
  %41 = getelementptr inbounds i8, i8* %38, i32 1023, !dbg !2840
  store i8 0, i8* %41, align 1, !dbg !2841, !tbaa !1134
  br label %42, !dbg !2842

42:                                               ; preds = %37, %40
  %43 = phi i8* [ %41, %40 ], [ null, %37 ], !dbg !2843
  call void @llvm.dbg.value(metadata %"class.Halide::Runtime::Internal::(anonymous namespace)::Printer"* undef, metadata !1112, metadata !DIExpression()) #10, !dbg !2844
  call void @llvm.dbg.value(metadata i8* getelementptr inbounds ([38 x i8], [38 x i8]* @.str.64, i32 0, i32 0), metadata !1115, metadata !DIExpression()) #10, !dbg !2844
  %44 = call i8* @halide_string_to_string(i8* %38, i8* %43, i8* nonnull getelementptr inbounds ([38 x i8], [38 x i8]* @.str.64, i32 0, i32 0)) #8, !dbg !2846
  %45 = load i8*, i8** bitcast (%struct.halide_metal_command_queue** @_ZN6Halide7Runtime8Internal5Metal5queueE to i8**), align 4, !dbg !2847, !tbaa !1481
  call void @llvm.dbg.value(metadata %"class.Halide::Runtime::Internal::(anonymous namespace)::Printer"* undef, metadata !1888, metadata !DIExpression()) #10, !dbg !2848
  call void @llvm.dbg.value(metadata i8* %45, metadata !1891, metadata !DIExpression()) #10, !dbg !2848
  %46 = call i8* @halide_pointer_to_string(i8* %44, i8* %43, i8* %45) #8, !dbg !2850
  call void @llvm.dbg.value(metadata %"class.Halide::Runtime::Internal::(anonymous namespace)::Printer"* undef, metadata !1112, metadata !DIExpression()) #10, !dbg !2851
  call void @llvm.dbg.value(metadata i8* getelementptr inbounds ([2 x i8], [2 x i8]* @.str.51, i32 0, i32 0), metadata !1115, metadata !DIExpression()) #10, !dbg !2851
  %47 = call i8* @halide_string_to_string(i8* %46, i8* %43, i8* nonnull getelementptr inbounds ([2 x i8], [2 x i8]* @.str.51, i32 0, i32 0)) #8, !dbg !2853
  call void @llvm.dbg.value(metadata %"class.Halide::Runtime::Internal::(anonymous namespace)::Printer"* undef, metadata !1121, metadata !DIExpression()) #10, !dbg !2854
  br i1 %39, label %48, label %49, !dbg !2856

48:                                               ; preds = %42
  call void @halide_error(i8* %0, i8* getelementptr inbounds ([35 x i8], [35 x i8]* @.str.124, i32 0, i32 0)) #8, !dbg !2857
  br label %56, !dbg !2858

49:                                               ; preds = %42
  call void @llvm.dbg.value(metadata %"class.Halide::Runtime::Internal::(anonymous namespace)::Printer"* undef, metadata !1135, metadata !DIExpression()) #10, !dbg !2859
  %50 = ptrtoint i8* %47 to i32, !dbg !2861
  %51 = ptrtoint i8* %38 to i32, !dbg !2861
  %52 = add i32 %50, 1, !dbg !2861
  %53 = sub i32 %52, %51, !dbg !2862
  %54 = sext i32 %53 to i64, !dbg !2863
  %55 = call i32 @halide_msan_annotate_memory_is_initialized(i8* %0, i8* nonnull %38, i64 %54) #8, !dbg !2864
  call void @halide_print(i8* %0, i8* nonnull %38) #8, !dbg !2865
  br label %56

56:                                               ; preds = %49, %48
  call void @free(i8* %38) #8, !dbg !2866
  %57 = load i8*, i8** bitcast (%struct.halide_metal_command_queue** @_ZN6Halide7Runtime8Internal5Metal5queueE to i8**), align 4, !dbg !2867, !tbaa !1481
  call void @_ZN6Halide7Runtime8Internal17release_ns_objectEPv(i8* %57) #9, !dbg !2868
  store %struct.halide_metal_command_queue* null, %struct.halide_metal_command_queue** @_ZN6Halide7Runtime8Internal5Metal5queueE, align 4, !dbg !2869, !tbaa !1481
  call void @llvm.dbg.value(metadata %"class.Halide::Runtime::Internal::(anonymous namespace)::Printer"* undef, metadata !1095, metadata !DIExpression()) #10, !dbg !2870
  call void @llvm.dbg.value(metadata i8* %0, metadata !1098, metadata !DIExpression()) #10, !dbg !2870
  call void @llvm.dbg.value(metadata i8* null, metadata !1099, metadata !DIExpression()) #10, !dbg !2870
  %58 = call i8* @malloc(i32 1024) #8, !dbg !2872
  %59 = icmp eq i8* %58, null, !dbg !2873
