; ModuleID = '/media/maaz/Data/Repos/rake/Halide-master-d48fbde/src/runtime/windows_opencl.cpp'
source_filename = "/media/maaz/Data/Repos/rake/Halide-master-d48fbde/src/runtime/windows_opencl.cpp"
target datalayout = "e-m:x-p:32:32-p270:32:32-p271:32:32-p272:64:64-i64:64-f80:32-n8:16:32-a:0:32-S32"
target triple = "i386-unknown-windows-msvc19.11.0"

%struct._cl_platform_id = type opaque
%struct._cl_device_id = type opaque
%struct._cl_context = type opaque
%struct._cl_command_queue = type opaque
%struct._cl_mem = type opaque
%struct._cl_image_format = type { i32, i32 }
%struct._cl_image_desc = type { i32, i32, i32, i32, i32, i32, i32, i32, i32, %struct._cl_mem* }
%struct._cl_program = type opaque
%struct._cl_kernel = type opaque
%struct._cl_event = type opaque
%"class.Halide::Internal::GPUCompilationCache" = type { %struct.halide_mutex, i32, %"struct.Halide::Internal::GPUCompilationCache<_cl_context *, _cl_program *>::CachedCompilation"*, i32, i32 }
%struct.halide_mutex = type { [1 x i32] }
%"struct.Halide::Internal::GPUCompilationCache<_cl_context *, _cl_program *>::CachedCompilation" = type { %struct._cl_context*, %struct._cl_program*, i32, i32 }
%struct.halide_device_interface_t = type { i32 (i8*, %struct.halide_buffer_t*, %struct.halide_device_interface_t*)*, i32 (i8*, %struct.halide_buffer_t*)*, i32 (i8*, %struct.halide_buffer_t*)*, void (i8*, %struct.halide_device_interface_t*)*, i32 (i8*, %struct.halide_buffer_t*)*, i32 (i8*, %struct.halide_buffer_t*, %struct.halide_device_interface_t*)*, i32 (i8*, %struct.halide_buffer_t*, %struct.halide_device_interface_t*)*, i32 (i8*, %struct.halide_buffer_t*)*, i32 (i8*, %struct.halide_buffer_t*, %struct.halide_device_interface_t*, %struct.halide_buffer_t*)*, i32 (i8*, %struct.halide_buffer_t*, %struct.halide_buffer_t*)*, i32 (i8*, %struct.halide_buffer_t*, i32, i32, %struct.halide_buffer_t*)*, i32 (i8*, %struct.halide_buffer_t*)*, i32 (i8*, %struct.halide_buffer_t*, i64, %struct.halide_device_interface_t*)*, i32 (i8*, %struct.halide_buffer_t*)*, i32 (i8*, i32*, i32*)*, %struct.halide_device_interface_impl_t* }
%struct.halide_buffer_t = type { i64, %struct.halide_device_interface_t*, i8*, i64, %struct.halide_type_t, i32, %struct.halide_dimension_t*, i8* }
%struct.halide_type_t = type { i8, i8, i16 }
%struct.halide_dimension_t = type { i32, i32, i32, i32 }
%struct.halide_device_interface_impl_t = type { void ()*, void ()*, i32 (i8*, %struct.halide_buffer_t*)*, i32 (i8*, %struct.halide_buffer_t*)*, i32 (i8*, %struct.halide_buffer_t*)*, i32 (i8*)*, i32 (i8*, %struct.halide_buffer_t*)*, i32 (i8*, %struct.halide_buffer_t*)*, i32 (i8*, %struct.halide_buffer_t*)*, i32 (i8*, %struct.halide_buffer_t*)*, i32 (i8*, %struct.halide_buffer_t*, %struct.halide_device_interface_t*, %struct.halide_buffer_t*)*, i32 (i8*, %struct.halide_buffer_t*, %struct.halide_buffer_t*)*, i32 (i8*, %struct.halide_buffer_t*, i32, i32, %struct.halide_buffer_t*)*, i32 (i8*, %struct.halide_buffer_t*)*, i32 (i8*, %struct.halide_buffer_t*, i64)*, i32 (i8*, %struct.halide_buffer_t*)* }
%"struct.Halide::Runtime::Internal::device_copy" = type { i64, i64, i64, [16 x i64], [16 x i64], [16 x i64], i64 }
%"class.Halide::Runtime::Internal::(anonymous namespace)::Printer" = type { i8*, i8*, i8*, i8*, i8, [1 x i8] }
%"struct.Halide::Runtime::Internal::OpenCL::device_handle" = type { i64, %struct._cl_mem* }
%"class.Halide::Runtime::Internal::(anonymous namespace)::Printer.0" = type { i8*, i8*, i8*, i8*, i8, [1 x i8] }
%"class.Halide::Runtime::Internal::(anonymous namespace)::Printer.1" = type { i8*, i8*, i8*, i8*, i8, [1 x i8] }
%"class.Halide::Runtime::Internal::OpenCL::ClContext" = type { i8*, %struct._cl_context*, %struct._cl_command_queue*, i32 }
%struct._cl_buffer_region = type { i32, i32 }

$"??$kernel_state_setup@P6APAU_cl_program@@PAXPAU_cl_context@@PBDH@ZPAXPAU2@PBDH@?$GPUCompilationCache@PAU_cl_context@@PAU_cl_program@@@Internal@Halide@@QAE_NPAXPAPAXPAU_cl_context@@AAPAU_cl_program@@P6APAU4@02PBDH@Z024H@Z" = comdat any

$"??$release_all@P6GHPAU_cl_program@@@Z@?$GPUCompilationCache@PAU_cl_context@@PAU_cl_program@@@Internal@Halide@@QAEXPAXAAP6GHPAU_cl_program@@@Z@Z" = comdat any

$"?insert@?$GPUCompilationCache@PAU_cl_context@@PAU_cl_program@@@Internal@Halide@@QAE_NABUCachedCompilation@123@@Z" = comdat any

$"?resize_table@?$GPUCompilationCache@PAU_cl_context@@PAU_cl_program@@@Internal@Halide@@QAE_NH@Z" = comdat any

$"??_C@_0L@PFNAKBJA@opencl?4dll?$AA@" = comdat any

$"??_C@_01EEMJAFIK@?6?$AA@" = comdat any

$"??_C@_0HH@NKMLHAFC@?1media?1maaz?1Data?1Repos?1rake?1Hali@" = comdat any

$"??_C@_0BB@IHLFOOEK@clGetPlatformIDs?$AA@" = comdat any

$"??_C@_0BC@KBIJEEMJ@clGetPlatformInfo?$AA@" = comdat any

$"??_C@_0P@FMCIAPFL@clGetDeviceIDs?$AA@" = comdat any

$"??_C@_0BA@MLOCPJNK@clGetDeviceInfo?$AA@" = comdat any

$"??_C@_0BD@DHOGNIBF@clCreateSubDevices?$AA@" = comdat any

$"??_C@_0P@MLMFBHBD@clRetainDevice?$AA@" = comdat any

$"??_C@_0BA@DILOKKCJ@clReleaseDevice?$AA@" = comdat any

$"??_C@_0BA@NCICJKNI@clCreateContext?$AA@" = comdat any

$"??_C@_0BI@CDLLGAHG@clCreateContextFromType?$AA@" = comdat any

$"??_C@_0BA@CHPDNCFG@clRetainContext?$AA@" = comdat any

$"??_C@_0BB@OBAMHAFJ@clReleaseContext?$AA@" = comdat any

$"??_C@_0BB@LKGPHLOE@clGetContextInfo?$AA@" = comdat any

$"??_C@_0BF@EINAOCOD@clCreateCommandQueue?$AA@" = comdat any

$"??_C@_0BF@CEFOILFN@clRetainCommandQueue?$AA@" = comdat any

$"??_C@_0BG@GCFEIJCH@clReleaseCommandQueue?$AA@" = comdat any

$"??_C@_0BG@EHOJPOHB@clGetCommandQueueInfo?$AA@" = comdat any

$"??_C@_0P@OMMCIGBF@clCreateBuffer?$AA@" = comdat any

$"??_C@_0BC@KOGEINDM@clCreateSubBuffer?$AA@" = comdat any

$"??_C@_0O@LJDNFNNP@clCreateImage?$AA@" = comdat any

$"??_C@_0BC@MFHCCPJE@clRetainMemObject?$AA@" = comdat any

$"??_C@_0BD@HKDCDHGA@clReleaseMemObject?$AA@" = comdat any

$"??_C@_0BL@GAHILIAB@clGetSupportedImageFormats?$AA@" = comdat any

$"??_C@_0BD@DMLNBBGD@clGetMemObjectInfo?$AA@" = comdat any

$"??_C@_0P@GHMBMNA@clGetImageInfo?$AA@" = comdat any

$"??_C@_0CB@BAHPHBPH@clSetMemObjectDestructorCallback@" = comdat any

$"??_C@_0BK@DOGIMIML@clCreateProgramWithSource?$AA@" = comdat any

$"??_C@_0BA@HKOLHJKG@clRetainProgram?$AA@" = comdat any

$"??_C@_0BB@LMBENLKJ@clReleaseProgram?$AA@" = comdat any

$"??_C@_0P@PJKDHLJF@clBuildProgram?$AA@" = comdat any

$"??_C@_0BG@DEMGGFLJ@clGetProgramBuildInfo?$AA@" = comdat any

$"??_C@_0P@POBJOHCP@clCreateKernel?$AA@" = comdat any

$"??_C@_0P@IAJFDOHI@clRetainKernel?$AA@" = comdat any

$"??_C@_0BA@HDOOIDEC@clReleaseKernel?$AA@" = comdat any

$"??_C@_0P@IIMFEPBK@clSetKernelArg?$AA@" = comdat any

$"??_C@_07KKBOLFGK@clFlush?$AA@" = comdat any

$"??_C@_08GIMDLLBG@clFinish?$AA@" = comdat any

$"??_C@_0BE@BHABMOFN@clEnqueueReadBuffer?$AA@" = comdat any

$"??_C@_0BI@HHHHIKKC@clEnqueueReadBufferRect?$AA@" = comdat any

$"??_C@_0BF@LIFEAJJD@clEnqueueWriteBuffer?$AA@" = comdat any

$"??_C@_0BJ@PEKAIEDK@clEnqueueWriteBufferRect?$AA@" = comdat any

$"??_C@_0BE@DDFODHFH@clEnqueueCopyBuffer?$AA@" = comdat any

$"??_C@_0BD@KODJHAIA@clEnqueueReadImage?$AA@" = comdat any

$"??_C@_0BE@PBOFPCCJ@clEnqueueWriteImage?$AA@" = comdat any

$"??_C@_0BD@KGLEFIHM@clEnqueueMapBuffer?$AA@" = comdat any

$"??_C@_0BC@BAEGHFLL@clEnqueueMapImage?$AA@" = comdat any

$"??_C@_0BI@DHNIPHDC@clEnqueueUnmapMemObject?$AA@" = comdat any

$"??_C@_0BH@NNEKHLGD@clEnqueueNDRangeKernel?$AA@" = comdat any

$"??_C@_0GM@KAFOONGG@?1media?1maaz?1Data?1Repos?1rake?1Hali@" = comdat any

$"??_C@_0GK@HOCNIAFI@?1media?1maaz?1Data?1Repos?1rake?1Hali@" = comdat any

$"??_C@_0BI@KGALDEEM@CL?3?5Bad?5device?5pointer?5?$AA@" = comdat any

$"??_C@_0BP@OBAIKJCO@?3?5clGetMemObjectInfo?5returned?5?$AA@" = comdat any

$"??_C@_0KJ@OLKHKEEC@?1media?1maaz?1Data?1Repos?1rake?1Hali@" = comdat any

$"??_C@_0HP@GFCJAEGO@?1media?1maaz?1Data?1Repos?1rake?1Hali@" = comdat any

$"??_C@_0HL@BLCNEOOG@?1media?1maaz?1Data?1Repos?1rake?1Hali@" = comdat any

$"??_C@_0CA@HGCNAKI@CL?3?5clGetPlatformIDs?5not?5found?6?$AA@" = comdat any

$"??_C@_0BO@LMLEHJG@CL?3?5clGetPlatformIDs?5failed?3?5?$AA@" = comdat any

$"??_C@_01CLKCMJKC@?5?$AA@" = comdat any

$"??_C@_0BN@KFMEPBJD@CL?3?5Failed?5to?5find?5platform?6?$AA@" = comdat any

$"??_C@_03PBJBJNON@cpu?$AA@" = comdat any

$"??_C@_03HOPDAKLK@gpu?$AA@" = comdat any

$"??_C@_03FJGAPNJI@acc?$AA@" = comdat any

$"??_C@_0BM@HCBABLID@CL?3?5clGetDeviceIDs?5failed?3?5?$AA@" = comdat any

$"??_C@_0BL@KPNMBBFB@CL?3?5Failed?5to?5get?5device?3?5?$AA@" = comdat any

$"??_C@_0BN@DAIECECO@CL?3?5clCreateContext?5failed?3?5?$AA@" = comdat any

$"??_C@_01JLIPDDHJ@?3?$AA@" = comdat any

$"??_C@_0CC@OJGJMEDK@CL?3?5clCreateCommandQueue?5failed?3@" = comdat any

$"??_C@_0DC@LKEIDCIO@CL?3?5clGetContextInfo?$CICL_CONTEXT_@" = comdat any

$"??_C@_0EC@BCLNDNGH@CL?3?5clGetDeviceInfo?5?$CICL_DEVICE_M@" = comdat any

$"??_C@_0DL@MAEDFEFL@CL?3?5clGetDeviceInfo?5?$CICL_DEVICE_M@" = comdat any

$"??_C@_0BN@JFGEECJA@?9D?5MAX_CONSTANT_BUFFER_SIZE?$DN?$AA@" = comdat any

$"??_C@_0BH@CDNOOPCE@?5?9D?5MAX_CONSTANT_ARGS?$DN?$AA@" = comdat any

$"??_C@_0CH@CLCJIFCI@CL?3?5clCreateProgramWithSource?5fa@" = comdat any

$"??_C@_0BM@OJMPGCGG@CL?3?5clBuildProgram?5failed?3?5?$AA@" = comdat any

$"??_C@_0N@IDFKKPKP@?6Build?5Log?3?6?$AA@" = comdat any

$"??_C@_0DJ@PDNJJJKK@clGetProgramBuildInfo?5failed?5?$CIPr@" = comdat any

$"??_C@_0NF@GAHAJAJD@?1media?1maaz?1Data?1Repos?1rake?1Hali@" = comdat any

$"??_C@_0II@JCFFEMMG@?1media?1maaz?1Data?1Repos?1rake?1Hali@" = comdat any

$"??_C@_0BO@PHJKOMAF@CL?3?5clGetContextInfo?5failed?3?5?$AA@" = comdat any

$"??_C@_0BN@OPHJLEEG@CL?3?5clGetDeviceInfo?5failed?3?5?$AA@" = comdat any

$"??_C@_0HA@MICKJDMP@?1media?1maaz?1Data?1Repos?1rake?1Hali@" = comdat any

$"??_C@_0BG@HNMCCFHI@CL?3?5clFinish?5failed?3?5?$AA@" = comdat any

$"??_C@_0GP@IFKNINJB@?1media?1maaz?1Data?1Repos?1rake?1Hali@" = comdat any

$"??_C@_0GP@MMJNGNHC@?1media?1maaz?1Data?1Repos?1rake?1Hali@" = comdat any

$"??_C@_0GP@NINNKHKC@?1media?1maaz?1Data?1Repos?1rake?1Hali@" = comdat any

$"??_C@_0GH@BOEJCFBE@?1media?1maaz?1Data?1Repos?1rake?1Hali@" = comdat any

$"??_C@_0IO@ELDPDCNA@?1media?1maaz?1Data?1Repos?1rake?1Hali@" = comdat any

$"??_C@_0HF@OENBMEHI@?1media?1maaz?1Data?1Repos?1rake?1Hali@" = comdat any

$"??_C@_0BM@JFCOLHML@CL?3?5clCreateBuffer?5failed?3?5?$AA@" = comdat any

$"??_C@_0IO@NKDENGNA@?1media?1maaz?1Data?1Repos?1rake?1Hali@" = comdat any

$"??_C@_0DE@MONCEOAB@Buffer?5has?5too?5many?5dimensions?5t@" = comdat any

$"??_C@_0BJ@HEIDBBOD@CL?3?5buffer?5copy?5failed?3?5?$AA@" = comdat any

$"??_C@_0LB@HCAEPHPA@?1media?1maaz?1Data?1Repos?1rake?1Hali@" = comdat any

$"??_C@_0IO@GCBJGBEC@?1media?1maaz?1Data?1Repos?1rake?1Hali@" = comdat any

$"??_C@_0HE@EGDFODBO@?1media?1maaz?1Data?1Repos?1rake?1Hali@" = comdat any

$"??_C@_0GI@DACMPJPF@?1media?1maaz?1Data?1Repos?1rake?1Hali@" = comdat any

$"??_C@_0HK@NCIAOLIA@?1media?1maaz?1Data?1Repos?1rake?1Hali@" = comdat any

$"??_C@_0BE@KFJGNCAK@CL?3?5clCreateKernel?5?$AA@" = comdat any

$"??_C@_09FIOGNGMI@?5failed?3?5?$AA@" = comdat any

$"??_C@_0HP@LAHLNOMO@?1media?1maaz?1Data?1Repos?1rake?1Hali@" = comdat any

$"??_C@_0BM@HJLMFHME@CL?3?5clSetKernelArg?5failed?3?5?$AA@" = comdat any

$"??_C@_0BL@OLKMLKBK@CL?3?5clSetKernelArg?5failed?5?$AA@" = comdat any

$"??_C@_0CE@KMDKKOMD@CL?3?5clEnqueueNDRangeKernel?5faile@" = comdat any

$"??_C@_0GP@FPCGBLCD@?1media?1maaz?1Data?1Repos?1rake?1Hali@" = comdat any

$"??_C@_0ML@HEGIOGAJ@?1media?1maaz?1Data?1Repos?1rake?1Hali@" = comdat any

$"??_C@_0ML@FGBMJAJG@?1media?1maaz?1Data?1Repos?1rake?1Hali@" = comdat any

$"??_C@_0JA@OCJLGPJI@?1media?1maaz?1Data?1Repos?1rake?1Hali@" = comdat any

$"??_C@_0DC@KDFHIBFC@CL?3?5malloc?5failed?5making?5device?5@" = comdat any

$"??_C@_0IJ@PJBGAFJA@?1media?1maaz?1Data?1Repos?1rake?1Hali@" = comdat any

$"??_C@_0L@JNMCAGGL@CL_SUCCESS?$AA@" = comdat any

$"??_C@_0BE@ELAGNECF@CL_DEVICE_NOT_FOUND?$AA@" = comdat any

$"??_C@_0BI@DJICLPLE@CL_DEVICE_NOT_AVAILABLE?$AA@" = comdat any

$"??_C@_0BK@NIHADMP@CL_COMPILER_NOT_AVAILABLE?$AA@" = comdat any

$"??_C@_0CB@KNGEFLKK@CL_MEM_OBJECT_ALLOCATION_FAILURE@" = comdat any

$"??_C@_0BE@GHEIGNPM@CL_OUT_OF_RESOURCES?$AA@" = comdat any

$"??_C@_0BG@FJOOPJHO@CL_OUT_OF_HOST_MEMORY?$AA@" = comdat any

$"??_C@_0CA@NMFLODBK@CL_PROFILING_INFO_NOT_AVAILABLE?$AA@" = comdat any

$"??_C@_0BE@JMGFBLJK@CL_MEM_COPY_OVERLAP?$AA@" = comdat any

$"??_C@_0BJ@ONFDNJEG@CL_IMAGE_FORMAT_MISMATCH?$AA@" = comdat any

$"??_C@_0BO@NPJAPAAL@CL_IMAGE_FORMAT_NOT_SUPPORTED?$AA@" = comdat any

$"??_C@_0BJ@GCBBIHOP@CL_BUILD_PROGRAM_FAILURE?$AA@" = comdat any

$"??_C@_0P@LNNGPEBP@CL_MAP_FAILURE?$AA@" = comdat any

$"??_C@_0CA@OKLIKJOK@CL_MISALIGNED_SUB_BUFFER_OFFSET?$AA@" = comdat any

$"??_C@_0CN@ECJCNBKL@CL_EXEC_STATUS_ERROR_FOR_EVENTS_@" = comdat any

$"??_C@_0BL@OINJNLGH@CL_COMPILE_PROGRAM_FAILURE?$AA@" = comdat any

$"??_C@_0BI@GMJLLHMG@CL_LINKER_NOT_AVAILABLE?$AA@" = comdat any

$"??_C@_0BI@BKGHHLEO@CL_LINK_PROGRAM_FAILURE?$AA@" = comdat any

$"??_C@_0BL@EBAMFBNN@CL_DEVICE_PARTITION_FAILED?$AA@" = comdat any

$"??_C@_0CB@JNJGNCL@CL_KERNEL_ARG_INFO_NOT_AVAILABLE@" = comdat any

$"??_C@_0BB@IHLDHA@CL_INVALID_VALUE?$AA@" = comdat any

$"??_C@_0BH@LBOJAEIK@CL_INVALID_DEVICE_TYPE?$AA@" = comdat any

$"??_C@_0BE@EGJKELL@CL_INVALID_PLATFORM?$AA@" = comdat any

$"??_C@_0BC@ICMJJJII@CL_INVALID_DEVICE?$AA@" = comdat any

$"??_C@_0BD@NFODLALG@CL_INVALID_CONTEXT?$AA@" = comdat any

$"??_C@_0BM@LJKBKLGM@CL_INVALID_QUEUE_PROPERTIES?$AA@" = comdat any

$"??_C@_0BJ@DCHMJOMG@CL_INVALID_COMMAND_QUEUE?$AA@" = comdat any

$"??_C@_0BE@MBOCAOMA@CL_INVALID_HOST_PTR?$AA@" = comdat any

$"??_C@_0BG@OEIKFAMH@CL_INVALID_MEM_OBJECT?$AA@" = comdat any

$"??_C@_0CD@IIJKEAGK@CL_INVALID_IMAGE_FORMAT_DESCRIPT@" = comdat any

$"??_C@_0BG@HCNOAFJE@CL_INVALID_IMAGE_SIZE?$AA@" = comdat any

$"??_C@_0BD@LFNPPGIB@CL_INVALID_SAMPLER?$AA@" = comdat any

$"??_C@_0BC@PIGMAMHP@CL_INVALID_BINARY?$AA@" = comdat any

$"??_C@_0BJ@IDJIFICI@CL_INVALID_BUILD_OPTIONS?$AA@" = comdat any

$"??_C@_0BD@IIPLBLEG@CL_INVALID_PROGRAM?$AA@" = comdat any

$"??_C@_0BO@EDBIPNOL@CL_INVALID_PROGRAM_EXECUTABLE?$AA@" = comdat any

$"??_C@_0BH@FGADNKGM@CL_INVALID_KERNEL_NAME?$AA@" = comdat any

$"??_C@_0BN@PKJJKFBD@CL_INVALID_KERNEL_DEFINITION?$AA@" = comdat any

$"??_C@_0BC@MJJJLAOD@CL_INVALID_KERNEL?$AA@" = comdat any

$"??_C@_0BF@PBIEDICK@CL_INVALID_ARG_INDEX?$AA@" = comdat any

$"??_C@_0BF@KHKKPIDG@CL_INVALID_ARG_VALUE?$AA@" = comdat any

$"??_C@_0BE@JEFFIIPH@CL_INVALID_ARG_SIZE?$AA@" = comdat any

$"??_C@_0BH@IHPAIFMN@CL_INVALID_KERNEL_ARGS?$AA@" = comdat any

$"??_C@_0BK@IIJALOOA@CL_INVALID_WORK_DIMENSION?$AA@" = comdat any

$"??_C@_0BL@GNFKDAIO@CL_INVALID_WORK_GROUP_SIZE?$AA@" = comdat any

$"??_C@_0BK@PBHIKMMK@CL_INVALID_WORK_ITEM_SIZE?$AA@" = comdat any

$"??_C@_0BJ@ICDONJCN@CL_INVALID_GLOBAL_OFFSET?$AA@" = comdat any

$"??_C@_0BL@KDCAPAB@CL_INVALID_EVENT_WAIT_LIST?$AA@" = comdat any

$"??_C@_0BB@GJKHKINM@CL_INVALID_EVENT?$AA@" = comdat any

$"??_C@_0BF@MHCPKDDA@CL_INVALID_OPERATION?$AA@" = comdat any

$"??_C@_0BF@NPNLGFAG@CL_INVALID_GL_OBJECT?$AA@" = comdat any

$"??_C@_0BH@IDINIOAG@CL_INVALID_BUFFER_SIZE?$AA@" = comdat any

$"??_C@_0BF@EAPANENJ@CL_INVALID_MIP_LEVEL?$AA@" = comdat any

$"??_C@_0BM@IPEANGIP@CL_INVALID_GLOBAL_WORK_SIZE?$AA@" = comdat any

$"??_C@_0BE@GJAGOAJM@CL_INVALID_PROPERTY?$AA@" = comdat any

$"??_C@_0BM@DLPOCGIE@CL_INVALID_IMAGE_DESCRIPTOR?$AA@" = comdat any

$"??_C@_0BM@EGEFLIHM@CL_INVALID_COMPILER_OPTIONS?$AA@" = comdat any

$"??_C@_0BK@FJFBMGOA@CL_INVALID_LINKER_OPTIONS?$AA@" = comdat any

$"??_C@_0CC@CDIFHCPP@CL_INVALID_DEVICE_PARTITION_COUN@" = comdat any

$"??_C@_0BA@EEJCIADE@?$DMUnknown?5error?$DO?$AA@" = comdat any

$"??_C@_0GI@KLGLJOPD@?1media?1maaz?1Data?1Repos?1rake?1Hali@" = comdat any

$"??_C@_0IP@GPNAIHNH@?1media?1maaz?1Data?1Repos?1rake?1Hali@" = comdat any

$"??_C@_0HG@DEPPOMDI@?1media?1maaz?1Data?1Repos?1rake?1Hali@" = comdat any

$"??_C@_0CP@JFFADFI@Unhandled?5datatype?5for?5opencl?5te@" = comdat any

$"??_C@_0CO@BGCMENKM@image?5buffer?5must?5be?5dense?5on?5in@" = comdat any

$"??_C@_0CG@BBLMLEAJ@image?5buffer?5must?5have?51?93?5dimen@" = comdat any

$"??_C@_0BL@NNHHKBND@CL?3?5clCreateImage?5failed?3?5?$AA@" = comdat any

$"??_C@_0IP@NEAAEKKN@?1media?1maaz?1Data?1Repos?1rake?1Hali@" = comdat any

$"??_C@_0LI@BANCPNKE@?1media?1maaz?1Data?1Repos?1rake?1Hali@" = comdat any

$"??_C@_0JF@GOJCIKCJ@?1media?1maaz?1Data?1Repos?1rake?1Hali@" = comdat any

$"??_C@_0HF@BDNGEHJA@?1media?1maaz?1Data?1Repos?1rake?1Hali@" = comdat any

$"??_C@_0CN@FPAFPECO@image?5buffer?5copies?5must?5be?5for?5@" = comdat any

$"??_C@_0DF@ENIMJJEL@image?5buffer?5copies?5must?5be?5dens@" = comdat any

$"??_C@_0CG@BEDKGNGM@image?5to?5image?5copies?5not?5implem@" = comdat any

$"??_C@_0BN@NALPKMPM@CL?3?5buffer?5transfer?5failed?3?5?$AA@" = comdat any

$"??_C@_0GP@FPIDEFFE@?1media?1maaz?1Data?1Repos?1rake?1Hali@" = comdat any

$"??_C@_0ED@LDGMHNKH@CL?3?5Bad?5device?5pointer?5passed?5to@" = comdat any

$"??_C@_0M@NDNKNKHF@?5with?5type?5?$AA@" = comdat any

$"??_C@_0CL@FEFCGAPD@crop?5not?5supported?5on?5opencl?5ima@" = comdat any

$"??_C@_0CM@JIBBOEGP@slice?5not?5supported?5on?5opencl?5im@" = comdat any

$"??_C@_0BF@IKKCGBEB@HL_OCL_PLATFORM_NAME?$AA@" = comdat any

$"??_C@_0BD@PBIHOGAH@HL_OCL_DEVICE_TYPE?$AA@" = comdat any

$"??_C@_0BF@EDLBHNBE@HL_OCL_BUILD_OPTIONS?$AA@" = comdat any

$"??_C@_0CC@IIEJBDMK@OpenCL?3?5null?5context?5or?5cmd_queu@" = comdat any

$"??_C@_0BH@JIGFLJEL@OpenCL?5API?5not?5found?3?5?$AA@" = comdat any

$"??_C@_0CD@IKIJNBLF@Printer?5buffer?5allocation?5failed@" = comdat any

$"??_C@_09CGLEKJAK@?$DMnullptr?$DO?$AA@" = comdat any

$"??_C@_0GM@GIODNIAA@?1media?1maaz?1Data?1Repos?1rake?1Hali@" = comdat any

$"??_C@_0GO@DFIAIKAP@?1media?1maaz?1Data?1Repos?1rake?1Hali@" = comdat any

$"??_C@_0GO@OECFGMGJ@?1media?1maaz?1Data?1Repos?1rake?1Hali@" = comdat any

@"?clGetPlatformIDs@OpenCL@Internal@Runtime@Halide@@3P6GHIPAPAU_cl_platform_id@@PAI@ZA" = weak dso_local local_unnamed_addr global i32 (i32, %struct._cl_platform_id**, i32*)* null, align 4
@"?clGetPlatformInfo@OpenCL@Internal@Runtime@Halide@@3P6GHPAU_cl_platform_id@@IIPAXPAI@ZA" = weak dso_local local_unnamed_addr global i32 (%struct._cl_platform_id*, i32, i32, i8*, i32*)* null, align 4
@"?clGetDeviceIDs@OpenCL@Internal@Runtime@Halide@@3P6GHPAU_cl_platform_id@@_KIPAPAU_cl_device_id@@PAI@ZA" = weak dso_local local_unnamed_addr global i32 (%struct._cl_platform_id*, i64, i32, %struct._cl_device_id**, i32*)* null, align 4
@"?clGetDeviceInfo@OpenCL@Internal@Runtime@Halide@@3P6GHPAU_cl_device_id@@IIPAXPAI@ZA" = weak dso_local local_unnamed_addr global i32 (%struct._cl_device_id*, i32, i32, i8*, i32*)* null, align 4
@"?clCreateSubDevices@OpenCL@Internal@Runtime@Halide@@3P6GHPAU_cl_device_id@@PBHIPAPAU5@PAI@ZA" = weak dso_local local_unnamed_addr global i32 (%struct._cl_device_id*, i32*, i32, %struct._cl_device_id**, i32*)* null, align 4
@"?clRetainDevice@OpenCL@Internal@Runtime@Halide@@3P6GHPAU_cl_device_id@@@ZA" = weak dso_local local_unnamed_addr global i32 (%struct._cl_device_id*)* null, align 4
@"?clReleaseDevice@OpenCL@Internal@Runtime@Halide@@3P6GHPAU_cl_device_id@@@ZA" = weak dso_local local_unnamed_addr global i32 (%struct._cl_device_id*)* null, align 4
@"?clCreateContext@OpenCL@Internal@Runtime@Halide@@3P6GPAU_cl_context@@PBHIPBQAU_cl_device_id@@P6GXPBDPBXIPAX@Z4PAH@ZA" = weak dso_local local_unnamed_addr global %struct._cl_context* (i32*, i32, %struct._cl_device_id**, void (i8*, i8*, i32, i8*)*, i8*, i32*)* null, align 4
@"?clCreateContextFromType@OpenCL@Internal@Runtime@Halide@@3P6GPAU_cl_context@@PBH_KP6GXPBDPBXIPAX@Z4PAH@ZA" = weak dso_local local_unnamed_addr global %struct._cl_context* (i32*, i64, void (i8*, i8*, i32, i8*)*, i8*, i32*)* null, align 4
@"?clRetainContext@OpenCL@Internal@Runtime@Halide@@3P6GHPAU_cl_context@@@ZA" = weak dso_local local_unnamed_addr global i32 (%struct._cl_context*)* null, align 4
@"?clReleaseContext@OpenCL@Internal@Runtime@Halide@@3P6GHPAU_cl_context@@@ZA" = weak dso_local local_unnamed_addr global i32 (%struct._cl_context*)* null, align 4
@"?clGetContextInfo@OpenCL@Internal@Runtime@Halide@@3P6GHPAU_cl_context@@IIPAXPAI@ZA" = weak dso_local local_unnamed_addr global i32 (%struct._cl_context*, i32, i32, i8*, i32*)* null, align 4
@"?clCreateCommandQueue@OpenCL@Internal@Runtime@Halide@@3P6GPAU_cl_command_queue@@PAU_cl_context@@PAU_cl_device_id@@_KPAH@ZA" = weak dso_local local_unnamed_addr global %struct._cl_command_queue* (%struct._cl_context*, %struct._cl_device_id*, i64, i32*)* null, align 4
@"?clRetainCommandQueue@OpenCL@Internal@Runtime@Halide@@3P6GHPAU_cl_command_queue@@@ZA" = weak dso_local local_unnamed_addr global i32 (%struct._cl_command_queue*)* null, align 4
@"?clReleaseCommandQueue@OpenCL@Internal@Runtime@Halide@@3P6GHPAU_cl_command_queue@@@ZA" = weak dso_local local_unnamed_addr global i32 (%struct._cl_command_queue*)* null, align 4
@"?clGetCommandQueueInfo@OpenCL@Internal@Runtime@Halide@@3P6GHPAU_cl_command_queue@@IIPAXPAI@ZA" = weak dso_local local_unnamed_addr global i32 (%struct._cl_command_queue*, i32, i32, i8*, i32*)* null, align 4
@"?clCreateBuffer@OpenCL@Internal@Runtime@Halide@@3P6GPAU_cl_mem@@PAU_cl_context@@_KIPAXPAH@ZA" = weak dso_local local_unnamed_addr global %struct._cl_mem* (%struct._cl_context*, i64, i32, i8*, i32*)* null, align 4
@"?clCreateSubBuffer@OpenCL@Internal@Runtime@Halide@@3P6GPAU_cl_mem@@PAU5@_KIPBXPAH@ZA" = weak dso_local local_unnamed_addr global %struct._cl_mem* (%struct._cl_mem*, i64, i32, i8*, i32*)* null, align 4
@"?clCreateImage@OpenCL@Internal@Runtime@Halide@@3P6GPAU_cl_mem@@PAU_cl_context@@_KPBU_cl_image_format@@PBU_cl_image_desc@@PAXPAH@ZA" = weak dso_local local_unnamed_addr global %struct._cl_mem* (%struct._cl_context*, i64, %struct._cl_image_format*, %struct._cl_image_desc*, i8*, i32*)* null, align 4
@"?clRetainMemObject@OpenCL@Internal@Runtime@Halide@@3P6GHPAU_cl_mem@@@ZA" = weak dso_local local_unnamed_addr global i32 (%struct._cl_mem*)* null, align 4
@"?clReleaseMemObject@OpenCL@Internal@Runtime@Halide@@3P6GHPAU_cl_mem@@@ZA" = weak dso_local local_unnamed_addr global i32 (%struct._cl_mem*)* null, align 4
@"?clGetSupportedImageFormats@OpenCL@Internal@Runtime@Halide@@3P6GHPAU_cl_context@@_KIIPAU_cl_image_format@@PAI@ZA" = weak dso_local local_unnamed_addr global i32 (%struct._cl_context*, i64, i32, i32, %struct._cl_image_format*, i32*)* null, align 4
@"?clGetMemObjectInfo@OpenCL@Internal@Runtime@Halide@@3P6GHPAU_cl_mem@@IIPAXPAI@ZA" = weak dso_local local_unnamed_addr global i32 (%struct._cl_mem*, i32, i32, i8*, i32*)* null, align 4
@"?clGetImageInfo@OpenCL@Internal@Runtime@Halide@@3P6GHPAU_cl_mem@@IIPAXPAI@ZA" = weak dso_local local_unnamed_addr global i32 (%struct._cl_mem*, i32, i32, i8*, i32*)* null, align 4
@"?clSetMemObjectDestructorCallback@OpenCL@Internal@Runtime@Halide@@3P6GHPAU_cl_mem@@P6GX0PAX@Z1@ZA" = weak dso_local local_unnamed_addr global i32 (%struct._cl_mem*, void (%struct._cl_mem*, i8*)*, i8*)* null, align 4
@"?clCreateProgramWithSource@OpenCL@Internal@Runtime@Halide@@3P6GPAU_cl_program@@PAU_cl_context@@IPAPBDPBIPAH@ZA" = weak dso_local local_unnamed_addr global %struct._cl_program* (%struct._cl_context*, i32, i8**, i32*, i32*)* null, align 4
@"?clRetainProgram@OpenCL@Internal@Runtime@Halide@@3P6GHPAU_cl_program@@@ZA" = weak dso_local local_unnamed_addr global i32 (%struct._cl_program*)* null, align 4
@"?clReleaseProgram@OpenCL@Internal@Runtime@Halide@@3P6GHPAU_cl_program@@@ZA" = weak dso_local global i32 (%struct._cl_program*)* null, align 4
@"?clBuildProgram@OpenCL@Internal@Runtime@Halide@@3P6GHPAU_cl_program@@IPBQAU_cl_device_id@@PBDP6GX0PAX@Z3@ZA" = weak dso_local local_unnamed_addr global i32 (%struct._cl_program*, i32, %struct._cl_device_id**, i8*, void (%struct._cl_program*, i8*)*, i8*)* null, align 4
@"?clGetProgramBuildInfo@OpenCL@Internal@Runtime@Halide@@3P6GHPAU_cl_program@@PAU_cl_device_id@@IIPAXPAI@ZA" = weak dso_local local_unnamed_addr global i32 (%struct._cl_program*, %struct._cl_device_id*, i32, i32, i8*, i32*)* null, align 4
@"?clCreateKernel@OpenCL@Internal@Runtime@Halide@@3P6GPAU_cl_kernel@@PAU_cl_program@@PBDPAH@ZA" = weak dso_local local_unnamed_addr global %struct._cl_kernel* (%struct._cl_program*, i8*, i32*)* null, align 4
@"?clRetainKernel@OpenCL@Internal@Runtime@Halide@@3P6GHPAU_cl_kernel@@@ZA" = weak dso_local local_unnamed_addr global i32 (%struct._cl_kernel*)* null, align 4
@"?clReleaseKernel@OpenCL@Internal@Runtime@Halide@@3P6GHPAU_cl_kernel@@@ZA" = weak dso_local local_unnamed_addr global i32 (%struct._cl_kernel*)* null, align 4
@"?clSetKernelArg@OpenCL@Internal@Runtime@Halide@@3P6GHPAU_cl_kernel@@IIPBX@ZA" = weak dso_local local_unnamed_addr global i32 (%struct._cl_kernel*, i32, i32, i8*)* null, align 4
@"?clFlush@OpenCL@Internal@Runtime@Halide@@3P6GHPAU_cl_command_queue@@@ZA" = weak dso_local local_unnamed_addr global i32 (%struct._cl_command_queue*)* null, align 4
@"?clFinish@OpenCL@Internal@Runtime@Halide@@3P6GHPAU_cl_command_queue@@@ZA" = weak dso_local local_unnamed_addr global i32 (%struct._cl_command_queue*)* null, align 4
@"?clEnqueueReadBuffer@OpenCL@Internal@Runtime@Halide@@3P6GHPAU_cl_command_queue@@PAU_cl_mem@@IIIPAXIPBQAU_cl_event@@PAPAU7@@ZA" = weak dso_local local_unnamed_addr global i32 (%struct._cl_command_queue*, %struct._cl_mem*, i32, i32, i32, i8*, i32, %struct._cl_event**, %struct._cl_event**)* null, align 4
@"?clEnqueueReadBufferRect@OpenCL@Internal@Runtime@Halide@@3P6GHPAU_cl_command_queue@@PAU_cl_mem@@IPBI22IIIIPAXIPBQAU_cl_event@@PAPAU7@@ZA" = weak dso_local local_unnamed_addr global i32 (%struct._cl_command_queue*, %struct._cl_mem*, i32, i32*, i32*, i32*, i32, i32, i32, i32, i8*, i32, %struct._cl_event**, %struct._cl_event**)* null, align 4
@"?clEnqueueWriteBuffer@OpenCL@Internal@Runtime@Halide@@3P6GHPAU_cl_command_queue@@PAU_cl_mem@@IIIPBXIPBQAU_cl_event@@PAPAU7@@ZA" = weak dso_local local_unnamed_addr global i32 (%struct._cl_command_queue*, %struct._cl_mem*, i32, i32, i32, i8*, i32, %struct._cl_event**, %struct._cl_event**)* null, align 4
@"?clEnqueueWriteBufferRect@OpenCL@Internal@Runtime@Halide@@3P6GHPAU_cl_command_queue@@PAU_cl_mem@@IPBI22IIIIPBXIPBQAU_cl_event@@PAPAU7@@ZA" = weak dso_local local_unnamed_addr global i32 (%struct._cl_command_queue*, %struct._cl_mem*, i32, i32*, i32*, i32*, i32, i32, i32, i32, i8*, i32, %struct._cl_event**, %struct._cl_event**)* null, align 4
@"?clEnqueueCopyBuffer@OpenCL@Internal@Runtime@Halide@@3P6GHPAU_cl_command_queue@@PAU_cl_mem@@1IIIIPBQAU_cl_event@@PAPAU7@@ZA" = weak dso_local local_unnamed_addr global i32 (%struct._cl_command_queue*, %struct._cl_mem*, %struct._cl_mem*, i32, i32, i32, i32, %struct._cl_event**, %struct._cl_event**)* null, align 4
@"?clEnqueueReadImage@OpenCL@Internal@Runtime@Halide@@3P6GHPAU_cl_command_queue@@PAU_cl_mem@@IPBI2IIPAXIPBQAU_cl_event@@PAPAU7@@ZA" = weak dso_local local_unnamed_addr global i32 (%struct._cl_command_queue*, %struct._cl_mem*, i32, i32*, i32*, i32, i32, i8*, i32, %struct._cl_event**, %struct._cl_event**)* null, align 4
@"?clEnqueueWriteImage@OpenCL@Internal@Runtime@Halide@@3P6GHPAU_cl_command_queue@@PAU_cl_mem@@IPBI2IIPBXIPBQAU_cl_event@@PAPAU7@@ZA" = weak dso_local local_unnamed_addr global i32 (%struct._cl_command_queue*, %struct._cl_mem*, i32, i32*, i32*, i32, i32, i8*, i32, %struct._cl_event**, %struct._cl_event**)* null, align 4
@"?clEnqueueMapBuffer@OpenCL@Internal@Runtime@Halide@@3P6GPAXPAU_cl_command_queue@@PAU_cl_mem@@I_KIIIPBQAU_cl_event@@PAPAU7@PAH@ZA" = weak dso_local local_unnamed_addr global i8* (%struct._cl_command_queue*, %struct._cl_mem*, i32, i64, i32, i32, i32, %struct._cl_event**, %struct._cl_event**, i32*)* null, align 4
@"?clEnqueueMapImage@OpenCL@Internal@Runtime@Halide@@3P6GPAXPAU_cl_command_queue@@PAU_cl_mem@@I_KPBI3PAI4IPBQAU_cl_event@@PAPAU7@PAH@ZA" = weak dso_local local_unnamed_addr global i8* (%struct._cl_command_queue*, %struct._cl_mem*, i32, i64, i32*, i32*, i32*, i32*, i32, %struct._cl_event**, %struct._cl_event**, i32*)* null, align 4
@"?clEnqueueUnmapMemObject@OpenCL@Internal@Runtime@Halide@@3P6GHPAU_cl_command_queue@@PAU_cl_mem@@PAXIPBQAU_cl_event@@PAPAU7@@ZA" = weak dso_local local_unnamed_addr global i32 (%struct._cl_command_queue*, %struct._cl_mem*, i8*, i32, %struct._cl_event**, %struct._cl_event**)* null, align 4
@"?clEnqueueNDRangeKernel@OpenCL@Internal@Runtime@Halide@@3P6GHPAU_cl_command_queue@@PAU_cl_kernel@@IPBI22IPBQAU_cl_event@@PAPAU7@@ZA" = weak dso_local local_unnamed_addr global i32 (%struct._cl_command_queue*, %struct._cl_kernel*, i32, i32*, i32*, i32*, i32, %struct._cl_event**, %struct._cl_event**)* null, align 4
@"?lib_opencl@OpenCL@Internal@Runtime@Halide@@3PAXA" = weak dso_local local_unnamed_addr global i8* null, align 4
@"??_C@_0L@PFNAKBJA@opencl?4dll?$AA@" = linkonce_odr dso_local unnamed_addr constant [11 x i8] c"opencl.dll\00", comdat, align 1
@"??_C@_01EEMJAFIK@?6?$AA@" = linkonce_odr dso_local unnamed_addr constant [2 x i8] c"\0A\00", comdat, align 1
@"??_C@_0HH@NKMLHAFC@?1media?1maaz?1Data?1Repos?1rake?1Hali@" = linkonce_odr dso_local unnamed_addr constant [119 x i8] c"/media/maaz/Data/Repos/rake/Halide-master-d48fbde/src/runtime/opencl.cpp:67 Assert failed: clCreateContext == nullptr\0A\00", comdat, align 1
@"??_C@_0BB@IHLFOOEK@clGetPlatformIDs?$AA@" = linkonce_odr dso_local unnamed_addr constant [17 x i8] c"clGetPlatformIDs\00", comdat, align 1
@"??_C@_0BC@KBIJEEMJ@clGetPlatformInfo?$AA@" = linkonce_odr dso_local unnamed_addr constant [18 x i8] c"clGetPlatformInfo\00", comdat, align 1
@"??_C@_0P@FMCIAPFL@clGetDeviceIDs?$AA@" = linkonce_odr dso_local unnamed_addr constant [15 x i8] c"clGetDeviceIDs\00", comdat, align 1
@"??_C@_0BA@MLOCPJNK@clGetDeviceInfo?$AA@" = linkonce_odr dso_local unnamed_addr constant [16 x i8] c"clGetDeviceInfo\00", comdat, align 1
@"??_C@_0BD@DHOGNIBF@clCreateSubDevices?$AA@" = linkonce_odr dso_local unnamed_addr constant [19 x i8] c"clCreateSubDevices\00", comdat, align 1
@"??_C@_0P@MLMFBHBD@clRetainDevice?$AA@" = linkonce_odr dso_local unnamed_addr constant [15 x i8] c"clRetainDevice\00", comdat, align 1
@"??_C@_0BA@DILOKKCJ@clReleaseDevice?$AA@" = linkonce_odr dso_local unnamed_addr constant [16 x i8] c"clReleaseDevice\00", comdat, align 1
@"??_C@_0BA@NCICJKNI@clCreateContext?$AA@" = linkonce_odr dso_local unnamed_addr constant [16 x i8] c"clCreateContext\00", comdat, align 1
@"??_C@_0BI@CDLLGAHG@clCreateContextFromType?$AA@" = linkonce_odr dso_local unnamed_addr constant [24 x i8] c"clCreateContextFromType\00", comdat, align 1
@"??_C@_0BA@CHPDNCFG@clRetainContext?$AA@" = linkonce_odr dso_local unnamed_addr constant [16 x i8] c"clRetainContext\00", comdat, align 1
@"??_C@_0BB@OBAMHAFJ@clReleaseContext?$AA@" = linkonce_odr dso_local unnamed_addr constant [17 x i8] c"clReleaseContext\00", comdat, align 1
@"??_C@_0BB@LKGPHLOE@clGetContextInfo?$AA@" = linkonce_odr dso_local unnamed_addr constant [17 x i8] c"clGetContextInfo\00", comdat, align 1
@"??_C@_0BF@EINAOCOD@clCreateCommandQueue?$AA@" = linkonce_odr dso_local unnamed_addr constant [21 x i8] c"clCreateCommandQueue\00", comdat, align 1
@"??_C@_0BF@CEFOILFN@clRetainCommandQueue?$AA@" = linkonce_odr dso_local unnamed_addr constant [21 x i8] c"clRetainCommandQueue\00", comdat, align 1
@"??_C@_0BG@GCFEIJCH@clReleaseCommandQueue?$AA@" = linkonce_odr dso_local unnamed_addr constant [22 x i8] c"clReleaseCommandQueue\00", comdat, align 1
@"??_C@_0BG@EHOJPOHB@clGetCommandQueueInfo?$AA@" = linkonce_odr dso_local unnamed_addr constant [22 x i8] c"clGetCommandQueueInfo\00", comdat, align 1
@"??_C@_0P@OMMCIGBF@clCreateBuffer?$AA@" = linkonce_odr dso_local unnamed_addr constant [15 x i8] c"clCreateBuffer\00", comdat, align 1
@"??_C@_0BC@KOGEINDM@clCreateSubBuffer?$AA@" = linkonce_odr dso_local unnamed_addr constant [18 x i8] c"clCreateSubBuffer\00", comdat, align 1
@"??_C@_0O@LJDNFNNP@clCreateImage?$AA@" = linkonce_odr dso_local unnamed_addr constant [14 x i8] c"clCreateImage\00", comdat, align 1
@"??_C@_0BC@MFHCCPJE@clRetainMemObject?$AA@" = linkonce_odr dso_local unnamed_addr constant [18 x i8] c"clRetainMemObject\00", comdat, align 1
@"??_C@_0BD@HKDCDHGA@clReleaseMemObject?$AA@" = linkonce_odr dso_local unnamed_addr constant [19 x i8] c"clReleaseMemObject\00", comdat, align 1
@"??_C@_0BL@GAHILIAB@clGetSupportedImageFormats?$AA@" = linkonce_odr dso_local unnamed_addr constant [27 x i8] c"clGetSupportedImageFormats\00", comdat, align 1
@"??_C@_0BD@DMLNBBGD@clGetMemObjectInfo?$AA@" = linkonce_odr dso_local unnamed_addr constant [19 x i8] c"clGetMemObjectInfo\00", comdat, align 1
@"??_C@_0P@GHMBMNA@clGetImageInfo?$AA@" = linkonce_odr dso_local unnamed_addr constant [15 x i8] c"clGetImageInfo\00", comdat, align 1
@"??_C@_0CB@BAHPHBPH@clSetMemObjectDestructorCallback@" = linkonce_odr dso_local unnamed_addr constant [33 x i8] c"clSetMemObjectDestructorCallback\00", comdat, align 1
@"??_C@_0BK@DOGIMIML@clCreateProgramWithSource?$AA@" = linkonce_odr dso_local unnamed_addr constant [26 x i8] c"clCreateProgramWithSource\00", comdat, align 1
@"??_C@_0BA@HKOLHJKG@clRetainProgram?$AA@" = linkonce_odr dso_local unnamed_addr constant [16 x i8] c"clRetainProgram\00", comdat, align 1
@"??_C@_0BB@LMBENLKJ@clReleaseProgram?$AA@" = linkonce_odr dso_local unnamed_addr constant [17 x i8] c"clReleaseProgram\00", comdat, align 1
@"??_C@_0P@PJKDHLJF@clBuildProgram?$AA@" = linkonce_odr dso_local unnamed_addr constant [15 x i8] c"clBuildProgram\00", comdat, align 1
@"??_C@_0BG@DEMGGFLJ@clGetProgramBuildInfo?$AA@" = linkonce_odr dso_local unnamed_addr constant [22 x i8] c"clGetProgramBuildInfo\00", comdat, align 1
@"??_C@_0P@POBJOHCP@clCreateKernel?$AA@" = linkonce_odr dso_local unnamed_addr constant [15 x i8] c"clCreateKernel\00", comdat, align 1
@"??_C@_0P@IAJFDOHI@clRetainKernel?$AA@" = linkonce_odr dso_local unnamed_addr constant [15 x i8] c"clRetainKernel\00", comdat, align 1
@"??_C@_0BA@HDOOIDEC@clReleaseKernel?$AA@" = linkonce_odr dso_local unnamed_addr constant [16 x i8] c"clReleaseKernel\00", comdat, align 1
@"??_C@_0P@IIMFEPBK@clSetKernelArg?$AA@" = linkonce_odr dso_local unnamed_addr constant [15 x i8] c"clSetKernelArg\00", comdat, align 1
@"??_C@_07KKBOLFGK@clFlush?$AA@" = linkonce_odr dso_local unnamed_addr constant [8 x i8] c"clFlush\00", comdat, align 1
@"??_C@_08GIMDLLBG@clFinish?$AA@" = linkonce_odr dso_local unnamed_addr constant [9 x i8] c"clFinish\00", comdat, align 1
@"??_C@_0BE@BHABMOFN@clEnqueueReadBuffer?$AA@" = linkonce_odr dso_local unnamed_addr constant [20 x i8] c"clEnqueueReadBuffer\00", comdat, align 1
@"??_C@_0BI@HHHHIKKC@clEnqueueReadBufferRect?$AA@" = linkonce_odr dso_local unnamed_addr constant [24 x i8] c"clEnqueueReadBufferRect\00", comdat, align 1
@"??_C@_0BF@LIFEAJJD@clEnqueueWriteBuffer?$AA@" = linkonce_odr dso_local unnamed_addr constant [21 x i8] c"clEnqueueWriteBuffer\00", comdat, align 1
@"??_C@_0BJ@PEKAIEDK@clEnqueueWriteBufferRect?$AA@" = linkonce_odr dso_local unnamed_addr constant [25 x i8] c"clEnqueueWriteBufferRect\00", comdat, align 1
@"??_C@_0BE@DDFODHFH@clEnqueueCopyBuffer?$AA@" = linkonce_odr dso_local unnamed_addr constant [20 x i8] c"clEnqueueCopyBuffer\00", comdat, align 1
@"??_C@_0BD@KODJHAIA@clEnqueueReadImage?$AA@" = linkonce_odr dso_local unnamed_addr constant [19 x i8] c"clEnqueueReadImage\00", comdat, align 1
@"??_C@_0BE@PBOFPCCJ@clEnqueueWriteImage?$AA@" = linkonce_odr dso_local unnamed_addr constant [20 x i8] c"clEnqueueWriteImage\00", comdat, align 1
@"??_C@_0BD@KGLEFIHM@clEnqueueMapBuffer?$AA@" = linkonce_odr dso_local unnamed_addr constant [19 x i8] c"clEnqueueMapBuffer\00", comdat, align 1
@"??_C@_0BC@BAEGHFLL@clEnqueueMapImage?$AA@" = linkonce_odr dso_local unnamed_addr constant [18 x i8] c"clEnqueueMapImage\00", comdat, align 1
@"??_C@_0BI@DHNIPHDC@clEnqueueUnmapMemObject?$AA@" = linkonce_odr dso_local unnamed_addr constant [24 x i8] c"clEnqueueUnmapMemObject\00", comdat, align 1
@"??_C@_0BH@NNEKHLGD@clEnqueueNDRangeKernel?$AA@" = linkonce_odr dso_local unnamed_addr constant [23 x i8] c"clEnqueueNDRangeKernel\00", comdat, align 1
@"?context@OpenCL@Internal@Runtime@Halide@@3PAU_cl_context@@A" = weak dso_local global %struct._cl_context* null, align 4
@"?command_queue@OpenCL@Internal@Runtime@Halide@@3PAU_cl_command_queue@@A" = weak dso_local global %struct._cl_command_queue* null, align 4
@"?thread_lock@OpenCL@Internal@Runtime@Halide@@3DC" = weak dso_local global i8 0, align 1
@"?platform_name@OpenCL@Internal@Runtime@Halide@@3PADA" = weak dso_local global [256 x i8] zeroinitializer, align 1
@"?platform_name_lock@OpenCL@Internal@Runtime@Halide@@3DA" = weak dso_local global i8 0, align 1
@"?platform_name_initialized@OpenCL@Internal@Runtime@Halide@@3_NA" = weak dso_local local_unnamed_addr global i8 0, align 1
@"?device_type@OpenCL@Internal@Runtime@Halide@@3PADA" = weak dso_local global [256 x i8] zeroinitializer, align 1
@"?device_type_lock@OpenCL@Internal@Runtime@Halide@@3DA" = weak dso_local global i8 0, align 1
@"?device_type_initialized@OpenCL@Internal@Runtime@Halide@@3_NA" = weak dso_local local_unnamed_addr global i8 0, align 1
@"?build_options@OpenCL@Internal@Runtime@Halide@@3PADA" = weak dso_local global [1024 x i8] zeroinitializer, align 1
@"?build_options_lock@OpenCL@Internal@Runtime@Halide@@3DA" = weak dso_local global i8 0, align 1
@"?build_options_initialized@OpenCL@Internal@Runtime@Halide@@3_NA" = weak dso_local local_unnamed_addr global i8 0, align 1
@"??_C@_0GM@KAFOONGG@?1media?1maaz?1Data?1Repos?1rake?1Hali@" = linkonce_odr dso_local unnamed_addr constant [108 x i8] c"/media/maaz/Data/Repos/rake/Halide-master-d48fbde/src/runtime/opencl.cpp:215 Assert failed: ctx != nullptr\0A\00", comdat, align 1
@"??_C@_0GK@HOCNIAFI@?1media?1maaz?1Data?1Repos?1rake?1Hali@" = linkonce_odr dso_local unnamed_addr constant [106 x i8] c"/media/maaz/Data/Repos/rake/Halide-master-d48fbde/src/runtime/opencl.cpp:216 Assert failed: q != nullptr\0A\00", comdat, align 1
@"?compilation_cache@OpenCL@Internal@Runtime@Halide@@3V?$GPUCompilationCache@PAU_cl_context@@PAU_cl_program@@@24@A" = weak dso_local global %"class.Halide::Internal::GPUCompilationCache" zeroinitializer, align 4
@"??_C@_0BI@KGALDEEM@CL?3?5Bad?5device?5pointer?5?$AA@" = linkonce_odr dso_local unnamed_addr constant [24 x i8] c"CL: Bad device pointer \00", comdat, align 1
@"??_C@_0BP@OBAIKJCO@?3?5clGetMemObjectInfo?5returned?5?$AA@" = linkonce_odr dso_local unnamed_addr constant [31 x i8] c": clGetMemObjectInfo returned \00", comdat, align 1
@"??_C@_0KJ@OLKHKEEC@?1media?1maaz?1Data?1Repos?1rake?1Hali@" = linkonce_odr dso_local unnamed_addr constant [169 x i8] c"/media/maaz/Data/Repos/rake/Halide-master-d48fbde/src/runtime/opencl.cpp:328 Assert failed: real_size >= (size + offset) && \22Validating pointer with insufficient size\22\0A\00", comdat, align 1
@"??_C@_0HP@GFCJAEGO@?1media?1maaz?1Data?1Repos?1rake?1Hali@" = linkonce_odr dso_local unnamed_addr constant [127 x i8] c"/media/maaz/Data/Repos/rake/Halide-master-d48fbde/src/runtime/opencl.cpp:339 Assert failed: ctx != nullptr && *ctx == nullptr\0A\00", comdat, align 1
@"??_C@_0HL@BLCNEOOG@?1media?1maaz?1Data?1Repos?1rake?1Hali@" = linkonce_odr dso_local unnamed_addr constant [123 x i8] c"/media/maaz/Data/Repos/rake/Halide-master-d48fbde/src/runtime/opencl.cpp:340 Assert failed: q != nullptr && *q == nullptr\0A\00", comdat, align 1
@"??_C@_0CA@HGCNAKI@CL?3?5clGetPlatformIDs?5not?5found?6?$AA@" = linkonce_odr dso_local unnamed_addr constant [32 x i8] c"CL: clGetPlatformIDs not found\0A\00", comdat, align 1
@"??_C@_0BO@LMLEHJG@CL?3?5clGetPlatformIDs?5failed?3?5?$AA@" = linkonce_odr dso_local unnamed_addr constant [30 x i8] c"CL: clGetPlatformIDs failed: \00", comdat, align 1
@"??_C@_01CLKCMJKC@?5?$AA@" = linkonce_odr dso_local unnamed_addr constant [2 x i8] c" \00", comdat, align 1
@"??_C@_0BN@KFMEPBJD@CL?3?5Failed?5to?5find?5platform?6?$AA@" = linkonce_odr dso_local unnamed_addr constant [29 x i8] c"CL: Failed to find platform\0A\00", comdat, align 1
@"??_C@_03PBJBJNON@cpu?$AA@" = linkonce_odr dso_local unnamed_addr constant [4 x i8] c"cpu\00", comdat, align 1
@"??_C@_03HOPDAKLK@gpu?$AA@" = linkonce_odr dso_local unnamed_addr constant [4 x i8] c"gpu\00", comdat, align 1
@"??_C@_03FJGAPNJI@acc?$AA@" = linkonce_odr dso_local unnamed_addr constant [4 x i8] c"acc\00", comdat, align 1
@"??_C@_0BM@HCBABLID@CL?3?5clGetDeviceIDs?5failed?3?5?$AA@" = linkonce_odr dso_local unnamed_addr constant [28 x i8] c"CL: clGetDeviceIDs failed: \00", comdat, align 1
@"??_C@_0BL@KPNMBBFB@CL?3?5Failed?5to?5get?5device?3?5?$AA@" = linkonce_odr dso_local unnamed_addr constant [27 x i8] c"CL: Failed to get device: \00", comdat, align 1
@"??_C@_0BN@DAIECECO@CL?3?5clCreateContext?5failed?3?5?$AA@" = linkonce_odr dso_local unnamed_addr constant [29 x i8] c"CL: clCreateContext failed: \00", comdat, align 1
@"??_C@_01JLIPDDHJ@?3?$AA@" = linkonce_odr dso_local unnamed_addr constant [2 x i8] c":\00", comdat, align 1
@"??_C@_0CC@OJGJMEDK@CL?3?5clCreateCommandQueue?5failed?3@" = linkonce_odr dso_local unnamed_addr constant [34 x i8] c"CL: clCreateCommandQueue failed: \00", comdat, align 1
@"??_C@_0DC@LKEIDCIO@CL?3?5clGetContextInfo?$CICL_CONTEXT_@" = linkonce_odr dso_local unnamed_addr constant [50 x i8] c"CL: clGetContextInfo(CL_CONTEXT_DEVICES) failed: \00", comdat, align 1
@"??_C@_0EC@BCLNDNGH@CL?3?5clGetDeviceInfo?5?$CICL_DEVICE_M@" = linkonce_odr dso_local unnamed_addr constant [66 x i8] c"CL: clGetDeviceInfo (CL_DEVICE_MAX_CONSTANT_BUFFER_SIZE) failed: \00", comdat, align 1
@"??_C@_0DL@MAEDFEFL@CL?3?5clGetDeviceInfo?5?$CICL_DEVICE_M@" = linkonce_odr dso_local unnamed_addr constant [59 x i8] c"CL: clGetDeviceInfo (CL_DEVICE_MAX_CONSTANT_ARGS) failed: \00", comdat, align 1
@"??_C@_0BN@JFGEECJA@?9D?5MAX_CONSTANT_BUFFER_SIZE?$DN?$AA@" = linkonce_odr dso_local unnamed_addr constant [29 x i8] c"-D MAX_CONSTANT_BUFFER_SIZE=\00", comdat, align 1
@"??_C@_0BH@CDNOOPCE@?5?9D?5MAX_CONSTANT_ARGS?$DN?$AA@" = linkonce_odr dso_local unnamed_addr constant [23 x i8] c" -D MAX_CONSTANT_ARGS=\00", comdat, align 1
@"??_C@_0CH@CLCJIFCI@CL?3?5clCreateProgramWithSource?5fa@" = linkonce_odr dso_local unnamed_addr constant [39 x i8] c"CL: clCreateProgramWithSource failed: \00", comdat, align 1
@"??_C@_0BM@OJMPGCGG@CL?3?5clBuildProgram?5failed?3?5?$AA@" = linkonce_odr dso_local unnamed_addr constant [28 x i8] c"CL: clBuildProgram failed: \00", comdat, align 1
@"??_C@_0N@IDFKKPKP@?6Build?5Log?3?6?$AA@" = linkonce_odr dso_local unnamed_addr constant [13 x i8] c"\0ABuild Log:\0A\00", comdat, align 1
@"??_C@_0DJ@PDNJJJKK@clGetProgramBuildInfo?5failed?5?$CIPr@" = linkonce_odr dso_local unnamed_addr constant [57 x i8] c"clGetProgramBuildInfo failed (Printer buffer too small?)\00", comdat, align 1
@"??_C@_0NF@GAHAJAJD@?1media?1maaz?1Data?1Repos?1rake?1Hali@" = linkonce_odr dso_local unnamed_addr constant [213 x i8] c"/media/maaz/Data/Repos/rake/Halide-master-d48fbde/src/runtime/opencl.cpp:653 Assert failed: (((device_handle *)buf->device)->offset == 0) && \22halide_opencl_device_free on buffer obtained from halide_device_crop\22\0A\00", comdat, align 1
@"??_C@_0II@JCFFEMMG@?1media?1maaz?1Data?1Repos?1rake?1Hali@" = linkonce_odr dso_local unnamed_addr constant [136 x i8] c"/media/maaz/Data/Repos/rake/Halide-master-d48fbde/src/runtime/opencl.cpp:668 Assert failed: validate_device_pointer(user_context, buf)\0A\00", comdat, align 1
@"??_C@_0BO@PHJKOMAF@CL?3?5clGetContextInfo?5failed?3?5?$AA@" = linkonce_odr dso_local unnamed_addr constant [30 x i8] c"CL: clGetContextInfo failed: \00", comdat, align 1
@"??_C@_0BN@OPHJLEEG@CL?3?5clGetDeviceInfo?5failed?3?5?$AA@" = linkonce_odr dso_local unnamed_addr constant [29 x i8] c"CL: clGetDeviceInfo failed: \00", comdat, align 1
@"??_C@_0HA@MICKJDMP@?1media?1maaz?1Data?1Repos?1rake?1Hali@" = linkonce_odr dso_local unnamed_addr constant [112 x i8] c"/media/maaz/Data/Repos/rake/Halide-master-d48fbde/src/runtime/opencl.cpp:762 Assert failed: program != nullptr\0A\00", comdat, align 1
@"??_C@_0BG@HNMCCFHI@CL?3?5clFinish?5failed?3?5?$AA@" = linkonce_odr dso_local unnamed_addr constant [22 x i8] c"CL: clFinish failed: \00", comdat, align 1
@"??_C@_0GP@IFKNINJB@?1media?1maaz?1Data?1Repos?1rake?1Hali@" = linkonce_odr dso_local unnamed_addr constant [111 x i8] c"/media/maaz/Data/Repos/rake/Halide-master-d48fbde/src/runtime/opencl.cpp:825 Assert failed: err == CL_SUCCESS\0A\00", comdat, align 1
@"??_C@_0GP@MMJNGNHC@?1media?1maaz?1Data?1Repos?1rake?1Hali@" = linkonce_odr dso_local unnamed_addr constant [111 x i8] c"/media/maaz/Data/Repos/rake/Halide-master-d48fbde/src/runtime/opencl.cpp:833 Assert failed: err == CL_SUCCESS\0A\00", comdat, align 1
@"??_C@_0GP@NINNKHKC@?1media?1maaz?1Data?1Repos?1rake?1Hali@" = linkonce_odr dso_local unnamed_addr constant [111 x i8] c"/media/maaz/Data/Repos/rake/Halide-master-d48fbde/src/runtime/opencl.cpp:838 Assert failed: err == CL_SUCCESS\0A\00", comdat, align 1
@"??_C@_0GH@BOEJCFBE@?1media?1maaz?1Data?1Repos?1rake?1Hali@" = linkonce_odr dso_local unnamed_addr constant [103 x i8] c"/media/maaz/Data/Repos/rake/Halide-master-d48fbde/src/runtime/opencl.cpp:859 Assert failed: size != 0\0A\00", comdat, align 1
@"??_C@_0IO@ELDPDCNA@?1media?1maaz?1Data?1Repos?1rake?1Hali@" = linkonce_odr dso_local unnamed_addr constant [142 x i8] c"/media/maaz/Data/Repos/rake/Halide-master-d48fbde/src/runtime/opencl.cpp:861 Assert failed: validate_device_pointer(user_context, buf, size)\0A\00", comdat, align 1
@"??_C@_0HF@OENBMEHI@?1media?1maaz?1Data?1Repos?1rake?1Hali@" = linkonce_odr dso_local unnamed_addr constant [117 x i8] c"/media/maaz/Data/Repos/rake/Halide-master-d48fbde/src/runtime/opencl.cpp:866 Assert failed: buf->dim[i].stride >= 0\0A\00", comdat, align 1
@"??_C@_0BM@JFCOLHML@CL?3?5clCreateBuffer?5failed?3?5?$AA@" = linkonce_odr dso_local unnamed_addr constant [28 x i8] c"CL: clCreateBuffer failed: \00", comdat, align 1
@"?opencl_device_interface@OpenCL@Internal@Runtime@Halide@@3Uhalide_device_interface_t@@A" = weak dso_local global %struct.halide_device_interface_t { i32 (i8*, %struct.halide_buffer_t*, %struct.halide_device_interface_t*)* @halide_device_malloc, i32 (i8*, %struct.halide_buffer_t*)* @halide_device_free, i32 (i8*, %struct.halide_buffer_t*)* @halide_device_sync, void (i8*, %struct.halide_device_interface_t*)* @halide_device_release, i32 (i8*, %struct.halide_buffer_t*)* @halide_copy_to_host, i32 (i8*, %struct.halide_buffer_t*, %struct.halide_device_interface_t*)* @halide_copy_to_device, i32 (i8*, %struct.halide_buffer_t*, %struct.halide_device_interface_t*)* @halide_device_and_host_malloc, i32 (i8*, %struct.halide_buffer_t*)* @halide_device_and_host_free, i32 (i8*, %struct.halide_buffer_t*, %struct.halide_device_interface_t*, %struct.halide_buffer_t*)* @halide_buffer_copy, i32 (i8*, %struct.halide_buffer_t*, %struct.halide_buffer_t*)* @halide_device_crop, i32 (i8*, %struct.halide_buffer_t*, i32, i32, %struct.halide_buffer_t*)* @halide_device_slice, i32 (i8*, %struct.halide_buffer_t*)* @halide_device_release_crop, i32 (i8*, %struct.halide_buffer_t*, i64, %struct.halide_device_interface_t*)* @halide_device_wrap_native, i32 (i8*, %struct.halide_buffer_t*)* @halide_device_detach_native, i32 (i8*, i32*, i32*)* @halide_opencl_compute_capability, %struct.halide_device_interface_impl_t* @"?opencl_device_interface_impl@OpenCL@Internal@Runtime@Halide@@3Uhalide_device_interface_impl_t@@A" }, align 4
@"??_C@_0IO@NKDENGNA@?1media?1maaz?1Data?1Repos?1rake?1Hali@" = linkonce_odr dso_local unnamed_addr constant [142 x i8] c"/media/maaz/Data/Repos/rake/Halide-master-d48fbde/src/runtime/opencl.cpp:903 Assert failed: validate_device_pointer(user_context, buf, size)\0A\00", comdat, align 1
@"??_C@_0DE@MONCEOAB@Buffer?5has?5too?5many?5dimensions?5t@" = linkonce_odr dso_local unnamed_addr constant [52 x i8] c"Buffer has too many dimensions to copy to/from GPU\0A\00", comdat, align 1
@"??_C@_0BJ@HEIDBBOD@CL?3?5buffer?5copy?5failed?3?5?$AA@" = linkonce_odr dso_local unnamed_addr constant [25 x i8] c"CL: buffer copy failed: \00", comdat, align 1
@"??_C@_0LB@HCAEPHPA@?1media?1maaz?1Data?1Repos?1rake?1Hali@" = linkonce_odr dso_local unnamed_addr constant [177 x i8] c"/media/maaz/Data/Repos/rake/Halide-master-d48fbde/src/runtime/opencl.cpp:974 Assert failed: dst_device_interface == nullptr || dst_device_interface == &opencl_device_interface\0A\00", comdat, align 1
@"??_C@_0IO@GCBJGBEC@?1media?1maaz?1Data?1Repos?1rake?1Hali@" = linkonce_odr dso_local unnamed_addr constant [142 x i8] c"/media/maaz/Data/Repos/rake/Halide-master-d48fbde/src/runtime/opencl.cpp:978 Assert failed: dst_device_interface == &opencl_device_interface\0A\00", comdat, align 1
@"??_C@_0HE@EGDFODBO@?1media?1maaz?1Data?1Repos?1rake?1Hali@" = linkonce_odr dso_local unnamed_addr constant [116 x i8] c"/media/maaz/Data/Repos/rake/Halide-master-d48fbde/src/runtime/opencl.cpp:989 Assert failed: to_host || dst->device\0A\00", comdat, align 1
@"??_C@_0GI@DACMPJPF@?1media?1maaz?1Data?1Repos?1rake?1Hali@" = linkonce_odr dso_local unnamed_addr constant [104 x i8] c"/media/maaz/Data/Repos/rake/Halide-master-d48fbde/src/runtime/opencl.cpp:1069 Assert failed: state_ptr\0A\00", comdat, align 1
@"??_C@_0HK@NCIAOLIA@?1media?1maaz?1Data?1Repos?1rake?1Hali@" = linkonce_odr dso_local unnamed_addr constant [122 x i8] c"/media/maaz/Data/Repos/rake/Halide-master-d48fbde/src/runtime/opencl.cpp:1073 Assert failed: found && program != nullptr\0A\00", comdat, align 1
@"??_C@_0BE@KFJGNCAK@CL?3?5clCreateKernel?5?$AA@" = linkonce_odr dso_local unnamed_addr constant [20 x i8] c"CL: clCreateKernel \00", comdat, align 1
@"??_C@_09FIOGNGMI@?5failed?3?5?$AA@" = linkonce_odr dso_local unnamed_addr constant [10 x i8] c" failed: \00", comdat, align 1
@"??_C@_0HP@LAHLNOMO@?1media?1maaz?1Data?1Repos?1rake?1Hali@" = linkonce_odr dso_local unnamed_addr constant [127 x i8] c"/media/maaz/Data/Repos/rake/Halide-master-d48fbde/src/runtime/opencl.cpp:1125 Assert failed: arg_sizes[i] == sizeof(uint64_t)\0A\00", comdat, align 1
@"??_C@_0BM@HJLMFHME@CL?3?5clSetKernelArg?5failed?3?5?$AA@" = linkonce_odr dso_local unnamed_addr constant [28 x i8] c"CL: clSetKernelArg failed: \00", comdat, align 1
@"??_C@_0BL@OLKMLKBK@CL?3?5clSetKernelArg?5failed?5?$AA@" = linkonce_odr dso_local unnamed_addr constant [27 x i8] c"CL: clSetKernelArg failed \00", comdat, align 1
@"??_C@_0CE@KMDKKOMD@CL?3?5clEnqueueNDRangeKernel?5faile@" = linkonce_odr dso_local unnamed_addr constant [36 x i8] c"CL: clEnqueueNDRangeKernel failed: \00", comdat, align 1
@"??_C@_0GP@FPCGBLCD@?1media?1maaz?1Data?1Repos?1rake?1Hali@" = linkonce_odr dso_local unnamed_addr constant [111 x i8] c"/media/maaz/Data/Repos/rake/Halide-master-d48fbde/src/runtime/opencl.cpp:1216 Assert failed: buf->device == 0\0A\00", comdat, align 1
@"?opencl_image_device_interface@OpenCL@Internal@Runtime@Halide@@3Uhalide_device_interface_t@@A" = weak dso_local global %struct.halide_device_interface_t { i32 (i8*, %struct.halide_buffer_t*, %struct.halide_device_interface_t*)* @halide_device_malloc, i32 (i8*, %struct.halide_buffer_t*)* @halide_device_free, i32 (i8*, %struct.halide_buffer_t*)* @halide_device_sync, void (i8*, %struct.halide_device_interface_t*)* @halide_device_release, i32 (i8*, %struct.halide_buffer_t*)* @halide_copy_to_host, i32 (i8*, %struct.halide_buffer_t*, %struct.halide_device_interface_t*)* @halide_copy_to_device, i32 (i8*, %struct.halide_buffer_t*, %struct.halide_device_interface_t*)* @halide_device_and_host_malloc, i32 (i8*, %struct.halide_buffer_t*)* @halide_device_and_host_free, i32 (i8*, %struct.halide_buffer_t*, %struct.halide_device_interface_t*, %struct.halide_buffer_t*)* @halide_buffer_copy, i32 (i8*, %struct.halide_buffer_t*, %struct.halide_buffer_t*)* @halide_device_crop, i32 (i8*, %struct.halide_buffer_t*, i32, i32, %struct.halide_buffer_t*)* @halide_device_slice, i32 (i8*, %struct.halide_buffer_t*)* @halide_device_release_crop, i32 (i8*, %struct.halide_buffer_t*, i64, %struct.halide_device_interface_t*)* @halide_device_wrap_native, i32 (i8*, %struct.halide_buffer_t*)* @halide_device_detach_native, i32 (i8*, i32*, i32*)* @halide_opencl_compute_capability, %struct.halide_device_interface_impl_t* @"?opencl_image_device_interface_impl@OpenCL@Internal@Runtime@Halide@@3Uhalide_device_interface_impl_t@@A" }, align 4
@"??_C@_0ML@HEGIOGAJ@?1media?1maaz?1Data?1Repos?1rake?1Hali@" = linkonce_odr dso_local unnamed_addr constant [203 x i8] c"/media/maaz/Data/Repos/rake/Halide-master-d48fbde/src/runtime/opencl.cpp:1246 Assert failed: buf->device_interface == &opencl_device_interface || buf->device_interface == &opencl_image_device_interface\0A\00", comdat, align 1
@"??_C@_0ML@FGBMJAJG@?1media?1maaz?1Data?1Repos?1rake?1Hali@" = linkonce_odr dso_local unnamed_addr constant [203 x i8] c"/media/maaz/Data/Repos/rake/Halide-master-d48fbde/src/runtime/opencl.cpp:1259 Assert failed: buf->device_interface == &opencl_device_interface || buf->device_interface == &opencl_image_device_interface\0A\00", comdat, align 1
@"??_C@_0JA@OCJLGPJI@?1media?1maaz?1Data?1Repos?1rake?1Hali@" = linkonce_odr dso_local unnamed_addr constant [144 x i8] c"/media/maaz/Data/Repos/rake/Halide-master-d48fbde/src/runtime/opencl.cpp:1267 Assert failed: buf->device_interface == &opencl_device_interface\0A\00", comdat, align 1
@"??_C@_0DC@KDFHIBFC@CL?3?5malloc?5failed?5making?5device?5@" = linkonce_odr dso_local unnamed_addr constant [50 x i8] c"CL: malloc failed making device handle for crop.\0A\00", comdat, align 1
@"??_C@_0IJ@PJBGAFJA@?1media?1maaz?1Data?1Repos?1rake?1Hali@" = linkonce_odr dso_local unnamed_addr constant [137 x i8] c"/media/maaz/Data/Repos/rake/Halide-master-d48fbde/src/runtime/opencl.cpp:1336 Assert failed: validate_device_pointer(user_context, buf)\0A\00", comdat, align 1
@"??_C@_0L@JNMCAGGL@CL_SUCCESS?$AA@" = linkonce_odr dso_local unnamed_addr constant [11 x i8] c"CL_SUCCESS\00", comdat, align 1
@"??_C@_0BE@ELAGNECF@CL_DEVICE_NOT_FOUND?$AA@" = linkonce_odr dso_local unnamed_addr constant [20 x i8] c"CL_DEVICE_NOT_FOUND\00", comdat, align 1
@"??_C@_0BI@DJICLPLE@CL_DEVICE_NOT_AVAILABLE?$AA@" = linkonce_odr dso_local unnamed_addr constant [24 x i8] c"CL_DEVICE_NOT_AVAILABLE\00", comdat, align 1
@"??_C@_0BK@NIHADMP@CL_COMPILER_NOT_AVAILABLE?$AA@" = linkonce_odr dso_local unnamed_addr constant [26 x i8] c"CL_COMPILER_NOT_AVAILABLE\00", comdat, align 1
@"??_C@_0CB@KNGEFLKK@CL_MEM_OBJECT_ALLOCATION_FAILURE@" = linkonce_odr dso_local unnamed_addr constant [33 x i8] c"CL_MEM_OBJECT_ALLOCATION_FAILURE\00", comdat, align 1
@"??_C@_0BE@GHEIGNPM@CL_OUT_OF_RESOURCES?$AA@" = linkonce_odr dso_local unnamed_addr constant [20 x i8] c"CL_OUT_OF_RESOURCES\00", comdat, align 1
@"??_C@_0BG@FJOOPJHO@CL_OUT_OF_HOST_MEMORY?$AA@" = linkonce_odr dso_local unnamed_addr constant [22 x i8] c"CL_OUT_OF_HOST_MEMORY\00", comdat, align 1
@"??_C@_0CA@NMFLODBK@CL_PROFILING_INFO_NOT_AVAILABLE?$AA@" = linkonce_odr dso_local unnamed_addr constant [32 x i8] c"CL_PROFILING_INFO_NOT_AVAILABLE\00", comdat, align 1
@"??_C@_0BE@JMGFBLJK@CL_MEM_COPY_OVERLAP?$AA@" = linkonce_odr dso_local unnamed_addr constant [20 x i8] c"CL_MEM_COPY_OVERLAP\00", comdat, align 1
@"??_C@_0BJ@ONFDNJEG@CL_IMAGE_FORMAT_MISMATCH?$AA@" = linkonce_odr dso_local unnamed_addr constant [25 x i8] c"CL_IMAGE_FORMAT_MISMATCH\00", comdat, align 1
@"??_C@_0BO@NPJAPAAL@CL_IMAGE_FORMAT_NOT_SUPPORTED?$AA@" = linkonce_odr dso_local unnamed_addr constant [30 x i8] c"CL_IMAGE_FORMAT_NOT_SUPPORTED\00", comdat, align 1
@"??_C@_0BJ@GCBBIHOP@CL_BUILD_PROGRAM_FAILURE?$AA@" = linkonce_odr dso_local unnamed_addr constant [25 x i8] c"CL_BUILD_PROGRAM_FAILURE\00", comdat, align 1
@"??_C@_0P@LNNGPEBP@CL_MAP_FAILURE?$AA@" = linkonce_odr dso_local unnamed_addr constant [15 x i8] c"CL_MAP_FAILURE\00", comdat, align 1
@"??_C@_0CA@OKLIKJOK@CL_MISALIGNED_SUB_BUFFER_OFFSET?$AA@" = linkonce_odr dso_local unnamed_addr constant [32 x i8] c"CL_MISALIGNED_SUB_BUFFER_OFFSET\00", comdat, align 1
@"??_C@_0CN@ECJCNBKL@CL_EXEC_STATUS_ERROR_FOR_EVENTS_@" = linkonce_odr dso_local unnamed_addr constant [45 x i8] c"CL_EXEC_STATUS_ERROR_FOR_EVENTS_IN_WAIT_LIST\00", comdat, align 1
@"??_C@_0BL@OINJNLGH@CL_COMPILE_PROGRAM_FAILURE?$AA@" = linkonce_odr dso_local unnamed_addr constant [27 x i8] c"CL_COMPILE_PROGRAM_FAILURE\00", comdat, align 1
@"??_C@_0BI@GMJLLHMG@CL_LINKER_NOT_AVAILABLE?$AA@" = linkonce_odr dso_local unnamed_addr constant [24 x i8] c"CL_LINKER_NOT_AVAILABLE\00", comdat, align 1
@"??_C@_0BI@BKGHHLEO@CL_LINK_PROGRAM_FAILURE?$AA@" = linkonce_odr dso_local unnamed_addr constant [24 x i8] c"CL_LINK_PROGRAM_FAILURE\00", comdat, align 1
@"??_C@_0BL@EBAMFBNN@CL_DEVICE_PARTITION_FAILED?$AA@" = linkonce_odr dso_local unnamed_addr constant [27 x i8] c"CL_DEVICE_PARTITION_FAILED\00", comdat, align 1
@"??_C@_0CB@JNJGNCL@CL_KERNEL_ARG_INFO_NOT_AVAILABLE@" = linkonce_odr dso_local unnamed_addr constant [33 x i8] c"CL_KERNEL_ARG_INFO_NOT_AVAILABLE\00", comdat, align 1
@"??_C@_0BB@IHLDHA@CL_INVALID_VALUE?$AA@" = linkonce_odr dso_local unnamed_addr constant [17 x i8] c"CL_INVALID_VALUE\00", comdat, align 1
@"??_C@_0BH@LBOJAEIK@CL_INVALID_DEVICE_TYPE?$AA@" = linkonce_odr dso_local unnamed_addr constant [23 x i8] c"CL_INVALID_DEVICE_TYPE\00", comdat, align 1
@"??_C@_0BE@EGJKELL@CL_INVALID_PLATFORM?$AA@" = linkonce_odr dso_local unnamed_addr constant [20 x i8] c"CL_INVALID_PLATFORM\00", comdat, align 1
@"??_C@_0BC@ICMJJJII@CL_INVALID_DEVICE?$AA@" = linkonce_odr dso_local unnamed_addr constant [18 x i8] c"CL_INVALID_DEVICE\00", comdat, align 1
@"??_C@_0BD@NFODLALG@CL_INVALID_CONTEXT?$AA@" = linkonce_odr dso_local unnamed_addr constant [19 x i8] c"CL_INVALID_CONTEXT\00", comdat, align 1
@"??_C@_0BM@LJKBKLGM@CL_INVALID_QUEUE_PROPERTIES?$AA@" = linkonce_odr dso_local unnamed_addr constant [28 x i8] c"CL_INVALID_QUEUE_PROPERTIES\00", comdat, align 1
@"??_C@_0BJ@DCHMJOMG@CL_INVALID_COMMAND_QUEUE?$AA@" = linkonce_odr dso_local unnamed_addr constant [25 x i8] c"CL_INVALID_COMMAND_QUEUE\00", comdat, align 1
@"??_C@_0BE@MBOCAOMA@CL_INVALID_HOST_PTR?$AA@" = linkonce_odr dso_local unnamed_addr constant [20 x i8] c"CL_INVALID_HOST_PTR\00", comdat, align 1
@"??_C@_0BG@OEIKFAMH@CL_INVALID_MEM_OBJECT?$AA@" = linkonce_odr dso_local unnamed_addr constant [22 x i8] c"CL_INVALID_MEM_OBJECT\00", comdat, align 1
@"??_C@_0CD@IIJKEAGK@CL_INVALID_IMAGE_FORMAT_DESCRIPT@" = linkonce_odr dso_local unnamed_addr constant [35 x i8] c"CL_INVALID_IMAGE_FORMAT_DESCRIPTOR\00", comdat, align 1
@"??_C@_0BG@HCNOAFJE@CL_INVALID_IMAGE_SIZE?$AA@" = linkonce_odr dso_local unnamed_addr constant [22 x i8] c"CL_INVALID_IMAGE_SIZE\00", comdat, align 1
@"??_C@_0BD@LFNPPGIB@CL_INVALID_SAMPLER?$AA@" = linkonce_odr dso_local unnamed_addr constant [19 x i8] c"CL_INVALID_SAMPLER\00", comdat, align 1
@"??_C@_0BC@PIGMAMHP@CL_INVALID_BINARY?$AA@" = linkonce_odr dso_local unnamed_addr constant [18 x i8] c"CL_INVALID_BINARY\00", comdat, align 1
@"??_C@_0BJ@IDJIFICI@CL_INVALID_BUILD_OPTIONS?$AA@" = linkonce_odr dso_local unnamed_addr constant [25 x i8] c"CL_INVALID_BUILD_OPTIONS\00", comdat, align 1
@"??_C@_0BD@IIPLBLEG@CL_INVALID_PROGRAM?$AA@" = linkonce_odr dso_local unnamed_addr constant [19 x i8] c"CL_INVALID_PROGRAM\00", comdat, align 1
@"??_C@_0BO@EDBIPNOL@CL_INVALID_PROGRAM_EXECUTABLE?$AA@" = linkonce_odr dso_local unnamed_addr constant [30 x i8] c"CL_INVALID_PROGRAM_EXECUTABLE\00", comdat, align 1
@"??_C@_0BH@FGADNKGM@CL_INVALID_KERNEL_NAME?$AA@" = linkonce_odr dso_local unnamed_addr constant [23 x i8] c"CL_INVALID_KERNEL_NAME\00", comdat, align 1
@"??_C@_0BN@PKJJKFBD@CL_INVALID_KERNEL_DEFINITION?$AA@" = linkonce_odr dso_local unnamed_addr constant [29 x i8] c"CL_INVALID_KERNEL_DEFINITION\00", comdat, align 1
@"??_C@_0BC@MJJJLAOD@CL_INVALID_KERNEL?$AA@" = linkonce_odr dso_local unnamed_addr constant [18 x i8] c"CL_INVALID_KERNEL\00", comdat, align 1
@"??_C@_0BF@PBIEDICK@CL_INVALID_ARG_INDEX?$AA@" = linkonce_odr dso_local unnamed_addr constant [21 x i8] c"CL_INVALID_ARG_INDEX\00", comdat, align 1
@"??_C@_0BF@KHKKPIDG@CL_INVALID_ARG_VALUE?$AA@" = linkonce_odr dso_local unnamed_addr constant [21 x i8] c"CL_INVALID_ARG_VALUE\00", comdat, align 1
@"??_C@_0BE@JEFFIIPH@CL_INVALID_ARG_SIZE?$AA@" = linkonce_odr dso_local unnamed_addr constant [20 x i8] c"CL_INVALID_ARG_SIZE\00", comdat, align 1
@"??_C@_0BH@IHPAIFMN@CL_INVALID_KERNEL_ARGS?$AA@" = linkonce_odr dso_local unnamed_addr constant [23 x i8] c"CL_INVALID_KERNEL_ARGS\00", comdat, align 1
@"??_C@_0BK@IIJALOOA@CL_INVALID_WORK_DIMENSION?$AA@" = linkonce_odr dso_local unnamed_addr constant [26 x i8] c"CL_INVALID_WORK_DIMENSION\00", comdat, align 1
@"??_C@_0BL@GNFKDAIO@CL_INVALID_WORK_GROUP_SIZE?$AA@" = linkonce_odr dso_local unnamed_addr constant [27 x i8] c"CL_INVALID_WORK_GROUP_SIZE\00", comdat, align 1
@"??_C@_0BK@PBHIKMMK@CL_INVALID_WORK_ITEM_SIZE?$AA@" = linkonce_odr dso_local unnamed_addr constant [26 x i8] c"CL_INVALID_WORK_ITEM_SIZE\00", comdat, align 1
@"??_C@_0BJ@ICDONJCN@CL_INVALID_GLOBAL_OFFSET?$AA@" = linkonce_odr dso_local unnamed_addr constant [25 x i8] c"CL_INVALID_GLOBAL_OFFSET\00", comdat, align 1
@"??_C@_0BL@KDCAPAB@CL_INVALID_EVENT_WAIT_LIST?$AA@" = linkonce_odr dso_local unnamed_addr constant [27 x i8] c"CL_INVALID_EVENT_WAIT_LIST\00", comdat, align 1
@"??_C@_0BB@GJKHKINM@CL_INVALID_EVENT?$AA@" = linkonce_odr dso_local unnamed_addr constant [17 x i8] c"CL_INVALID_EVENT\00", comdat, align 1
@"??_C@_0BF@MHCPKDDA@CL_INVALID_OPERATION?$AA@" = linkonce_odr dso_local unnamed_addr constant [21 x i8] c"CL_INVALID_OPERATION\00", comdat, align 1
@"??_C@_0BF@NPNLGFAG@CL_INVALID_GL_OBJECT?$AA@" = linkonce_odr dso_local unnamed_addr constant [21 x i8] c"CL_INVALID_GL_OBJECT\00", comdat, align 1
@"??_C@_0BH@IDINIOAG@CL_INVALID_BUFFER_SIZE?$AA@" = linkonce_odr dso_local unnamed_addr constant [23 x i8] c"CL_INVALID_BUFFER_SIZE\00", comdat, align 1
@"??_C@_0BF@EAPANENJ@CL_INVALID_MIP_LEVEL?$AA@" = linkonce_odr dso_local unnamed_addr constant [21 x i8] c"CL_INVALID_MIP_LEVEL\00", comdat, align 1
@"??_C@_0BM@IPEANGIP@CL_INVALID_GLOBAL_WORK_SIZE?$AA@" = linkonce_odr dso_local unnamed_addr constant [28 x i8] c"CL_INVALID_GLOBAL_WORK_SIZE\00", comdat, align 1
@"??_C@_0BE@GJAGOAJM@CL_INVALID_PROPERTY?$AA@" = linkonce_odr dso_local unnamed_addr constant [20 x i8] c"CL_INVALID_PROPERTY\00", comdat, align 1
@"??_C@_0BM@DLPOCGIE@CL_INVALID_IMAGE_DESCRIPTOR?$AA@" = linkonce_odr dso_local unnamed_addr constant [28 x i8] c"CL_INVALID_IMAGE_DESCRIPTOR\00", comdat, align 1
@"??_C@_0BM@EGEFLIHM@CL_INVALID_COMPILER_OPTIONS?$AA@" = linkonce_odr dso_local unnamed_addr constant [28 x i8] c"CL_INVALID_COMPILER_OPTIONS\00", comdat, align 1
@"??_C@_0BK@FJFBMGOA@CL_INVALID_LINKER_OPTIONS?$AA@" = linkonce_odr dso_local unnamed_addr constant [26 x i8] c"CL_INVALID_LINKER_OPTIONS\00", comdat, align 1
@"??_C@_0CC@CDIFHCPP@CL_INVALID_DEVICE_PARTITION_COUN@" = linkonce_odr dso_local unnamed_addr constant [34 x i8] c"CL_INVALID_DEVICE_PARTITION_COUNT\00", comdat, align 1
@"??_C@_0BA@EEJCIADE@?$DMUnknown?5error?$DO?$AA@" = linkonce_odr dso_local unnamed_addr constant [16 x i8] c"<Unknown error>\00", comdat, align 1
@"?opencl_device_interface_impl@OpenCL@Internal@Runtime@Halide@@3Uhalide_device_interface_impl_t@@A" = weak dso_local global %struct.halide_device_interface_impl_t { void ()* @halide_use_jit_module, void ()* @halide_release_jit_module, i32 (i8*, %struct.halide_buffer_t*)* @halide_opencl_device_malloc, i32 (i8*, %struct.halide_buffer_t*)* @halide_opencl_device_free, i32 (i8*, %struct.halide_buffer_t*)* @halide_opencl_device_sync, i32 (i8*)* @halide_opencl_device_release, i32 (i8*, %struct.halide_buffer_t*)* @halide_opencl_copy_to_host, i32 (i8*, %struct.halide_buffer_t*)* @halide_opencl_copy_to_device, i32 (i8*, %struct.halide_buffer_t*)* @halide_opencl_device_and_host_malloc, i32 (i8*, %struct.halide_buffer_t*)* @halide_opencl_device_and_host_free, i32 (i8*, %struct.halide_buffer_t*, %struct.halide_device_interface_t*, %struct.halide_buffer_t*)* @halide_opencl_buffer_copy, i32 (i8*, %struct.halide_buffer_t*, %struct.halide_buffer_t*)* @halide_opencl_device_crop, i32 (i8*, %struct.halide_buffer_t*, i32, i32, %struct.halide_buffer_t*)* @halide_opencl_device_slice, i32 (i8*, %struct.halide_buffer_t*)* @halide_opencl_device_release_crop, i32 (i8*, %struct.halide_buffer_t*, i64)* @halide_opencl_wrap_cl_mem, i32 (i8*, %struct.halide_buffer_t*)* @halide_opencl_detach_cl_mem }, align 4
@"??_C@_0GI@KLGLJOPD@?1media?1maaz?1Data?1Repos?1rake?1Hali@" = linkonce_odr dso_local unnamed_addr constant [104 x i8] c"/media/maaz/Data/Repos/rake/Halide-master-d48fbde/src/runtime/opencl.cpp:1552 Assert failed: size != 0\0A\00", comdat, align 1
@"??_C@_0IP@GPNAIHNH@?1media?1maaz?1Data?1Repos?1rake?1Hali@" = linkonce_odr dso_local unnamed_addr constant [143 x i8] c"/media/maaz/Data/Repos/rake/Halide-master-d48fbde/src/runtime/opencl.cpp:1554 Assert failed: validate_device_pointer(user_context, buf, size)\0A\00", comdat, align 1
@"??_C@_0HG@DEPPOMDI@?1media?1maaz?1Data?1Repos?1rake?1Hali@" = linkonce_odr dso_local unnamed_addr constant [118 x i8] c"/media/maaz/Data/Repos/rake/Halide-master-d48fbde/src/runtime/opencl.cpp:1559 Assert failed: buf->dim[i].stride >= 0\0A\00", comdat, align 1
@"??_C@_0CP@JFFADFI@Unhandled?5datatype?5for?5opencl?5te@" = linkonce_odr dso_local unnamed_addr constant [47 x i8] c"Unhandled datatype for opencl texture object: \00", comdat, align 1
@"??_C@_0CO@BGCMENKM@image?5buffer?5must?5be?5dense?5on?5in@" = linkonce_odr dso_local unnamed_addr constant [46 x i8] c"image buffer must be dense on inner dimension\00", comdat, align 1
@"??_C@_0CG@BBLMLEAJ@image?5buffer?5must?5have?51?93?5dimen@" = linkonce_odr dso_local unnamed_addr constant [38 x i8] c"image buffer must have 1-3 dimensions\00", comdat, align 1
@"??_C@_0BL@NNHHKBND@CL?3?5clCreateImage?5failed?3?5?$AA@" = linkonce_odr dso_local unnamed_addr constant [27 x i8] c"CL: clCreateImage failed: \00", comdat, align 1
@"??_C@_0IP@NEAAEKKN@?1media?1maaz?1Data?1Repos?1rake?1Hali@" = linkonce_odr dso_local unnamed_addr constant [143 x i8] c"/media/maaz/Data/Repos/rake/Halide-master-d48fbde/src/runtime/opencl.cpp:1671 Assert failed: validate_device_pointer(user_context, buf, size)\0A\00", comdat, align 1
@"??_C@_0LI@BANCPNKE@?1media?1maaz?1Data?1Repos?1rake?1Hali@" = linkonce_odr dso_local unnamed_addr constant [184 x i8] c"/media/maaz/Data/Repos/rake/Halide-master-d48fbde/src/runtime/opencl.cpp:1690 Assert failed: dst_device_interface == nullptr || dst_device_interface == &opencl_image_device_interface\0A\00", comdat, align 1
@"??_C@_0JF@GOJCIKCJ@?1media?1maaz?1Data?1Repos?1rake?1Hali@" = linkonce_odr dso_local unnamed_addr constant [149 x i8] c"/media/maaz/Data/Repos/rake/Halide-master-d48fbde/src/runtime/opencl.cpp:1694 Assert failed: dst_device_interface == &opencl_image_device_interface\0A\00", comdat, align 1
@"??_C@_0HF@BDNGEHJA@?1media?1maaz?1Data?1Repos?1rake?1Hali@" = linkonce_odr dso_local unnamed_addr constant [117 x i8] c"/media/maaz/Data/Repos/rake/Halide-master-d48fbde/src/runtime/opencl.cpp:1705 Assert failed: to_host || dst->device\0A\00", comdat, align 1
@"??_C@_0CN@FPAFPECO@image?5buffer?5copies?5must?5be?5for?5@" = linkonce_odr dso_local unnamed_addr constant [45 x i8] c"image buffer copies must be for whole buffer\00", comdat, align 1
@"??_C@_0DF@ENIMJJEL@image?5buffer?5copies?5must?5be?5dens@" = linkonce_odr dso_local unnamed_addr constant [53 x i8] c"image buffer copies must be dense on inner dimension\00", comdat, align 1
@"??_C@_0CG@BEDKGNGM@image?5to?5image?5copies?5not?5implem@" = linkonce_odr dso_local unnamed_addr constant [38 x i8] c"image to image copies not implemented\00", comdat, align 1
@"??_C@_0BN@NALPKMPM@CL?3?5buffer?5transfer?5failed?3?5?$AA@" = linkonce_odr dso_local unnamed_addr constant [29 x i8] c"CL: buffer transfer failed: \00", comdat, align 1
@"??_C@_0GP@FPIDEFFE@?1media?1maaz?1Data?1Repos?1rake?1Hali@" = linkonce_odr dso_local unnamed_addr constant [111 x i8] c"/media/maaz/Data/Repos/rake/Halide-master-d48fbde/src/runtime/opencl.cpp:1818 Assert failed: buf->device == 0\0A\00", comdat, align 1
@"??_C@_0ED@LDGMHNKH@CL?3?5Bad?5device?5pointer?5passed?5to@" = linkonce_odr dso_local unnamed_addr constant [67 x i8] c"CL: Bad device pointer passed to halide_opencl_image_wrap_cl_mem: \00", comdat, align 1
@"??_C@_0M@NDNKNKHF@?5with?5type?5?$AA@" = linkonce_odr dso_local unnamed_addr constant [12 x i8] c" with type \00", comdat, align 1
@"??_C@_0CL@FEFCGAPD@crop?5not?5supported?5on?5opencl?5ima@" = linkonce_odr dso_local unnamed_addr constant [43 x i8] c"crop not supported on opencl image objects\00", comdat, align 1
@"??_C@_0CM@JIBBOEGP@slice?5not?5supported?5on?5opencl?5im@" = linkonce_odr dso_local unnamed_addr constant [44 x i8] c"slice not supported on opencl image objects\00", comdat, align 1
@"?opencl_image_device_interface_impl@OpenCL@Internal@Runtime@Halide@@3Uhalide_device_interface_impl_t@@A" = weak dso_local global %struct.halide_device_interface_impl_t { void ()* @halide_use_jit_module, void ()* @halide_release_jit_module, i32 (i8*, %struct.halide_buffer_t*)* @halide_opencl_image_device_malloc, i32 (i8*, %struct.halide_buffer_t*)* @halide_opencl_device_free, i32 (i8*, %struct.halide_buffer_t*)* @halide_opencl_device_sync, i32 (i8*)* @halide_opencl_device_release, i32 (i8*, %struct.halide_buffer_t*)* @halide_opencl_image_copy_to_host, i32 (i8*, %struct.halide_buffer_t*)* @halide_opencl_image_copy_to_device, i32 (i8*, %struct.halide_buffer_t*)* @halide_opencl_image_device_and_host_malloc, i32 (i8*, %struct.halide_buffer_t*)* @halide_opencl_image_device_and_host_free, i32 (i8*, %struct.halide_buffer_t*, %struct.halide_device_interface_t*, %struct.halide_buffer_t*)* @halide_opencl_image_buffer_copy, i32 (i8*, %struct.halide_buffer_t*, %struct.halide_buffer_t*)* @halide_opencl_image_device_crop, i32 (i8*, %struct.halide_buffer_t*, i32, i32, %struct.halide_buffer_t*)* @halide_opencl_image_device_slice, i32 (i8*, %struct.halide_buffer_t*)* @halide_opencl_image_device_release_crop, i32 (i8*, %struct.halide_buffer_t*, i64)* @halide_opencl_image_wrap_cl_mem, i32 (i8*, %struct.halide_buffer_t*)* @halide_opencl_detach_cl_mem }, align 4
@"??_C@_0BF@IKKCGBEB@HL_OCL_PLATFORM_NAME?$AA@" = linkonce_odr dso_local unnamed_addr constant [21 x i8] c"HL_OCL_PLATFORM_NAME\00", comdat, align 1
@"??_C@_0BD@PBIHOGAH@HL_OCL_DEVICE_TYPE?$AA@" = linkonce_odr dso_local unnamed_addr constant [19 x i8] c"HL_OCL_DEVICE_TYPE\00", comdat, align 1
@"??_C@_0BF@EDLBHNBE@HL_OCL_BUILD_OPTIONS?$AA@" = linkonce_odr dso_local unnamed_addr constant [21 x i8] c"HL_OCL_BUILD_OPTIONS\00", comdat, align 1
@"??_C@_0CC@IIEJBDMK@OpenCL?3?5null?5context?5or?5cmd_queu@" = linkonce_odr dso_local unnamed_addr constant [34 x i8] c"OpenCL: null context or cmd_queue\00", comdat, align 1
@"??_C@_0BH@JIGFLJEL@OpenCL?5API?5not?5found?3?5?$AA@" = linkonce_odr dso_local unnamed_addr constant [23 x i8] c"OpenCL API not found: \00", comdat, align 1
@"??_C@_0CD@IKIJNBLF@Printer?5buffer?5allocation?5failed@" = linkonce_odr dso_local unnamed_addr constant [35 x i8] c"Printer buffer allocation failed.\0A\00", comdat, align 1
@"??_C@_09CGLEKJAK@?$DMnullptr?$DO?$AA@" = linkonce_odr dso_local unnamed_addr constant [10 x i8] c"<nullptr>\00", comdat, align 1
@"??_C@_0GM@GIODNIAA@?1media?1maaz?1Data?1Repos?1rake?1Hali@" = linkonce_odr dso_local unnamed_addr constant [108 x i8] c"/media/maaz/Data/Repos/rake/Halide-master-d48fbde/src/runtime/gpu_context_common.h:69 Assert failed: false\0A\00", comdat, align 1
@"??_C@_0GO@DFIAIKAP@?1media?1maaz?1Data?1Repos?1rake?1Hali@" = linkonce_odr dso_local unnamed_addr constant [110 x i8] c"/media/maaz/Data/Repos/rake/Halide-master-d48fbde/src/runtime/gpu_context_common.h:127 Assert failed: result\0A\00", comdat, align 1
@"??_C@_0GO@OECFGMGJ@?1media?1maaz?1Data?1Repos?1rake?1Hali@" = linkonce_odr dso_local unnamed_addr constant [110 x i8] c"/media/maaz/Data/Repos/rake/Halide-master-d48fbde/src/runtime/gpu_context_common.h:215 Assert failed: result\0A\00", comdat, align 1
@llvm.global_ctors = appending global [1 x { i32, void ()*, i8* }] [{ i32, void ()*, i8* } { i32 65535, void ()* @_GLOBAL__sub_I_windows_opencl.cpp, i8* null }]
@llvm.global_dtors = appending global [1 x { i32, void ()*, i8* }] [{ i32, void ()*, i8* } { i32 65535, void ()* @halide_opencl_cleanup, i8* null }]
@"switch.table.?get_opencl_error_name@OpenCL@Internal@Runtime@Halide@@YAPBDH@Z" = private unnamed_addr constant [69 x i8*] [i8* getelementptr inbounds ([34 x i8], [34 x i8]* @"??_C@_0CC@CDIFHCPP@CL_INVALID_DEVICE_PARTITION_COUN@", i32 0, i32 0), i8* getelementptr inbounds ([26 x i8], [26 x i8]* @"??_C@_0BK@FJFBMGOA@CL_INVALID_LINKER_OPTIONS?$AA@", i32 0, i32 0), i8* getelementptr inbounds ([28 x i8], [28 x i8]* @"??_C@_0BM@EGEFLIHM@CL_INVALID_COMPILER_OPTIONS?$AA@", i32 0, i32 0), i8* getelementptr inbounds ([28 x i8], [28 x i8]* @"??_C@_0BM@DLPOCGIE@CL_INVALID_IMAGE_DESCRIPTOR?$AA@", i32 0, i32 0), i8* getelementptr inbounds ([20 x i8], [20 x i8]* @"??_C@_0BE@GJAGOAJM@CL_INVALID_PROPERTY?$AA@", i32 0, i32 0), i8* getelementptr inbounds ([28 x i8], [28 x i8]* @"??_C@_0BM@IPEANGIP@CL_INVALID_GLOBAL_WORK_SIZE?$AA@", i32 0, i32 0), i8* getelementptr inbounds ([21 x i8], [21 x i8]* @"??_C@_0BF@EAPANENJ@CL_INVALID_MIP_LEVEL?$AA@", i32 0, i32 0), i8* getelementptr inbounds ([23 x i8], [23 x i8]* @"??_C@_0BH@IDINIOAG@CL_INVALID_BUFFER_SIZE?$AA@", i32 0, i32 0), i8* getelementptr inbounds ([21 x i8], [21 x i8]* @"??_C@_0BF@NPNLGFAG@CL_INVALID_GL_OBJECT?$AA@", i32 0, i32 0), i8* getelementptr inbounds ([21 x i8], [21 x i8]* @"??_C@_0BF@MHCPKDDA@CL_INVALID_OPERATION?$AA@", i32 0, i32 0), i8* getelementptr inbounds ([17 x i8], [17 x i8]* @"??_C@_0BB@GJKHKINM@CL_INVALID_EVENT?$AA@", i32 0, i32 0), i8* getelementptr inbounds ([27 x i8], [27 x i8]* @"??_C@_0BL@KDCAPAB@CL_INVALID_EVENT_WAIT_LIST?$AA@", i32 0, i32 0), i8* getelementptr inbounds ([25 x i8], [25 x i8]* @"??_C@_0BJ@ICDONJCN@CL_INVALID_GLOBAL_OFFSET?$AA@", i32 0, i32 0), i8* getelementptr inbounds ([26 x i8], [26 x i8]* @"??_C@_0BK@PBHIKMMK@CL_INVALID_WORK_ITEM_SIZE?$AA@", i32 0, i32 0), i8* getelementptr inbounds ([27 x i8], [27 x i8]* @"??_C@_0BL@GNFKDAIO@CL_INVALID_WORK_GROUP_SIZE?$AA@", i32 0, i32 0), i8* getelementptr inbounds ([26 x i8], [26 x i8]* @"??_C@_0BK@IIJALOOA@CL_INVALID_WORK_DIMENSION?$AA@", i32 0, i32 0), i8* getelementptr inbounds ([23 x i8], [23 x i8]* @"??_C@_0BH@IHPAIFMN@CL_INVALID_KERNEL_ARGS?$AA@", i32 0, i32 0), i8* getelementptr inbounds ([20 x i8], [20 x i8]* @"??_C@_0BE@JEFFIIPH@CL_INVALID_ARG_SIZE?$AA@", i32 0, i32 0), i8* getelementptr inbounds ([21 x i8], [21 x i8]* @"??_C@_0BF@KHKKPIDG@CL_INVALID_ARG_VALUE?$AA@", i32 0, i32 0), i8* getelementptr inbounds ([21 x i8], [21 x i8]* @"??_C@_0BF@PBIEDICK@CL_INVALID_ARG_INDEX?$AA@", i32 0, i32 0), i8* getelementptr inbounds ([18 x i8], [18 x i8]* @"??_C@_0BC@MJJJLAOD@CL_INVALID_KERNEL?$AA@", i32 0, i32 0), i8* getelementptr inbounds ([29 x i8], [29 x i8]* @"??_C@_0BN@PKJJKFBD@CL_INVALID_KERNEL_DEFINITION?$AA@", i32 0, i32 0), i8* getelementptr inbounds ([23 x i8], [23 x i8]* @"??_C@_0BH@FGADNKGM@CL_INVALID_KERNEL_NAME?$AA@", i32 0, i32 0), i8* getelementptr inbounds ([30 x i8], [30 x i8]* @"??_C@_0BO@EDBIPNOL@CL_INVALID_PROGRAM_EXECUTABLE?$AA@", i32 0, i32 0), i8* getelementptr inbounds ([19 x i8], [19 x i8]* @"??_C@_0BD@IIPLBLEG@CL_INVALID_PROGRAM?$AA@", i32 0, i32 0), i8* getelementptr inbounds ([25 x i8], [25 x i8]* @"??_C@_0BJ@IDJIFICI@CL_INVALID_BUILD_OPTIONS?$AA@", i32 0, i32 0), i8* getelementptr inbounds ([18 x i8], [18 x i8]* @"??_C@_0BC@PIGMAMHP@CL_INVALID_BINARY?$AA@", i32 0, i32 0), i8* getelementptr inbounds ([19 x i8], [19 x i8]* @"??_C@_0BD@LFNPPGIB@CL_INVALID_SAMPLER?$AA@", i32 0, i32 0), i8* getelementptr inbounds ([22 x i8], [22 x i8]* @"??_C@_0BG@HCNOAFJE@CL_INVALID_IMAGE_SIZE?$AA@", i32 0, i32 0), i8* getelementptr inbounds ([35 x i8], [35 x i8]* @"??_C@_0CD@IIJKEAGK@CL_INVALID_IMAGE_FORMAT_DESCRIPT@", i32 0, i32 0), i8* getelementptr inbounds ([22 x i8], [22 x i8]* @"??_C@_0BG@OEIKFAMH@CL_INVALID_MEM_OBJECT?$AA@", i32 0, i32 0), i8* getelementptr inbounds ([20 x i8], [20 x i8]* @"??_C@_0BE@MBOCAOMA@CL_INVALID_HOST_PTR?$AA@", i32 0, i32 0), i8* getelementptr inbounds ([25 x i8], [25 x i8]* @"??_C@_0BJ@DCHMJOMG@CL_INVALID_COMMAND_QUEUE?$AA@", i32 0, i32 0), i8* getelementptr inbounds ([28 x i8], [28 x i8]* @"??_C@_0BM@LJKBKLGM@CL_INVALID_QUEUE_PROPERTIES?$AA@", i32 0, i32 0), i8* getelementptr inbounds ([19 x i8], [19 x i8]* @"??_C@_0BD@NFODLALG@CL_INVALID_CONTEXT?$AA@", i32 0, i32 0), i8* getelementptr inbounds ([18 x i8], [18 x i8]* @"??_C@_0BC@ICMJJJII@CL_INVALID_DEVICE?$AA@", i32 0, i32 0), i8* getelementptr inbounds ([20 x i8], [20 x i8]* @"??_C@_0BE@EGJKELL@CL_INVALID_PLATFORM?$AA@", i32 0, i32 0), i8* getelementptr inbounds ([23 x i8], [23 x i8]* @"??_C@_0BH@LBOJAEIK@CL_INVALID_DEVICE_TYPE?$AA@", i32 0, i32 0), i8* getelementptr inbounds ([17 x i8], [17 x i8]* @"??_C@_0BB@IHLDHA@CL_INVALID_VALUE?$AA@", i32 0, i32 0), i8* getelementptr inbounds ([16 x i8], [16 x i8]* @"??_C@_0BA@EEJCIADE@?$DMUnknown?5error?$DO?$AA@", i32 0, i32 0), i8* getelementptr inbounds ([16 x i8], [16 x i8]* @"??_C@_0BA@EEJCIADE@?$DMUnknown?5error?$DO?$AA@", i32 0, i32 0), i8* getelementptr inbounds ([16 x i8], [16 x i8]* @"??_C@_0BA@EEJCIADE@?$DMUnknown?5error?$DO?$AA@", i32 0, i32 0), i8* getelementptr inbounds ([16 x i8], [16 x i8]* @"??_C@_0BA@EEJCIADE@?$DMUnknown?5error?$DO?$AA@", i32 0, i32 0), i8* getelementptr inbounds ([16 x i8], [16 x i8]* @"??_C@_0BA@EEJCIADE@?$DMUnknown?5error?$DO?$AA@", i32 0, i32 0), i8* getelementptr inbounds ([16 x i8], [16 x i8]* @"??_C@_0BA@EEJCIADE@?$DMUnknown?5error?$DO?$AA@", i32 0, i32 0), i8* getelementptr inbounds ([16 x i8], [16 x i8]* @"??_C@_0BA@EEJCIADE@?$DMUnknown?5error?$DO?$AA@", i32 0, i32 0), i8* getelementptr inbounds ([16 x i8], [16 x i8]* @"??_C@_0BA@EEJCIADE@?$DMUnknown?5error?$DO?$AA@", i32 0, i32 0), i8* getelementptr inbounds ([16 x i8], [16 x i8]* @"??_C@_0BA@EEJCIADE@?$DMUnknown?5error?$DO?$AA@", i32 0, i32 0), i8* getelementptr inbounds ([16 x i8], [16 x i8]* @"??_C@_0BA@EEJCIADE@?$DMUnknown?5error?$DO?$AA@", i32 0, i32 0), i8* getelementptr inbounds ([33 x i8], [33 x i8]* @"??_C@_0CB@JNJGNCL@CL_KERNEL_ARG_INFO_NOT_AVAILABLE@", i32 0, i32 0), i8* getelementptr inbounds ([27 x i8], [27 x i8]* @"??_C@_0BL@EBAMFBNN@CL_DEVICE_PARTITION_FAILED?$AA@", i32 0, i32 0), i8* getelementptr inbounds ([24 x i8], [24 x i8]* @"??_C@_0BI@BKGHHLEO@CL_LINK_PROGRAM_FAILURE?$AA@", i32 0, i32 0), i8* getelementptr inbounds ([24 x i8], [24 x i8]* @"??_C@_0BI@GMJLLHMG@CL_LINKER_NOT_AVAILABLE?$AA@", i32 0, i32 0), i8* getelementptr inbounds ([27 x i8], [27 x i8]* @"??_C@_0BL@OINJNLGH@CL_COMPILE_PROGRAM_FAILURE?$AA@", i32 0, i32 0), i8* getelementptr inbounds ([45 x i8], [45 x i8]* @"??_C@_0CN@ECJCNBKL@CL_EXEC_STATUS_ERROR_FOR_EVENTS_@", i32 0, i32 0), i8* getelementptr inbounds ([32 x i8], [32 x i8]* @"??_C@_0CA@OKLIKJOK@CL_MISALIGNED_SUB_BUFFER_OFFSET?$AA@", i32 0, i32 0), i8* getelementptr inbounds ([15 x i8], [15 x i8]* @"??_C@_0P@LNNGPEBP@CL_MAP_FAILURE?$AA@", i32 0, i32 0), i8* getelementptr inbounds ([25 x i8], [25 x i8]* @"??_C@_0BJ@GCBBIHOP@CL_BUILD_PROGRAM_FAILURE?$AA@", i32 0, i32 0), i8* getelementptr inbounds ([30 x i8], [30 x i8]* @"??_C@_0BO@NPJAPAAL@CL_IMAGE_FORMAT_NOT_SUPPORTED?$AA@", i32 0, i32 0), i8* getelementptr inbounds ([25 x i8], [25 x i8]* @"??_C@_0BJ@ONFDNJEG@CL_IMAGE_FORMAT_MISMATCH?$AA@", i32 0, i32 0), i8* getelementptr inbounds ([20 x i8], [20 x i8]* @"??_C@_0BE@JMGFBLJK@CL_MEM_COPY_OVERLAP?$AA@", i32 0, i32 0), i8* getelementptr inbounds ([32 x i8], [32 x i8]* @"??_C@_0CA@NMFLODBK@CL_PROFILING_INFO_NOT_AVAILABLE?$AA@", i32 0, i32 0), i8* getelementptr inbounds ([22 x i8], [22 x i8]* @"??_C@_0BG@FJOOPJHO@CL_OUT_OF_HOST_MEMORY?$AA@", i32 0, i32 0), i8* getelementptr inbounds ([20 x i8], [20 x i8]* @"??_C@_0BE@GHEIGNPM@CL_OUT_OF_RESOURCES?$AA@", i32 0, i32 0), i8* getelementptr inbounds ([33 x i8], [33 x i8]* @"??_C@_0CB@KNGEFLKK@CL_MEM_OBJECT_ALLOCATION_FAILURE@", i32 0, i32 0), i8* getelementptr inbounds ([26 x i8], [26 x i8]* @"??_C@_0BK@NIHADMP@CL_COMPILER_NOT_AVAILABLE?$AA@", i32 0, i32 0), i8* getelementptr inbounds ([24 x i8], [24 x i8]* @"??_C@_0BI@DJICLPLE@CL_DEVICE_NOT_AVAILABLE?$AA@", i32 0, i32 0), i8* getelementptr inbounds ([20 x i8], [20 x i8]* @"??_C@_0BE@ELAGNECF@CL_DEVICE_NOT_FOUND?$AA@", i32 0, i32 0), i8* getelementptr inbounds ([11 x i8], [11 x i8]* @"??_C@_0L@JNMCAGGL@CL_SUCCESS?$AA@", i32 0, i32 0)], align 4

; Function Attrs: nounwind mustprogress
define weak dso_local void @"?copy_memory_helper@Internal@Runtime@Halide@@YAXABUdevice_copy@123@H_J1@Z"(%"struct.Halide::Runtime::Internal::device_copy"* nonnull align 8 dereferenceable(416) %0, i32 %1, i64 %2, i64 %3) local_unnamed_addr #0 {
  %5 = icmp sgt i32 %1, -1
  br i1 %5, label %6, label %14

6:                                                ; preds = %4, %11
  %7 = phi i32 [ %12, %11 ], [ %1, %4 ]
  %8 = getelementptr inbounds %"struct.Halide::Runtime::Internal::device_copy", %"struct.Halide::Runtime::Internal::device_copy"* %0, i32 0, i32 3, i32 %7
  %9 = load i64, i64* %8, align 8, !tbaa !3
  %10 = icmp eq i64 %9, 1
  br i1 %10, label %11, label %14

11:                                               ; preds = %6
  %12 = add nsw i32 %7, -1
  %13 = icmp sgt i32 %7, 0
  br i1 %13, label %6, label %25, !llvm.loop !7

14:                                               ; preds = %6, %4
  %15 = phi i32 [ %1, %4 ], [ %7, %6 ]
  %16 = icmp eq i32 %15, -1
  br i1 %16, label %25, label %17

17:                                               ; preds = %14
  %18 = getelementptr inbounds %"struct.Halide::Runtime::Internal::device_copy", %"struct.Halide::Runtime::Internal::device_copy"* %0, i32 0, i32 3, i32 %15
  %19 = load i64, i64* %18, align 8, !tbaa !3
  %20 = icmp eq i64 %19, 0
  br i1 %20, label %51, label %21

21:                                               ; preds = %17
  %22 = add nsw i32 %15, -1
  %23 = getelementptr inbounds %"struct.Halide::Runtime::Internal::device_copy", %"struct.Halide::Runtime::Internal::device_copy"* %0, i32 0, i32 4, i32 %15
  %24 = getelementptr inbounds %"struct.Halide::Runtime::Internal::device_copy", %"struct.Halide::Runtime::Internal::device_copy"* %0, i32 0, i32 5, i32 %15
  br label %40

25:                                               ; preds = %11, %14
  %26 = getelementptr inbounds %"struct.Halide::Runtime::Internal::device_copy", %"struct.Halide::Runtime::Internal::device_copy"* %0, i32 0, i32 0
  %27 = load i64, i64* %26, align 8, !tbaa !9
  %28 = add i64 %27, %2
  %29 = trunc i64 %28 to i32
  %30 = inttoptr i32 %29 to i8*
  %31 = getelementptr inbounds %"struct.Halide::Runtime::Internal::device_copy", %"struct.Halide::Runtime::Internal::device_copy"* %0, i32 0, i32 1
  %32 = load i64, i64* %31, align 8, !tbaa !11
  %33 = add i64 %32, %3
  %34 = trunc i64 %33 to i32
  %35 = inttoptr i32 %34 to i8*
  %36 = getelementptr inbounds %"struct.Halide::Runtime::Internal::device_copy", %"struct.Halide::Runtime::Internal::device_copy"* %0, i32 0, i32 6
  %37 = load i64, i64* %36, align 8, !tbaa !12
  %38 = trunc i64 %37 to i32
  %39 = tail call i8* @memcpy(i8* %35, i8* %30, i32 %38) #7
  br label %51

40:                                               ; preds = %21, %40
  %41 = phi i64 [ 0, %21 ], [ %48, %40 ]
  %42 = phi i64 [ %3, %21 ], [ %47, %40 ]
  %43 = phi i64 [ %2, %21 ], [ %45, %40 ]
  tail call void @"?copy_memory_helper@Internal@Runtime@Halide@@YAXABUdevice_copy@123@H_J1@Z"(%"struct.Halide::Runtime::Internal::device_copy"* nonnull align 8 dereferenceable(416) %0, i32 %22, i64 %43, i64 %42) #8
  %44 = load i64, i64* %23, align 8, !tbaa !3
  %45 = add i64 %44, %43
  %46 = load i64, i64* %24, align 8, !tbaa !3
  %47 = add i64 %46, %42
  %48 = add nuw i64 %41, 1
  %49 = load i64, i64* %18, align 8, !tbaa !3
  %50 = icmp ult i64 %48, %49
  br i1 %50, label %40, label %51, !llvm.loop !13

51:                                               ; preds = %40, %17, %25
  ret void
}

; Function Attrs: argmemonly nofree nosync nounwind willreturn
declare void @llvm.lifetime.start.p0i8(i64 immarg, i8* nocapture) #1

declare dso_local i8* @memcpy(i8*, i8*, i32) local_unnamed_addr #2

; Function Attrs: argmemonly nofree nosync nounwind willreturn
declare void @llvm.lifetime.end.p0i8(i64 immarg, i8* nocapture) #1

; Function Attrs: nounwind mustprogress
define weak dso_local void @"?copy_memory@Internal@Runtime@Halide@@YAXABUdevice_copy@123@PAX@Z"(%"struct.Halide::Runtime::Internal::device_copy"* nonnull align 8 dereferenceable(416) %0, i8* %1) local_unnamed_addr #0 {
  %3 = getelementptr inbounds %"struct.Halide::Runtime::Internal::device_copy", %"struct.Halide::Runtime::Internal::device_copy"* %0, i32 0, i32 0
  %4 = load i64, i64* %3, align 8, !tbaa !9
  %5 = getelementptr inbounds %"struct.Halide::Runtime::Internal::device_copy", %"struct.Halide::Runtime::Internal::device_copy"* %0, i32 0, i32 1
  %6 = load i64, i64* %5, align 8, !tbaa !11
  %7 = icmp eq i64 %4, %6
  br i1 %7, label %11, label %8

8:                                                ; preds = %2
  %9 = getelementptr inbounds %"struct.Halide::Runtime::Internal::device_copy", %"struct.Halide::Runtime::Internal::device_copy"* %0, i32 0, i32 2
  %10 = load i64, i64* %9, align 8, !tbaa !14
  tail call void @"?copy_memory_helper@Internal@Runtime@Halide@@YAXABUdevice_copy@123@H_J1@Z"(%"struct.Halide::Runtime::Internal::device_copy"* nonnull align 8 dereferenceable(416) %0, i32 15, i64 %10, i64 0) #8
  br label %11

11:                                               ; preds = %2, %8
  ret void
}

; Function Attrs: nounwind mustprogress
define weak dso_local void @"?make_buffer_copy@Internal@Runtime@Halide@@YA?AUdevice_copy@123@PBUhalide_buffer_t@@_N01@Z"(%"struct.Halide::Runtime::Internal::device_copy"* noalias sret(%"struct.Halide::Runtime::Internal::device_copy") align 8 %0, %struct.halide_buffer_t* %1, i1 zeroext %2, %struct.halide_buffer_t* %3, i1 zeroext %4) local_unnamed_addr #0 {
  %6 = alloca %"struct.Halide::Runtime::Internal::device_copy", align 8
  %7 = bitcast %"struct.Halide::Runtime::Internal::device_copy"* %6 to i8*
  call void @llvm.lifetime.start.p0i8(i64 416, i8* nonnull %7) #9
  br i1 %2, label %8, label %13

8:                                                ; preds = %5
  %9 = getelementptr inbounds %struct.halide_buffer_t, %struct.halide_buffer_t* %1, i32 0, i32 2
  %10 = load i8*, i8** %9, align 4, !tbaa !15
  %11 = ptrtoint i8* %10 to i32
  %12 = zext i32 %11 to i64
  br label %16

13:                                               ; preds = %5
  %14 = getelementptr inbounds %struct.halide_buffer_t, %struct.halide_buffer_t* %1, i32 0, i32 0
  %15 = load i64, i64* %14, align 8, !tbaa !22
  br label %16

16:                                               ; preds = %13, %8
  %17 = phi i64 [ %12, %8 ], [ %15, %13 ]
  %18 = getelementptr inbounds %"struct.Halide::Runtime::Internal::device_copy", %"struct.Halide::Runtime::Internal::device_copy"* %6, i32 0, i32 0
  store i64 %17, i64* %18, align 8, !tbaa !9
  br i1 %4, label %19, label %24

19:                                               ; preds = %16
  %20 = getelementptr inbounds %struct.halide_buffer_t, %struct.halide_buffer_t* %3, i32 0, i32 2
  %21 = load i8*, i8** %20, align 4, !tbaa !15
  %22 = ptrtoint i8* %21 to i32
  %23 = zext i32 %22 to i64
  br label %27

24:                                               ; preds = %16
  %25 = getelementptr inbounds %struct.halide_buffer_t, %struct.halide_buffer_t* %3, i32 0, i32 0
  %26 = load i64, i64* %25, align 8, !tbaa !22
  br label %27

27:                                               ; preds = %24, %19
  %28 = phi i64 [ %23, %19 ], [ %26, %24 ]
  %29 = getelementptr inbounds %"struct.Halide::Runtime::Internal::device_copy", %"struct.Halide::Runtime::Internal::device_copy"* %6, i32 0, i32 1
  store i64 %28, i64* %29, align 8, !tbaa !11
  %30 = getelementptr inbounds %struct.halide_buffer_t, %struct.halide_buffer_t* %1, i32 0, i32 4, i32 1
  %31 = load i8, i8* %30, align 1, !tbaa !23
  %32 = zext i8 %31 to i32
  %33 = add nuw nsw i32 %32, 7
  %34 = lshr i32 %33, 3
  %35 = zext i32 %34 to i64
  %36 = getelementptr inbounds %"struct.Halide::Runtime::Internal::device_copy", %"struct.Halide::Runtime::Internal::device_copy"* %6, i32 0, i32 6
  store i64 %35, i64* %36, align 8, !tbaa !12
  %37 = getelementptr inbounds %"struct.Halide::Runtime::Internal::device_copy", %"struct.Halide::Runtime::Internal::device_copy"* %6, i32 0, i32 3, i32 0
  store i64 1, i64* %37, align 8, !tbaa !3
  %38 = getelementptr inbounds %"struct.Halide::Runtime::Internal::device_copy", %"struct.Halide::Runtime::Internal::device_copy"* %6, i32 0, i32 4, i32 0
  store i64 0, i64* %38, align 8, !tbaa !3
  %39 = getelementptr inbounds %"struct.Halide::Runtime::Internal::device_copy", %"struct.Halide::Runtime::Internal::device_copy"* %6, i32 0, i32 5, i32 0
  store i64 0, i64* %39, align 8, !tbaa !3
  %40 = getelementptr inbounds %"struct.Halide::Runtime::Internal::device_copy", %"struct.Halide::Runtime::Internal::device_copy"* %6, i32 0, i32 3, i32 1
  store i64 1, i64* %40, align 8, !tbaa !3
  %41 = getelementptr inbounds %"struct.Halide::Runtime::Internal::device_copy", %"struct.Halide::Runtime::Internal::device_copy"* %6, i32 0, i32 4, i32 1
  store i64 0, i64* %41, align 8, !tbaa !3
  %42 = getelementptr inbounds %"struct.Halide::Runtime::Internal::device_copy", %"struct.Halide::Runtime::Internal::device_copy"* %6, i32 0, i32 5, i32 1
  store i64 0, i64* %42, align 8, !tbaa !3
  %43 = getelementptr inbounds %"struct.Halide::Runtime::Internal::device_copy", %"struct.Halide::Runtime::Internal::device_copy"* %6, i32 0, i32 3, i32 2
  store i64 1, i64* %43, align 8, !tbaa !3
  %44 = getelementptr inbounds %"struct.Halide::Runtime::Internal::device_copy", %"struct.Halide::Runtime::Internal::device_copy"* %6, i32 0, i32 4, i32 2
  store i64 0, i64* %44, align 8, !tbaa !3
  %45 = getelementptr inbounds %"struct.Halide::Runtime::Internal::device_copy", %"struct.Halide::Runtime::Internal::device_copy"* %6, i32 0, i32 5, i32 2
  store i64 0, i64* %45, align 8, !tbaa !3
  %46 = getelementptr inbounds %"struct.Halide::Runtime::Internal::device_copy", %"struct.Halide::Runtime::Internal::device_copy"* %6, i32 0, i32 3, i32 3
  store i64 1, i64* %46, align 8, !tbaa !3
  %47 = getelementptr inbounds %"struct.Halide::Runtime::Internal::device_copy", %"struct.Halide::Runtime::Internal::device_copy"* %6, i32 0, i32 4, i32 3
  store i64 0, i64* %47, align 8, !tbaa !3
  %48 = getelementptr inbounds %"struct.Halide::Runtime::Internal::device_copy", %"struct.Halide::Runtime::Internal::device_copy"* %6, i32 0, i32 5, i32 3
  store i64 0, i64* %48, align 8, !tbaa !3
  %49 = getelementptr inbounds %"struct.Halide::Runtime::Internal::device_copy", %"struct.Halide::Runtime::Internal::device_copy"* %6, i32 0, i32 3, i32 4
  store i64 1, i64* %49, align 8, !tbaa !3
  %50 = getelementptr inbounds %"struct.Halide::Runtime::Internal::device_copy", %"struct.Halide::Runtime::Internal::device_copy"* %6, i32 0, i32 4, i32 4
  store i64 0, i64* %50, align 8, !tbaa !3
  %51 = getelementptr inbounds %"struct.Halide::Runtime::Internal::device_copy", %"struct.Halide::Runtime::Internal::device_copy"* %6, i32 0, i32 5, i32 4
  store i64 0, i64* %51, align 8, !tbaa !3
  %52 = getelementptr inbounds %"struct.Halide::Runtime::Internal::device_copy", %"struct.Halide::Runtime::Internal::device_copy"* %6, i32 0, i32 3, i32 5
  store i64 1, i64* %52, align 8, !tbaa !3
  %53 = getelementptr inbounds %"struct.Halide::Runtime::Internal::device_copy", %"struct.Halide::Runtime::Internal::device_copy"* %6, i32 0, i32 4, i32 5
  store i64 0, i64* %53, align 8, !tbaa !3
  %54 = getelementptr inbounds %"struct.Halide::Runtime::Internal::device_copy", %"struct.Halide::Runtime::Internal::device_copy"* %6, i32 0, i32 5, i32 5
  store i64 0, i64* %54, align 8, !tbaa !3
  %55 = getelementptr inbounds %"struct.Halide::Runtime::Internal::device_copy", %"struct.Halide::Runtime::Internal::device_copy"* %6, i32 0, i32 3, i32 6
  store i64 1, i64* %55, align 8, !tbaa !3
  %56 = getelementptr inbounds %"struct.Halide::Runtime::Internal::device_copy", %"struct.Halide::Runtime::Internal::device_copy"* %6, i32 0, i32 4, i32 6
  store i64 0, i64* %56, align 8, !tbaa !3
  %57 = getelementptr inbounds %"struct.Halide::Runtime::Internal::device_copy", %"struct.Halide::Runtime::Internal::device_copy"* %6, i32 0, i32 5, i32 6
  store i64 0, i64* %57, align 8, !tbaa !3
  %58 = getelementptr inbounds %"struct.Halide::Runtime::Internal::device_copy", %"struct.Halide::Runtime::Internal::device_copy"* %6, i32 0, i32 3, i32 7
  store i64 1, i64* %58, align 8, !tbaa !3
  %59 = getelementptr inbounds %"struct.Halide::Runtime::Internal::device_copy", %"struct.Halide::Runtime::Internal::device_copy"* %6, i32 0, i32 4, i32 7
  store i64 0, i64* %59, align 8, !tbaa !3
  %60 = getelementptr inbounds %"struct.Halide::Runtime::Internal::device_copy", %"struct.Halide::Runtime::Internal::device_copy"* %6, i32 0, i32 5, i32 7
  store i64 0, i64* %60, align 8, !tbaa !3
  %61 = getelementptr inbounds %"struct.Halide::Runtime::Internal::device_copy", %"struct.Halide::Runtime::Internal::device_copy"* %6, i32 0, i32 3, i32 8
  store i64 1, i64* %61, align 8, !tbaa !3
  %62 = getelementptr inbounds %"struct.Halide::Runtime::Internal::device_copy", %"struct.Halide::Runtime::Internal::device_copy"* %6, i32 0, i32 4, i32 8
  store i64 0, i64* %62, align 8, !tbaa !3
  %63 = getelementptr inbounds %"struct.Halide::Runtime::Internal::device_copy", %"struct.Halide::Runtime::Internal::device_copy"* %6, i32 0, i32 5, i32 8
  store i64 0, i64* %63, align 8, !tbaa !3
  %64 = getelementptr inbounds %"struct.Halide::Runtime::Internal::device_copy", %"struct.Halide::Runtime::Internal::device_copy"* %6, i32 0, i32 3, i32 9
  store i64 1, i64* %64, align 8, !tbaa !3
  %65 = getelementptr inbounds %"struct.Halide::Runtime::Internal::device_copy", %"struct.Halide::Runtime::Internal::device_copy"* %6, i32 0, i32 4, i32 9
  store i64 0, i64* %65, align 8, !tbaa !3
  %66 = getelementptr inbounds %"struct.Halide::Runtime::Internal::device_copy", %"struct.Halide::Runtime::Internal::device_copy"* %6, i32 0, i32 5, i32 9
  store i64 0, i64* %66, align 8, !tbaa !3
  %67 = getelementptr inbounds %"struct.Halide::Runtime::Internal::device_copy", %"struct.Halide::Runtime::Internal::device_copy"* %6, i32 0, i32 3, i32 10
  store i64 1, i64* %67, align 8, !tbaa !3
  %68 = getelementptr inbounds %"struct.Halide::Runtime::Internal::device_copy", %"struct.Halide::Runtime::Internal::device_copy"* %6, i32 0, i32 4, i32 10
  store i64 0, i64* %68, align 8, !tbaa !3
  %69 = getelementptr inbounds %"struct.Halide::Runtime::Internal::device_copy", %"struct.Halide::Runtime::Internal::device_copy"* %6, i32 0, i32 5, i32 10
  store i64 0, i64* %69, align 8, !tbaa !3
  %70 = getelementptr inbounds %"struct.Halide::Runtime::Internal::device_copy", %"struct.Halide::Runtime::Internal::device_copy"* %6, i32 0, i32 3, i32 11
  store i64 1, i64* %70, align 8, !tbaa !3
  %71 = getelementptr inbounds %"struct.Halide::Runtime::Internal::device_copy", %"struct.Halide::Runtime::Internal::device_copy"* %6, i32 0, i32 4, i32 11
  store i64 0, i64* %71, align 8, !tbaa !3
  %72 = getelementptr inbounds %"struct.Halide::Runtime::Internal::device_copy", %"struct.Halide::Runtime::Internal::device_copy"* %6, i32 0, i32 5, i32 11
  store i64 0, i64* %72, align 8, !tbaa !3
  %73 = getelementptr inbounds %"struct.Halide::Runtime::Internal::device_copy", %"struct.Halide::Runtime::Internal::device_copy"* %6, i32 0, i32 3, i32 12
  store i64 1, i64* %73, align 8, !tbaa !3
  %74 = getelementptr inbounds %"struct.Halide::Runtime::Internal::device_copy", %"struct.Halide::Runtime::Internal::device_copy"* %6, i32 0, i32 4, i32 12
  store i64 0, i64* %74, align 8, !tbaa !3
  %75 = getelementptr inbounds %"struct.Halide::Runtime::Internal::device_copy", %"struct.Halide::Runtime::Internal::device_copy"* %6, i32 0, i32 5, i32 12
  store i64 0, i64* %75, align 8, !tbaa !3
  %76 = getelementptr inbounds %"struct.Halide::Runtime::Internal::device_copy", %"struct.Halide::Runtime::Internal::device_copy"* %6, i32 0, i32 3, i32 13
  store i64 1, i64* %76, align 8, !tbaa !3
  %77 = getelementptr inbounds %"struct.Halide::Runtime::Internal::device_copy", %"struct.Halide::Runtime::Internal::device_copy"* %6, i32 0, i32 4, i32 13
  store i64 0, i64* %77, align 8, !tbaa !3
  %78 = getelementptr inbounds %"struct.Halide::Runtime::Internal::device_copy", %"struct.Halide::Runtime::Internal::device_copy"* %6, i32 0, i32 5, i32 13
  store i64 0, i64* %78, align 8, !tbaa !3
  %79 = getelementptr inbounds %"struct.Halide::Runtime::Internal::device_copy", %"struct.Halide::Runtime::Internal::device_copy"* %6, i32 0, i32 3, i32 14
  store i64 1, i64* %79, align 8, !tbaa !3
  %80 = getelementptr inbounds %"struct.Halide::Runtime::Internal::device_copy", %"struct.Halide::Runtime::Internal::device_copy"* %6, i32 0, i32 4, i32 14
  store i64 0, i64* %80, align 8, !tbaa !3
  %81 = getelementptr inbounds %"struct.Halide::Runtime::Internal::device_copy", %"struct.Halide::Runtime::Internal::device_copy"* %6, i32 0, i32 5, i32 14
  store i64 0, i64* %81, align 8, !tbaa !3
  %82 = getelementptr inbounds %"struct.Halide::Runtime::Internal::device_copy", %"struct.Halide::Runtime::Internal::device_copy"* %6, i32 0, i32 3, i32 15
  store i64 1, i64* %82, align 8, !tbaa !3
  %83 = getelementptr inbounds %"struct.Halide::Runtime::Internal::device_copy", %"struct.Halide::Runtime::Internal::device_copy"* %6, i32 0, i32 4, i32 15
  store i64 0, i64* %83, align 8, !tbaa !3
  %84 = getelementptr inbounds %"struct.Halide::Runtime::Internal::device_copy", %"struct.Halide::Runtime::Internal::device_copy"* %6, i32 0, i32 5, i32 15
  store i64 0, i64* %84, align 8, !tbaa !3
  %85 = getelementptr inbounds %"struct.Halide::Runtime::Internal::device_copy", %"struct.Halide::Runtime::Internal::device_copy"* %6, i32 0, i32 2
  %86 = getelementptr inbounds %struct.halide_buffer_t, %struct.halide_buffer_t* %1, i32 0, i32 5
  %87 = load i32, i32* %86, align 4, !tbaa !24
  %88 = icmp sgt i32 %87, 0
  br i1 %88, label %89, label %115

89:                                               ; preds = %27
  %90 = getelementptr inbounds %struct.halide_buffer_t, %struct.halide_buffer_t* %1, i32 0, i32 6
  %91 = load %struct.halide_dimension_t*, %struct.halide_dimension_t** %90, align 8, !tbaa !25
  %92 = getelementptr inbounds %struct.halide_buffer_t, %struct.halide_buffer_t* %3, i32 0, i32 6
  %93 = load %struct.halide_dimension_t*, %struct.halide_dimension_t** %92, align 8, !tbaa !25
  %94 = and i32 %87, 1
  %95 = icmp eq i32 %87, 1
  br i1 %95, label %98, label %96

96:                                               ; preds = %89
  %97 = and i32 %87, -2
  br label %122

98:                                               ; preds = %122, %89
  %99 = phi i64 [ undef, %89 ], [ %148, %122 ]
  %100 = phi i64 [ 0, %89 ], [ %148, %122 ]
  %101 = phi i32 [ 0, %89 ], [ %149, %122 ]
  %102 = icmp eq i32 %94, 0
  br i1 %102, label %115, label %103

103:                                              ; preds = %98
  %104 = getelementptr inbounds %struct.halide_dimension_t, %struct.halide_dimension_t* %93, i32 %101, i32 0
  %105 = load i32, i32* %104, align 4, !tbaa !26
  %106 = getelementptr inbounds %struct.halide_dimension_t, %struct.halide_dimension_t* %91, i32 %101, i32 0
  %107 = load i32, i32* %106, align 4, !tbaa !26
  %108 = sub nsw i32 %105, %107
  %109 = sext i32 %108 to i64
  %110 = getelementptr inbounds %struct.halide_dimension_t, %struct.halide_dimension_t* %91, i32 %101, i32 2
  %111 = load i32, i32* %110, align 4, !tbaa !28
  %112 = sext i32 %111 to i64
  %113 = mul nsw i64 %109, %112
  %114 = add i64 %113, %100
  br label %115

115:                                              ; preds = %103, %98, %27
  %116 = phi i64 [ 0, %27 ], [ %99, %98 ], [ %114, %103 ]
  %117 = load i64, i64* %36, align 8, !tbaa !12
  %118 = mul i64 %116, %117
  store i64 %118, i64* %85, align 8, !tbaa !14
  %119 = getelementptr inbounds %struct.halide_buffer_t, %struct.halide_buffer_t* %3, i32 0, i32 5
  %120 = load i32, i32* %119, align 4, !tbaa !24
  %121 = icmp eq i32 %87, %120
  br i1 %121, label %152, label %161

122:                                              ; preds = %122, %96
  %123 = phi i64 [ 0, %96 ], [ %148, %122 ]
  %124 = phi i32 [ 0, %96 ], [ %149, %122 ]
  %125 = phi i32 [ %97, %96 ], [ %150, %122 ]
  %126 = getelementptr inbounds %struct.halide_dimension_t, %struct.halide_dimension_t* %91, i32 %124, i32 2
  %127 = load i32, i32* %126, align 4, !tbaa !28
  %128 = sext i32 %127 to i64
  %129 = getelementptr inbounds %struct.halide_dimension_t, %struct.halide_dimension_t* %93, i32 %124, i32 0
  %130 = load i32, i32* %129, align 4, !tbaa !26
  %131 = getelementptr inbounds %struct.halide_dimension_t, %struct.halide_dimension_t* %91, i32 %124, i32 0
  %132 = load i32, i32* %131, align 4, !tbaa !26
  %133 = sub nsw i32 %130, %132
  %134 = sext i32 %133 to i64
  %135 = mul nsw i64 %134, %128
  %136 = add i64 %135, %123
  %137 = or i32 %124, 1
  %138 = getelementptr inbounds %struct.halide_dimension_t, %struct.halide_dimension_t* %91, i32 %137, i32 2
  %139 = load i32, i32* %138, align 4, !tbaa !28
  %140 = sext i32 %139 to i64
  %141 = getelementptr inbounds %struct.halide_dimension_t, %struct.halide_dimension_t* %93, i32 %137, i32 0
  %142 = load i32, i32* %141, align 4, !tbaa !26
  %143 = getelementptr inbounds %struct.halide_dimension_t, %struct.halide_dimension_t* %91, i32 %137, i32 0
  %144 = load i32, i32* %143, align 4, !tbaa !26
  %145 = sub nsw i32 %142, %144
  %146 = sext i32 %145 to i64
  %147 = mul nsw i64 %146, %140
  %148 = add i64 %147, %136
  %149 = add nuw nsw i32 %124, 2
  %150 = add i32 %125, -2
  %151 = icmp eq i32 %150, 0
  br i1 %151, label %98, label %122, !llvm.loop !29

152:                                              ; preds = %115
  %153 = getelementptr inbounds %struct.halide_buffer_t, %struct.halide_buffer_t* %3, i32 0, i32 4, i32 1
  %154 = load i8, i8* %153, align 1, !tbaa !23
  %155 = zext i8 %154 to i32
  %156 = add nuw nsw i32 %155, 7
  %157 = lshr i32 %156, 3
  %158 = icmp ne i32 %34, %157
  %159 = icmp sgt i32 %87, 16
  %160 = or i1 %159, %158
  br i1 %160, label %161, label %163

161:                                              ; preds = %152, %115
  %162 = bitcast %"struct.Halide::Runtime::Internal::device_copy"* %0 to i8*
  tail call void @llvm.memset.p0i8.i32(i8* nonnull align 8 dereferenceable(416) %162, i8 0, i32 416, i1 false)
  br label %416

163:                                              ; preds = %152
  %164 = icmp eq i64 %117, 0
  br i1 %164, label %171, label %165

165:                                              ; preds = %163
  br i1 %88, label %166, label %414

166:                                              ; preds = %165
  %167 = getelementptr inbounds %struct.halide_buffer_t, %struct.halide_buffer_t* %3, i32 0, i32 6
  %168 = load %struct.halide_dimension_t*, %struct.halide_dimension_t** %167, align 8, !tbaa !25
  %169 = getelementptr inbounds %struct.halide_buffer_t, %struct.halide_buffer_t* %1, i32 0, i32 6
  %170 = load %struct.halide_dimension_t*, %struct.halide_dimension_t** %169, align 8, !tbaa !25
  br label %261

171:                                              ; preds = %163
  %172 = bitcast %"struct.Halide::Runtime::Internal::device_copy"* %0 to i8*
  tail call void @llvm.memset.p0i8.i32(i8* nonnull align 8 dereferenceable(416) %172, i8 0, i32 416, i1 false)
  br label %416

173:                                              ; preds = %304
  %174 = load i64, i64* %36, align 8, !tbaa !12
  %175 = load i64, i64* %38, align 8, !tbaa !3
  %176 = load i64, i64* %39, align 8
  %177 = icmp eq i64 %174, %175
  %178 = icmp eq i64 %174, %176
  %179 = and i1 %177, %178
  br i1 %179, label %180, label %414

180:                                              ; preds = %173
  %181 = load i64, i64* %59, align 8, !tbaa !3
  %182 = load i64, i64* %60, align 8, !tbaa !3
  %183 = load i64, i64* %61, align 8, !tbaa !3
  %184 = load i64, i64* %62, align 8, !tbaa !3
  %185 = load i64, i64* %63, align 8, !tbaa !3
  %186 = load i64, i64* %64, align 8, !tbaa !3
  %187 = load i64, i64* %65, align 8, !tbaa !3
  %188 = load i64, i64* %66, align 8, !tbaa !3
  %189 = load i64, i64* %67, align 8, !tbaa !3
  %190 = load i64, i64* %68, align 8, !tbaa !3
  %191 = load i64, i64* %69, align 8, !tbaa !3
  %192 = load i64, i64* %70, align 8, !tbaa !3
  %193 = load i64, i64* %71, align 8, !tbaa !3
  %194 = load i64, i64* %72, align 8, !tbaa !3
  %195 = load i64, i64* %73, align 8, !tbaa !3
  %196 = load i64, i64* %74, align 8, !tbaa !3
  %197 = load i64, i64* %75, align 8, !tbaa !3
  %198 = load i64, i64* %76, align 8, !tbaa !3
  %199 = load i64, i64* %77, align 8, !tbaa !3
  %200 = load i64, i64* %78, align 8, !tbaa !3
  %201 = load i64, i64* %79, align 8, !tbaa !3
  %202 = load i64, i64* %80, align 8, !tbaa !3
  %203 = load i64, i64* %81, align 8, !tbaa !3
  %204 = load i64, i64* %82, align 8, !tbaa !3
  %205 = load i64, i64* %83, align 8, !tbaa !3
  %206 = load i64, i64* %84, align 8, !tbaa !3
  %207 = load i64, i64* %37, align 8, !tbaa !3
  %208 = load i64, i64* %40, align 8, !tbaa !3
  %209 = load i64, i64* %41, align 8, !tbaa !3
  %210 = load i64, i64* %42, align 8
  %211 = load i64, i64* %43, align 8, !tbaa !3
  %212 = load i64, i64* %44, align 8, !tbaa !3
  %213 = load i64, i64* %45, align 8, !tbaa !3
  %214 = load i64, i64* %46, align 8, !tbaa !3
  %215 = load i64, i64* %47, align 8, !tbaa !3
  %216 = load i64, i64* %48, align 8, !tbaa !3
  %217 = load i64, i64* %49, align 8, !tbaa !3
  %218 = load i64, i64* %50, align 8, !tbaa !3
  %219 = load i64, i64* %51, align 8, !tbaa !3
  %220 = load i64, i64* %52, align 8, !tbaa !3
  %221 = load i64, i64* %53, align 8, !tbaa !3
  %222 = load i64, i64* %54, align 8, !tbaa !3
  %223 = load i64, i64* %55, align 8, !tbaa !3
  %224 = load i64, i64* %56, align 8, !tbaa !3
  %225 = load i64, i64* %57, align 8, !tbaa !3
  %226 = load i64, i64* %58, align 8, !tbaa !3
  store i64 1, i64* %82, align 8, !tbaa !3
  store i64 0, i64* %83, align 8, !tbaa !3
  store i64 0, i64* %84, align 8, !tbaa !3
  %227 = mul i64 %207, %176
  %228 = icmp eq i64 %227, %209
  %229 = icmp eq i64 %227, %210
  %230 = and i1 %228, %229
  br i1 %230, label %231, label %367

231:                                              ; preds = %180
  %232 = mul i64 %208, %210
  %233 = icmp eq i64 %232, %212
  %234 = icmp eq i64 %232, %213
  %235 = and i1 %233, %234
  br i1 %235, label %236, label %367

236:                                              ; preds = %231
  %237 = mul i64 %211, %213
  %238 = icmp eq i64 %237, %215
  %239 = icmp eq i64 %237, %216
  %240 = and i1 %238, %239
  br i1 %240, label %241, label %367

241:                                              ; preds = %236
  %242 = mul i64 %214, %216
  %243 = icmp eq i64 %242, %218
  %244 = icmp eq i64 %242, %219
  %245 = and i1 %243, %244
  br i1 %245, label %246, label %367

246:                                              ; preds = %241
  %247 = mul i64 %217, %219
  %248 = icmp eq i64 %247, %221
  %249 = icmp eq i64 %247, %222
  %250 = and i1 %248, %249
  br i1 %250, label %251, label %367

251:                                              ; preds = %246
  %252 = mul i64 %220, %222
  %253 = icmp eq i64 %252, %224
  %254 = icmp eq i64 %252, %225
  %255 = and i1 %253, %254
  br i1 %255, label %256, label %367

256:                                              ; preds = %251
  %257 = mul i64 %223, %225
  %258 = icmp eq i64 %257, %181
  %259 = icmp eq i64 %257, %182
  %260 = and i1 %258, %259
  br i1 %260, label %336, label %367

261:                                              ; preds = %166, %304
  %262 = phi i32 [ 0, %166 ], [ %311, %304 ]
  %263 = getelementptr inbounds %struct.halide_dimension_t, %struct.halide_dimension_t* %168, i32 %262, i32 2
  %264 = load i32, i32* %263, align 4, !tbaa !28
  %265 = sext i32 %264 to i64
  %266 = mul nsw i64 %265, %35
  %267 = getelementptr inbounds %struct.halide_dimension_t, %struct.halide_dimension_t* %170, i32 %262, i32 2
  %268 = load i32, i32* %267, align 4, !tbaa !28
  %269 = sext i32 %268 to i64
  %270 = mul nsw i64 %269, %35
  %271 = icmp eq i32 %262, 0
  br i1 %271, label %282, label %272

272:                                              ; preds = %261
  %273 = icmp eq i64 %266, 0
  br i1 %273, label %282, label %274

274:                                              ; preds = %272, %279
  %275 = phi i32 [ %280, %279 ], [ 0, %272 ]
  %276 = getelementptr inbounds %"struct.Halide::Runtime::Internal::device_copy", %"struct.Halide::Runtime::Internal::device_copy"* %6, i32 0, i32 5, i32 %275
  %277 = load i64, i64* %276, align 8, !tbaa !3
  %278 = icmp ult i64 %266, %277
  br i1 %278, label %282, label %279

279:                                              ; preds = %274
  %280 = add nuw nsw i32 %275, 1
  %281 = icmp eq i32 %280, %262
  br i1 %281, label %282, label %274, !llvm.loop !30

282:                                              ; preds = %279, %274, %272, %261
  %283 = phi i32 [ 0, %261 ], [ %262, %272 ], [ %275, %274 ], [ %262, %279 ]
  %284 = icmp ugt i32 %262, %283
  br i1 %284, label %285, label %304

285:                                              ; preds = %282
  %286 = sub i32 %262, %283
  %287 = add i32 %283, 1
  %288 = and i32 %286, 1
  %289 = icmp eq i32 %288, 0
  br i1 %289, label %301, label %290

290:                                              ; preds = %285
  %291 = add nsw i32 %262, -1
  %292 = getelementptr inbounds %"struct.Halide::Runtime::Internal::device_copy", %"struct.Halide::Runtime::Internal::device_copy"* %6, i32 0, i32 3, i32 %291
  %293 = load i64, i64* %292, align 8, !tbaa !3
  %294 = getelementptr inbounds %"struct.Halide::Runtime::Internal::device_copy", %"struct.Halide::Runtime::Internal::device_copy"* %6, i32 0, i32 3, i32 %262
  store i64 %293, i64* %294, align 8, !tbaa !3
  %295 = getelementptr inbounds %"struct.Halide::Runtime::Internal::device_copy", %"struct.Halide::Runtime::Internal::device_copy"* %6, i32 0, i32 5, i32 %291
  %296 = load i64, i64* %295, align 8, !tbaa !3
  %297 = getelementptr inbounds %"struct.Halide::Runtime::Internal::device_copy", %"struct.Halide::Runtime::Internal::device_copy"* %6, i32 0, i32 5, i32 %262
  store i64 %296, i64* %297, align 8, !tbaa !3
  %298 = getelementptr inbounds %"struct.Halide::Runtime::Internal::device_copy", %"struct.Halide::Runtime::Internal::device_copy"* %6, i32 0, i32 4, i32 %291
  %299 = load i64, i64* %298, align 8, !tbaa !3
  %300 = getelementptr inbounds %"struct.Halide::Runtime::Internal::device_copy", %"struct.Halide::Runtime::Internal::device_copy"* %6, i32 0, i32 4, i32 %262
  store i64 %299, i64* %300, align 8, !tbaa !3
  br label %301

301:                                              ; preds = %290, %285
  %302 = phi i32 [ %291, %290 ], [ %262, %285 ]
  %303 = icmp eq i32 %262, %287
  br i1 %303, label %304, label %313

304:                                              ; preds = %301, %313, %282
  %305 = getelementptr inbounds %struct.halide_dimension_t, %struct.halide_dimension_t* %168, i32 %262, i32 1
  %306 = load i32, i32* %305, align 4, !tbaa !31
  %307 = sext i32 %306 to i64
  %308 = getelementptr inbounds %"struct.Halide::Runtime::Internal::device_copy", %"struct.Halide::Runtime::Internal::device_copy"* %6, i32 0, i32 3, i32 %283
  store i64 %307, i64* %308, align 8, !tbaa !3
  %309 = getelementptr inbounds %"struct.Halide::Runtime::Internal::device_copy", %"struct.Halide::Runtime::Internal::device_copy"* %6, i32 0, i32 5, i32 %283
  store i64 %266, i64* %309, align 8, !tbaa !3
  %310 = getelementptr inbounds %"struct.Halide::Runtime::Internal::device_copy", %"struct.Halide::Runtime::Internal::device_copy"* %6, i32 0, i32 4, i32 %283
  store i64 %270, i64* %310, align 8, !tbaa !3
  %311 = add nuw nsw i32 %262, 1
  %312 = icmp eq i32 %311, %87
  br i1 %312, label %173, label %261, !llvm.loop !32

313:                                              ; preds = %301, %313
  %314 = phi i32 [ %325, %313 ], [ %302, %301 ]
  %315 = add nsw i32 %314, -1
  %316 = getelementptr inbounds %"struct.Halide::Runtime::Internal::device_copy", %"struct.Halide::Runtime::Internal::device_copy"* %6, i32 0, i32 3, i32 %315
  %317 = load i64, i64* %316, align 8, !tbaa !3
  %318 = getelementptr inbounds %"struct.Halide::Runtime::Internal::device_copy", %"struct.Halide::Runtime::Internal::device_copy"* %6, i32 0, i32 3, i32 %314
  store i64 %317, i64* %318, align 8, !tbaa !3
  %319 = getelementptr inbounds %"struct.Halide::Runtime::Internal::device_copy", %"struct.Halide::Runtime::Internal::device_copy"* %6, i32 0, i32 5, i32 %315
  %320 = load i64, i64* %319, align 8, !tbaa !3
  %321 = getelementptr inbounds %"struct.Halide::Runtime::Internal::device_copy", %"struct.Halide::Runtime::Internal::device_copy"* %6, i32 0, i32 5, i32 %314
  store i64 %320, i64* %321, align 8, !tbaa !3
  %322 = getelementptr inbounds %"struct.Halide::Runtime::Internal::device_copy", %"struct.Halide::Runtime::Internal::device_copy"* %6, i32 0, i32 4, i32 %315
  %323 = load i64, i64* %322, align 8, !tbaa !3
  %324 = getelementptr inbounds %"struct.Halide::Runtime::Internal::device_copy", %"struct.Halide::Runtime::Internal::device_copy"* %6, i32 0, i32 4, i32 %314
  store i64 %323, i64* %324, align 8, !tbaa !3
  %325 = add nsw i32 %314, -2
  %326 = getelementptr inbounds %"struct.Halide::Runtime::Internal::device_copy", %"struct.Halide::Runtime::Internal::device_copy"* %6, i32 0, i32 3, i32 %325
  %327 = load i64, i64* %326, align 8, !tbaa !3
  %328 = getelementptr inbounds %"struct.Halide::Runtime::Internal::device_copy", %"struct.Halide::Runtime::Internal::device_copy"* %6, i32 0, i32 3, i32 %315
  store i64 %327, i64* %328, align 8, !tbaa !3
  %329 = getelementptr inbounds %"struct.Halide::Runtime::Internal::device_copy", %"struct.Halide::Runtime::Internal::device_copy"* %6, i32 0, i32 5, i32 %325
  %330 = load i64, i64* %329, align 8, !tbaa !3
  %331 = getelementptr inbounds %"struct.Halide::Runtime::Internal::device_copy", %"struct.Halide::Runtime::Internal::device_copy"* %6, i32 0, i32 5, i32 %315
  store i64 %330, i64* %331, align 8, !tbaa !3
  %332 = getelementptr inbounds %"struct.Halide::Runtime::Internal::device_copy", %"struct.Halide::Runtime::Internal::device_copy"* %6, i32 0, i32 4, i32 %325
  %333 = load i64, i64* %332, align 8, !tbaa !3
  %334 = getelementptr inbounds %"struct.Halide::Runtime::Internal::device_copy", %"struct.Halide::Runtime::Internal::device_copy"* %6, i32 0, i32 4, i32 %315
  store i64 %333, i64* %334, align 8, !tbaa !3
  %335 = icmp sgt i32 %325, %283
  br i1 %335, label %313, label %304, !llvm.loop !33

336:                                              ; preds = %256, %336
  %337 = phi i64 [ %359, %336 ], [ %201, %256 ]
  %338 = phi i64 [ %360, %336 ], [ %200, %256 ]
  %339 = phi i64 [ %361, %336 ], [ %199, %256 ]
  %340 = phi i64 [ %337, %336 ], [ %198, %256 ]
  %341 = phi i64 [ %338, %336 ], [ %197, %256 ]
  %342 = phi i64 [ %339, %336 ], [ %196, %256 ]
  %343 = phi i64 [ %340, %336 ], [ %195, %256 ]
  %344 = phi i64 [ %341, %336 ], [ %194, %256 ]
  %345 = phi i64 [ %342, %336 ], [ %193, %256 ]
  %346 = phi i64 [ %343, %336 ], [ %192, %256 ]
  %347 = phi i64 [ %344, %336 ], [ %191, %256 ]
  %348 = phi i64 [ %345, %336 ], [ %190, %256 ]
  %349 = phi i64 [ %346, %336 ], [ %189, %256 ]
  %350 = phi i64 [ %347, %336 ], [ %188, %256 ]
  %351 = phi i64 [ %348, %336 ], [ %187, %256 ]
  %352 = phi i64 [ %349, %336 ], [ %186, %256 ]
  %353 = phi i64 [ %350, %336 ], [ %185, %256 ]
  %354 = phi i64 [ %351, %336 ], [ %184, %256 ]
  %355 = phi i64 [ %352, %336 ], [ %183, %256 ]
  %356 = phi i64 [ %355, %336 ], [ %226, %256 ]
  %357 = phi i64 [ 0, %336 ], [ %206, %256 ]
  %358 = phi i64 [ 0, %336 ], [ %205, %256 ]
  %359 = phi i64 [ 1, %336 ], [ %204, %256 ]
  %360 = phi i64 [ %357, %336 ], [ %203, %256 ]
  %361 = phi i64 [ %358, %336 ], [ %202, %256 ]
  %362 = phi i64 [ %353, %336 ], [ %182, %256 ]
  %363 = mul i64 %356, %362
  %364 = icmp eq i64 %363, %354
  %365 = icmp eq i64 %363, %353
  %366 = and i1 %364, %365
  br i1 %366, label %336, label %367, !llvm.loop !34

367:                                              ; preds = %336, %256, %251, %246, %241, %236, %231, %180
  %368 = phi i64 [ %226, %180 ], [ %183, %231 ], [ %186, %236 ], [ %189, %241 ], [ %192, %246 ], [ %195, %251 ], [ %198, %256 ], [ %337, %336 ]
  %369 = phi i64 [ %225, %180 ], [ %182, %231 ], [ %185, %236 ], [ %188, %241 ], [ %191, %246 ], [ %194, %251 ], [ %197, %256 ], [ %338, %336 ]
  %370 = phi i64 [ %224, %180 ], [ %181, %231 ], [ %184, %236 ], [ %187, %241 ], [ %190, %246 ], [ %193, %251 ], [ %196, %256 ], [ %339, %336 ]
  %371 = phi i64 [ %223, %180 ], [ %226, %231 ], [ %183, %236 ], [ %186, %241 ], [ %189, %246 ], [ %192, %251 ], [ %195, %256 ], [ %340, %336 ]
  %372 = phi i64 [ %222, %180 ], [ %225, %231 ], [ %182, %236 ], [ %185, %241 ], [ %188, %246 ], [ %191, %251 ], [ %194, %256 ], [ %341, %336 ]
  %373 = phi i64 [ %221, %180 ], [ %224, %231 ], [ %181, %236 ], [ %184, %241 ], [ %187, %246 ], [ %190, %251 ], [ %193, %256 ], [ %342, %336 ]
  %374 = phi i64 [ %220, %180 ], [ %223, %231 ], [ %226, %236 ], [ %183, %241 ], [ %186, %246 ], [ %189, %251 ], [ %192, %256 ], [ %343, %336 ]
  %375 = phi i64 [ %219, %180 ], [ %222, %231 ], [ %225, %236 ], [ %182, %241 ], [ %185, %246 ], [ %188, %251 ], [ %191, %256 ], [ %344, %336 ]
  %376 = phi i64 [ %218, %180 ], [ %221, %231 ], [ %224, %236 ], [ %181, %241 ], [ %184, %246 ], [ %187, %251 ], [ %190, %256 ], [ %345, %336 ]
  %377 = phi i64 [ %217, %180 ], [ %220, %231 ], [ %223, %236 ], [ %226, %241 ], [ %183, %246 ], [ %186, %251 ], [ %189, %256 ], [ %346, %336 ]
  %378 = phi i64 [ %216, %180 ], [ %219, %231 ], [ %222, %236 ], [ %225, %241 ], [ %182, %246 ], [ %185, %251 ], [ %188, %256 ], [ %347, %336 ]
  %379 = phi i64 [ %215, %180 ], [ %218, %231 ], [ %221, %236 ], [ %224, %241 ], [ %181, %246 ], [ %184, %251 ], [ %187, %256 ], [ %348, %336 ]
  %380 = phi i64 [ %214, %180 ], [ %217, %231 ], [ %220, %236 ], [ %223, %241 ], [ %226, %246 ], [ %183, %251 ], [ %186, %256 ], [ %349, %336 ]
  %381 = phi i64 [ %213, %180 ], [ %216, %231 ], [ %219, %236 ], [ %222, %241 ], [ %225, %246 ], [ %182, %251 ], [ %185, %256 ], [ %350, %336 ]
  %382 = phi i64 [ %212, %180 ], [ %215, %231 ], [ %218, %236 ], [ %221, %241 ], [ %224, %246 ], [ %181, %251 ], [ %184, %256 ], [ %351, %336 ]
  %383 = phi i64 [ %211, %180 ], [ %214, %231 ], [ %217, %236 ], [ %220, %241 ], [ %223, %246 ], [ %226, %251 ], [ %183, %256 ], [ %352, %336 ]
  %384 = phi i64 [ %210, %180 ], [ %213, %231 ], [ %216, %236 ], [ %219, %241 ], [ %222, %246 ], [ %225, %251 ], [ %182, %256 ], [ %353, %336 ]
  %385 = phi i64 [ %209, %180 ], [ %212, %231 ], [ %215, %236 ], [ %218, %241 ], [ %221, %246 ], [ %224, %251 ], [ %181, %256 ], [ %354, %336 ]
  %386 = phi i64 [ %208, %180 ], [ %211, %231 ], [ %214, %236 ], [ %217, %241 ], [ %220, %246 ], [ %223, %251 ], [ %226, %256 ], [ %355, %336 ]
  %387 = phi i64 [ %206, %180 ], [ 0, %231 ], [ 0, %236 ], [ 0, %241 ], [ 0, %246 ], [ 0, %251 ], [ 0, %256 ], [ 0, %336 ]
  %388 = phi i64 [ %205, %180 ], [ 0, %231 ], [ 0, %236 ], [ 0, %241 ], [ 0, %246 ], [ 0, %251 ], [ 0, %256 ], [ 0, %336 ]
  %389 = phi i64 [ %204, %180 ], [ 1, %231 ], [ 1, %236 ], [ 1, %241 ], [ 1, %246 ], [ 1, %251 ], [ 1, %256 ], [ 1, %336 ]
  %390 = phi i64 [ %203, %180 ], [ %206, %231 ], [ 0, %236 ], [ 0, %241 ], [ 0, %246 ], [ 0, %251 ], [ 0, %256 ], [ 0, %336 ]
  %391 = phi i64 [ %202, %180 ], [ %205, %231 ], [ 0, %236 ], [ 0, %241 ], [ 0, %246 ], [ 0, %251 ], [ 0, %256 ], [ 0, %336 ]
  %392 = phi i64 [ %201, %180 ], [ %204, %231 ], [ 1, %236 ], [ 1, %241 ], [ 1, %246 ], [ 1, %251 ], [ 1, %256 ], [ 1, %336 ]
  %393 = phi i64 [ %200, %180 ], [ %203, %231 ], [ %206, %236 ], [ 0, %241 ], [ 0, %246 ], [ 0, %251 ], [ 0, %256 ], [ 0, %336 ]
  %394 = phi i64 [ %199, %180 ], [ %202, %231 ], [ %205, %236 ], [ 0, %241 ], [ 0, %246 ], [ 0, %251 ], [ 0, %256 ], [ 0, %336 ]
  %395 = phi i64 [ %198, %180 ], [ %201, %231 ], [ %204, %236 ], [ 1, %241 ], [ 1, %246 ], [ 1, %251 ], [ 1, %256 ], [ 1, %336 ]
  %396 = phi i64 [ %197, %180 ], [ %200, %231 ], [ %203, %236 ], [ %206, %241 ], [ 0, %246 ], [ 0, %251 ], [ 0, %256 ], [ 0, %336 ]
  %397 = phi i64 [ %196, %180 ], [ %199, %231 ], [ %202, %236 ], [ %205, %241 ], [ 0, %246 ], [ 0, %251 ], [ 0, %256 ], [ 0, %336 ]
  %398 = phi i64 [ %195, %180 ], [ %198, %231 ], [ %201, %236 ], [ %204, %241 ], [ 1, %246 ], [ 1, %251 ], [ 1, %256 ], [ 1, %336 ]
  %399 = phi i64 [ %194, %180 ], [ %197, %231 ], [ %200, %236 ], [ %203, %241 ], [ %206, %246 ], [ 0, %251 ], [ 0, %256 ], [ 0, %336 ]
  %400 = phi i64 [ %193, %180 ], [ %196, %231 ], [ %199, %236 ], [ %202, %241 ], [ %205, %246 ], [ 0, %251 ], [ 0, %256 ], [ 0, %336 ]
  %401 = phi i64 [ %192, %180 ], [ %195, %231 ], [ %198, %236 ], [ %201, %241 ], [ %204, %246 ], [ 1, %251 ], [ 1, %256 ], [ 1, %336 ]
  %402 = phi i64 [ %191, %180 ], [ %194, %231 ], [ %197, %236 ], [ %200, %241 ], [ %203, %246 ], [ %206, %251 ], [ 0, %256 ], [ 0, %336 ]
  %403 = phi i64 [ %190, %180 ], [ %193, %231 ], [ %196, %236 ], [ %199, %241 ], [ %202, %246 ], [ %205, %251 ], [ 0, %256 ], [ 0, %336 ]
  %404 = phi i64 [ %189, %180 ], [ %192, %231 ], [ %195, %236 ], [ %198, %241 ], [ %201, %246 ], [ %204, %251 ], [ 1, %256 ], [ 1, %336 ]
  %405 = phi i64 [ %188, %180 ], [ %191, %231 ], [ %194, %236 ], [ %197, %241 ], [ %200, %246 ], [ %203, %251 ], [ %206, %256 ], [ 0, %336 ]
  %406 = phi i64 [ %187, %180 ], [ %190, %231 ], [ %193, %236 ], [ %196, %241 ], [ %199, %246 ], [ %202, %251 ], [ %205, %256 ], [ 0, %336 ]
  %407 = phi i64 [ %186, %180 ], [ %189, %231 ], [ %192, %236 ], [ %195, %241 ], [ %198, %246 ], [ %201, %251 ], [ %204, %256 ], [ 1, %336 ]
  %408 = phi i64 [ %185, %180 ], [ %188, %231 ], [ %191, %236 ], [ %194, %241 ], [ %197, %246 ], [ %200, %251 ], [ %203, %256 ], [ %357, %336 ]
  %409 = phi i64 [ %184, %180 ], [ %187, %231 ], [ %190, %236 ], [ %193, %241 ], [ %196, %246 ], [ %199, %251 ], [ %202, %256 ], [ %358, %336 ]
  %410 = phi i64 [ %183, %180 ], [ %186, %231 ], [ %189, %236 ], [ %192, %241 ], [ %195, %246 ], [ %198, %251 ], [ %201, %256 ], [ %359, %336 ]
  %411 = phi i64 [ %182, %180 ], [ %185, %231 ], [ %188, %236 ], [ %191, %241 ], [ %194, %246 ], [ %197, %251 ], [ %200, %256 ], [ %360, %336 ]
  %412 = phi i64 [ %181, %180 ], [ %184, %231 ], [ %187, %236 ], [ %190, %241 ], [ %193, %246 ], [ %196, %251 ], [ %199, %256 ], [ %361, %336 ]
  %413 = phi i64 [ %227, %180 ], [ %232, %231 ], [ %237, %236 ], [ %242, %241 ], [ %247, %246 ], [ %252, %251 ], [ %257, %256 ], [ %363, %336 ]
  store i64 %413, i64* %36, align 8, !tbaa !12
  store i64 %386, i64* %37, align 8, !tbaa !3
  store i64 %385, i64* %38, align 8, !tbaa !3
  store i64 %384, i64* %39, align 8, !tbaa !3
  store i64 %383, i64* %40, align 8, !tbaa !3
  store i64 %382, i64* %41, align 8, !tbaa !3
  store i64 %381, i64* %42, align 8, !tbaa !3
  store i64 %380, i64* %43, align 8, !tbaa !3
  store i64 %379, i64* %44, align 8, !tbaa !3
  store i64 %378, i64* %45, align 8, !tbaa !3
  store i64 %377, i64* %46, align 8, !tbaa !3
  store i64 %376, i64* %47, align 8, !tbaa !3
  store i64 %375, i64* %48, align 8, !tbaa !3
  store i64 %374, i64* %49, align 8, !tbaa !3
  store i64 %373, i64* %50, align 8, !tbaa !3
  store i64 %372, i64* %51, align 8, !tbaa !3
  store i64 %371, i64* %52, align 8, !tbaa !3
  store i64 %370, i64* %53, align 8, !tbaa !3
  store i64 %369, i64* %54, align 8, !tbaa !3
  store i64 %368, i64* %55, align 8, !tbaa !3
  store i64 %412, i64* %56, align 8, !tbaa !3
  store i64 %411, i64* %57, align 8, !tbaa !3
  store i64 %410, i64* %58, align 8, !tbaa !3
  store i64 %409, i64* %59, align 8, !tbaa !3
  store i64 %408, i64* %60, align 8, !tbaa !3
  store i64 %407, i64* %61, align 8, !tbaa !3
  store i64 %406, i64* %62, align 8, !tbaa !3
  store i64 %405, i64* %63, align 8, !tbaa !3
  store i64 %404, i64* %64, align 8, !tbaa !3
  store i64 %403, i64* %65, align 8, !tbaa !3
  store i64 %402, i64* %66, align 8, !tbaa !3
  store i64 %401, i64* %67, align 8, !tbaa !3
  store i64 %400, i64* %68, align 8, !tbaa !3
  store i64 %399, i64* %69, align 8, !tbaa !3
  store i64 %398, i64* %70, align 8, !tbaa !3
  store i64 %397, i64* %71, align 8, !tbaa !3
  store i64 %396, i64* %72, align 8, !tbaa !3
  store i64 %395, i64* %73, align 8, !tbaa !3
  store i64 %394, i64* %74, align 8, !tbaa !3
  store i64 %393, i64* %75, align 8, !tbaa !3
  store i64 %392, i64* %76, align 8, !tbaa !3
  store i64 %391, i64* %77, align 8, !tbaa !3
  store i64 %390, i64* %78, align 8, !tbaa !3
  store i64 %389, i64* %79, align 8, !tbaa !3
  store i64 %388, i64* %80, align 8, !tbaa !3
  store i64 %387, i64* %81, align 8, !tbaa !3
  br label %414

414:                                              ; preds = %367, %165, %173
  %415 = bitcast %"struct.Halide::Runtime::Internal::device_copy"* %0 to i8*
  call void @llvm.memcpy.p0i8.p0i8.i32(i8* nonnull align 8 dereferenceable(416) %415, i8* nonnull align 8 dereferenceable(416) %7, i32 416, i1 false), !tbaa.struct !36
  br label %416

416:                                              ; preds = %414, %171, %161
  call void @llvm.lifetime.end.p0i8(i64 416, i8* nonnull %7) #9
  ret void
}

; Function Attrs: argmemonly nofree nosync nounwind willreturn writeonly
declare void @llvm.memset.p0i8.i32(i8* nocapture writeonly, i8, i32, i1 immarg) #3

; Function Attrs: argmemonly nofree nosync nounwind willreturn
declare void @llvm.memcpy.p0i8.p0i8.i32(i8* noalias nocapture writeonly, i8* noalias nocapture readonly, i32, i1 immarg) #1

; Function Attrs: nounwind mustprogress
define weak dso_local void @"?make_host_to_device_copy@Internal@Runtime@Halide@@YA?AUdevice_copy@123@PBUhalide_buffer_t@@@Z"(%"struct.Halide::Runtime::Internal::device_copy"* noalias sret(%"struct.Halide::Runtime::Internal::device_copy") align 8 %0, %struct.halide_buffer_t* %1) local_unnamed_addr #0 {
  tail call void @"?make_buffer_copy@Internal@Runtime@Halide@@YA?AUdevice_copy@123@PBUhalide_buffer_t@@_N01@Z"(%"struct.Halide::Runtime::Internal::device_copy"* sret(%"struct.Halide::Runtime::Internal::device_copy") align 8 %0, %struct.halide_buffer_t* %1, i1 zeroext true, %struct.halide_buffer_t* %1, i1 zeroext false) #8
  ret void
}

; Function Attrs: nounwind mustprogress
define weak dso_local void @"?make_device_to_host_copy@Internal@Runtime@Halide@@YA?AUdevice_copy@123@PBUhalide_buffer_t@@@Z"(%"struct.Halide::Runtime::Internal::device_copy"* noalias sret(%"struct.Halide::Runtime::Internal::device_copy") align 8 %0, %struct.halide_buffer_t* %1) local_unnamed_addr #0 {
  tail call void @"?make_buffer_copy@Internal@Runtime@Halide@@YA?AUdevice_copy@123@PBUhalide_buffer_t@@_N01@Z"(%"struct.Halide::Runtime::Internal::device_copy"* sret(%"struct.Halide::Runtime::Internal::device_copy") align 8 %0, %struct.halide_buffer_t* %1, i1 zeroext false, %struct.halide_buffer_t* %1, i1 zeroext true) #8
  ret void
}

; Function Attrs: nounwind mustprogress
define weak dso_local i8* @halide_opencl_get_symbol(i8* %0, i8* %1) local_unnamed_addr #0 {
  %3 = load i8*, i8** @"?lib_opencl@OpenCL@Internal@Runtime@Halide@@3PAXA", align 4, !tbaa !38
  %4 = tail call i8* @halide_get_library_symbol(i8* %3, i8* %1) #7
  %5 = icmp eq i8* %4, null
  br i1 %5, label %6, label %9

6:                                                ; preds = %2
  %7 = tail call i8* @halide_load_library(i8* getelementptr inbounds ([11 x i8], [11 x i8]* @"??_C@_0L@PFNAKBJA@opencl?4dll?$AA@", i32 0, i32 0)) #7
  store i8* %7, i8** @"?lib_opencl@OpenCL@Internal@Runtime@Halide@@3PAXA", align 4, !tbaa !38
  %8 = tail call i8* @halide_get_library_symbol(i8* %7, i8* %1) #7
  br label %9

9:                                                ; preds = %2, %6
  %10 = phi i8* [ %8, %6 ], [ %4, %2 ]
  ret i8* %10
}

declare extern_weak i8* @halide_get_library_symbol(i8*, i8*) local_unnamed_addr #2

declare extern_weak i8* @halide_load_library(i8*) local_unnamed_addr #2

; Function Attrs: nounwind
define weak dso_local void @"?load_libopencl@OpenCL@Internal@Runtime@Halide@@YAXPAX@Z"(i8* %0) local_unnamed_addr #4 {
  %2 = load %struct._cl_context* (i32*, i32, %struct._cl_device_id**, void (i8*, i8*, i32, i8*)*, i8*, i32*)*, %struct._cl_context* (i32*, i32, %struct._cl_device_id**, void (i8*, i8*, i32, i8*)*, i8*, i32*)** @"?clCreateContext@OpenCL@Internal@Runtime@Halide@@3P6GPAU_cl_context@@PBHIPBQAU_cl_device_id@@P6GXPBDPBXIPAX@Z4PAH@ZA", align 4, !tbaa !38
  %3 = icmp eq %struct._cl_context* (i32*, i32, %struct._cl_device_id**, void (i8*, i8*, i32, i8*)*, i8*, i32*)* %2, null
  br i1 %3, label %5, label %4

4:                                                ; preds = %1
  tail call void @halide_print(i8* %0, i8* getelementptr inbounds ([119 x i8], [119 x i8]* @"??_C@_0HH@NKMLHAFC@?1media?1maaz?1Data?1Repos?1rake?1Hali@", i32 0, i32 0)) #7
  tail call void @abort() #7
  br label %5

5:                                                ; preds = %1, %4
  %6 = tail call i8* @halide_opencl_get_symbol(i8* %0, i8* getelementptr inbounds ([17 x i8], [17 x i8]* @"??_C@_0BB@IHLFOOEK@clGetPlatformIDs?$AA@", i32 0, i32 0)) #7
  %7 = icmp eq i8* %6, null
  br i1 %7, label %8, label %27

8:                                                ; preds = %5
  %9 = tail call i8* @malloc(i32 1024) #7
  %10 = icmp eq i8* %9, null
  br i1 %10, label %13, label %11

11:                                               ; preds = %8
  %12 = getelementptr inbounds i8, i8* %9, i32 1023
  store i8 0, i8* %12, align 1, !tbaa !37
  br label %13

13:                                               ; preds = %11, %8
  %14 = phi i8* [ %12, %11 ], [ null, %8 ]
  %15 = tail call i8* @halide_string_to_string(i8* %9, i8* %14, i8* nonnull getelementptr inbounds ([23 x i8], [23 x i8]* @"??_C@_0BH@JIGFLJEL@OpenCL?5API?5not?5found?3?5?$AA@", i32 0, i32 0)) #7
  %16 = tail call i8* @halide_string_to_string(i8* %15, i8* %14, i8* nonnull getelementptr inbounds ([17 x i8], [17 x i8]* @"??_C@_0BB@IHLFOOEK@clGetPlatformIDs?$AA@", i32 0, i32 0)) #7
  %17 = tail call i8* @halide_string_to_string(i8* %16, i8* %14, i8* nonnull getelementptr inbounds ([2 x i8], [2 x i8]* @"??_C@_01EEMJAFIK@?6?$AA@", i32 0, i32 0)) #7
  br i1 %10, label %18, label %19

18:                                               ; preds = %13
  tail call void @halide_error(i8* %0, i8* getelementptr inbounds ([35 x i8], [35 x i8]* @"??_C@_0CD@IKIJNBLF@Printer?5buffer?5allocation?5failed@", i32 0, i32 0)) #7
  br label %26

19:                                               ; preds = %13
  %20 = ptrtoint i8* %17 to i32
  %21 = ptrtoint i8* %9 to i32
  %22 = sub i32 1, %21
  %23 = add i32 %22, %20
  %24 = sext i32 %23 to i64
  %25 = tail call i32 @halide_msan_annotate_memory_is_initialized(i8* %0, i8* nonnull %9, i64 %24) #7
  tail call void @halide_error(i8* %0, i8* nonnull %9) #7
  br label %26

26:                                               ; preds = %19, %18
  tail call void @free(i8* %9) #7
  br label %27

27:                                               ; preds = %5, %26
  store i8* %6, i8** bitcast (i32 (i32, %struct._cl_platform_id**, i32*)** @"?clGetPlatformIDs@OpenCL@Internal@Runtime@Halide@@3P6GHIPAPAU_cl_platform_id@@PAI@ZA" to i8**), align 4, !tbaa !38
  %28 = tail call i8* @halide_opencl_get_symbol(i8* %0, i8* getelementptr inbounds ([18 x i8], [18 x i8]* @"??_C@_0BC@KBIJEEMJ@clGetPlatformInfo?$AA@", i32 0, i32 0)) #7
  %29 = icmp eq i8* %28, null
  br i1 %29, label %30, label %49

30:                                               ; preds = %27
  %31 = tail call i8* @malloc(i32 1024) #7
  %32 = icmp eq i8* %31, null
  br i1 %32, label %35, label %33

33:                                               ; preds = %30
  %34 = getelementptr inbounds i8, i8* %31, i32 1023
  store i8 0, i8* %34, align 1, !tbaa !37
  br label %35

35:                                               ; preds = %33, %30
  %36 = phi i8* [ %34, %33 ], [ null, %30 ]
  %37 = tail call i8* @halide_string_to_string(i8* %31, i8* %36, i8* nonnull getelementptr inbounds ([23 x i8], [23 x i8]* @"??_C@_0BH@JIGFLJEL@OpenCL?5API?5not?5found?3?5?$AA@", i32 0, i32 0)) #7
  %38 = tail call i8* @halide_string_to_string(i8* %37, i8* %36, i8* nonnull getelementptr inbounds ([18 x i8], [18 x i8]* @"??_C@_0BC@KBIJEEMJ@clGetPlatformInfo?$AA@", i32 0, i32 0)) #7
  %39 = tail call i8* @halide_string_to_string(i8* %38, i8* %36, i8* nonnull getelementptr inbounds ([2 x i8], [2 x i8]* @"??_C@_01EEMJAFIK@?6?$AA@", i32 0, i32 0)) #7
  br i1 %32, label %40, label %41

40:                                               ; preds = %35
  tail call void @halide_error(i8* %0, i8* getelementptr inbounds ([35 x i8], [35 x i8]* @"??_C@_0CD@IKIJNBLF@Printer?5buffer?5allocation?5failed@", i32 0, i32 0)) #7
  br label %48

41:                                               ; preds = %35
  %42 = ptrtoint i8* %39 to i32
  %43 = ptrtoint i8* %31 to i32
  %44 = sub i32 1, %43
  %45 = add i32 %44, %42
  %46 = sext i32 %45 to i64
  %47 = tail call i32 @halide_msan_annotate_memory_is_initialized(i8* %0, i8* nonnull %31, i64 %46) #7
  tail call void @halide_error(i8* %0, i8* nonnull %31) #7
  br label %48

48:                                               ; preds = %41, %40
  tail call void @free(i8* %31) #7
  br label %49

49:                                               ; preds = %27, %48
  store i8* %28, i8** bitcast (i32 (%struct._cl_platform_id*, i32, i32, i8*, i32*)** @"?clGetPlatformInfo@OpenCL@Internal@Runtime@Halide@@3P6GHPAU_cl_platform_id@@IIPAXPAI@ZA" to i8**), align 4, !tbaa !38
  %50 = tail call i8* @halide_opencl_get_symbol(i8* %0, i8* getelementptr inbounds ([15 x i8], [15 x i8]* @"??_C@_0P@FMCIAPFL@clGetDeviceIDs?$AA@", i32 0, i32 0)) #7
  %51 = icmp eq i8* %50, null
  br i1 %51, label %52, label %71

52:                                               ; preds = %49
  %53 = tail call i8* @malloc(i32 1024) #7
  %54 = icmp eq i8* %53, null
  br i1 %54, label %57, label %55

55:                                               ; preds = %52
  %56 = getelementptr inbounds i8, i8* %53, i32 1023
  store i8 0, i8* %56, align 1, !tbaa !37
  br label %57

57:                                               ; preds = %55, %52
  %58 = phi i8* [ %56, %55 ], [ null, %52 ]
  %59 = tail call i8* @halide_string_to_string(i8* %53, i8* %58, i8* nonnull getelementptr inbounds ([23 x i8], [23 x i8]* @"??_C@_0BH@JIGFLJEL@OpenCL?5API?5not?5found?3?5?$AA@", i32 0, i32 0)) #7
  %60 = tail call i8* @halide_string_to_string(i8* %59, i8* %58, i8* nonnull getelementptr inbounds ([15 x i8], [15 x i8]* @"??_C@_0P@FMCIAPFL@clGetDeviceIDs?$AA@", i32 0, i32 0)) #7
  %61 = tail call i8* @halide_string_to_string(i8* %60, i8* %58, i8* nonnull getelementptr inbounds ([2 x i8], [2 x i8]* @"??_C@_01EEMJAFIK@?6?$AA@", i32 0, i32 0)) #7
  br i1 %54, label %62, label %63

62:                                               ; preds = %57
  tail call void @halide_error(i8* %0, i8* getelementptr inbounds ([35 x i8], [35 x i8]* @"??_C@_0CD@IKIJNBLF@Printer?5buffer?5allocation?5failed@", i32 0, i32 0)) #7
  br label %70

63:                                               ; preds = %57
  %64 = ptrtoint i8* %61 to i32
  %65 = ptrtoint i8* %53 to i32
  %66 = sub i32 1, %65
  %67 = add i32 %66, %64
  %68 = sext i32 %67 to i64
  %69 = tail call i32 @halide_msan_annotate_memory_is_initialized(i8* %0, i8* nonnull %53, i64 %68) #7
  tail call void @halide_error(i8* %0, i8* nonnull %53) #7
  br label %70

70:                                               ; preds = %63, %62
  tail call void @free(i8* %53) #7
  br label %71

71:                                               ; preds = %49, %70
  store i8* %50, i8** bitcast (i32 (%struct._cl_platform_id*, i64, i32, %struct._cl_device_id**, i32*)** @"?clGetDeviceIDs@OpenCL@Internal@Runtime@Halide@@3P6GHPAU_cl_platform_id@@_KIPAPAU_cl_device_id@@PAI@ZA" to i8**), align 4, !tbaa !38
  %72 = tail call i8* @halide_opencl_get_symbol(i8* %0, i8* getelementptr inbounds ([16 x i8], [16 x i8]* @"??_C@_0BA@MLOCPJNK@clGetDeviceInfo?$AA@", i32 0, i32 0)) #7
  %73 = icmp eq i8* %72, null
  br i1 %73, label %74, label %93

74:                                               ; preds = %71
  %75 = tail call i8* @malloc(i32 1024) #7
  %76 = icmp eq i8* %75, null
  br i1 %76, label %79, label %77

77:                                               ; preds = %74
  %78 = getelementptr inbounds i8, i8* %75, i32 1023
  store i8 0, i8* %78, align 1, !tbaa !37
  br label %79

79:                                               ; preds = %77, %74
  %80 = phi i8* [ %78, %77 ], [ null, %74 ]
  %81 = tail call i8* @halide_string_to_string(i8* %75, i8* %80, i8* nonnull getelementptr inbounds ([23 x i8], [23 x i8]* @"??_C@_0BH@JIGFLJEL@OpenCL?5API?5not?5found?3?5?$AA@", i32 0, i32 0)) #7
  %82 = tail call i8* @halide_string_to_string(i8* %81, i8* %80, i8* nonnull getelementptr inbounds ([16 x i8], [16 x i8]* @"??_C@_0BA@MLOCPJNK@clGetDeviceInfo?$AA@", i32 0, i32 0)) #7
  %83 = tail call i8* @halide_string_to_string(i8* %82, i8* %80, i8* nonnull getelementptr inbounds ([2 x i8], [2 x i8]* @"??_C@_01EEMJAFIK@?6?$AA@", i32 0, i32 0)) #7
  br i1 %76, label %84, label %85

84:                                               ; preds = %79
  tail call void @halide_error(i8* %0, i8* getelementptr inbounds ([35 x i8], [35 x i8]* @"??_C@_0CD@IKIJNBLF@Printer?5buffer?5allocation?5failed@", i32 0, i32 0)) #7
  br label %92

85:                                               ; preds = %79
  %86 = ptrtoint i8* %83 to i32
  %87 = ptrtoint i8* %75 to i32
  %88 = sub i32 1, %87
  %89 = add i32 %88, %86
  %90 = sext i32 %89 to i64
  %91 = tail call i32 @halide_msan_annotate_memory_is_initialized(i8* %0, i8* nonnull %75, i64 %90) #7
  tail call void @halide_error(i8* %0, i8* nonnull %75) #7
  br label %92

92:                                               ; preds = %85, %84
  tail call void @free(i8* %75) #7
  br label %93

93:                                               ; preds = %71, %92
  store i8* %72, i8** bitcast (i32 (%struct._cl_device_id*, i32, i32, i8*, i32*)** @"?clGetDeviceInfo@OpenCL@Internal@Runtime@Halide@@3P6GHPAU_cl_device_id@@IIPAXPAI@ZA" to i8**), align 4, !tbaa !38
  %94 = tail call i8* @halide_opencl_get_symbol(i8* %0, i8* getelementptr inbounds ([19 x i8], [19 x i8]* @"??_C@_0BD@DHOGNIBF@clCreateSubDevices?$AA@", i32 0, i32 0)) #7
  store i8* %94, i8** bitcast (i32 (%struct._cl_device_id*, i32*, i32, %struct._cl_device_id**, i32*)** @"?clCreateSubDevices@OpenCL@Internal@Runtime@Halide@@3P6GHPAU_cl_device_id@@PBHIPAPAU5@PAI@ZA" to i8**), align 4, !tbaa !38
  %95 = tail call i8* @halide_opencl_get_symbol(i8* %0, i8* getelementptr inbounds ([15 x i8], [15 x i8]* @"??_C@_0P@MLMFBHBD@clRetainDevice?$AA@", i32 0, i32 0)) #7
  store i8* %95, i8** bitcast (i32 (%struct._cl_device_id*)** @"?clRetainDevice@OpenCL@Internal@Runtime@Halide@@3P6GHPAU_cl_device_id@@@ZA" to i8**), align 4, !tbaa !38
  %96 = tail call i8* @halide_opencl_get_symbol(i8* %0, i8* getelementptr inbounds ([16 x i8], [16 x i8]* @"??_C@_0BA@DILOKKCJ@clReleaseDevice?$AA@", i32 0, i32 0)) #7
  store i8* %96, i8** bitcast (i32 (%struct._cl_device_id*)** @"?clReleaseDevice@OpenCL@Internal@Runtime@Halide@@3P6GHPAU_cl_device_id@@@ZA" to i8**), align 4, !tbaa !38
  %97 = tail call i8* @halide_opencl_get_symbol(i8* %0, i8* getelementptr inbounds ([16 x i8], [16 x i8]* @"??_C@_0BA@NCICJKNI@clCreateContext?$AA@", i32 0, i32 0)) #7
  %98 = icmp eq i8* %97, null
  br i1 %98, label %99, label %118

99:                                               ; preds = %93
  %100 = tail call i8* @malloc(i32 1024) #7
  %101 = icmp eq i8* %100, null
  br i1 %101, label %104, label %102

102:                                              ; preds = %99
  %103 = getelementptr inbounds i8, i8* %100, i32 1023
  store i8 0, i8* %103, align 1, !tbaa !37
  br label %104

104:                                              ; preds = %102, %99
  %105 = phi i8* [ %103, %102 ], [ null, %99 ]
  %106 = tail call i8* @halide_string_to_string(i8* %100, i8* %105, i8* nonnull getelementptr inbounds ([23 x i8], [23 x i8]* @"??_C@_0BH@JIGFLJEL@OpenCL?5API?5not?5found?3?5?$AA@", i32 0, i32 0)) #7
  %107 = tail call i8* @halide_string_to_string(i8* %106, i8* %105, i8* nonnull getelementptr inbounds ([16 x i8], [16 x i8]* @"??_C@_0BA@NCICJKNI@clCreateContext?$AA@", i32 0, i32 0)) #7
  %108 = tail call i8* @halide_string_to_string(i8* %107, i8* %105, i8* nonnull getelementptr inbounds ([2 x i8], [2 x i8]* @"??_C@_01EEMJAFIK@?6?$AA@", i32 0, i32 0)) #7
  br i1 %101, label %109, label %110

109:                                              ; preds = %104
  tail call void @halide_error(i8* %0, i8* getelementptr inbounds ([35 x i8], [35 x i8]* @"??_C@_0CD@IKIJNBLF@Printer?5buffer?5allocation?5failed@", i32 0, i32 0)) #7
  br label %117

110:                                              ; preds = %104
  %111 = ptrtoint i8* %108 to i32
  %112 = ptrtoint i8* %100 to i32
  %113 = sub i32 1, %112
  %114 = add i32 %113, %111
  %115 = sext i32 %114 to i64
  %116 = tail call i32 @halide_msan_annotate_memory_is_initialized(i8* %0, i8* nonnull %100, i64 %115) #7
  tail call void @halide_error(i8* %0, i8* nonnull %100) #7
  br label %117

117:                                              ; preds = %110, %109
  tail call void @free(i8* %100) #7
  br label %118

118:                                              ; preds = %93, %117
  store i8* %97, i8** bitcast (%struct._cl_context* (i32*, i32, %struct._cl_device_id**, void (i8*, i8*, i32, i8*)*, i8*, i32*)** @"?clCreateContext@OpenCL@Internal@Runtime@Halide@@3P6GPAU_cl_context@@PBHIPBQAU_cl_device_id@@P6GXPBDPBXIPAX@Z4PAH@ZA" to i8**), align 4, !tbaa !38
  %119 = tail call i8* @halide_opencl_get_symbol(i8* %0, i8* getelementptr inbounds ([24 x i8], [24 x i8]* @"??_C@_0BI@CDLLGAHG@clCreateContextFromType?$AA@", i32 0, i32 0)) #7
  %120 = icmp eq i8* %119, null
  br i1 %120, label %121, label %140

121:                                              ; preds = %118
  %122 = tail call i8* @malloc(i32 1024) #7
  %123 = icmp eq i8* %122, null
  br i1 %123, label %126, label %124

124:                                              ; preds = %121
  %125 = getelementptr inbounds i8, i8* %122, i32 1023
  store i8 0, i8* %125, align 1, !tbaa !37
  br label %126

126:                                              ; preds = %124, %121
  %127 = phi i8* [ %125, %124 ], [ null, %121 ]
  %128 = tail call i8* @halide_string_to_string(i8* %122, i8* %127, i8* nonnull getelementptr inbounds ([23 x i8], [23 x i8]* @"??_C@_0BH@JIGFLJEL@OpenCL?5API?5not?5found?3?5?$AA@", i32 0, i32 0)) #7
  %129 = tail call i8* @halide_string_to_string(i8* %128, i8* %127, i8* nonnull getelementptr inbounds ([24 x i8], [24 x i8]* @"??_C@_0BI@CDLLGAHG@clCreateContextFromType?$AA@", i32 0, i32 0)) #7
  %130 = tail call i8* @halide_string_to_string(i8* %129, i8* %127, i8* nonnull getelementptr inbounds ([2 x i8], [2 x i8]* @"??_C@_01EEMJAFIK@?6?$AA@", i32 0, i32 0)) #7
  br i1 %123, label %131, label %132

131:                                              ; preds = %126
  tail call void @halide_error(i8* %0, i8* getelementptr inbounds ([35 x i8], [35 x i8]* @"??_C@_0CD@IKIJNBLF@Printer?5buffer?5allocation?5failed@", i32 0, i32 0)) #7
  br label %139

132:                                              ; preds = %126
  %133 = ptrtoint i8* %130 to i32
  %134 = ptrtoint i8* %122 to i32
  %135 = sub i32 1, %134
  %136 = add i32 %135, %133
  %137 = sext i32 %136 to i64
  %138 = tail call i32 @halide_msan_annotate_memory_is_initialized(i8* %0, i8* nonnull %122, i64 %137) #7
  tail call void @halide_error(i8* %0, i8* nonnull %122) #7
  br label %139

139:                                              ; preds = %132, %131
  tail call void @free(i8* %122) #7
  br label %140

140:                                              ; preds = %118, %139
  store i8* %119, i8** bitcast (%struct._cl_context* (i32*, i64, void (i8*, i8*, i32, i8*)*, i8*, i32*)** @"?clCreateContextFromType@OpenCL@Internal@Runtime@Halide@@3P6GPAU_cl_context@@PBH_KP6GXPBDPBXIPAX@Z4PAH@ZA" to i8**), align 4, !tbaa !38
  %141 = tail call i8* @halide_opencl_get_symbol(i8* %0, i8* getelementptr inbounds ([16 x i8], [16 x i8]* @"??_C@_0BA@CHPDNCFG@clRetainContext?$AA@", i32 0, i32 0)) #7
  %142 = icmp eq i8* %141, null
  br i1 %142, label %143, label %162

143:                                              ; preds = %140
  %144 = tail call i8* @malloc(i32 1024) #7
  %145 = icmp eq i8* %144, null
  br i1 %145, label %148, label %146

146:                                              ; preds = %143
  %147 = getelementptr inbounds i8, i8* %144, i32 1023
  store i8 0, i8* %147, align 1, !tbaa !37
  br label %148

148:                                              ; preds = %146, %143
  %149 = phi i8* [ %147, %146 ], [ null, %143 ]
  %150 = tail call i8* @halide_string_to_string(i8* %144, i8* %149, i8* nonnull getelementptr inbounds ([23 x i8], [23 x i8]* @"??_C@_0BH@JIGFLJEL@OpenCL?5API?5not?5found?3?5?$AA@", i32 0, i32 0)) #7
  %151 = tail call i8* @halide_string_to_string(i8* %150, i8* %149, i8* nonnull getelementptr inbounds ([16 x i8], [16 x i8]* @"??_C@_0BA@CHPDNCFG@clRetainContext?$AA@", i32 0, i32 0)) #7
  %152 = tail call i8* @halide_string_to_string(i8* %151, i8* %149, i8* nonnull getelementptr inbounds ([2 x i8], [2 x i8]* @"??_C@_01EEMJAFIK@?6?$AA@", i32 0, i32 0)) #7
  br i1 %145, label %153, label %154

153:                                              ; preds = %148
  tail call void @halide_error(i8* %0, i8* getelementptr inbounds ([35 x i8], [35 x i8]* @"??_C@_0CD@IKIJNBLF@Printer?5buffer?5allocation?5failed@", i32 0, i32 0)) #7
  br label %161

154:                                              ; preds = %148
  %155 = ptrtoint i8* %152 to i32
  %156 = ptrtoint i8* %144 to i32
  %157 = sub i32 1, %156
  %158 = add i32 %157, %155
  %159 = sext i32 %158 to i64
  %160 = tail call i32 @halide_msan_annotate_memory_is_initialized(i8* %0, i8* nonnull %144, i64 %159) #7
  tail call void @halide_error(i8* %0, i8* nonnull %144) #7
  br label %161

161:                                              ; preds = %154, %153
  tail call void @free(i8* %144) #7
  br label %162

162:                                              ; preds = %140, %161
  store i8* %141, i8** bitcast (i32 (%struct._cl_context*)** @"?clRetainContext@OpenCL@Internal@Runtime@Halide@@3P6GHPAU_cl_context@@@ZA" to i8**), align 4, !tbaa !38
  %163 = tail call i8* @halide_opencl_get_symbol(i8* %0, i8* getelementptr inbounds ([17 x i8], [17 x i8]* @"??_C@_0BB@OBAMHAFJ@clReleaseContext?$AA@", i32 0, i32 0)) #7
  %164 = icmp eq i8* %163, null
  br i1 %164, label %165, label %184

165:                                              ; preds = %162
  %166 = tail call i8* @malloc(i32 1024) #7
  %167 = icmp eq i8* %166, null
  br i1 %167, label %170, label %168

168:                                              ; preds = %165
  %169 = getelementptr inbounds i8, i8* %166, i32 1023
  store i8 0, i8* %169, align 1, !tbaa !37
  br label %170

170:                                              ; preds = %168, %165
  %171 = phi i8* [ %169, %168 ], [ null, %165 ]
  %172 = tail call i8* @halide_string_to_string(i8* %166, i8* %171, i8* nonnull getelementptr inbounds ([23 x i8], [23 x i8]* @"??_C@_0BH@JIGFLJEL@OpenCL?5API?5not?5found?3?5?$AA@", i32 0, i32 0)) #7
  %173 = tail call i8* @halide_string_to_string(i8* %172, i8* %171, i8* nonnull getelementptr inbounds ([17 x i8], [17 x i8]* @"??_C@_0BB@OBAMHAFJ@clReleaseContext?$AA@", i32 0, i32 0)) #7
  %174 = tail call i8* @halide_string_to_string(i8* %173, i8* %171, i8* nonnull getelementptr inbounds ([2 x i8], [2 x i8]* @"??_C@_01EEMJAFIK@?6?$AA@", i32 0, i32 0)) #7
  br i1 %167, label %175, label %176

175:                                              ; preds = %170
  tail call void @halide_error(i8* %0, i8* getelementptr inbounds ([35 x i8], [35 x i8]* @"??_C@_0CD@IKIJNBLF@Printer?5buffer?5allocation?5failed@", i32 0, i32 0)) #7
  br label %183

176:                                              ; preds = %170
  %177 = ptrtoint i8* %174 to i32
  %178 = ptrtoint i8* %166 to i32
  %179 = sub i32 1, %178
  %180 = add i32 %179, %177
  %181 = sext i32 %180 to i64
  %182 = tail call i32 @halide_msan_annotate_memory_is_initialized(i8* %0, i8* nonnull %166, i64 %181) #7
  tail call void @halide_error(i8* %0, i8* nonnull %166) #7
  br label %183

183:                                              ; preds = %176, %175
  tail call void @free(i8* %166) #7
  br label %184

184:                                              ; preds = %162, %183
  store i8* %163, i8** bitcast (i32 (%struct._cl_context*)** @"?clReleaseContext@OpenCL@Internal@Runtime@Halide@@3P6GHPAU_cl_context@@@ZA" to i8**), align 4, !tbaa !38
  %185 = tail call i8* @halide_opencl_get_symbol(i8* %0, i8* getelementptr inbounds ([17 x i8], [17 x i8]* @"??_C@_0BB@LKGPHLOE@clGetContextInfo?$AA@", i32 0, i32 0)) #7
  %186 = icmp eq i8* %185, null
  br i1 %186, label %187, label %206

187:                                              ; preds = %184
  %188 = tail call i8* @malloc(i32 1024) #7
  %189 = icmp eq i8* %188, null
  br i1 %189, label %192, label %190

190:                                              ; preds = %187
  %191 = getelementptr inbounds i8, i8* %188, i32 1023
  store i8 0, i8* %191, align 1, !tbaa !37
  br label %192

192:                                              ; preds = %190, %187
  %193 = phi i8* [ %191, %190 ], [ null, %187 ]
  %194 = tail call i8* @halide_string_to_string(i8* %188, i8* %193, i8* nonnull getelementptr inbounds ([23 x i8], [23 x i8]* @"??_C@_0BH@JIGFLJEL@OpenCL?5API?5not?5found?3?5?$AA@", i32 0, i32 0)) #7
  %195 = tail call i8* @halide_string_to_string(i8* %194, i8* %193, i8* nonnull getelementptr inbounds ([17 x i8], [17 x i8]* @"??_C@_0BB@LKGPHLOE@clGetContextInfo?$AA@", i32 0, i32 0)) #7
  %196 = tail call i8* @halide_string_to_string(i8* %195, i8* %193, i8* nonnull getelementptr inbounds ([2 x i8], [2 x i8]* @"??_C@_01EEMJAFIK@?6?$AA@", i32 0, i32 0)) #7
  br i1 %189, label %197, label %198

197:                                              ; preds = %192
  tail call void @halide_error(i8* %0, i8* getelementptr inbounds ([35 x i8], [35 x i8]* @"??_C@_0CD@IKIJNBLF@Printer?5buffer?5allocation?5failed@", i32 0, i32 0)) #7
  br label %205

198:                                              ; preds = %192
  %199 = ptrtoint i8* %196 to i32
  %200 = ptrtoint i8* %188 to i32
  %201 = sub i32 1, %200
  %202 = add i32 %201, %199
  %203 = sext i32 %202 to i64
  %204 = tail call i32 @halide_msan_annotate_memory_is_initialized(i8* %0, i8* nonnull %188, i64 %203) #7
  tail call void @halide_error(i8* %0, i8* nonnull %188) #7
  br label %205

205:                                              ; preds = %198, %197
  tail call void @free(i8* %188) #7
  br label %206

206:                                              ; preds = %184, %205
  store i8* %185, i8** bitcast (i32 (%struct._cl_context*, i32, i32, i8*, i32*)** @"?clGetContextInfo@OpenCL@Internal@Runtime@Halide@@3P6GHPAU_cl_context@@IIPAXPAI@ZA" to i8**), align 4, !tbaa !38
  %207 = tail call i8* @halide_opencl_get_symbol(i8* %0, i8* getelementptr inbounds ([21 x i8], [21 x i8]* @"??_C@_0BF@EINAOCOD@clCreateCommandQueue?$AA@", i32 0, i32 0)) #7
  %208 = icmp eq i8* %207, null
  br i1 %208, label %209, label %228

209:                                              ; preds = %206
  %210 = tail call i8* @malloc(i32 1024) #7
  %211 = icmp eq i8* %210, null
  br i1 %211, label %214, label %212

212:                                              ; preds = %209
  %213 = getelementptr inbounds i8, i8* %210, i32 1023
  store i8 0, i8* %213, align 1, !tbaa !37
  br label %214

214:                                              ; preds = %212, %209
  %215 = phi i8* [ %213, %212 ], [ null, %209 ]
  %216 = tail call i8* @halide_string_to_string(i8* %210, i8* %215, i8* nonnull getelementptr inbounds ([23 x i8], [23 x i8]* @"??_C@_0BH@JIGFLJEL@OpenCL?5API?5not?5found?3?5?$AA@", i32 0, i32 0)) #7
  %217 = tail call i8* @halide_string_to_string(i8* %216, i8* %215, i8* nonnull getelementptr inbounds ([21 x i8], [21 x i8]* @"??_C@_0BF@EINAOCOD@clCreateCommandQueue?$AA@", i32 0, i32 0)) #7
  %218 = tail call i8* @halide_string_to_string(i8* %217, i8* %215, i8* nonnull getelementptr inbounds ([2 x i8], [2 x i8]* @"??_C@_01EEMJAFIK@?6?$AA@", i32 0, i32 0)) #7
  br i1 %211, label %219, label %220

219:                                              ; preds = %214
  tail call void @halide_error(i8* %0, i8* getelementptr inbounds ([35 x i8], [35 x i8]* @"??_C@_0CD@IKIJNBLF@Printer?5buffer?5allocation?5failed@", i32 0, i32 0)) #7
  br label %227

220:                                              ; preds = %214
  %221 = ptrtoint i8* %218 to i32
  %222 = ptrtoint i8* %210 to i32
  %223 = sub i32 1, %222
  %224 = add i32 %223, %221
  %225 = sext i32 %224 to i64
  %226 = tail call i32 @halide_msan_annotate_memory_is_initialized(i8* %0, i8* nonnull %210, i64 %225) #7
  tail call void @halide_error(i8* %0, i8* nonnull %210) #7
  br label %227

227:                                              ; preds = %220, %219
  tail call void @free(i8* %210) #7
  br label %228

228:                                              ; preds = %206, %227
  store i8* %207, i8** bitcast (%struct._cl_command_queue* (%struct._cl_context*, %struct._cl_device_id*, i64, i32*)** @"?clCreateCommandQueue@OpenCL@Internal@Runtime@Halide@@3P6GPAU_cl_command_queue@@PAU_cl_context@@PAU_cl_device_id@@_KPAH@ZA" to i8**), align 4, !tbaa !38
  %229 = tail call i8* @halide_opencl_get_symbol(i8* %0, i8* getelementptr inbounds ([21 x i8], [21 x i8]* @"??_C@_0BF@CEFOILFN@clRetainCommandQueue?$AA@", i32 0, i32 0)) #7
  %230 = icmp eq i8* %229, null
  br i1 %230, label %231, label %250

231:                                              ; preds = %228
  %232 = tail call i8* @malloc(i32 1024) #7
  %233 = icmp eq i8* %232, null
  br i1 %233, label %236, label %234

234:                                              ; preds = %231
  %235 = getelementptr inbounds i8, i8* %232, i32 1023
  store i8 0, i8* %235, align 1, !tbaa !37
  br label %236

236:                                              ; preds = %234, %231
  %237 = phi i8* [ %235, %234 ], [ null, %231 ]
  %238 = tail call i8* @halide_string_to_string(i8* %232, i8* %237, i8* nonnull getelementptr inbounds ([23 x i8], [23 x i8]* @"??_C@_0BH@JIGFLJEL@OpenCL?5API?5not?5found?3?5?$AA@", i32 0, i32 0)) #7
  %239 = tail call i8* @halide_string_to_string(i8* %238, i8* %237, i8* nonnull getelementptr inbounds ([21 x i8], [21 x i8]* @"??_C@_0BF@CEFOILFN@clRetainCommandQueue?$AA@", i32 0, i32 0)) #7
  %240 = tail call i8* @halide_string_to_string(i8* %239, i8* %237, i8* nonnull getelementptr inbounds ([2 x i8], [2 x i8]* @"??_C@_01EEMJAFIK@?6?$AA@", i32 0, i32 0)) #7
  br i1 %233, label %241, label %242

241:                                              ; preds = %236
  tail call void @halide_error(i8* %0, i8* getelementptr inbounds ([35 x i8], [35 x i8]* @"??_C@_0CD@IKIJNBLF@Printer?5buffer?5allocation?5failed@", i32 0, i32 0)) #7
  br label %249

242:                                              ; preds = %236
  %243 = ptrtoint i8* %240 to i32
  %244 = ptrtoint i8* %232 to i32
  %245 = sub i32 1, %244
  %246 = add i32 %245, %243
  %247 = sext i32 %246 to i64
  %248 = tail call i32 @halide_msan_annotate_memory_is_initialized(i8* %0, i8* nonnull %232, i64 %247) #7
  tail call void @halide_error(i8* %0, i8* nonnull %232) #7
  br label %249

249:                                              ; preds = %242, %241
  tail call void @free(i8* %232) #7
  br label %250

250:                                              ; preds = %228, %249
  store i8* %229, i8** bitcast (i32 (%struct._cl_command_queue*)** @"?clRetainCommandQueue@OpenCL@Internal@Runtime@Halide@@3P6GHPAU_cl_command_queue@@@ZA" to i8**), align 4, !tbaa !38
  %251 = tail call i8* @halide_opencl_get_symbol(i8* %0, i8* getelementptr inbounds ([22 x i8], [22 x i8]* @"??_C@_0BG@GCFEIJCH@clReleaseCommandQueue?$AA@", i32 0, i32 0)) #7
  %252 = icmp eq i8* %251, null
  br i1 %252, label %253, label %272

253:                                              ; preds = %250
  %254 = tail call i8* @malloc(i32 1024) #7
  %255 = icmp eq i8* %254, null
  br i1 %255, label %258, label %256

256:                                              ; preds = %253
  %257 = getelementptr inbounds i8, i8* %254, i32 1023
  store i8 0, i8* %257, align 1, !tbaa !37
  br label %258

258:                                              ; preds = %256, %253
  %259 = phi i8* [ %257, %256 ], [ null, %253 ]
  %260 = tail call i8* @halide_string_to_string(i8* %254, i8* %259, i8* nonnull getelementptr inbounds ([23 x i8], [23 x i8]* @"??_C@_0BH@JIGFLJEL@OpenCL?5API?5not?5found?3?5?$AA@", i32 0, i32 0)) #7
  %261 = tail call i8* @halide_string_to_string(i8* %260, i8* %259, i8* nonnull getelementptr inbounds ([22 x i8], [22 x i8]* @"??_C@_0BG@GCFEIJCH@clReleaseCommandQueue?$AA@", i32 0, i32 0)) #7
  %262 = tail call i8* @halide_string_to_string(i8* %261, i8* %259, i8* nonnull getelementptr inbounds ([2 x i8], [2 x i8]* @"??_C@_01EEMJAFIK@?6?$AA@", i32 0, i32 0)) #7
  br i1 %255, label %263, label %264

263:                                              ; preds = %258
  tail call void @halide_error(i8* %0, i8* getelementptr inbounds ([35 x i8], [35 x i8]* @"??_C@_0CD@IKIJNBLF@Printer?5buffer?5allocation?5failed@", i32 0, i32 0)) #7
  br label %271

264:                                              ; preds = %258
  %265 = ptrtoint i8* %262 to i32
  %266 = ptrtoint i8* %254 to i32
  %267 = sub i32 1, %266
  %268 = add i32 %267, %265
  %269 = sext i32 %268 to i64
  %270 = tail call i32 @halide_msan_annotate_memory_is_initialized(i8* %0, i8* nonnull %254, i64 %269) #7
  tail call void @halide_error(i8* %0, i8* nonnull %254) #7
  br label %271

271:                                              ; preds = %264, %263
  tail call void @free(i8* %254) #7
  br label %272

272:                                              ; preds = %250, %271
  store i8* %251, i8** bitcast (i32 (%struct._cl_command_queue*)** @"?clReleaseCommandQueue@OpenCL@Internal@Runtime@Halide@@3P6GHPAU_cl_command_queue@@@ZA" to i8**), align 4, !tbaa !38
  %273 = tail call i8* @halide_opencl_get_symbol(i8* %0, i8* getelementptr inbounds ([22 x i8], [22 x i8]* @"??_C@_0BG@EHOJPOHB@clGetCommandQueueInfo?$AA@", i32 0, i32 0)) #7
  %274 = icmp eq i8* %273, null
  br i1 %274, label %275, label %294

275:                                              ; preds = %272
  %276 = tail call i8* @malloc(i32 1024) #7
  %277 = icmp eq i8* %276, null
  br i1 %277, label %280, label %278

278:                                              ; preds = %275
  %279 = getelementptr inbounds i8, i8* %276, i32 1023
  store i8 0, i8* %279, align 1, !tbaa !37
  br label %280

280:                                              ; preds = %278, %275
  %281 = phi i8* [ %279, %278 ], [ null, %275 ]
  %282 = tail call i8* @halide_string_to_string(i8* %276, i8* %281, i8* nonnull getelementptr inbounds ([23 x i8], [23 x i8]* @"??_C@_0BH@JIGFLJEL@OpenCL?5API?5not?5found?3?5?$AA@", i32 0, i32 0)) #7
  %283 = tail call i8* @halide_string_to_string(i8* %282, i8* %281, i8* nonnull getelementptr inbounds ([22 x i8], [22 x i8]* @"??_C@_0BG@EHOJPOHB@clGetCommandQueueInfo?$AA@", i32 0, i32 0)) #7
  %284 = tail call i8* @halide_string_to_string(i8* %283, i8* %281, i8* nonnull getelementptr inbounds ([2 x i8], [2 x i8]* @"??_C@_01EEMJAFIK@?6?$AA@", i32 0, i32 0)) #7
  br i1 %277, label %285, label %286

285:                                              ; preds = %280
  tail call void @halide_error(i8* %0, i8* getelementptr inbounds ([35 x i8], [35 x i8]* @"??_C@_0CD@IKIJNBLF@Printer?5buffer?5allocation?5failed@", i32 0, i32 0)) #7
  br label %293

286:                                              ; preds = %280
  %287 = ptrtoint i8* %284 to i32
  %288 = ptrtoint i8* %276 to i32
  %289 = sub i32 1, %288
  %290 = add i32 %289, %287
  %291 = sext i32 %290 to i64
  %292 = tail call i32 @halide_msan_annotate_memory_is_initialized(i8* %0, i8* nonnull %276, i64 %291) #7
  tail call void @halide_error(i8* %0, i8* nonnull %276) #7
  br label %293

293:                                              ; preds = %286, %285
  tail call void @free(i8* %276) #7
  br label %294

294:                                              ; preds = %272, %293
  store i8* %273, i8** bitcast (i32 (%struct._cl_command_queue*, i32, i32, i8*, i32*)** @"?clGetCommandQueueInfo@OpenCL@Internal@Runtime@Halide@@3P6GHPAU_cl_command_queue@@IIPAXPAI@ZA" to i8**), align 4, !tbaa !38
  %295 = tail call i8* @halide_opencl_get_symbol(i8* %0, i8* getelementptr inbounds ([15 x i8], [15 x i8]* @"??_C@_0P@OMMCIGBF@clCreateBuffer?$AA@", i32 0, i32 0)) #7
  %296 = icmp eq i8* %295, null
  br i1 %296, label %297, label %316

297:                                              ; preds = %294
  %298 = tail call i8* @malloc(i32 1024) #7
  %299 = icmp eq i8* %298, null
  br i1 %299, label %302, label %300

300:                                              ; preds = %297
  %301 = getelementptr inbounds i8, i8* %298, i32 1023
  store i8 0, i8* %301, align 1, !tbaa !37
  br label %302

302:                                              ; preds = %300, %297
  %303 = phi i8* [ %301, %300 ], [ null, %297 ]
  %304 = tail call i8* @halide_string_to_string(i8* %298, i8* %303, i8* nonnull getelementptr inbounds ([23 x i8], [23 x i8]* @"??_C@_0BH@JIGFLJEL@OpenCL?5API?5not?5found?3?5?$AA@", i32 0, i32 0)) #7
  %305 = tail call i8* @halide_string_to_string(i8* %304, i8* %303, i8* nonnull getelementptr inbounds ([15 x i8], [15 x i8]* @"??_C@_0P@OMMCIGBF@clCreateBuffer?$AA@", i32 0, i32 0)) #7
  %306 = tail call i8* @halide_string_to_string(i8* %305, i8* %303, i8* nonnull getelementptr inbounds ([2 x i8], [2 x i8]* @"??_C@_01EEMJAFIK@?6?$AA@", i32 0, i32 0)) #7
  br i1 %299, label %307, label %308

307:                                              ; preds = %302
  tail call void @halide_error(i8* %0, i8* getelementptr inbounds ([35 x i8], [35 x i8]* @"??_C@_0CD@IKIJNBLF@Printer?5buffer?5allocation?5failed@", i32 0, i32 0)) #7
  br label %315

308:                                              ; preds = %302
  %309 = ptrtoint i8* %306 to i32
  %310 = ptrtoint i8* %298 to i32
  %311 = sub i32 1, %310
  %312 = add i32 %311, %309
  %313 = sext i32 %312 to i64
  %314 = tail call i32 @halide_msan_annotate_memory_is_initialized(i8* %0, i8* nonnull %298, i64 %313) #7
  tail call void @halide_error(i8* %0, i8* nonnull %298) #7
  br label %315

315:                                              ; preds = %308, %307
  tail call void @free(i8* %298) #7
  br label %316

316:                                              ; preds = %294, %315
  store i8* %295, i8** bitcast (%struct._cl_mem* (%struct._cl_context*, i64, i32, i8*, i32*)** @"?clCreateBuffer@OpenCL@Internal@Runtime@Halide@@3P6GPAU_cl_mem@@PAU_cl_context@@_KIPAXPAH@ZA" to i8**), align 4, !tbaa !38
  %317 = tail call i8* @halide_opencl_get_symbol(i8* %0, i8* getelementptr inbounds ([18 x i8], [18 x i8]* @"??_C@_0BC@KOGEINDM@clCreateSubBuffer?$AA@", i32 0, i32 0)) #7
  %318 = icmp eq i8* %317, null
  br i1 %318, label %319, label %338

319:                                              ; preds = %316
  %320 = tail call i8* @malloc(i32 1024) #7
  %321 = icmp eq i8* %320, null
  br i1 %321, label %324, label %322

322:                                              ; preds = %319
  %323 = getelementptr inbounds i8, i8* %320, i32 1023
  store i8 0, i8* %323, align 1, !tbaa !37
  br label %324

324:                                              ; preds = %322, %319
  %325 = phi i8* [ %323, %322 ], [ null, %319 ]
  %326 = tail call i8* @halide_string_to_string(i8* %320, i8* %325, i8* nonnull getelementptr inbounds ([23 x i8], [23 x i8]* @"??_C@_0BH@JIGFLJEL@OpenCL?5API?5not?5found?3?5?$AA@", i32 0, i32 0)) #7
  %327 = tail call i8* @halide_string_to_string(i8* %326, i8* %325, i8* nonnull getelementptr inbounds ([18 x i8], [18 x i8]* @"??_C@_0BC@KOGEINDM@clCreateSubBuffer?$AA@", i32 0, i32 0)) #7
  %328 = tail call i8* @halide_string_to_string(i8* %327, i8* %325, i8* nonnull getelementptr inbounds ([2 x i8], [2 x i8]* @"??_C@_01EEMJAFIK@?6?$AA@", i32 0, i32 0)) #7
  br i1 %321, label %329, label %330

329:                                              ; preds = %324
  tail call void @halide_error(i8* %0, i8* getelementptr inbounds ([35 x i8], [35 x i8]* @"??_C@_0CD@IKIJNBLF@Printer?5buffer?5allocation?5failed@", i32 0, i32 0)) #7
  br label %337

330:                                              ; preds = %324
  %331 = ptrtoint i8* %328 to i32
  %332 = ptrtoint i8* %320 to i32
  %333 = sub i32 1, %332
  %334 = add i32 %333, %331
  %335 = sext i32 %334 to i64
  %336 = tail call i32 @halide_msan_annotate_memory_is_initialized(i8* %0, i8* nonnull %320, i64 %335) #7
  tail call void @halide_error(i8* %0, i8* nonnull %320) #7
  br label %337

337:                                              ; preds = %330, %329
  tail call void @free(i8* %320) #7
  br label %338

338:                                              ; preds = %316, %337
  store i8* %317, i8** bitcast (%struct._cl_mem* (%struct._cl_mem*, i64, i32, i8*, i32*)** @"?clCreateSubBuffer@OpenCL@Internal@Runtime@Halide@@3P6GPAU_cl_mem@@PAU5@_KIPBXPAH@ZA" to i8**), align 4, !tbaa !38
  %339 = tail call i8* @halide_opencl_get_symbol(i8* %0, i8* getelementptr inbounds ([14 x i8], [14 x i8]* @"??_C@_0O@LJDNFNNP@clCreateImage?$AA@", i32 0, i32 0)) #7
  store i8* %339, i8** bitcast (%struct._cl_mem* (%struct._cl_context*, i64, %struct._cl_image_format*, %struct._cl_image_desc*, i8*, i32*)** @"?clCreateImage@OpenCL@Internal@Runtime@Halide@@3P6GPAU_cl_mem@@PAU_cl_context@@_KPBU_cl_image_format@@PBU_cl_image_desc@@PAXPAH@ZA" to i8**), align 4, !tbaa !38
  %340 = tail call i8* @halide_opencl_get_symbol(i8* %0, i8* getelementptr inbounds ([18 x i8], [18 x i8]* @"??_C@_0BC@MFHCCPJE@clRetainMemObject?$AA@", i32 0, i32 0)) #7
  %341 = icmp eq i8* %340, null
  br i1 %341, label %342, label %361

342:                                              ; preds = %338
  %343 = tail call i8* @malloc(i32 1024) #7
  %344 = icmp eq i8* %343, null
  br i1 %344, label %347, label %345

345:                                              ; preds = %342
  %346 = getelementptr inbounds i8, i8* %343, i32 1023
  store i8 0, i8* %346, align 1, !tbaa !37
  br label %347

347:                                              ; preds = %345, %342
  %348 = phi i8* [ %346, %345 ], [ null, %342 ]
  %349 = tail call i8* @halide_string_to_string(i8* %343, i8* %348, i8* nonnull getelementptr inbounds ([23 x i8], [23 x i8]* @"??_C@_0BH@JIGFLJEL@OpenCL?5API?5not?5found?3?5?$AA@", i32 0, i32 0)) #7
  %350 = tail call i8* @halide_string_to_string(i8* %349, i8* %348, i8* nonnull getelementptr inbounds ([18 x i8], [18 x i8]* @"??_C@_0BC@MFHCCPJE@clRetainMemObject?$AA@", i32 0, i32 0)) #7
  %351 = tail call i8* @halide_string_to_string(i8* %350, i8* %348, i8* nonnull getelementptr inbounds ([2 x i8], [2 x i8]* @"??_C@_01EEMJAFIK@?6?$AA@", i32 0, i32 0)) #7
  br i1 %344, label %352, label %353

352:                                              ; preds = %347
  tail call void @halide_error(i8* %0, i8* getelementptr inbounds ([35 x i8], [35 x i8]* @"??_C@_0CD@IKIJNBLF@Printer?5buffer?5allocation?5failed@", i32 0, i32 0)) #7
  br label %360

353:                                              ; preds = %347
  %354 = ptrtoint i8* %351 to i32
  %355 = ptrtoint i8* %343 to i32
  %356 = sub i32 1, %355
  %357 = add i32 %356, %354
  %358 = sext i32 %357 to i64
  %359 = tail call i32 @halide_msan_annotate_memory_is_initialized(i8* %0, i8* nonnull %343, i64 %358) #7
  tail call void @halide_error(i8* %0, i8* nonnull %343) #7
  br label %360

360:                                              ; preds = %353, %352
  tail call void @free(i8* %343) #7
  br label %361

361:                                              ; preds = %338, %360
  store i8* %340, i8** bitcast (i32 (%struct._cl_mem*)** @"?clRetainMemObject@OpenCL@Internal@Runtime@Halide@@3P6GHPAU_cl_mem@@@ZA" to i8**), align 4, !tbaa !38
  %362 = tail call i8* @halide_opencl_get_symbol(i8* %0, i8* getelementptr inbounds ([19 x i8], [19 x i8]* @"??_C@_0BD@HKDCDHGA@clReleaseMemObject?$AA@", i32 0, i32 0)) #7
  %363 = icmp eq i8* %362, null
  br i1 %363, label %364, label %383

364:                                              ; preds = %361
  %365 = tail call i8* @malloc(i32 1024) #7
  %366 = icmp eq i8* %365, null
  br i1 %366, label %369, label %367

367:                                              ; preds = %364
  %368 = getelementptr inbounds i8, i8* %365, i32 1023
  store i8 0, i8* %368, align 1, !tbaa !37
  br label %369

369:                                              ; preds = %367, %364
  %370 = phi i8* [ %368, %367 ], [ null, %364 ]
  %371 = tail call i8* @halide_string_to_string(i8* %365, i8* %370, i8* nonnull getelementptr inbounds ([23 x i8], [23 x i8]* @"??_C@_0BH@JIGFLJEL@OpenCL?5API?5not?5found?3?5?$AA@", i32 0, i32 0)) #7
  %372 = tail call i8* @halide_string_to_string(i8* %371, i8* %370, i8* nonnull getelementptr inbounds ([19 x i8], [19 x i8]* @"??_C@_0BD@HKDCDHGA@clReleaseMemObject?$AA@", i32 0, i32 0)) #7
  %373 = tail call i8* @halide_string_to_string(i8* %372, i8* %370, i8* nonnull getelementptr inbounds ([2 x i8], [2 x i8]* @"??_C@_01EEMJAFIK@?6?$AA@", i32 0, i32 0)) #7
  br i1 %366, label %374, label %375

374:                                              ; preds = %369
  tail call void @halide_error(i8* %0, i8* getelementptr inbounds ([35 x i8], [35 x i8]* @"??_C@_0CD@IKIJNBLF@Printer?5buffer?5allocation?5failed@", i32 0, i32 0)) #7
  br label %382

375:                                              ; preds = %369
  %376 = ptrtoint i8* %373 to i32
  %377 = ptrtoint i8* %365 to i32
  %378 = sub i32 1, %377
  %379 = add i32 %378, %376
  %380 = sext i32 %379 to i64
  %381 = tail call i32 @halide_msan_annotate_memory_is_initialized(i8* %0, i8* nonnull %365, i64 %380) #7
  tail call void @halide_error(i8* %0, i8* nonnull %365) #7
  br label %382

382:                                              ; preds = %375, %374
  tail call void @free(i8* %365) #7
  br label %383

383:                                              ; preds = %361, %382
  store i8* %362, i8** bitcast (i32 (%struct._cl_mem*)** @"?clReleaseMemObject@OpenCL@Internal@Runtime@Halide@@3P6GHPAU_cl_mem@@@ZA" to i8**), align 4, !tbaa !38
  %384 = tail call i8* @halide_opencl_get_symbol(i8* %0, i8* getelementptr inbounds ([27 x i8], [27 x i8]* @"??_C@_0BL@GAHILIAB@clGetSupportedImageFormats?$AA@", i32 0, i32 0)) #7
  %385 = icmp eq i8* %384, null
  br i1 %385, label %386, label %405

386:                                              ; preds = %383
  %387 = tail call i8* @malloc(i32 1024) #7
  %388 = icmp eq i8* %387, null
  br i1 %388, label %391, label %389

389:                                              ; preds = %386
  %390 = getelementptr inbounds i8, i8* %387, i32 1023
  store i8 0, i8* %390, align 1, !tbaa !37
  br label %391

391:                                              ; preds = %389, %386
  %392 = phi i8* [ %390, %389 ], [ null, %386 ]
  %393 = tail call i8* @halide_string_to_string(i8* %387, i8* %392, i8* nonnull getelementptr inbounds ([23 x i8], [23 x i8]* @"??_C@_0BH@JIGFLJEL@OpenCL?5API?5not?5found?3?5?$AA@", i32 0, i32 0)) #7
  %394 = tail call i8* @halide_string_to_string(i8* %393, i8* %392, i8* nonnull getelementptr inbounds ([27 x i8], [27 x i8]* @"??_C@_0BL@GAHILIAB@clGetSupportedImageFormats?$AA@", i32 0, i32 0)) #7
  %395 = tail call i8* @halide_string_to_string(i8* %394, i8* %392, i8* nonnull getelementptr inbounds ([2 x i8], [2 x i8]* @"??_C@_01EEMJAFIK@?6?$AA@", i32 0, i32 0)) #7
  br i1 %388, label %396, label %397

396:                                              ; preds = %391
  tail call void @halide_error(i8* %0, i8* getelementptr inbounds ([35 x i8], [35 x i8]* @"??_C@_0CD@IKIJNBLF@Printer?5buffer?5allocation?5failed@", i32 0, i32 0)) #7
  br label %404

397:                                              ; preds = %391
  %398 = ptrtoint i8* %395 to i32
  %399 = ptrtoint i8* %387 to i32
  %400 = sub i32 1, %399
  %401 = add i32 %400, %398
  %402 = sext i32 %401 to i64
  %403 = tail call i32 @halide_msan_annotate_memory_is_initialized(i8* %0, i8* nonnull %387, i64 %402) #7
  tail call void @halide_error(i8* %0, i8* nonnull %387) #7
  br label %404

404:                                              ; preds = %397, %396
  tail call void @free(i8* %387) #7
  br label %405

405:                                              ; preds = %383, %404
  store i8* %384, i8** bitcast (i32 (%struct._cl_context*, i64, i32, i32, %struct._cl_image_format*, i32*)** @"?clGetSupportedImageFormats@OpenCL@Internal@Runtime@Halide@@3P6GHPAU_cl_context@@_KIIPAU_cl_image_format@@PAI@ZA" to i8**), align 4, !tbaa !38
  %406 = tail call i8* @halide_opencl_get_symbol(i8* %0, i8* getelementptr inbounds ([19 x i8], [19 x i8]* @"??_C@_0BD@DMLNBBGD@clGetMemObjectInfo?$AA@", i32 0, i32 0)) #7
  %407 = icmp eq i8* %406, null
  br i1 %407, label %408, label %427

408:                                              ; preds = %405
  %409 = tail call i8* @malloc(i32 1024) #7
  %410 = icmp eq i8* %409, null
  br i1 %410, label %413, label %411

411:                                              ; preds = %408
  %412 = getelementptr inbounds i8, i8* %409, i32 1023
  store i8 0, i8* %412, align 1, !tbaa !37
  br label %413

413:                                              ; preds = %411, %408
  %414 = phi i8* [ %412, %411 ], [ null, %408 ]
  %415 = tail call i8* @halide_string_to_string(i8* %409, i8* %414, i8* nonnull getelementptr inbounds ([23 x i8], [23 x i8]* @"??_C@_0BH@JIGFLJEL@OpenCL?5API?5not?5found?3?5?$AA@", i32 0, i32 0)) #7
  %416 = tail call i8* @halide_string_to_string(i8* %415, i8* %414, i8* nonnull getelementptr inbounds ([19 x i8], [19 x i8]* @"??_C@_0BD@DMLNBBGD@clGetMemObjectInfo?$AA@", i32 0, i32 0)) #7
  %417 = tail call i8* @halide_string_to_string(i8* %416, i8* %414, i8* nonnull getelementptr inbounds ([2 x i8], [2 x i8]* @"??_C@_01EEMJAFIK@?6?$AA@", i32 0, i32 0)) #7
  br i1 %410, label %418, label %419

418:                                              ; preds = %413
  tail call void @halide_error(i8* %0, i8* getelementptr inbounds ([35 x i8], [35 x i8]* @"??_C@_0CD@IKIJNBLF@Printer?5buffer?5allocation?5failed@", i32 0, i32 0)) #7
  br label %426

419:                                              ; preds = %413
  %420 = ptrtoint i8* %417 to i32
  %421 = ptrtoint i8* %409 to i32
  %422 = sub i32 1, %421
  %423 = add i32 %422, %420
  %424 = sext i32 %423 to i64
  %425 = tail call i32 @halide_msan_annotate_memory_is_initialized(i8* %0, i8* nonnull %409, i64 %424) #7
  tail call void @halide_error(i8* %0, i8* nonnull %409) #7
  br label %426

426:                                              ; preds = %419, %418
  tail call void @free(i8* %409) #7
  br label %427

427:                                              ; preds = %405, %426
  store i8* %406, i8** bitcast (i32 (%struct._cl_mem*, i32, i32, i8*, i32*)** @"?clGetMemObjectInfo@OpenCL@Internal@Runtime@Halide@@3P6GHPAU_cl_mem@@IIPAXPAI@ZA" to i8**), align 4, !tbaa !38
  %428 = tail call i8* @halide_opencl_get_symbol(i8* %0, i8* getelementptr inbounds ([15 x i8], [15 x i8]* @"??_C@_0P@GHMBMNA@clGetImageInfo?$AA@", i32 0, i32 0)) #7
  %429 = icmp eq i8* %428, null
  br i1 %429, label %430, label %449

430:                                              ; preds = %427
  %431 = tail call i8* @malloc(i32 1024) #7
  %432 = icmp eq i8* %431, null
  br i1 %432, label %435, label %433

433:                                              ; preds = %430
  %434 = getelementptr inbounds i8, i8* %431, i32 1023
  store i8 0, i8* %434, align 1, !tbaa !37
  br label %435

435:                                              ; preds = %433, %430
  %436 = phi i8* [ %434, %433 ], [ null, %430 ]
  %437 = tail call i8* @halide_string_to_string(i8* %431, i8* %436, i8* nonnull getelementptr inbounds ([23 x i8], [23 x i8]* @"??_C@_0BH@JIGFLJEL@OpenCL?5API?5not?5found?3?5?$AA@", i32 0, i32 0)) #7
  %438 = tail call i8* @halide_string_to_string(i8* %437, i8* %436, i8* nonnull getelementptr inbounds ([15 x i8], [15 x i8]* @"??_C@_0P@GHMBMNA@clGetImageInfo?$AA@", i32 0, i32 0)) #7
  %439 = tail call i8* @halide_string_to_string(i8* %438, i8* %436, i8* nonnull getelementptr inbounds ([2 x i8], [2 x i8]* @"??_C@_01EEMJAFIK@?6?$AA@", i32 0, i32 0)) #7
  br i1 %432, label %440, label %441

440:                                              ; preds = %435
  tail call void @halide_error(i8* %0, i8* getelementptr inbounds ([35 x i8], [35 x i8]* @"??_C@_0CD@IKIJNBLF@Printer?5buffer?5allocation?5failed@", i32 0, i32 0)) #7
  br label %448

441:                                              ; preds = %435
  %442 = ptrtoint i8* %439 to i32
  %443 = ptrtoint i8* %431 to i32
  %444 = sub i32 1, %443
  %445 = add i32 %444, %442
  %446 = sext i32 %445 to i64
  %447 = tail call i32 @halide_msan_annotate_memory_is_initialized(i8* %0, i8* nonnull %431, i64 %446) #7
  tail call void @halide_error(i8* %0, i8* nonnull %431) #7
  br label %448

448:                                              ; preds = %441, %440
  tail call void @free(i8* %431) #7
  br label %449

449:                                              ; preds = %427, %448
  store i8* %428, i8** bitcast (i32 (%struct._cl_mem*, i32, i32, i8*, i32*)** @"?clGetImageInfo@OpenCL@Internal@Runtime@Halide@@3P6GHPAU_cl_mem@@IIPAXPAI@ZA" to i8**), align 4, !tbaa !38
  %450 = tail call i8* @halide_opencl_get_symbol(i8* %0, i8* getelementptr inbounds ([33 x i8], [33 x i8]* @"??_C@_0CB@BAHPHBPH@clSetMemObjectDestructorCallback@", i32 0, i32 0)) #7
  %451 = icmp eq i8* %450, null
  br i1 %451, label %452, label %471

452:                                              ; preds = %449
  %453 = tail call i8* @malloc(i32 1024) #7
  %454 = icmp eq i8* %453, null
  br i1 %454, label %457, label %455

455:                                              ; preds = %452
  %456 = getelementptr inbounds i8, i8* %453, i32 1023
  store i8 0, i8* %456, align 1, !tbaa !37
  br label %457

457:                                              ; preds = %455, %452
  %458 = phi i8* [ %456, %455 ], [ null, %452 ]
  %459 = tail call i8* @halide_string_to_string(i8* %453, i8* %458, i8* nonnull getelementptr inbounds ([23 x i8], [23 x i8]* @"??_C@_0BH@JIGFLJEL@OpenCL?5API?5not?5found?3?5?$AA@", i32 0, i32 0)) #7
  %460 = tail call i8* @halide_string_to_string(i8* %459, i8* %458, i8* nonnull getelementptr inbounds ([33 x i8], [33 x i8]* @"??_C@_0CB@BAHPHBPH@clSetMemObjectDestructorCallback@", i32 0, i32 0)) #7
  %461 = tail call i8* @halide_string_to_string(i8* %460, i8* %458, i8* nonnull getelementptr inbounds ([2 x i8], [2 x i8]* @"??_C@_01EEMJAFIK@?6?$AA@", i32 0, i32 0)) #7
  br i1 %454, label %462, label %463

462:                                              ; preds = %457
  tail call void @halide_error(i8* %0, i8* getelementptr inbounds ([35 x i8], [35 x i8]* @"??_C@_0CD@IKIJNBLF@Printer?5buffer?5allocation?5failed@", i32 0, i32 0)) #7
  br label %470

463:                                              ; preds = %457
  %464 = ptrtoint i8* %461 to i32
  %465 = ptrtoint i8* %453 to i32
  %466 = sub i32 1, %465
  %467 = add i32 %466, %464
  %468 = sext i32 %467 to i64
  %469 = tail call i32 @halide_msan_annotate_memory_is_initialized(i8* %0, i8* nonnull %453, i64 %468) #7
  tail call void @halide_error(i8* %0, i8* nonnull %453) #7
  br label %470

470:                                              ; preds = %463, %462
  tail call void @free(i8* %453) #7
  br label %471

471:                                              ; preds = %449, %470
  store i8* %450, i8** bitcast (i32 (%struct._cl_mem*, void (%struct._cl_mem*, i8*)*, i8*)** @"?clSetMemObjectDestructorCallback@OpenCL@Internal@Runtime@Halide@@3P6GHPAU_cl_mem@@P6GX0PAX@Z1@ZA" to i8**), align 4, !tbaa !38
  %472 = tail call i8* @halide_opencl_get_symbol(i8* %0, i8* getelementptr inbounds ([26 x i8], [26 x i8]* @"??_C@_0BK@DOGIMIML@clCreateProgramWithSource?$AA@", i32 0, i32 0)) #7
  %473 = icmp eq i8* %472, null
  br i1 %473, label %474, label %493

474:                                              ; preds = %471
  %475 = tail call i8* @malloc(i32 1024) #7
  %476 = icmp eq i8* %475, null
  br i1 %476, label %479, label %477

477:                                              ; preds = %474
  %478 = getelementptr inbounds i8, i8* %475, i32 1023
  store i8 0, i8* %478, align 1, !tbaa !37
  br label %479

479:                                              ; preds = %477, %474
  %480 = phi i8* [ %478, %477 ], [ null, %474 ]
  %481 = tail call i8* @halide_string_to_string(i8* %475, i8* %480, i8* nonnull getelementptr inbounds ([23 x i8], [23 x i8]* @"??_C@_0BH@JIGFLJEL@OpenCL?5API?5not?5found?3?5?$AA@", i32 0, i32 0)) #7
  %482 = tail call i8* @halide_string_to_string(i8* %481, i8* %480, i8* nonnull getelementptr inbounds ([26 x i8], [26 x i8]* @"??_C@_0BK@DOGIMIML@clCreateProgramWithSource?$AA@", i32 0, i32 0)) #7
  %483 = tail call i8* @halide_string_to_string(i8* %482, i8* %480, i8* nonnull getelementptr inbounds ([2 x i8], [2 x i8]* @"??_C@_01EEMJAFIK@?6?$AA@", i32 0, i32 0)) #7
  br i1 %476, label %484, label %485

484:                                              ; preds = %479
  tail call void @halide_error(i8* %0, i8* getelementptr inbounds ([35 x i8], [35 x i8]* @"??_C@_0CD@IKIJNBLF@Printer?5buffer?5allocation?5failed@", i32 0, i32 0)) #7
  br label %492

485:                                              ; preds = %479
  %486 = ptrtoint i8* %483 to i32
  %487 = ptrtoint i8* %475 to i32
  %488 = sub i32 1, %487
  %489 = add i32 %488, %486
  %490 = sext i32 %489 to i64
  %491 = tail call i32 @halide_msan_annotate_memory_is_initialized(i8* %0, i8* nonnull %475, i64 %490) #7
  tail call void @halide_error(i8* %0, i8* nonnull %475) #7
  br label %492

492:                                              ; preds = %485, %484
  tail call void @free(i8* %475) #7
  br label %493

493:                                              ; preds = %471, %492
  store i8* %472, i8** bitcast (%struct._cl_program* (%struct._cl_context*, i32, i8**, i32*, i32*)** @"?clCreateProgramWithSource@OpenCL@Internal@Runtime@Halide@@3P6GPAU_cl_program@@PAU_cl_context@@IPAPBDPBIPAH@ZA" to i8**), align 4, !tbaa !38
  %494 = tail call i8* @halide_opencl_get_symbol(i8* %0, i8* getelementptr inbounds ([16 x i8], [16 x i8]* @"??_C@_0BA@HKOLHJKG@clRetainProgram?$AA@", i32 0, i32 0)) #7
  %495 = icmp eq i8* %494, null
  br i1 %495, label %496, label %515

496:                                              ; preds = %493
  %497 = tail call i8* @malloc(i32 1024) #7
  %498 = icmp eq i8* %497, null
  br i1 %498, label %501, label %499

499:                                              ; preds = %496
  %500 = getelementptr inbounds i8, i8* %497, i32 1023
  store i8 0, i8* %500, align 1, !tbaa !37
  br label %501

501:                                              ; preds = %499, %496
  %502 = phi i8* [ %500, %499 ], [ null, %496 ]
  %503 = tail call i8* @halide_string_to_string(i8* %497, i8* %502, i8* nonnull getelementptr inbounds ([23 x i8], [23 x i8]* @"??_C@_0BH@JIGFLJEL@OpenCL?5API?5not?5found?3?5?$AA@", i32 0, i32 0)) #7
  %504 = tail call i8* @halide_string_to_string(i8* %503, i8* %502, i8* nonnull getelementptr inbounds ([16 x i8], [16 x i8]* @"??_C@_0BA@HKOLHJKG@clRetainProgram?$AA@", i32 0, i32 0)) #7
  %505 = tail call i8* @halide_string_to_string(i8* %504, i8* %502, i8* nonnull getelementptr inbounds ([2 x i8], [2 x i8]* @"??_C@_01EEMJAFIK@?6?$AA@", i32 0, i32 0)) #7
  br i1 %498, label %506, label %507

506:                                              ; preds = %501
  tail call void @halide_error(i8* %0, i8* getelementptr inbounds ([35 x i8], [35 x i8]* @"??_C@_0CD@IKIJNBLF@Printer?5buffer?5allocation?5failed@", i32 0, i32 0)) #7
  br label %514

507:                                              ; preds = %501
  %508 = ptrtoint i8* %505 to i32
  %509 = ptrtoint i8* %497 to i32
  %510 = sub i32 1, %509
  %511 = add i32 %510, %508
  %512 = sext i32 %511 to i64
  %513 = tail call i32 @halide_msan_annotate_memory_is_initialized(i8* %0, i8* nonnull %497, i64 %512) #7
  tail call void @halide_error(i8* %0, i8* nonnull %497) #7
  br label %514

514:                                              ; preds = %507, %506
  tail call void @free(i8* %497) #7
  br label %515

515:                                              ; preds = %493, %514
  store i8* %494, i8** bitcast (i32 (%struct._cl_program*)** @"?clRetainProgram@OpenCL@Internal@Runtime@Halide@@3P6GHPAU_cl_program@@@ZA" to i8**), align 4, !tbaa !38
  %516 = tail call i8* @halide_opencl_get_symbol(i8* %0, i8* getelementptr inbounds ([17 x i8], [17 x i8]* @"??_C@_0BB@LMBENLKJ@clReleaseProgram?$AA@", i32 0, i32 0)) #7
  %517 = icmp eq i8* %516, null
  br i1 %517, label %518, label %537

518:                                              ; preds = %515
  %519 = tail call i8* @malloc(i32 1024) #7
  %520 = icmp eq i8* %519, null
  br i1 %520, label %523, label %521

521:                                              ; preds = %518
  %522 = getelementptr inbounds i8, i8* %519, i32 1023
  store i8 0, i8* %522, align 1, !tbaa !37
  br label %523

523:                                              ; preds = %521, %518
  %524 = phi i8* [ %522, %521 ], [ null, %518 ]
  %525 = tail call i8* @halide_string_to_string(i8* %519, i8* %524, i8* nonnull getelementptr inbounds ([23 x i8], [23 x i8]* @"??_C@_0BH@JIGFLJEL@OpenCL?5API?5not?5found?3?5?$AA@", i32 0, i32 0)) #7
  %526 = tail call i8* @halide_string_to_string(i8* %525, i8* %524, i8* nonnull getelementptr inbounds ([17 x i8], [17 x i8]* @"??_C@_0BB@LMBENLKJ@clReleaseProgram?$AA@", i32 0, i32 0)) #7
  %527 = tail call i8* @halide_string_to_string(i8* %526, i8* %524, i8* nonnull getelementptr inbounds ([2 x i8], [2 x i8]* @"??_C@_01EEMJAFIK@?6?$AA@", i32 0, i32 0)) #7
  br i1 %520, label %528, label %529

528:                                              ; preds = %523
  tail call void @halide_error(i8* %0, i8* getelementptr inbounds ([35 x i8], [35 x i8]* @"??_C@_0CD@IKIJNBLF@Printer?5buffer?5allocation?5failed@", i32 0, i32 0)) #7
  br label %536

529:                                              ; preds = %523
  %530 = ptrtoint i8* %527 to i32
  %531 = ptrtoint i8* %519 to i32
  %532 = sub i32 1, %531
  %533 = add i32 %532, %530
  %534 = sext i32 %533 to i64
  %535 = tail call i32 @halide_msan_annotate_memory_is_initialized(i8* %0, i8* nonnull %519, i64 %534) #7
  tail call void @halide_error(i8* %0, i8* nonnull %519) #7
  br label %536

536:                                              ; preds = %529, %528
  tail call void @free(i8* %519) #7
  br label %537

537:                                              ; preds = %515, %536
  store i8* %516, i8** bitcast (i32 (%struct._cl_program*)** @"?clReleaseProgram@OpenCL@Internal@Runtime@Halide@@3P6GHPAU_cl_program@@@ZA" to i8**), align 4, !tbaa !38
  %538 = tail call i8* @halide_opencl_get_symbol(i8* %0, i8* getelementptr inbounds ([15 x i8], [15 x i8]* @"??_C@_0P@PJKDHLJF@clBuildProgram?$AA@", i32 0, i32 0)) #7
  %539 = icmp eq i8* %538, null
  br i1 %539, label %540, label %559

540:                                              ; preds = %537
  %541 = tail call i8* @malloc(i32 1024) #7
  %542 = icmp eq i8* %541, null
  br i1 %542, label %545, label %543

543:                                              ; preds = %540
  %544 = getelementptr inbounds i8, i8* %541, i32 1023
  store i8 0, i8* %544, align 1, !tbaa !37
  br label %545

545:                                              ; preds = %543, %540
  %546 = phi i8* [ %544, %543 ], [ null, %540 ]
  %547 = tail call i8* @halide_string_to_string(i8* %541, i8* %546, i8* nonnull getelementptr inbounds ([23 x i8], [23 x i8]* @"??_C@_0BH@JIGFLJEL@OpenCL?5API?5not?5found?3?5?$AA@", i32 0, i32 0)) #7
  %548 = tail call i8* @halide_string_to_string(i8* %547, i8* %546, i8* nonnull getelementptr inbounds ([15 x i8], [15 x i8]* @"??_C@_0P@PJKDHLJF@clBuildProgram?$AA@", i32 0, i32 0)) #7
  %549 = tail call i8* @halide_string_to_string(i8* %548, i8* %546, i8* nonnull getelementptr inbounds ([2 x i8], [2 x i8]* @"??_C@_01EEMJAFIK@?6?$AA@", i32 0, i32 0)) #7
  br i1 %542, label %550, label %551

550:                                              ; preds = %545
  tail call void @halide_error(i8* %0, i8* getelementptr inbounds ([35 x i8], [35 x i8]* @"??_C@_0CD@IKIJNBLF@Printer?5buffer?5allocation?5failed@", i32 0, i32 0)) #7
  br label %558

551:                                              ; preds = %545
  %552 = ptrtoint i8* %549 to i32
  %553 = ptrtoint i8* %541 to i32
  %554 = sub i32 1, %553
  %555 = add i32 %554, %552
  %556 = sext i32 %555 to i64
  %557 = tail call i32 @halide_msan_annotate_memory_is_initialized(i8* %0, i8* nonnull %541, i64 %556) #7
  tail call void @halide_error(i8* %0, i8* nonnull %541) #7
  br label %558

558:                                              ; preds = %551, %550
  tail call void @free(i8* %541) #7
  br label %559

559:                                              ; preds = %537, %558
  store i8* %538, i8** bitcast (i32 (%struct._cl_program*, i32, %struct._cl_device_id**, i8*, void (%struct._cl_program*, i8*)*, i8*)** @"?clBuildProgram@OpenCL@Internal@Runtime@Halide@@3P6GHPAU_cl_program@@IPBQAU_cl_device_id@@PBDP6GX0PAX@Z3@ZA" to i8**), align 4, !tbaa !38
  %560 = tail call i8* @halide_opencl_get_symbol(i8* %0, i8* getelementptr inbounds ([22 x i8], [22 x i8]* @"??_C@_0BG@DEMGGFLJ@clGetProgramBuildInfo?$AA@", i32 0, i32 0)) #7
  %561 = icmp eq i8* %560, null
  br i1 %561, label %562, label %581

562:                                              ; preds = %559
  %563 = tail call i8* @malloc(i32 1024) #7
  %564 = icmp eq i8* %563, null
  br i1 %564, label %567, label %565

565:                                              ; preds = %562
  %566 = getelementptr inbounds i8, i8* %563, i32 1023
  store i8 0, i8* %566, align 1, !tbaa !37
  br label %567

567:                                              ; preds = %565, %562
  %568 = phi i8* [ %566, %565 ], [ null, %562 ]
  %569 = tail call i8* @halide_string_to_string(i8* %563, i8* %568, i8* nonnull getelementptr inbounds ([23 x i8], [23 x i8]* @"??_C@_0BH@JIGFLJEL@OpenCL?5API?5not?5found?3?5?$AA@", i32 0, i32 0)) #7
  %570 = tail call i8* @halide_string_to_string(i8* %569, i8* %568, i8* nonnull getelementptr inbounds ([22 x i8], [22 x i8]* @"??_C@_0BG@DEMGGFLJ@clGetProgramBuildInfo?$AA@", i32 0, i32 0)) #7
  %571 = tail call i8* @halide_string_to_string(i8* %570, i8* %568, i8* nonnull getelementptr inbounds ([2 x i8], [2 x i8]* @"??_C@_01EEMJAFIK@?6?$AA@", i32 0, i32 0)) #7
  br i1 %564, label %572, label %573

572:                                              ; preds = %567
  tail call void @halide_error(i8* %0, i8* getelementptr inbounds ([35 x i8], [35 x i8]* @"??_C@_0CD@IKIJNBLF@Printer?5buffer?5allocation?5failed@", i32 0, i32 0)) #7
  br label %580

573:                                              ; preds = %567
  %574 = ptrtoint i8* %571 to i32
  %575 = ptrtoint i8* %563 to i32
  %576 = sub i32 1, %575
  %577 = add i32 %576, %574
  %578 = sext i32 %577 to i64
  %579 = tail call i32 @halide_msan_annotate_memory_is_initialized(i8* %0, i8* nonnull %563, i64 %578) #7
  tail call void @halide_error(i8* %0, i8* nonnull %563) #7
  br label %580

580:                                              ; preds = %573, %572
  tail call void @free(i8* %563) #7
  br label %581

581:                                              ; preds = %559, %580
  store i8* %560, i8** bitcast (i32 (%struct._cl_program*, %struct._cl_device_id*, i32, i32, i8*, i32*)** @"?clGetProgramBuildInfo@OpenCL@Internal@Runtime@Halide@@3P6GHPAU_cl_program@@PAU_cl_device_id@@IIPAXPAI@ZA" to i8**), align 4, !tbaa !38
  %582 = tail call i8* @halide_opencl_get_symbol(i8* %0, i8* getelementptr inbounds ([15 x i8], [15 x i8]* @"??_C@_0P@POBJOHCP@clCreateKernel?$AA@", i32 0, i32 0)) #7
  %583 = icmp eq i8* %582, null
  br i1 %583, label %584, label %603

584:                                              ; preds = %581
  %585 = tail call i8* @malloc(i32 1024) #7
  %586 = icmp eq i8* %585, null
  br i1 %586, label %589, label %587

587:                                              ; preds = %584
  %588 = getelementptr inbounds i8, i8* %585, i32 1023
  store i8 0, i8* %588, align 1, !tbaa !37
  br label %589

589:                                              ; preds = %587, %584
  %590 = phi i8* [ %588, %587 ], [ null, %584 ]
  %591 = tail call i8* @halide_string_to_string(i8* %585, i8* %590, i8* nonnull getelementptr inbounds ([23 x i8], [23 x i8]* @"??_C@_0BH@JIGFLJEL@OpenCL?5API?5not?5found?3?5?$AA@", i32 0, i32 0)) #7
  %592 = tail call i8* @halide_string_to_string(i8* %591, i8* %590, i8* nonnull getelementptr inbounds ([15 x i8], [15 x i8]* @"??_C@_0P@POBJOHCP@clCreateKernel?$AA@", i32 0, i32 0)) #7
  %593 = tail call i8* @halide_string_to_string(i8* %592, i8* %590, i8* nonnull getelementptr inbounds ([2 x i8], [2 x i8]* @"??_C@_01EEMJAFIK@?6?$AA@", i32 0, i32 0)) #7
  br i1 %586, label %594, label %595

594:                                              ; preds = %589
  tail call void @halide_error(i8* %0, i8* getelementptr inbounds ([35 x i8], [35 x i8]* @"??_C@_0CD@IKIJNBLF@Printer?5buffer?5allocation?5failed@", i32 0, i32 0)) #7
  br label %602

595:                                              ; preds = %589
  %596 = ptrtoint i8* %593 to i32
  %597 = ptrtoint i8* %585 to i32
  %598 = sub i32 1, %597
  %599 = add i32 %598, %596
  %600 = sext i32 %599 to i64
  %601 = tail call i32 @halide_msan_annotate_memory_is_initialized(i8* %0, i8* nonnull %585, i64 %600) #7
  tail call void @halide_error(i8* %0, i8* nonnull %585) #7
  br label %602

602:                                              ; preds = %595, %594
  tail call void @free(i8* %585) #7
  br label %603

603:                                              ; preds = %581, %602
  store i8* %582, i8** bitcast (%struct._cl_kernel* (%struct._cl_program*, i8*, i32*)** @"?clCreateKernel@OpenCL@Internal@Runtime@Halide@@3P6GPAU_cl_kernel@@PAU_cl_program@@PBDPAH@ZA" to i8**), align 4, !tbaa !38
  %604 = tail call i8* @halide_opencl_get_symbol(i8* %0, i8* getelementptr inbounds ([15 x i8], [15 x i8]* @"??_C@_0P@IAJFDOHI@clRetainKernel?$AA@", i32 0, i32 0)) #7
  %605 = icmp eq i8* %604, null
  br i1 %605, label %606, label %625

606:                                              ; preds = %603
  %607 = tail call i8* @malloc(i32 1024) #7
  %608 = icmp eq i8* %607, null
  br i1 %608, label %611, label %609

609:                                              ; preds = %606
  %610 = getelementptr inbounds i8, i8* %607, i32 1023
  store i8 0, i8* %610, align 1, !tbaa !37
  br label %611

611:                                              ; preds = %609, %606
  %612 = phi i8* [ %610, %609 ], [ null, %606 ]
  %613 = tail call i8* @halide_string_to_string(i8* %607, i8* %612, i8* nonnull getelementptr inbounds ([23 x i8], [23 x i8]* @"??_C@_0BH@JIGFLJEL@OpenCL?5API?5not?5found?3?5?$AA@", i32 0, i32 0)) #7
  %614 = tail call i8* @halide_string_to_string(i8* %613, i8* %612, i8* nonnull getelementptr inbounds ([15 x i8], [15 x i8]* @"??_C@_0P@IAJFDOHI@clRetainKernel?$AA@", i32 0, i32 0)) #7
  %615 = tail call i8* @halide_string_to_string(i8* %614, i8* %612, i8* nonnull getelementptr inbounds ([2 x i8], [2 x i8]* @"??_C@_01EEMJAFIK@?6?$AA@", i32 0, i32 0)) #7
  br i1 %608, label %616, label %617

616:                                              ; preds = %611
  tail call void @halide_error(i8* %0, i8* getelementptr inbounds ([35 x i8], [35 x i8]* @"??_C@_0CD@IKIJNBLF@Printer?5buffer?5allocation?5failed@", i32 0, i32 0)) #7
  br label %624

617:                                              ; preds = %611
  %618 = ptrtoint i8* %615 to i32
  %619 = ptrtoint i8* %607 to i32
  %620 = sub i32 1, %619
  %621 = add i32 %620, %618
  %622 = sext i32 %621 to i64
  %623 = tail call i32 @halide_msan_annotate_memory_is_initialized(i8* %0, i8* nonnull %607, i64 %622) #7
  tail call void @halide_error(i8* %0, i8* nonnull %607) #7
  br label %624

624:                                              ; preds = %617, %616
  tail call void @free(i8* %607) #7
  br label %625

625:                                              ; preds = %603, %624
  store i8* %604, i8** bitcast (i32 (%struct._cl_kernel*)** @"?clRetainKernel@OpenCL@Internal@Runtime@Halide@@3P6GHPAU_cl_kernel@@@ZA" to i8**), align 4, !tbaa !38
  %626 = tail call i8* @halide_opencl_get_symbol(i8* %0, i8* getelementptr inbounds ([16 x i8], [16 x i8]* @"??_C@_0BA@HDOOIDEC@clReleaseKernel?$AA@", i32 0, i32 0)) #7
  %627 = icmp eq i8* %626, null
  br i1 %627, label %628, label %647

628:                                              ; preds = %625
  %629 = tail call i8* @malloc(i32 1024) #7
  %630 = icmp eq i8* %629, null
  br i1 %630, label %633, label %631

631:                                              ; preds = %628
  %632 = getelementptr inbounds i8, i8* %629, i32 1023
  store i8 0, i8* %632, align 1, !tbaa !37
  br label %633

633:                                              ; preds = %631, %628
  %634 = phi i8* [ %632, %631 ], [ null, %628 ]
  %635 = tail call i8* @halide_string_to_string(i8* %629, i8* %634, i8* nonnull getelementptr inbounds ([23 x i8], [23 x i8]* @"??_C@_0BH@JIGFLJEL@OpenCL?5API?5not?5found?3?5?$AA@", i32 0, i32 0)) #7
  %636 = tail call i8* @halide_string_to_string(i8* %635, i8* %634, i8* nonnull getelementptr inbounds ([16 x i8], [16 x i8]* @"??_C@_0BA@HDOOIDEC@clReleaseKernel?$AA@", i32 0, i32 0)) #7
  %637 = tail call i8* @halide_string_to_string(i8* %636, i8* %634, i8* nonnull getelementptr inbounds ([2 x i8], [2 x i8]* @"??_C@_01EEMJAFIK@?6?$AA@", i32 0, i32 0)) #7
  br i1 %630, label %638, label %639

638:                                              ; preds = %633
  tail call void @halide_error(i8* %0, i8* getelementptr inbounds ([35 x i8], [35 x i8]* @"??_C@_0CD@IKIJNBLF@Printer?5buffer?5allocation?5failed@", i32 0, i32 0)) #7
  br label %646

639:                                              ; preds = %633
  %640 = ptrtoint i8* %637 to i32
  %641 = ptrtoint i8* %629 to i32
  %642 = sub i32 1, %641
  %643 = add i32 %642, %640
  %644 = sext i32 %643 to i64
  %645 = tail call i32 @halide_msan_annotate_memory_is_initialized(i8* %0, i8* nonnull %629, i64 %644) #7
  tail call void @halide_error(i8* %0, i8* nonnull %629) #7
  br label %646

646:                                              ; preds = %639, %638
  tail call void @free(i8* %629) #7
  br label %647

647:                                              ; preds = %625, %646
  store i8* %626, i8** bitcast (i32 (%struct._cl_kernel*)** @"?clReleaseKernel@OpenCL@Internal@Runtime@Halide@@3P6GHPAU_cl_kernel@@@ZA" to i8**), align 4, !tbaa !38
  %648 = tail call i8* @halide_opencl_get_symbol(i8* %0, i8* getelementptr inbounds ([15 x i8], [15 x i8]* @"??_C@_0P@IIMFEPBK@clSetKernelArg?$AA@", i32 0, i32 0)) #7
  %649 = icmp eq i8* %648, null
  br i1 %649, label %650, label %669

650:                                              ; preds = %647
  %651 = tail call i8* @malloc(i32 1024) #7
  %652 = icmp eq i8* %651, null
  br i1 %652, label %655, label %653

653:                                              ; preds = %650
  %654 = getelementptr inbounds i8, i8* %651, i32 1023
  store i8 0, i8* %654, align 1, !tbaa !37
  br label %655

655:                                              ; preds = %653, %650
  %656 = phi i8* [ %654, %653 ], [ null, %650 ]
  %657 = tail call i8* @halide_string_to_string(i8* %651, i8* %656, i8* nonnull getelementptr inbounds ([23 x i8], [23 x i8]* @"??_C@_0BH@JIGFLJEL@OpenCL?5API?5not?5found?3?5?$AA@", i32 0, i32 0)) #7
  %658 = tail call i8* @halide_string_to_string(i8* %657, i8* %656, i8* nonnull getelementptr inbounds ([15 x i8], [15 x i8]* @"??_C@_0P@IIMFEPBK@clSetKernelArg?$AA@", i32 0, i32 0)) #7
  %659 = tail call i8* @halide_string_to_string(i8* %658, i8* %656, i8* nonnull getelementptr inbounds ([2 x i8], [2 x i8]* @"??_C@_01EEMJAFIK@?6?$AA@", i32 0, i32 0)) #7
  br i1 %652, label %660, label %661

660:                                              ; preds = %655
  tail call void @halide_error(i8* %0, i8* getelementptr inbounds ([35 x i8], [35 x i8]* @"??_C@_0CD@IKIJNBLF@Printer?5buffer?5allocation?5failed@", i32 0, i32 0)) #7
  br label %668

661:                                              ; preds = %655
  %662 = ptrtoint i8* %659 to i32
  %663 = ptrtoint i8* %651 to i32
  %664 = sub i32 1, %663
  %665 = add i32 %664, %662
  %666 = sext i32 %665 to i64
  %667 = tail call i32 @halide_msan_annotate_memory_is_initialized(i8* %0, i8* nonnull %651, i64 %666) #7
  tail call void @halide_error(i8* %0, i8* nonnull %651) #7
  br label %668

668:                                              ; preds = %661, %660
  tail call void @free(i8* %651) #7
  br label %669

669:                                              ; preds = %647, %668
  store i8* %648, i8** bitcast (i32 (%struct._cl_kernel*, i32, i32, i8*)** @"?clSetKernelArg@OpenCL@Internal@Runtime@Halide@@3P6GHPAU_cl_kernel@@IIPBX@ZA" to i8**), align 4, !tbaa !38
  %670 = tail call i8* @halide_opencl_get_symbol(i8* %0, i8* getelementptr inbounds ([8 x i8], [8 x i8]* @"??_C@_07KKBOLFGK@clFlush?$AA@", i32 0, i32 0)) #7
  %671 = icmp eq i8* %670, null
  br i1 %671, label %672, label %691

672:                                              ; preds = %669
  %673 = tail call i8* @malloc(i32 1024) #7
  %674 = icmp eq i8* %673, null
  br i1 %674, label %677, label %675

675:                                              ; preds = %672
  %676 = getelementptr inbounds i8, i8* %673, i32 1023
  store i8 0, i8* %676, align 1, !tbaa !37
  br label %677

677:                                              ; preds = %675, %672
  %678 = phi i8* [ %676, %675 ], [ null, %672 ]
  %679 = tail call i8* @halide_string_to_string(i8* %673, i8* %678, i8* nonnull getelementptr inbounds ([23 x i8], [23 x i8]* @"??_C@_0BH@JIGFLJEL@OpenCL?5API?5not?5found?3?5?$AA@", i32 0, i32 0)) #7
  %680 = tail call i8* @halide_string_to_string(i8* %679, i8* %678, i8* nonnull getelementptr inbounds ([8 x i8], [8 x i8]* @"??_C@_07KKBOLFGK@clFlush?$AA@", i32 0, i32 0)) #7
  %681 = tail call i8* @halide_string_to_string(i8* %680, i8* %678, i8* nonnull getelementptr inbounds ([2 x i8], [2 x i8]* @"??_C@_01EEMJAFIK@?6?$AA@", i32 0, i32 0)) #7
  br i1 %674, label %682, label %683

682:                                              ; preds = %677
  tail call void @halide_error(i8* %0, i8* getelementptr inbounds ([35 x i8], [35 x i8]* @"??_C@_0CD@IKIJNBLF@Printer?5buffer?5allocation?5failed@", i32 0, i32 0)) #7
  br label %690

683:                                              ; preds = %677
  %684 = ptrtoint i8* %681 to i32
  %685 = ptrtoint i8* %673 to i32
  %686 = sub i32 1, %685
  %687 = add i32 %686, %684
  %688 = sext i32 %687 to i64
  %689 = tail call i32 @halide_msan_annotate_memory_is_initialized(i8* %0, i8* nonnull %673, i64 %688) #7
  tail call void @halide_error(i8* %0, i8* nonnull %673) #7
  br label %690

690:                                              ; preds = %683, %682
  tail call void @free(i8* %673) #7
  br label %691

691:                                              ; preds = %669, %690
  store i8* %670, i8** bitcast (i32 (%struct._cl_command_queue*)** @"?clFlush@OpenCL@Internal@Runtime@Halide@@3P6GHPAU_cl_command_queue@@@ZA" to i8**), align 4, !tbaa !38
  %692 = tail call i8* @halide_opencl_get_symbol(i8* %0, i8* getelementptr inbounds ([9 x i8], [9 x i8]* @"??_C@_08GIMDLLBG@clFinish?$AA@", i32 0, i32 0)) #7
  %693 = icmp eq i8* %692, null
  br i1 %693, label %694, label %713

694:                                              ; preds = %691
  %695 = tail call i8* @malloc(i32 1024) #7
  %696 = icmp eq i8* %695, null
  br i1 %696, label %699, label %697

697:                                              ; preds = %694
  %698 = getelementptr inbounds i8, i8* %695, i32 1023
  store i8 0, i8* %698, align 1, !tbaa !37
  br label %699

699:                                              ; preds = %697, %694
  %700 = phi i8* [ %698, %697 ], [ null, %694 ]
  %701 = tail call i8* @halide_string_to_string(i8* %695, i8* %700, i8* nonnull getelementptr inbounds ([23 x i8], [23 x i8]* @"??_C@_0BH@JIGFLJEL@OpenCL?5API?5not?5found?3?5?$AA@", i32 0, i32 0)) #7
  %702 = tail call i8* @halide_string_to_string(i8* %701, i8* %700, i8* nonnull getelementptr inbounds ([9 x i8], [9 x i8]* @"??_C@_08GIMDLLBG@clFinish?$AA@", i32 0, i32 0)) #7
  %703 = tail call i8* @halide_string_to_string(i8* %702, i8* %700, i8* nonnull getelementptr inbounds ([2 x i8], [2 x i8]* @"??_C@_01EEMJAFIK@?6?$AA@", i32 0, i32 0)) #7
  br i1 %696, label %704, label %705

704:                                              ; preds = %699
  tail call void @halide_error(i8* %0, i8* getelementptr inbounds ([35 x i8], [35 x i8]* @"??_C@_0CD@IKIJNBLF@Printer?5buffer?5allocation?5failed@", i32 0, i32 0)) #7
  br label %712

705:                                              ; preds = %699
  %706 = ptrtoint i8* %703 to i32
  %707 = ptrtoint i8* %695 to i32
  %708 = sub i32 1, %707
  %709 = add i32 %708, %706
  %710 = sext i32 %709 to i64
  %711 = tail call i32 @halide_msan_annotate_memory_is_initialized(i8* %0, i8* nonnull %695, i64 %710) #7
  tail call void @halide_error(i8* %0, i8* nonnull %695) #7
  br label %712

712:                                              ; preds = %705, %704
  tail call void @free(i8* %695) #7
  br label %713

713:                                              ; preds = %691, %712
  store i8* %692, i8** bitcast (i32 (%struct._cl_command_queue*)** @"?clFinish@OpenCL@Internal@Runtime@Halide@@3P6GHPAU_cl_command_queue@@@ZA" to i8**), align 4, !tbaa !38
  %714 = tail call i8* @halide_opencl_get_symbol(i8* %0, i8* getelementptr inbounds ([20 x i8], [20 x i8]* @"??_C@_0BE@BHABMOFN@clEnqueueReadBuffer?$AA@", i32 0, i32 0)) #7
  %715 = icmp eq i8* %714, null
  br i1 %715, label %716, label %735

716:                                              ; preds = %713
  %717 = tail call i8* @malloc(i32 1024) #7
  %718 = icmp eq i8* %717, null
  br i1 %718, label %721, label %719

719:                                              ; preds = %716
  %720 = getelementptr inbounds i8, i8* %717, i32 1023
  store i8 0, i8* %720, align 1, !tbaa !37
  br label %721

721:                                              ; preds = %719, %716
  %722 = phi i8* [ %720, %719 ], [ null, %716 ]
  %723 = tail call i8* @halide_string_to_string(i8* %717, i8* %722, i8* nonnull getelementptr inbounds ([23 x i8], [23 x i8]* @"??_C@_0BH@JIGFLJEL@OpenCL?5API?5not?5found?3?5?$AA@", i32 0, i32 0)) #7
  %724 = tail call i8* @halide_string_to_string(i8* %723, i8* %722, i8* nonnull getelementptr inbounds ([20 x i8], [20 x i8]* @"??_C@_0BE@BHABMOFN@clEnqueueReadBuffer?$AA@", i32 0, i32 0)) #7
  %725 = tail call i8* @halide_string_to_string(i8* %724, i8* %722, i8* nonnull getelementptr inbounds ([2 x i8], [2 x i8]* @"??_C@_01EEMJAFIK@?6?$AA@", i32 0, i32 0)) #7
  br i1 %718, label %726, label %727

726:                                              ; preds = %721
  tail call void @halide_error(i8* %0, i8* getelementptr inbounds ([35 x i8], [35 x i8]* @"??_C@_0CD@IKIJNBLF@Printer?5buffer?5allocation?5failed@", i32 0, i32 0)) #7
  br label %734

727:                                              ; preds = %721
  %728 = ptrtoint i8* %725 to i32
  %729 = ptrtoint i8* %717 to i32
  %730 = sub i32 1, %729
  %731 = add i32 %730, %728
  %732 = sext i32 %731 to i64
  %733 = tail call i32 @halide_msan_annotate_memory_is_initialized(i8* %0, i8* nonnull %717, i64 %732) #7
  tail call void @halide_error(i8* %0, i8* nonnull %717) #7
  br label %734

734:                                              ; preds = %727, %726
  tail call void @free(i8* %717) #7
  br label %735

735:                                              ; preds = %713, %734
  store i8* %714, i8** bitcast (i32 (%struct._cl_command_queue*, %struct._cl_mem*, i32, i32, i32, i8*, i32, %struct._cl_event**, %struct._cl_event**)** @"?clEnqueueReadBuffer@OpenCL@Internal@Runtime@Halide@@3P6GHPAU_cl_command_queue@@PAU_cl_mem@@IIIPAXIPBQAU_cl_event@@PAPAU7@@ZA" to i8**), align 4, !tbaa !38
  %736 = tail call i8* @halide_opencl_get_symbol(i8* %0, i8* getelementptr inbounds ([24 x i8], [24 x i8]* @"??_C@_0BI@HHHHIKKC@clEnqueueReadBufferRect?$AA@", i32 0, i32 0)) #7
  %737 = icmp eq i8* %736, null
  br i1 %737, label %738, label %757

738:                                              ; preds = %735
  %739 = tail call i8* @malloc(i32 1024) #7
  %740 = icmp eq i8* %739, null
  br i1 %740, label %743, label %741

741:                                              ; preds = %738
  %742 = getelementptr inbounds i8, i8* %739, i32 1023
  store i8 0, i8* %742, align 1, !tbaa !37
  br label %743

743:                                              ; preds = %741, %738
  %744 = phi i8* [ %742, %741 ], [ null, %738 ]
  %745 = tail call i8* @halide_string_to_string(i8* %739, i8* %744, i8* nonnull getelementptr inbounds ([23 x i8], [23 x i8]* @"??_C@_0BH@JIGFLJEL@OpenCL?5API?5not?5found?3?5?$AA@", i32 0, i32 0)) #7
  %746 = tail call i8* @halide_string_to_string(i8* %745, i8* %744, i8* nonnull getelementptr inbounds ([24 x i8], [24 x i8]* @"??_C@_0BI@HHHHIKKC@clEnqueueReadBufferRect?$AA@", i32 0, i32 0)) #7
  %747 = tail call i8* @halide_string_to_string(i8* %746, i8* %744, i8* nonnull getelementptr inbounds ([2 x i8], [2 x i8]* @"??_C@_01EEMJAFIK@?6?$AA@", i32 0, i32 0)) #7
  br i1 %740, label %748, label %749

748:                                              ; preds = %743
  tail call void @halide_error(i8* %0, i8* getelementptr inbounds ([35 x i8], [35 x i8]* @"??_C@_0CD@IKIJNBLF@Printer?5buffer?5allocation?5failed@", i32 0, i32 0)) #7
  br label %756

749:                                              ; preds = %743
  %750 = ptrtoint i8* %747 to i32
  %751 = ptrtoint i8* %739 to i32
  %752 = sub i32 1, %751
  %753 = add i32 %752, %750
  %754 = sext i32 %753 to i64
  %755 = tail call i32 @halide_msan_annotate_memory_is_initialized(i8* %0, i8* nonnull %739, i64 %754) #7
  tail call void @halide_error(i8* %0, i8* nonnull %739) #7
  br label %756

756:                                              ; preds = %749, %748
  tail call void @free(i8* %739) #7
  br label %757

757:                                              ; preds = %735, %756
  store i8* %736, i8** bitcast (i32 (%struct._cl_command_queue*, %struct._cl_mem*, i32, i32*, i32*, i32*, i32, i32, i32, i32, i8*, i32, %struct._cl_event**, %struct._cl_event**)** @"?clEnqueueReadBufferRect@OpenCL@Internal@Runtime@Halide@@3P6GHPAU_cl_command_queue@@PAU_cl_mem@@IPBI22IIIIPAXIPBQAU_cl_event@@PAPAU7@@ZA" to i8**), align 4, !tbaa !38
  %758 = tail call i8* @halide_opencl_get_symbol(i8* %0, i8* getelementptr inbounds ([21 x i8], [21 x i8]* @"??_C@_0BF@LIFEAJJD@clEnqueueWriteBuffer?$AA@", i32 0, i32 0)) #7
  %759 = icmp eq i8* %758, null
  br i1 %759, label %760, label %779

760:                                              ; preds = %757
  %761 = tail call i8* @malloc(i32 1024) #7
  %762 = icmp eq i8* %761, null
  br i1 %762, label %765, label %763

763:                                              ; preds = %760
  %764 = getelementptr inbounds i8, i8* %761, i32 1023
  store i8 0, i8* %764, align 1, !tbaa !37
  br label %765

765:                                              ; preds = %763, %760
  %766 = phi i8* [ %764, %763 ], [ null, %760 ]
  %767 = tail call i8* @halide_string_to_string(i8* %761, i8* %766, i8* nonnull getelementptr inbounds ([23 x i8], [23 x i8]* @"??_C@_0BH@JIGFLJEL@OpenCL?5API?5not?5found?3?5?$AA@", i32 0, i32 0)) #7
  %768 = tail call i8* @halide_string_to_string(i8* %767, i8* %766, i8* nonnull getelementptr inbounds ([21 x i8], [21 x i8]* @"??_C@_0BF@LIFEAJJD@clEnqueueWriteBuffer?$AA@", i32 0, i32 0)) #7
  %769 = tail call i8* @halide_string_to_string(i8* %768, i8* %766, i8* nonnull getelementptr inbounds ([2 x i8], [2 x i8]* @"??_C@_01EEMJAFIK@?6?$AA@", i32 0, i32 0)) #7
  br i1 %762, label %770, label %771

770:                                              ; preds = %765
  tail call void @halide_error(i8* %0, i8* getelementptr inbounds ([35 x i8], [35 x i8]* @"??_C@_0CD@IKIJNBLF@Printer?5buffer?5allocation?5failed@", i32 0, i32 0)) #7
  br label %778

771:                                              ; preds = %765
  %772 = ptrtoint i8* %769 to i32
  %773 = ptrtoint i8* %761 to i32
  %774 = sub i32 1, %773
  %775 = add i32 %774, %772
  %776 = sext i32 %775 to i64
  %777 = tail call i32 @halide_msan_annotate_memory_is_initialized(i8* %0, i8* nonnull %761, i64 %776) #7
  tail call void @halide_error(i8* %0, i8* nonnull %761) #7
  br label %778

778:                                              ; preds = %771, %770
  tail call void @free(i8* %761) #7
  br label %779

779:                                              ; preds = %757, %778
  store i8* %758, i8** bitcast (i32 (%struct._cl_command_queue*, %struct._cl_mem*, i32, i32, i32, i8*, i32, %struct._cl_event**, %struct._cl_event**)** @"?clEnqueueWriteBuffer@OpenCL@Internal@Runtime@Halide@@3P6GHPAU_cl_command_queue@@PAU_cl_mem@@IIIPBXIPBQAU_cl_event@@PAPAU7@@ZA" to i8**), align 4, !tbaa !38
  %780 = tail call i8* @halide_opencl_get_symbol(i8* %0, i8* getelementptr inbounds ([25 x i8], [25 x i8]* @"??_C@_0BJ@PEKAIEDK@clEnqueueWriteBufferRect?$AA@", i32 0, i32 0)) #7
  %781 = icmp eq i8* %780, null
  br i1 %781, label %782, label %801

782:                                              ; preds = %779
  %783 = tail call i8* @malloc(i32 1024) #7
  %784 = icmp eq i8* %783, null
  br i1 %784, label %787, label %785

785:                                              ; preds = %782
  %786 = getelementptr inbounds i8, i8* %783, i32 1023
  store i8 0, i8* %786, align 1, !tbaa !37
  br label %787

787:                                              ; preds = %785, %782
  %788 = phi i8* [ %786, %785 ], [ null, %782 ]
  %789 = tail call i8* @halide_string_to_string(i8* %783, i8* %788, i8* nonnull getelementptr inbounds ([23 x i8], [23 x i8]* @"??_C@_0BH@JIGFLJEL@OpenCL?5API?5not?5found?3?5?$AA@", i32 0, i32 0)) #7
  %790 = tail call i8* @halide_string_to_string(i8* %789, i8* %788, i8* nonnull getelementptr inbounds ([25 x i8], [25 x i8]* @"??_C@_0BJ@PEKAIEDK@clEnqueueWriteBufferRect?$AA@", i32 0, i32 0)) #7
  %791 = tail call i8* @halide_string_to_string(i8* %790, i8* %788, i8* nonnull getelementptr inbounds ([2 x i8], [2 x i8]* @"??_C@_01EEMJAFIK@?6?$AA@", i32 0, i32 0)) #7
  br i1 %784, label %792, label %793

792:                                              ; preds = %787
  tail call void @halide_error(i8* %0, i8* getelementptr inbounds ([35 x i8], [35 x i8]* @"??_C@_0CD@IKIJNBLF@Printer?5buffer?5allocation?5failed@", i32 0, i32 0)) #7
  br label %800

793:                                              ; preds = %787
  %794 = ptrtoint i8* %791 to i32
  %795 = ptrtoint i8* %783 to i32
  %796 = sub i32 1, %795
  %797 = add i32 %796, %794
  %798 = sext i32 %797 to i64
  %799 = tail call i32 @halide_msan_annotate_memory_is_initialized(i8* %0, i8* nonnull %783, i64 %798) #7
  tail call void @halide_error(i8* %0, i8* nonnull %783) #7
  br label %800

800:                                              ; preds = %793, %792
  tail call void @free(i8* %783) #7
  br label %801

801:                                              ; preds = %779, %800
  store i8* %780, i8** bitcast (i32 (%struct._cl_command_queue*, %struct._cl_mem*, i32, i32*, i32*, i32*, i32, i32, i32, i32, i8*, i32, %struct._cl_event**, %struct._cl_event**)** @"?clEnqueueWriteBufferRect@OpenCL@Internal@Runtime@Halide@@3P6GHPAU_cl_command_queue@@PAU_cl_mem@@IPBI22IIIIPBXIPBQAU_cl_event@@PAPAU7@@ZA" to i8**), align 4, !tbaa !38
  %802 = tail call i8* @halide_opencl_get_symbol(i8* %0, i8* getelementptr inbounds ([20 x i8], [20 x i8]* @"??_C@_0BE@DDFODHFH@clEnqueueCopyBuffer?$AA@", i32 0, i32 0)) #7
  %803 = icmp eq i8* %802, null
  br i1 %803, label %804, label %823

804:                                              ; preds = %801
  %805 = tail call i8* @malloc(i32 1024) #7
  %806 = icmp eq i8* %805, null
  br i1 %806, label %809, label %807

807:                                              ; preds = %804
  %808 = getelementptr inbounds i8, i8* %805, i32 1023
  store i8 0, i8* %808, align 1, !tbaa !37
  br label %809

809:                                              ; preds = %807, %804
  %810 = phi i8* [ %808, %807 ], [ null, %804 ]
  %811 = tail call i8* @halide_string_to_string(i8* %805, i8* %810, i8* nonnull getelementptr inbounds ([23 x i8], [23 x i8]* @"??_C@_0BH@JIGFLJEL@OpenCL?5API?5not?5found?3?5?$AA@", i32 0, i32 0)) #7
  %812 = tail call i8* @halide_string_to_string(i8* %811, i8* %810, i8* nonnull getelementptr inbounds ([20 x i8], [20 x i8]* @"??_C@_0BE@DDFODHFH@clEnqueueCopyBuffer?$AA@", i32 0, i32 0)) #7
  %813 = tail call i8* @halide_string_to_string(i8* %812, i8* %810, i8* nonnull getelementptr inbounds ([2 x i8], [2 x i8]* @"??_C@_01EEMJAFIK@?6?$AA@", i32 0, i32 0)) #7
  br i1 %806, label %814, label %815

814:                                              ; preds = %809
  tail call void @halide_error(i8* %0, i8* getelementptr inbounds ([35 x i8], [35 x i8]* @"??_C@_0CD@IKIJNBLF@Printer?5buffer?5allocation?5failed@", i32 0, i32 0)) #7
  br label %822

815:                                              ; preds = %809
  %816 = ptrtoint i8* %813 to i32
  %817 = ptrtoint i8* %805 to i32
  %818 = sub i32 1, %817
  %819 = add i32 %818, %816
  %820 = sext i32 %819 to i64
  %821 = tail call i32 @halide_msan_annotate_memory_is_initialized(i8* %0, i8* nonnull %805, i64 %820) #7
  tail call void @halide_error(i8* %0, i8* nonnull %805) #7
  br label %822

822:                                              ; preds = %815, %814
  tail call void @free(i8* %805) #7
  br label %823

823:                                              ; preds = %801, %822
  store i8* %802, i8** bitcast (i32 (%struct._cl_command_queue*, %struct._cl_mem*, %struct._cl_mem*, i32, i32, i32, i32, %struct._cl_event**, %struct._cl_event**)** @"?clEnqueueCopyBuffer@OpenCL@Internal@Runtime@Halide@@3P6GHPAU_cl_command_queue@@PAU_cl_mem@@1IIIIPBQAU_cl_event@@PAPAU7@@ZA" to i8**), align 4, !tbaa !38
  %824 = tail call i8* @halide_opencl_get_symbol(i8* %0, i8* getelementptr inbounds ([19 x i8], [19 x i8]* @"??_C@_0BD@KODJHAIA@clEnqueueReadImage?$AA@", i32 0, i32 0)) #7
  %825 = icmp eq i8* %824, null
  br i1 %825, label %826, label %845

826:                                              ; preds = %823
  %827 = tail call i8* @malloc(i32 1024) #7
  %828 = icmp eq i8* %827, null
  br i1 %828, label %831, label %829

829:                                              ; preds = %826
  %830 = getelementptr inbounds i8, i8* %827, i32 1023
  store i8 0, i8* %830, align 1, !tbaa !37
  br label %831

831:                                              ; preds = %829, %826
  %832 = phi i8* [ %830, %829 ], [ null, %826 ]
  %833 = tail call i8* @halide_string_to_string(i8* %827, i8* %832, i8* nonnull getelementptr inbounds ([23 x i8], [23 x i8]* @"??_C@_0BH@JIGFLJEL@OpenCL?5API?5not?5found?3?5?$AA@", i32 0, i32 0)) #7
  %834 = tail call i8* @halide_string_to_string(i8* %833, i8* %832, i8* nonnull getelementptr inbounds ([19 x i8], [19 x i8]* @"??_C@_0BD@KODJHAIA@clEnqueueReadImage?$AA@", i32 0, i32 0)) #7
  %835 = tail call i8* @halide_string_to_string(i8* %834, i8* %832, i8* nonnull getelementptr inbounds ([2 x i8], [2 x i8]* @"??_C@_01EEMJAFIK@?6?$AA@", i32 0, i32 0)) #7
  br i1 %828, label %836, label %837

836:                                              ; preds = %831
  tail call void @halide_error(i8* %0, i8* getelementptr inbounds ([35 x i8], [35 x i8]* @"??_C@_0CD@IKIJNBLF@Printer?5buffer?5allocation?5failed@", i32 0, i32 0)) #7
  br label %844

837:                                              ; preds = %831
  %838 = ptrtoint i8* %835 to i32
  %839 = ptrtoint i8* %827 to i32
  %840 = sub i32 1, %839
  %841 = add i32 %840, %838
  %842 = sext i32 %841 to i64
  %843 = tail call i32 @halide_msan_annotate_memory_is_initialized(i8* %0, i8* nonnull %827, i64 %842) #7
  tail call void @halide_error(i8* %0, i8* nonnull %827) #7
  br label %844

844:                                              ; preds = %837, %836
  tail call void @free(i8* %827) #7
  br label %845

845:                                              ; preds = %823, %844
  store i8* %824, i8** bitcast (i32 (%struct._cl_command_queue*, %struct._cl_mem*, i32, i32*, i32*, i32, i32, i8*, i32, %struct._cl_event**, %struct._cl_event**)** @"?clEnqueueReadImage@OpenCL@Internal@Runtime@Halide@@3P6GHPAU_cl_command_queue@@PAU_cl_mem@@IPBI2IIPAXIPBQAU_cl_event@@PAPAU7@@ZA" to i8**), align 4, !tbaa !38
  %846 = tail call i8* @halide_opencl_get_symbol(i8* %0, i8* getelementptr inbounds ([20 x i8], [20 x i8]* @"??_C@_0BE@PBOFPCCJ@clEnqueueWriteImage?$AA@", i32 0, i32 0)) #7
  %847 = icmp eq i8* %846, null
  br i1 %847, label %848, label %867

848:                                              ; preds = %845
  %849 = tail call i8* @malloc(i32 1024) #7
  %850 = icmp eq i8* %849, null
  br i1 %850, label %853, label %851

851:                                              ; preds = %848
  %852 = getelementptr inbounds i8, i8* %849, i32 1023
  store i8 0, i8* %852, align 1, !tbaa !37
  br label %853

853:                                              ; preds = %851, %848
  %854 = phi i8* [ %852, %851 ], [ null, %848 ]
  %855 = tail call i8* @halide_string_to_string(i8* %849, i8* %854, i8* nonnull getelementptr inbounds ([23 x i8], [23 x i8]* @"??_C@_0BH@JIGFLJEL@OpenCL?5API?5not?5found?3?5?$AA@", i32 0, i32 0)) #7
  %856 = tail call i8* @halide_string_to_string(i8* %855, i8* %854, i8* nonnull getelementptr inbounds ([20 x i8], [20 x i8]* @"??_C@_0BE@PBOFPCCJ@clEnqueueWriteImage?$AA@", i32 0, i32 0)) #7
  %857 = tail call i8* @halide_string_to_string(i8* %856, i8* %854, i8* nonnull getelementptr inbounds ([2 x i8], [2 x i8]* @"??_C@_01EEMJAFIK@?6?$AA@", i32 0, i32 0)) #7
  br i1 %850, label %858, label %859

858:                                              ; preds = %853
  tail call void @halide_error(i8* %0, i8* getelementptr inbounds ([35 x i8], [35 x i8]* @"??_C@_0CD@IKIJNBLF@Printer?5buffer?5allocation?5failed@", i32 0, i32 0)) #7
  br label %866

859:                                              ; preds = %853
  %860 = ptrtoint i8* %857 to i32
  %861 = ptrtoint i8* %849 to i32
  %862 = sub i32 1, %861
  %863 = add i32 %862, %860
  %864 = sext i32 %863 to i64
  %865 = tail call i32 @halide_msan_annotate_memory_is_initialized(i8* %0, i8* nonnull %849, i64 %864) #7
  tail call void @halide_error(i8* %0, i8* nonnull %849) #7
  br label %866

866:                                              ; preds = %859, %858
  tail call void @free(i8* %849) #7
  br label %867

867:                                              ; preds = %845, %866
  store i8* %846, i8** bitcast (i32 (%struct._cl_command_queue*, %struct._cl_mem*, i32, i32*, i32*, i32, i32, i8*, i32, %struct._cl_event**, %struct._cl_event**)** @"?clEnqueueWriteImage@OpenCL@Internal@Runtime@Halide@@3P6GHPAU_cl_command_queue@@PAU_cl_mem@@IPBI2IIPBXIPBQAU_cl_event@@PAPAU7@@ZA" to i8**), align 4, !tbaa !38
  %868 = tail call i8* @halide_opencl_get_symbol(i8* %0, i8* getelementptr inbounds ([19 x i8], [19 x i8]* @"??_C@_0BD@KGLEFIHM@clEnqueueMapBuffer?$AA@", i32 0, i32 0)) #7
  %869 = icmp eq i8* %868, null
  br i1 %869, label %870, label %889

870:                                              ; preds = %867
  %871 = tail call i8* @malloc(i32 1024) #7
  %872 = icmp eq i8* %871, null
  br i1 %872, label %875, label %873

873:                                              ; preds = %870
  %874 = getelementptr inbounds i8, i8* %871, i32 1023
  store i8 0, i8* %874, align 1, !tbaa !37
  br label %875

875:                                              ; preds = %873, %870
  %876 = phi i8* [ %874, %873 ], [ null, %870 ]
  %877 = tail call i8* @halide_string_to_string(i8* %871, i8* %876, i8* nonnull getelementptr inbounds ([23 x i8], [23 x i8]* @"??_C@_0BH@JIGFLJEL@OpenCL?5API?5not?5found?3?5?$AA@", i32 0, i32 0)) #7
  %878 = tail call i8* @halide_string_to_string(i8* %877, i8* %876, i8* nonnull getelementptr inbounds ([19 x i8], [19 x i8]* @"??_C@_0BD@KGLEFIHM@clEnqueueMapBuffer?$AA@", i32 0, i32 0)) #7
  %879 = tail call i8* @halide_string_to_string(i8* %878, i8* %876, i8* nonnull getelementptr inbounds ([2 x i8], [2 x i8]* @"??_C@_01EEMJAFIK@?6?$AA@", i32 0, i32 0)) #7
  br i1 %872, label %880, label %881

880:                                              ; preds = %875
  tail call void @halide_error(i8* %0, i8* getelementptr inbounds ([35 x i8], [35 x i8]* @"??_C@_0CD@IKIJNBLF@Printer?5buffer?5allocation?5failed@", i32 0, i32 0)) #7
  br label %888

881:                                              ; preds = %875
  %882 = ptrtoint i8* %879 to i32
  %883 = ptrtoint i8* %871 to i32
  %884 = sub i32 1, %883
  %885 = add i32 %884, %882
  %886 = sext i32 %885 to i64
  %887 = tail call i32 @halide_msan_annotate_memory_is_initialized(i8* %0, i8* nonnull %871, i64 %886) #7
  tail call void @halide_error(i8* %0, i8* nonnull %871) #7
  br label %888

888:                                              ; preds = %881, %880
  tail call void @free(i8* %871) #7
  br label %889

889:                                              ; preds = %867, %888
  store i8* %868, i8** bitcast (i8* (%struct._cl_command_queue*, %struct._cl_mem*, i32, i64, i32, i32, i32, %struct._cl_event**, %struct._cl_event**, i32*)** @"?clEnqueueMapBuffer@OpenCL@Internal@Runtime@Halide@@3P6GPAXPAU_cl_command_queue@@PAU_cl_mem@@I_KIIIPBQAU_cl_event@@PAPAU7@PAH@ZA" to i8**), align 4, !tbaa !38
  %890 = tail call i8* @halide_opencl_get_symbol(i8* %0, i8* getelementptr inbounds ([18 x i8], [18 x i8]* @"??_C@_0BC@BAEGHFLL@clEnqueueMapImage?$AA@", i32 0, i32 0)) #7
  %891 = icmp eq i8* %890, null
  br i1 %891, label %892, label %911

892:                                              ; preds = %889
  %893 = tail call i8* @malloc(i32 1024) #7
  %894 = icmp eq i8* %893, null
  br i1 %894, label %897, label %895

895:                                              ; preds = %892
  %896 = getelementptr inbounds i8, i8* %893, i32 1023
  store i8 0, i8* %896, align 1, !tbaa !37
  br label %897

897:                                              ; preds = %895, %892
  %898 = phi i8* [ %896, %895 ], [ null, %892 ]
  %899 = tail call i8* @halide_string_to_string(i8* %893, i8* %898, i8* nonnull getelementptr inbounds ([23 x i8], [23 x i8]* @"??_C@_0BH@JIGFLJEL@OpenCL?5API?5not?5found?3?5?$AA@", i32 0, i32 0)) #7
  %900 = tail call i8* @halide_string_to_string(i8* %899, i8* %898, i8* nonnull getelementptr inbounds ([18 x i8], [18 x i8]* @"??_C@_0BC@BAEGHFLL@clEnqueueMapImage?$AA@", i32 0, i32 0)) #7
  %901 = tail call i8* @halide_string_to_string(i8* %900, i8* %898, i8* nonnull getelementptr inbounds ([2 x i8], [2 x i8]* @"??_C@_01EEMJAFIK@?6?$AA@", i32 0, i32 0)) #7
  br i1 %894, label %902, label %903

902:                                              ; preds = %897
  tail call void @halide_error(i8* %0, i8* getelementptr inbounds ([35 x i8], [35 x i8]* @"??_C@_0CD@IKIJNBLF@Printer?5buffer?5allocation?5failed@", i32 0, i32 0)) #7
  br label %910

903:                                              ; preds = %897
  %904 = ptrtoint i8* %901 to i32
  %905 = ptrtoint i8* %893 to i32
  %906 = sub i32 1, %905
  %907 = add i32 %906, %904
  %908 = sext i32 %907 to i64
  %909 = tail call i32 @halide_msan_annotate_memory_is_initialized(i8* %0, i8* nonnull %893, i64 %908) #7
  tail call void @halide_error(i8* %0, i8* nonnull %893) #7
  br label %910

910:                                              ; preds = %903, %902
  tail call void @free(i8* %893) #7
  br label %911

911:                                              ; preds = %889, %910
  store i8* %890, i8** bitcast (i8* (%struct._cl_command_queue*, %struct._cl_mem*, i32, i64, i32*, i32*, i32*, i32*, i32, %struct._cl_event**, %struct._cl_event**, i32*)** @"?clEnqueueMapImage@OpenCL@Internal@Runtime@Halide@@3P6GPAXPAU_cl_command_queue@@PAU_cl_mem@@I_KPBI3PAI4IPBQAU_cl_event@@PAPAU7@PAH@ZA" to i8**), align 4, !tbaa !38
  %912 = tail call i8* @halide_opencl_get_symbol(i8* %0, i8* getelementptr inbounds ([24 x i8], [24 x i8]* @"??_C@_0BI@DHNIPHDC@clEnqueueUnmapMemObject?$AA@", i32 0, i32 0)) #7
  %913 = icmp eq i8* %912, null
  br i1 %913, label %914, label %933

914:                                              ; preds = %911
  %915 = tail call i8* @malloc(i32 1024) #7
  %916 = icmp eq i8* %915, null
  br i1 %916, label %919, label %917

917:                                              ; preds = %914
  %918 = getelementptr inbounds i8, i8* %915, i32 1023
  store i8 0, i8* %918, align 1, !tbaa !37
  br label %919

919:                                              ; preds = %917, %914
  %920 = phi i8* [ %918, %917 ], [ null, %914 ]
  %921 = tail call i8* @halide_string_to_string(i8* %915, i8* %920, i8* nonnull getelementptr inbounds ([23 x i8], [23 x i8]* @"??_C@_0BH@JIGFLJEL@OpenCL?5API?5not?5found?3?5?$AA@", i32 0, i32 0)) #7
  %922 = tail call i8* @halide_string_to_string(i8* %921, i8* %920, i8* nonnull getelementptr inbounds ([24 x i8], [24 x i8]* @"??_C@_0BI@DHNIPHDC@clEnqueueUnmapMemObject?$AA@", i32 0, i32 0)) #7
  %923 = tail call i8* @halide_string_to_string(i8* %922, i8* %920, i8* nonnull getelementptr inbounds ([2 x i8], [2 x i8]* @"??_C@_01EEMJAFIK@?6?$AA@", i32 0, i32 0)) #7
  br i1 %916, label %924, label %925

924:                                              ; preds = %919
  tail call void @halide_error(i8* %0, i8* getelementptr inbounds ([35 x i8], [35 x i8]* @"??_C@_0CD@IKIJNBLF@Printer?5buffer?5allocation?5failed@", i32 0, i32 0)) #7
  br label %932

925:                                              ; preds = %919
  %926 = ptrtoint i8* %923 to i32
  %927 = ptrtoint i8* %915 to i32
  %928 = sub i32 1, %927
  %929 = add i32 %928, %926
  %930 = sext i32 %929 to i64
  %931 = tail call i32 @halide_msan_annotate_memory_is_initialized(i8* %0, i8* nonnull %915, i64 %930) #7
  tail call void @halide_error(i8* %0, i8* nonnull %915) #7
  br label %932

932:                                              ; preds = %925, %924
  tail call void @free(i8* %915) #7
  br label %933

933:                                              ; preds = %911, %932
  store i8* %912, i8** bitcast (i32 (%struct._cl_command_queue*, %struct._cl_mem*, i8*, i32, %struct._cl_event**, %struct._cl_event**)** @"?clEnqueueUnmapMemObject@OpenCL@Internal@Runtime@Halide@@3P6GHPAU_cl_command_queue@@PAU_cl_mem@@PAXIPBQAU_cl_event@@PAPAU7@@ZA" to i8**), align 4, !tbaa !38
  %934 = tail call i8* @halide_opencl_get_symbol(i8* %0, i8* getelementptr inbounds ([23 x i8], [23 x i8]* @"??_C@_0BH@NNEKHLGD@clEnqueueNDRangeKernel?$AA@", i32 0, i32 0)) #7
  %935 = icmp eq i8* %934, null
  br i1 %935, label %936, label %955

936:                                              ; preds = %933
  %937 = tail call i8* @malloc(i32 1024) #7
  %938 = icmp eq i8* %937, null
  br i1 %938, label %941, label %939

939:                                              ; preds = %936
  %940 = getelementptr inbounds i8, i8* %937, i32 1023
  store i8 0, i8* %940, align 1, !tbaa !37
  br label %941

941:                                              ; preds = %939, %936
  %942 = phi i8* [ %940, %939 ], [ null, %936 ]
  %943 = tail call i8* @halide_string_to_string(i8* %937, i8* %942, i8* nonnull getelementptr inbounds ([23 x i8], [23 x i8]* @"??_C@_0BH@JIGFLJEL@OpenCL?5API?5not?5found?3?5?$AA@", i32 0, i32 0)) #7
  %944 = tail call i8* @halide_string_to_string(i8* %943, i8* %942, i8* nonnull getelementptr inbounds ([23 x i8], [23 x i8]* @"??_C@_0BH@NNEKHLGD@clEnqueueNDRangeKernel?$AA@", i32 0, i32 0)) #7
  %945 = tail call i8* @halide_string_to_string(i8* %944, i8* %942, i8* nonnull getelementptr inbounds ([2 x i8], [2 x i8]* @"??_C@_01EEMJAFIK@?6?$AA@", i32 0, i32 0)) #7
  br i1 %938, label %946, label %947

946:                                              ; preds = %941
  tail call void @halide_error(i8* %0, i8* getelementptr inbounds ([35 x i8], [35 x i8]* @"??_C@_0CD@IKIJNBLF@Printer?5buffer?5allocation?5failed@", i32 0, i32 0)) #7
  br label %954

947:                                              ; preds = %941
  %948 = ptrtoint i8* %945 to i32
  %949 = ptrtoint i8* %937 to i32
  %950 = sub i32 1, %949
  %951 = add i32 %950, %948
  %952 = sext i32 %951 to i64
  %953 = tail call i32 @halide_msan_annotate_memory_is_initialized(i8* %0, i8* nonnull %937, i64 %952) #7
  tail call void @halide_error(i8* %0, i8* nonnull %937) #7
  br label %954

954:                                              ; preds = %947, %946
  tail call void @free(i8* %937) #7
  br label %955

955:                                              ; preds = %933, %954
  store i8* %934, i8** bitcast (i32 (%struct._cl_command_queue*, %struct._cl_kernel*, i32, i32*, i32*, i32*, i32, %struct._cl_event**, %struct._cl_event**)** @"?clEnqueueNDRangeKernel@OpenCL@Internal@Runtime@Halide@@3P6GHPAU_cl_command_queue@@PAU_cl_kernel@@IPBI22IPBQAU_cl_event@@PAPAU7@@ZA" to i8**), align 4, !tbaa !38
  ret void
}

declare extern_weak void @halide_print(i8*, i8*) local_unnamed_addr #2

declare dso_local void @abort() local_unnamed_addr #2

; Function Attrs: nounwind
define weak dso_local void @halide_opencl_set_platform_name(i8* %0) local_unnamed_addr #4 {
  br label %2

2:                                                ; preds = %2, %1
  %3 = atomicrmw volatile xchg i8* @"?platform_name_lock@OpenCL@Internal@Runtime@Halide@@3DA", i8 1 acquire
  %4 = icmp eq i8 %3, 0
  br i1 %4, label %5, label %2, !llvm.loop !39

5:                                                ; preds = %2
  %6 = icmp eq i8* %0, null
  br i1 %6, label %9, label %7

7:                                                ; preds = %5
  %8 = tail call i8* @strncpy(i8* getelementptr inbounds ([256 x i8], [256 x i8]* @"?platform_name@OpenCL@Internal@Runtime@Halide@@3PADA", i32 0, i32 0), i8* nonnull %0, i32 256) #7
  br label %9

9:                                                ; preds = %5, %7
  %10 = phi i8* [ getelementptr inbounds ([256 x i8], [256 x i8]* @"?platform_name@OpenCL@Internal@Runtime@Halide@@3PADA", i32 0, i32 255), %7 ], [ getelementptr inbounds ([256 x i8], [256 x i8]* @"?platform_name@OpenCL@Internal@Runtime@Halide@@3PADA", i32 0, i32 0), %5 ]
  store i8 0, i8* %10, align 1, !tbaa !37
  store i8 1, i8* @"?platform_name_initialized@OpenCL@Internal@Runtime@Halide@@3_NA", align 1, !tbaa !40
  store atomic volatile i8 0, i8* @"?platform_name_lock@OpenCL@Internal@Runtime@Halide@@3DA" release, align 1
  ret void
}

; Function Attrs: nounwind
define weak dso_local i8* @halide_opencl_get_platform_name(i8* %0) local_unnamed_addr #4 {
  br label %2

2:                                                ; preds = %2, %1
  %3 = atomicrmw volatile xchg i8* @"?platform_name_lock@OpenCL@Internal@Runtime@Halide@@3DA", i8 1 acquire
  %4 = icmp eq i8 %3, 0
  br i1 %4, label %5, label %2, !llvm.loop !39

5:                                                ; preds = %2
  %6 = load i8, i8* @"?platform_name_initialized@OpenCL@Internal@Runtime@Halide@@3_NA", align 1, !tbaa !40, !range !42
  %7 = icmp eq i8 %6, 0
  br i1 %7, label %8, label %15

8:                                                ; preds = %5
  %9 = tail call i8* @getenv(i8* getelementptr inbounds ([21 x i8], [21 x i8]* @"??_C@_0BF@IKKCGBEB@HL_OCL_PLATFORM_NAME?$AA@", i32 0, i32 0)) #7
  %10 = icmp eq i8* %9, null
  br i1 %10, label %13, label %11

11:                                               ; preds = %8
  %12 = tail call i8* @strncpy(i8* getelementptr inbounds ([256 x i8], [256 x i8]* @"?platform_name@OpenCL@Internal@Runtime@Halide@@3PADA", i32 0, i32 0), i8* nonnull %9, i32 256) #7
  br label %13

13:                                               ; preds = %8, %11
  %14 = phi i8* [ getelementptr inbounds ([256 x i8], [256 x i8]* @"?platform_name@OpenCL@Internal@Runtime@Halide@@3PADA", i32 0, i32 255), %11 ], [ getelementptr inbounds ([256 x i8], [256 x i8]* @"?platform_name@OpenCL@Internal@Runtime@Halide@@3PADA", i32 0, i32 0), %8 ]
  store i8 0, i8* %14, align 1, !tbaa !37
  store i8 1, i8* @"?platform_name_initialized@OpenCL@Internal@Runtime@Halide@@3_NA", align 1, !tbaa !40
  br label %15

15:                                               ; preds = %5, %13
  store atomic volatile i8 0, i8* @"?platform_name_lock@OpenCL@Internal@Runtime@Halide@@3DA" release, align 1
  ret i8* getelementptr inbounds ([256 x i8], [256 x i8]* @"?platform_name@OpenCL@Internal@Runtime@Halide@@3PADA", i32 0, i32 0)
}

; Function Attrs: nounwind
define weak dso_local void @halide_opencl_set_device_type(i8* %0) local_unnamed_addr #4 {
  br label %2

2:                                                ; preds = %2, %1
  %3 = atomicrmw volatile xchg i8* @"?device_type_lock@OpenCL@Internal@Runtime@Halide@@3DA", i8 1 acquire
  %4 = icmp eq i8 %3, 0
  br i1 %4, label %5, label %2, !llvm.loop !39

5:                                                ; preds = %2
  %6 = icmp eq i8* %0, null
  br i1 %6, label %9, label %7

7:                                                ; preds = %5
  %8 = tail call i8* @strncpy(i8* getelementptr inbounds ([256 x i8], [256 x i8]* @"?device_type@OpenCL@Internal@Runtime@Halide@@3PADA", i32 0, i32 0), i8* nonnull %0, i32 256) #7
  br label %9

9:                                                ; preds = %5, %7
  %10 = phi i8* [ getelementptr inbounds ([256 x i8], [256 x i8]* @"?device_type@OpenCL@Internal@Runtime@Halide@@3PADA", i32 0, i32 255), %7 ], [ getelementptr inbounds ([256 x i8], [256 x i8]* @"?device_type@OpenCL@Internal@Runtime@Halide@@3PADA", i32 0, i32 0), %5 ]
  store i8 0, i8* %10, align 1, !tbaa !37
  store i8 1, i8* @"?device_type_initialized@OpenCL@Internal@Runtime@Halide@@3_NA", align 1, !tbaa !40
  store atomic volatile i8 0, i8* @"?device_type_lock@OpenCL@Internal@Runtime@Halide@@3DA" release, align 1
  ret void
}

; Function Attrs: nounwind
define weak dso_local i8* @halide_opencl_get_device_type(i8* %0) local_unnamed_addr #4 {
  br label %2

2:                                                ; preds = %2, %1
  %3 = atomicrmw volatile xchg i8* @"?device_type_lock@OpenCL@Internal@Runtime@Halide@@3DA", i8 1 acquire
  %4 = icmp eq i8 %3, 0
  br i1 %4, label %5, label %2, !llvm.loop !39

5:                                                ; preds = %2
  %6 = load i8, i8* @"?device_type_initialized@OpenCL@Internal@Runtime@Halide@@3_NA", align 1, !tbaa !40, !range !42
  %7 = icmp eq i8 %6, 0
  br i1 %7, label %8, label %15

8:                                                ; preds = %5
  %9 = tail call i8* @getenv(i8* getelementptr inbounds ([19 x i8], [19 x i8]* @"??_C@_0BD@PBIHOGAH@HL_OCL_DEVICE_TYPE?$AA@", i32 0, i32 0)) #7
  %10 = icmp eq i8* %9, null
  br i1 %10, label %13, label %11

11:                                               ; preds = %8
  %12 = tail call i8* @strncpy(i8* getelementptr inbounds ([256 x i8], [256 x i8]* @"?device_type@OpenCL@Internal@Runtime@Halide@@3PADA", i32 0, i32 0), i8* nonnull %9, i32 256) #7
  br label %13

13:                                               ; preds = %8, %11
  %14 = phi i8* [ getelementptr inbounds ([256 x i8], [256 x i8]* @"?device_type@OpenCL@Internal@Runtime@Halide@@3PADA", i32 0, i32 255), %11 ], [ getelementptr inbounds ([256 x i8], [256 x i8]* @"?device_type@OpenCL@Internal@Runtime@Halide@@3PADA", i32 0, i32 0), %8 ]
  store i8 0, i8* %14, align 1, !tbaa !37
  store i8 1, i8* @"?device_type_initialized@OpenCL@Internal@Runtime@Halide@@3_NA", align 1, !tbaa !40
  br label %15

15:                                               ; preds = %5, %13
  store atomic volatile i8 0, i8* @"?device_type_lock@OpenCL@Internal@Runtime@Halide@@3DA" release, align 1
  ret i8* getelementptr inbounds ([256 x i8], [256 x i8]* @"?device_type@OpenCL@Internal@Runtime@Halide@@3PADA", i32 0, i32 0)
}

; Function Attrs: nounwind
define weak dso_local void @halide_opencl_set_build_options(i8* %0) local_unnamed_addr #4 {
  br label %2

2:                                                ; preds = %2, %1
  %3 = atomicrmw volatile xchg i8* @"?build_options_lock@OpenCL@Internal@Runtime@Halide@@3DA", i8 1 acquire
  %4 = icmp eq i8 %3, 0
  br i1 %4, label %5, label %2, !llvm.loop !39

5:                                                ; preds = %2
  %6 = icmp eq i8* %0, null
  br i1 %6, label %9, label %7

7:                                                ; preds = %5
  %8 = tail call i8* @strncpy(i8* getelementptr inbounds ([1024 x i8], [1024 x i8]* @"?build_options@OpenCL@Internal@Runtime@Halide@@3PADA", i32 0, i32 0), i8* nonnull %0, i32 1024) #7
  br label %9

9:                                                ; preds = %5, %7
  %10 = phi i8* [ getelementptr inbounds ([1024 x i8], [1024 x i8]* @"?build_options@OpenCL@Internal@Runtime@Halide@@3PADA", i32 0, i32 1023), %7 ], [ getelementptr inbounds ([1024 x i8], [1024 x i8]* @"?build_options@OpenCL@Internal@Runtime@Halide@@3PADA", i32 0, i32 0), %5 ]
  store i8 0, i8* %10, align 1, !tbaa !37
  store i8 1, i8* @"?build_options_initialized@OpenCL@Internal@Runtime@Halide@@3_NA", align 1, !tbaa !40
  store atomic volatile i8 0, i8* @"?build_options_lock@OpenCL@Internal@Runtime@Halide@@3DA" release, align 1
  ret void
}

; Function Attrs: nounwind
define weak dso_local i8* @halide_opencl_get_build_options(i8* %0) local_unnamed_addr #4 {
  br label %2

2:                                                ; preds = %2, %1
  %3 = atomicrmw volatile xchg i8* @"?build_options_lock@OpenCL@Internal@Runtime@Halide@@3DA", i8 1 acquire
  %4 = icmp eq i8 %3, 0
  br i1 %4, label %5, label %2, !llvm.loop !39

5:                                                ; preds = %2
  %6 = load i8, i8* @"?build_options_initialized@OpenCL@Internal@Runtime@Halide@@3_NA", align 1, !tbaa !40, !range !42
  %7 = icmp eq i8 %6, 0
  br i1 %7, label %8, label %15

8:                                                ; preds = %5
  %9 = tail call i8* @getenv(i8* getelementptr inbounds ([21 x i8], [21 x i8]* @"??_C@_0BF@EDLBHNBE@HL_OCL_BUILD_OPTIONS?$AA@", i32 0, i32 0)) #7
  %10 = icmp eq i8* %9, null
  br i1 %10, label %13, label %11

11:                                               ; preds = %8
  %12 = tail call i8* @strncpy(i8* getelementptr inbounds ([1024 x i8], [1024 x i8]* @"?build_options@OpenCL@Internal@Runtime@Halide@@3PADA", i32 0, i32 0), i8* nonnull %9, i32 1024) #7
  br label %13

13:                                               ; preds = %8, %11
  %14 = phi i8* [ getelementptr inbounds ([1024 x i8], [1024 x i8]* @"?build_options@OpenCL@Internal@Runtime@Halide@@3PADA", i32 0, i32 1023), %11 ], [ getelementptr inbounds ([1024 x i8], [1024 x i8]* @"?build_options@OpenCL@Internal@Runtime@Halide@@3PADA", i32 0, i32 0), %8 ]
  store i8 0, i8* %14, align 1, !tbaa !37
  store i8 1, i8* @"?build_options_initialized@OpenCL@Internal@Runtime@Halide@@3_NA", align 1, !tbaa !40
  br label %15

15:                                               ; preds = %5, %13
  store atomic volatile i8 0, i8* @"?build_options_lock@OpenCL@Internal@Runtime@Halide@@3DA" release, align 1
  ret i8* getelementptr inbounds ([1024 x i8], [1024 x i8]* @"?build_options@OpenCL@Internal@Runtime@Halide@@3PADA", i32 0, i32 0)
}

; Function Attrs: nounwind mustprogress
define weak dso_local i32 @halide_acquire_cl_context(i8* %0, %struct._cl_context** %1, %struct._cl_command_queue** %2, i1 zeroext %3) local_unnamed_addr #0 {
  %5 = icmp eq %struct._cl_context** %1, null
  br i1 %5, label %6, label %7

6:                                                ; preds = %4
  tail call void @halide_print(i8* %0, i8* getelementptr inbounds ([108 x i8], [108 x i8]* @"??_C@_0GM@KAFOONGG@?1media?1maaz?1Data?1Repos?1rake?1Hali@", i32 0, i32 0)) #7
  tail call void @abort() #7
  br label %7

7:                                                ; preds = %6, %4
  %8 = icmp eq %struct._cl_command_queue** %2, null
  br i1 %8, label %9, label %10

9:                                                ; preds = %7
  tail call void @halide_print(i8* %0, i8* getelementptr inbounds ([106 x i8], [106 x i8]* @"??_C@_0GK@HOCNIAFI@?1media?1maaz?1Data?1Repos?1rake?1Hali@", i32 0, i32 0)) #7
  tail call void @abort() #7
  br label %10

10:                                               ; preds = %9, %7
  br label %11

11:                                               ; preds = %10, %11
  %12 = atomicrmw volatile xchg i8* @"?thread_lock@OpenCL@Internal@Runtime@Halide@@3DC", i8 1 acquire
  %13 = icmp eq i8 %12, 0
  br i1 %13, label %14, label %11, !llvm.loop !43

14:                                               ; preds = %11
  %15 = load %struct._cl_context*, %struct._cl_context** @"?context@OpenCL@Internal@Runtime@Halide@@3PAU_cl_context@@A", align 4, !tbaa !38
  %16 = icmp eq %struct._cl_context* %15, null
  %17 = and i1 %16, %3
  br i1 %17, label %18, label %24

18:                                               ; preds = %14
  %19 = tail call i32 @"?create_opencl_context@OpenCL@Internal@Runtime@Halide@@YAHPAXPAPAU_cl_context@@PAPAU_cl_command_queue@@@Z"(i8* %0, %struct._cl_context** nonnull @"?context@OpenCL@Internal@Runtime@Halide@@3PAU_cl_context@@A", %struct._cl_command_queue** nonnull @"?command_queue@OpenCL@Internal@Runtime@Halide@@3PAU_cl_command_queue@@A") #8
  %20 = icmp eq i32 %19, 0
  br i1 %20, label %21, label %23

21:                                               ; preds = %18
  %22 = load %struct._cl_context*, %struct._cl_context** @"?context@OpenCL@Internal@Runtime@Halide@@3PAU_cl_context@@A", align 4, !tbaa !38
  br label %24

23:                                               ; preds = %18
  store atomic volatile i8 0, i8* @"?thread_lock@OpenCL@Internal@Runtime@Halide@@3DC" release, align 1
  br label %27

24:                                               ; preds = %21, %14
  %25 = phi %struct._cl_context* [ %22, %21 ], [ %15, %14 ]
  store %struct._cl_context* %25, %struct._cl_context** %1, align 4, !tbaa !38
  %26 = load %struct._cl_command_queue*, %struct._cl_command_queue** @"?command_queue@OpenCL@Internal@Runtime@Halide@@3PAU_cl_command_queue@@A", align 4, !tbaa !38
  store %struct._cl_command_queue* %26, %struct._cl_command_queue** %2, align 4, !tbaa !38
  br label %27

27:                                               ; preds = %23, %24
  %28 = phi i32 [ 0, %24 ], [ %19, %23 ]
  ret i32 %28
}

; Function Attrs: nounwind
define weak dso_local i32 @"?create_opencl_context@OpenCL@Internal@Runtime@Halide@@YAHPAXPAPAU_cl_context@@PAPAU_cl_command_queue@@@Z"(i8* %0, %struct._cl_context** %1, %struct._cl_command_queue** %2) local_unnamed_addr #4 {
  %4 = alloca i32, align 4
  %5 = alloca [4 x %struct._cl_platform_id*], align 4
  %6 = alloca i32, align 4
  %7 = alloca %"class.Halide::Runtime::Internal::(anonymous namespace)::Printer", align 4
  %8 = alloca [256 x i8], align 1
  %9 = alloca [128 x %struct._cl_device_id*], align 4
  %10 = alloca i32, align 4
  %11 = alloca %"class.Halide::Runtime::Internal::(anonymous namespace)::Printer", align 4
  %12 = alloca i32, align 4
  %13 = alloca %struct._cl_device_id*, align 4
  %14 = alloca [3 x i32], align 4
  %15 = alloca %"class.Halide::Runtime::Internal::(anonymous namespace)::Printer", align 4
  %16 = alloca %"class.Halide::Runtime::Internal::(anonymous namespace)::Printer", align 4
  %17 = icmp eq %struct._cl_context** %1, null
  br i1 %17, label %21, label %18

18:                                               ; preds = %3
  %19 = load %struct._cl_context*, %struct._cl_context** %1, align 4, !tbaa !38
  %20 = icmp eq %struct._cl_context* %19, null
  br i1 %20, label %22, label %21

21:                                               ; preds = %18, %3
  tail call void @halide_print(i8* %0, i8* getelementptr inbounds ([127 x i8], [127 x i8]* @"??_C@_0HP@GFCJAEGO@?1media?1maaz?1Data?1Repos?1rake?1Hali@", i32 0, i32 0)) #7
  tail call void @abort() #7
  br label %22

22:                                               ; preds = %21, %18
  %23 = icmp eq %struct._cl_command_queue** %2, null
  br i1 %23, label %27, label %24

24:                                               ; preds = %22
  %25 = load %struct._cl_command_queue*, %struct._cl_command_queue** %2, align 4, !tbaa !38
  %26 = icmp eq %struct._cl_command_queue* %25, null
  br i1 %26, label %28, label %27

27:                                               ; preds = %24, %22
  tail call void @halide_print(i8* %0, i8* getelementptr inbounds ([123 x i8], [123 x i8]* @"??_C@_0HL@BLCNEOOG@?1media?1maaz?1Data?1Repos?1rake?1Hali@", i32 0, i32 0)) #7
  tail call void @abort() #7
  br label %28

28:                                               ; preds = %24, %27
  %29 = load i32 (i32, %struct._cl_platform_id**, i32*)*, i32 (i32, %struct._cl_platform_id**, i32*)** @"?clGetPlatformIDs@OpenCL@Internal@Runtime@Halide@@3P6GHIPAPAU_cl_platform_id@@PAI@ZA", align 4, !tbaa !38
  %30 = icmp eq i32 (i32, %struct._cl_platform_id**, i32*)* %29, null
  br i1 %30, label %31, label %46

31:                                               ; preds = %28
  %32 = tail call i8* @malloc(i32 1024) #7
  %33 = icmp eq i8* %32, null
  br i1 %33, label %34, label %36

34:                                               ; preds = %31
  %35 = tail call i8* @halide_string_to_string(i8* %32, i8* null, i8* nonnull getelementptr inbounds ([32 x i8], [32 x i8]* @"??_C@_0CA@HGCNAKI@CL?3?5clGetPlatformIDs?5not?5found?6?$AA@", i32 0, i32 0)) #7
  tail call void @halide_error(i8* %0, i8* getelementptr inbounds ([35 x i8], [35 x i8]* @"??_C@_0CD@IKIJNBLF@Printer?5buffer?5allocation?5failed@", i32 0, i32 0)) #7
  br label %45

36:                                               ; preds = %31
  %37 = getelementptr inbounds i8, i8* %32, i32 1023
  store i8 0, i8* %37, align 1, !tbaa !37
