; ModuleID = '/media/maaz/Data/Repos/rake/Halide-master-d48fbde/src/runtime/qurt_threads.cpp'
source_filename = "/media/maaz/Data/Repos/rake/Halide-master-d48fbde/src/runtime/qurt_threads.cpp"
target datalayout = "e-m:e-v128:32-v16:16-v32:32-v96:32-n8:16:32:64-S128"
target triple = "le64-unknown-unknown-unknown"

%"struct.Halide::Runtime::Internal::work_queue_t" = type { %struct.halide_mutex, i32, i32, %"struct.Halide::Runtime::Internal::work"*, i32, i32, i32, [4 x i8], %struct.halide_cond, %struct.halide_cond, %struct.halide_cond, i32, i32, [256 x %struct.halide_thread*], i8, i8, i32 }
%struct.halide_mutex = type { [1 x i64] }
%"struct.Halide::Runtime::Internal::work" = type { %struct.halide_parallel_task_t, i32 (i8*, i32, i8*)*, %"struct.Halide::Runtime::Internal::work"*, %"struct.Halide::Runtime::Internal::work"*, i32, %"struct.Halide::Runtime::Internal::work"*, i32, i8*, i32, i32, i32, i8 }
%struct.halide_parallel_task_t = type { i32 (i8*, i32, i32, i8*, i8*)*, i8*, i8*, %struct.halide_semaphore_acquire_t*, i32, i32, i32, i32, i8, [7 x i8] }
%struct.halide_semaphore_acquire_t = type { %struct.halide_semaphore_t*, i32, [4 x i8] }
%struct.halide_semaphore_t = type { [2 x i64] }
%struct.halide_cond = type { [1 x i64] }
%struct.halide_thread = type { i32 }
%struct._qurt_thread_attr = type { [16 x i8], i8, i8, i16, i8, i8, i16, i32, i8* }
%"class.Halide::Runtime::Internal::Synchronization::word_lock" = type { i64 }
%"struct.Halide::Runtime::Internal::Synchronization::word_lock_queue_data" = type { %"struct.Halide::Runtime::Internal::Synchronization::thread_parker", %"struct.Halide::Runtime::Internal::Synchronization::word_lock_queue_data"*, %"struct.Halide::Runtime::Internal::Synchronization::word_lock_queue_data"*, %"struct.Halide::Runtime::Internal::Synchronization::word_lock_queue_data"* }
%"struct.Halide::Runtime::Internal::Synchronization::thread_parker" = type <{ %union.qurt_mutex_aligned8, %union.qurt_cond_t, i8, [7 x i8] }>
%union.qurt_mutex_aligned8 = type { %struct.anon }
%struct.anon = type { i32, i32, i32, i32 }
%union.qurt_cond_t = type { %struct.anon.0 }
%struct.anon.0 = type { i32, i32, i32, i32 }
%"class.Halide::Runtime::Internal::Synchronization::spin_control" = type { i32 }
%"struct.Halide::Runtime::Internal::Synchronization::hash_bucket" = type { %"class.Halide::Runtime::Internal::Synchronization::word_lock", %"struct.Halide::Runtime::Internal::Synchronization::queue_data"*, %"struct.Halide::Runtime::Internal::Synchronization::queue_data"* }
%"struct.Halide::Runtime::Internal::Synchronization::queue_data" = type { %"struct.Halide::Runtime::Internal::Synchronization::thread_parker", i64, %"struct.Halide::Runtime::Internal::Synchronization::queue_data"*, i64 }
%"struct.Halide::Runtime::Internal::Synchronization::bucket_pair" = type { %"struct.Halide::Runtime::Internal::Synchronization::hash_bucket"*, %"struct.Halide::Runtime::Internal::Synchronization::hash_bucket"* }
%"struct.Halide::Runtime::Internal::Synchronization::validate_action" = type { i8, [7 x i8], i64 }
%"struct.Halide::Runtime::Internal::Synchronization::parking_control" = type { i1 (i8*, %"struct.Halide::Runtime::Internal::Synchronization::validate_action"*)*, void (i8*)*, i64 (i8*, i32, i1)*, void (i8*, %"struct.Halide::Runtime::Internal::Synchronization::validate_action"*, i1, i1)* }
%"class.Halide::Runtime::Internal::Synchronization::fast_mutex" = type { i64 }
%"struct.Halide::Runtime::Internal::Synchronization::mutex_parking_control" = type { %"struct.Halide::Runtime::Internal::Synchronization::parking_control", i64* }
%"struct.Halide::Runtime::Internal::Synchronization::broadcast_parking_control" = type { %"struct.Halide::Runtime::Internal::Synchronization::parking_control", i64*, %"class.Halide::Runtime::Internal::Synchronization::fast_mutex"* }
%"struct.Halide::Runtime::Internal::Synchronization::signal_parking_control" = type { %"struct.Halide::Runtime::Internal::Synchronization::parking_control", i64*, %"class.Halide::Runtime::Internal::Synchronization::fast_mutex"* }
%"struct.Halide::Runtime::Internal::Synchronization::wait_parking_control" = type { %"struct.Halide::Runtime::Internal::Synchronization::parking_control", i64*, %"class.Halide::Runtime::Internal::Synchronization::fast_mutex"* }
%struct.halide_mutex_array = type { %struct.halide_mutex* }

@halide_qurt_default_thread_priority = weak dso_local local_unnamed_addr global i16 100, align 2, !dbg !0
@.str = private unnamed_addr constant [123 x i8] c"/media/maaz/Data/Repos/rake/Halide-master-d48fbde/src/runtime/synchronization_common.h:395 Assert failed: next != nullptr\0A\00", align 1
@_ZN6Halide7Runtime8Internal15Synchronization13table_storageE = weak dso_local global [24576 x i8] zeroinitializer, align 1, !dbg !316
@.str.1 = private unnamed_addr constant [15 x i8] c"HL_NUM_THREADS\00", align 1
@.str.2 = private unnamed_addr constant [14 x i8] c"HL_NUMTHREADS\00", align 1
@_ZN6Halide7Runtime8Internal10work_queueE = weak dso_local global %"struct.Halide::Runtime::Internal::work_queue_t" { %struct.halide_mutex zeroinitializer, i32 0, i32 0, %"struct.Halide::Runtime::Internal::work"* null, i32 0, i32 0, i32 0, [4 x i8] undef, %struct.halide_cond zeroinitializer, %struct.halide_cond zeroinitializer, %struct.halide_cond zeroinitializer, i32 0, i32 0, [256 x %struct.halide_thread*] zeroinitializer, i8 0, i8 0, i32 0 }, align 8, !dbg !323
@.str.3 = private unnamed_addr constant [256 x i8] c"/media/maaz/Data/Repos/rake/Halide-master-d48fbde/src/runtime/thread_pool_common.h:520 Assert failed: (min_threads <= ((task_parent->task.min_threads * task_parent->active_workers) - task_parent->threads_reserved)) && \22Logic error: thread over commit.\\n\22\0A\00", align 1
@_ZN6Halide7Runtime8Internal14custom_do_taskE = weak dso_local local_unnamed_addr global i32 (i8*, i32 (i8*, i32, i8*)*, i32, i8*)* @halide_default_do_task, align 8, !dbg !361
@_ZN6Halide7Runtime8Internal19custom_do_loop_taskE = weak dso_local local_unnamed_addr global i32 (i8*, i32 (i8*, i32, i32, i8*, i8*)*, i32, i32, i8*, i8*)* @halide_default_do_loop_task, align 8, !dbg !367
@_ZN6Halide7Runtime8Internal17custom_do_par_forE = weak dso_local local_unnamed_addr global i32 (i8*, i32 (i8*, i32, i8*)*, i32, i32, i8*)* @halide_default_do_par_for, align 8, !dbg !373
@_ZN6Halide7Runtime8Internal24custom_do_parallel_tasksE = weak dso_local local_unnamed_addr global i32 (i8*, i32, %struct.halide_parallel_task_t*, i8*)* @halide_default_do_parallel_tasks, align 8, !dbg !379
@_ZN6Halide7Runtime8Internal21custom_semaphore_initE = weak dso_local local_unnamed_addr global i32 (%struct.halide_semaphore_t*, i32)* @halide_default_semaphore_init, align 8, !dbg !386
@_ZN6Halide7Runtime8Internal28custom_semaphore_try_acquireE = weak dso_local local_unnamed_addr global i1 (%struct.halide_semaphore_t*, i32)* @halide_default_semaphore_try_acquire, align 8, !dbg !392
@_ZN6Halide7Runtime8Internal24custom_semaphore_releaseE = weak dso_local local_unnamed_addr global i32 (%struct.halide_semaphore_t*, i32)* @halide_default_semaphore_release, align 8, !dbg !398
@.str.4 = private unnamed_addr constant [38 x i8] c"halide_set_num_threads: must be >= 0.\00", align 1
@.str.6 = private unnamed_addr constant [118 x i8] c"/media/maaz/Data/Repos/rake/Halide-master-d48fbde/src/runtime/synchronization_common.h:1116 Assert failed: val & 0x1\0A\00", align 1
@.str.7 = private unnamed_addr constant [179 x i8] c"/media/maaz/Data/Repos/rake/Halide-master-d48fbde/src/runtime/thread_pool_common.h:153 Assert failed: bytes == limit && \22Logic error in thread pool work queue initialization.\\n\22\0A\00", align 1
@llvm.global_dtors = appending global [1 x { i32, void ()*, i8* }] [{ i32, void ()*, i8* } { i32 65535, void ()* @halide_thread_pool_cleanup, i8* null }]

; Function Attrs: nounwind willreturn mustprogress
define weak dso_local i32 @halide_host_cpu_count() local_unnamed_addr #0 !dbg !412 {
  ret i32 4, !dbg !415
}

; Function Attrs: nounwind willreturn mustprogress
define weak dso_local void @halide_set_default_thread_priority(i32 %0) local_unnamed_addr #0 !dbg !416 {
  call void @llvm.dbg.value(metadata i32 %0, metadata !420, metadata !DIExpression()), !dbg !421
  %2 = icmp sgt i32 %0, 255, !dbg !422
  br i1 %2, label %5, label %3, !dbg !424

3:                                                ; preds = %1
  %4 = icmp slt i32 %0, 1, !dbg !425
  br i1 %4, label %8, label %5, !dbg !427

5:                                                ; preds = %1, %3
  %6 = phi i32 [ %0, %3 ], [ 255, %1 ]
  call void @llvm.dbg.value(metadata i32 %6, metadata !420, metadata !DIExpression()), !dbg !421
  %7 = trunc i32 %6 to i16, !dbg !428
  store i16 %7, i16* @halide_qurt_default_thread_priority, align 2, !dbg !429, !tbaa !430
  br label %8, !dbg !434

8:                                                ; preds = %3, %5
  ret void, !dbg !434
}

; Function Attrs: nofree nosync nounwind readnone speculatable willreturn
declare void @llvm.dbg.declare(metadata, metadata, metadata) #1

; Function Attrs: nounwind willreturn mustprogress
define weak dso_local zeroext i16 @halide_get_default_thread_priority() local_unnamed_addr #0 !dbg !435 {
  %1 = load i16, i16* @halide_qurt_default_thread_priority, align 2, !dbg !438, !tbaa !430
  ret i16 %1, !dbg !439
}

; Function Attrs: nounwind mustprogress
define weak dso_local %struct.halide_thread* @halide_spawn_thread(void (i8*)* %0, i8* %1) local_unnamed_addr #2 !dbg !440 {
  %3 = alloca %struct._qurt_thread_attr, align 8
  call void @llvm.dbg.value(metadata void (i8*)* %0, metadata !444, metadata !DIExpression()), !dbg !464
  call void @llvm.dbg.value(metadata i8* %1, metadata !445, metadata !DIExpression()), !dbg !464
  %4 = tail call zeroext i16 @halide_get_default_thread_priority() #6, !dbg !465
  call void @llvm.dbg.value(metadata i16 %4, metadata !446, metadata !DIExpression()), !dbg !464
  %5 = tail call i8* @malloc(i64 32) #7, !dbg !466
  call void @llvm.dbg.value(metadata i8* %5, metadata !447, metadata !DIExpression()), !dbg !464
  %6 = bitcast i8* %5 to void (i8*)**, !dbg !467
  store void (i8*)* %0, void (i8*)** %6, align 8, !dbg !468, !tbaa !469
  %7 = getelementptr inbounds i8, i8* %5, i64 8, !dbg !474
  %8 = bitcast i8* %7 to i8**, !dbg !474
  store i8* %1, i8** %8, align 8, !dbg !475, !tbaa !476
  %9 = tail call i8* @memalign(i64 128, i64 262144) #7, !dbg !477
  %10 = getelementptr inbounds i8, i8* %5, i64 16, !dbg !478
  %11 = bitcast i8* %10 to i8**, !dbg !478
  store i8* %9, i8** %11, align 8, !dbg !479, !tbaa !480
  %12 = getelementptr inbounds i8, i8* %5, i64 24, !dbg !481
  %13 = tail call i8* @memset(i8* nonnull %12, i32 0, i64 4) #7, !dbg !482
  %14 = getelementptr inbounds %struct._qurt_thread_attr, %struct._qurt_thread_attr* %3, i64 0, i32 0, i64 0, !dbg !483
  call void @llvm.lifetime.start.p0i8(i64 40, i8* nonnull %14) #8, !dbg !483
  call void @llvm.dbg.declare(metadata %struct._qurt_thread_attr* %3, metadata !448, metadata !DIExpression()), !dbg !484
  call void @llvm.dbg.value(metadata %struct._qurt_thread_attr* %3, metadata !485, metadata !DIExpression()), !dbg !491
  store i8 0, i8* %14, align 8, !dbg !493, !tbaa !494
  %15 = getelementptr inbounds %struct._qurt_thread_attr, %struct._qurt_thread_attr* %3, i64 0, i32 1, !dbg !495
  store i8 0, i8* %15, align 8, !dbg !496, !tbaa !497
  %16 = getelementptr inbounds %struct._qurt_thread_attr, %struct._qurt_thread_attr* %3, i64 0, i32 3, !dbg !499
  %17 = getelementptr inbounds %struct._qurt_thread_attr, %struct._qurt_thread_attr* %3, i64 0, i32 4, !dbg !500
  store i8 0, i8* %17, align 4, !dbg !501, !tbaa !502
  %18 = getelementptr inbounds %struct._qurt_thread_attr, %struct._qurt_thread_attr* %3, i64 0, i32 2, !dbg !503
  store i8 -1, i8* %18, align 1, !dbg !504, !tbaa !505
  %19 = getelementptr inbounds %struct._qurt_thread_attr, %struct._qurt_thread_attr* %3, i64 0, i32 5, !dbg !506
  store i8 -1, i8* %19, align 1, !dbg !507, !tbaa !508
  %20 = getelementptr inbounds %struct._qurt_thread_attr, %struct._qurt_thread_attr* %3, i64 0, i32 6, !dbg !509
  store i16 -2, i16* %20, align 2, !dbg !510, !tbaa !511
  %21 = getelementptr inbounds %struct._qurt_thread_attr, %struct._qurt_thread_attr* %3, i64 0, i32 7, !dbg !512
  %22 = getelementptr inbounds %struct._qurt_thread_attr, %struct._qurt_thread_attr* %3, i64 0, i32 8, !dbg !513
  %23 = load i8*, i8** %11, align 8, !dbg !514, !tbaa !480
  call void @llvm.dbg.value(metadata %struct._qurt_thread_attr* %3, metadata !515, metadata !DIExpression()), !dbg !521
  call void @llvm.dbg.value(metadata i8* %23, metadata !520, metadata !DIExpression()), !dbg !521
  store i8* %23, i8** %22, align 8, !dbg !523, !tbaa !524
  call void @llvm.dbg.value(metadata %struct._qurt_thread_attr* %3, metadata !525, metadata !DIExpression()), !dbg !531
  call void @llvm.dbg.value(metadata i32 262144, metadata !530, metadata !DIExpression()), !dbg !531
  store i32 262144, i32* %21, align 8, !dbg !533, !tbaa !534
  call void @llvm.dbg.value(metadata %struct._qurt_thread_attr* %3, metadata !535, metadata !DIExpression()), !dbg !541
  call void @llvm.dbg.value(metadata i16 %4, metadata !540, metadata !DIExpression()), !dbg !541
  store i16 %4, i16* %16, align 2, !dbg !543, !tbaa !544
  %24 = bitcast i8* %12 to i32*, !dbg !545
  %25 = call i32 @qurt_thread_create(i32* nonnull %24, %struct._qurt_thread_attr* nonnull %3, void (i8*)* nonnull @_ZN12_GLOBAL__N_119spawn_thread_helperEPv, i8* %5) #7, !dbg !546
  %26 = bitcast i8* %5 to %struct.halide_thread*, !dbg !547
  call void @llvm.lifetime.end.p0i8(i64 40, i8* nonnull %14) #8, !dbg !548
  ret %struct.halide_thread* %26, !dbg !549
}

; Function Attrs: argmemonly nofree nosync nounwind willreturn
declare void @llvm.lifetime.start.p0i8(i64 immarg, i8* nocapture) #3

declare !dbg !550 dso_local i8* @malloc(i64) local_unnamed_addr #4

declare !dbg !554 dso_local i8* @memalign(i64, i64) local_unnamed_addr #4

declare !dbg !557 dso_local i8* @memset(i8*, i32, i64) local_unnamed_addr #4

declare !dbg !560 dso_local i32 @qurt_thread_create(i32*, %struct._qurt_thread_attr*, void (i8*)*, i8*) local_unnamed_addr #4

; Function Attrs: nounwind mustprogress
define internal void @_ZN12_GLOBAL__N_119spawn_thread_helperEPv(i8* nocapture readonly %0) #2 !dbg !565 {
  call void @llvm.dbg.value(metadata i8* %0, metadata !567, metadata !DIExpression()), !dbg !569
  call void @llvm.dbg.value(metadata i8* %0, metadata !568, metadata !DIExpression()), !dbg !569
  %2 = bitcast i8* %0 to void (i8*)**, !dbg !570
  %3 = load void (i8*)*, void (i8*)** %2, align 8, !dbg !570, !tbaa !469
  %4 = getelementptr inbounds i8, i8* %0, i64 8, !dbg !571
  %5 = bitcast i8* %4 to i8**, !dbg !571
  %6 = load i8*, i8** %5, align 8, !dbg !571, !tbaa !476
  tail call void %3(i8* %6) #7, !dbg !572
  ret void, !dbg !573
}

; Function Attrs: argmemonly nofree nosync nounwind willreturn
declare void @llvm.lifetime.end.p0i8(i64 immarg, i8* nocapture) #3

; Function Attrs: nounwind mustprogress
define weak dso_local void @halide_join_thread(%struct.halide_thread* %0) local_unnamed_addr #2 !dbg !574 {
  %2 = alloca i32, align 4
  call void @llvm.dbg.value(metadata %struct.halide_thread* %0, metadata !578, metadata !DIExpression()), !dbg !581
  call void @llvm.dbg.value(metadata %struct.halide_thread* %0, metadata !579, metadata !DIExpression()), !dbg !581
  %3 = bitcast i32* %2 to i8*, !dbg !582
  call void @llvm.lifetime.start.p0i8(i64 4, i8* nonnull %3) #8, !dbg !582
  call void @llvm.dbg.value(metadata i32 0, metadata !580, metadata !DIExpression()), !dbg !581
  store i32 0, i32* %2, align 4, !dbg !583, !tbaa !584
  %4 = getelementptr inbounds %struct.halide_thread, %struct.halide_thread* %0, i64 6, i32 0, !dbg !585
  %5 = load i32, i32* %4, align 8, !dbg !585, !tbaa !586
  call void @llvm.dbg.value(metadata i32* %2, metadata !580, metadata !DIExpression(DW_OP_deref)), !dbg !581
  %6 = call i32 @qurt_thread_join(i32 %5, i32* nonnull %2) #7, !dbg !587
  %7 = getelementptr inbounds %struct.halide_thread, %struct.halide_thread* %0, i64 4, !dbg !588
  %8 = bitcast %struct.halide_thread* %7 to i8**, !dbg !588
  %9 = load i8*, i8** %8, align 8, !dbg !588, !tbaa !480
  call void @free(i8* %9) #7, !dbg !589
  %10 = bitcast %struct.halide_thread* %0 to i8*, !dbg !590
  call void @free(i8* %10) #7, !dbg !591
  call void @llvm.lifetime.end.p0i8(i64 4, i8* nonnull %3) #8, !dbg !592
  ret void, !dbg !592
}

declare !dbg !593 dso_local i32 @qurt_thread_join(i32, i32*) local_unnamed_addr #4

declare !dbg !597 dso_local void @free(i8*) local_unnamed_addr #4

; Function Attrs: nounwind
define weak dso_local void @_ZN6Halide7Runtime8Internal15Synchronization9word_lock9lock_fullEv(%"class.Halide::Runtime::Internal::Synchronization::word_lock"* nonnull dereferenceable(8) %0) local_unnamed_addr #5 align 2 !dbg !598 {
  %2 = alloca %"struct.Halide::Runtime::Internal::Synchronization::word_lock_queue_data", align 8
  call void @llvm.dbg.value(metadata %"class.Halide::Runtime::Internal::Synchronization::word_lock"* %0, metadata !600, metadata !DIExpression()), !dbg !622
  call void @llvm.dbg.value(metadata i32 40, metadata !602, metadata !DIExpression()), !dbg !622
  %3 = getelementptr inbounds %"class.Halide::Runtime::Internal::Synchronization::word_lock", %"class.Halide::Runtime::Internal::Synchronization::word_lock"* %0, i64 0, i32 0, !dbg !623
  call void @llvm.dbg.value(metadata i64* %3, metadata !624, metadata !DIExpression()), !dbg !634
  call void @llvm.dbg.value(metadata i64* undef, metadata !631, metadata !DIExpression()), !dbg !634
  %4 = load atomic i64, i64* %3 monotonic, align 8, !dbg !636
  %5 = bitcast %"struct.Halide::Runtime::Internal::Synchronization::word_lock_queue_data"* %2 to i8*
  %6 = getelementptr inbounds %"struct.Halide::Runtime::Internal::Synchronization::word_lock_queue_data", %"struct.Halide::Runtime::Internal::Synchronization::word_lock_queue_data"* %2, i64 0, i32 0, i32 2
  %7 = getelementptr inbounds %"struct.Halide::Runtime::Internal::Synchronization::word_lock_queue_data", %"struct.Halide::Runtime::Internal::Synchronization::word_lock_queue_data"* %2, i64 0, i32 0, i32 0
  %8 = getelementptr inbounds %"struct.Halide::Runtime::Internal::Synchronization::word_lock_queue_data", %"struct.Halide::Runtime::Internal::Synchronization::word_lock_queue_data"* %2, i64 0, i32 0, i32 1
  %9 = getelementptr inbounds %"struct.Halide::Runtime::Internal::Synchronization::word_lock_queue_data", %"struct.Halide::Runtime::Internal::Synchronization::word_lock_queue_data"* %2, i64 0, i32 1
  %10 = getelementptr inbounds %"struct.Halide::Runtime::Internal::Synchronization::word_lock_queue_data", %"struct.Halide::Runtime::Internal::Synchronization::word_lock_queue_data"* %2, i64 0, i32 2
  %11 = getelementptr inbounds %"struct.Halide::Runtime::Internal::Synchronization::word_lock_queue_data", %"struct.Halide::Runtime::Internal::Synchronization::word_lock_queue_data"* %2, i64 0, i32 3
  %12 = ptrtoint %"struct.Halide::Runtime::Internal::Synchronization::word_lock_queue_data"* %2 to i64
  br label %13, !dbg !637

13:                                               ; preds = %64, %1
  %14 = phi i64 [ %4, %1 ], [ %65, %64 ]
  %15 = phi i32 [ 40, %1 ], [ %66, %64 ]
  call void @llvm.dbg.value(metadata i32 %15, metadata !602, metadata !DIExpression()), !dbg !622
  call void @llvm.dbg.value(metadata i64 %14, metadata !614, metadata !DIExpression()), !dbg !622
  %16 = and i64 %14, 1, !dbg !638
  %17 = icmp eq i64 %16, 0, !dbg !639
  br i1 %17, label %18, label %29, !dbg !640

18:                                               ; preds = %13, %23
  %19 = phi i64 [ %24, %23 ], [ %14, %13 ]
  call void @llvm.dbg.value(metadata i64 %19, metadata !614, metadata !DIExpression()), !dbg !622
  call void @llvm.dbg.value(metadata i64 %19, metadata !614, metadata !DIExpression()), !dbg !622
  %20 = or i64 %19, 1, !dbg !641
  call void @llvm.dbg.value(metadata i64 %20, metadata !615, metadata !DIExpression()), !dbg !642
  call void @llvm.dbg.value(metadata i64* %3, metadata !643, metadata !DIExpression()), !dbg !650
  call void @llvm.dbg.value(metadata i64* undef, metadata !648, metadata !DIExpression()), !dbg !650
  call void @llvm.dbg.value(metadata i64* undef, metadata !649, metadata !DIExpression()), !dbg !650
  %21 = cmpxchg weak i64* %3, i64 %19, i64 %20 acquire monotonic, !dbg !653
  %22 = extractvalue { i64, i1 } %21, 1, !dbg !653
  br i1 %22, label %67, label %23, !dbg !653

23:                                               ; preds = %18
  %24 = extractvalue { i64, i1 } %21, 0, !dbg !653
  call void @llvm.dbg.value(metadata i32 %15, metadata !602, metadata !DIExpression()), !dbg !622
  call void @llvm.dbg.value(metadata i64 %24, metadata !614, metadata !DIExpression()), !dbg !622
  %25 = and i64 %24, 1, !dbg !638
  %26 = icmp eq i64 %25, 0, !dbg !639
  br i1 %26, label %18, label %27, !dbg !640

27:                                               ; preds = %23
  %28 = extractvalue { i64, i1 } %21, 0, !dbg !653
  br label %29, !dbg !654

29:                                               ; preds = %27, %13
  %30 = phi i64 [ %14, %13 ], [ %28, %27 ], !dbg !622
  %31 = icmp ugt i64 %30, 3, !dbg !654
  %32 = icmp sgt i32 %15, 0
  %33 = and i1 %31, %32, !dbg !656
  call void @llvm.dbg.value(metadata %"class.Halide::Runtime::Internal::Synchronization::spin_control"* undef, metadata !657, metadata !DIExpression()), !dbg !661
  br i1 %33, label %34, label %39, !dbg !656

34:                                               ; preds = %29
  call void @llvm.dbg.value(metadata i32 %15, metadata !602, metadata !DIExpression(DW_OP_constu, 1, DW_OP_minus, DW_OP_stack_value)), !dbg !622
  %35 = icmp sgt i32 %15, 1, !dbg !663
  br i1 %35, label %36, label %39, !dbg !664

36:                                               ; preds = %34
  %37 = add nsw i32 %15, -1, !dbg !665
  call void @llvm.dbg.value(metadata i32 %37, metadata !602, metadata !DIExpression()), !dbg !622
  call void @halide_thread_yield() #7, !dbg !668
  call void @llvm.dbg.value(metadata i64* %3, metadata !624, metadata !DIExpression()), !dbg !670
  call void @llvm.dbg.value(metadata i64* undef, metadata !631, metadata !DIExpression()), !dbg !670
  %38 = load atomic i64, i64* %3 monotonic, align 8, !dbg !672
  br label %64, !dbg !673

39:                                               ; preds = %34, %29
  %40 = phi i32 [ %15, %29 ], [ 0, %34 ], !dbg !622
  call void @llvm.dbg.value(metadata i32 %40, metadata !602, metadata !DIExpression()), !dbg !622
  call void @llvm.lifetime.start.p0i8(i64 64, i8* nonnull %5) #8, !dbg !674
  call void @llvm.dbg.declare(metadata %"struct.Halide::Runtime::Internal::Synchronization::word_lock_queue_data"* %2, metadata !619, metadata !DIExpression()), !dbg !675
  call void @llvm.dbg.value(metadata %"struct.Halide::Runtime::Internal::Synchronization::word_lock_queue_data"* %2, metadata !676, metadata !DIExpression()) #8, !dbg !679
  call void @llvm.dbg.value(metadata %"struct.Halide::Runtime::Internal::Synchronization::word_lock_queue_data"* %2, metadata !681, metadata !DIExpression()) #8, !dbg !685
  store i8 0, i8* %6, align 8, !dbg !687, !tbaa !688
  call void @qurt_mutex_init(%union.qurt_mutex_aligned8* nonnull %7) #7, !dbg !691
  call void @qurt_cond_init(%union.qurt_cond_t* nonnull %8) #7, !dbg !693
  store %"struct.Halide::Runtime::Internal::Synchronization::word_lock_queue_data"* null, %"struct.Halide::Runtime::Internal::Synchronization::word_lock_queue_data"** %9, align 8, !dbg !694, !tbaa !695
  store %"struct.Halide::Runtime::Internal::Synchronization::word_lock_queue_data"* null, %"struct.Halide::Runtime::Internal::Synchronization::word_lock_queue_data"** %10, align 8, !dbg !697, !tbaa !698
  store %"struct.Halide::Runtime::Internal::Synchronization::word_lock_queue_data"* null, %"struct.Halide::Runtime::Internal::Synchronization::word_lock_queue_data"** %11, align 8, !dbg !699, !tbaa !700
  call void @llvm.dbg.value(metadata %"struct.Halide::Runtime::Internal::Synchronization::word_lock_queue_data"* %2, metadata !701, metadata !DIExpression()), !dbg !704
  store i8 1, i8* %6, align 8, !dbg !706, !tbaa !688
  call void @llvm.dbg.value(metadata i64 %30, metadata !614, metadata !DIExpression()), !dbg !622
  %41 = and i64 %30, -4, !dbg !707
  call void @llvm.dbg.value(metadata i64 %41, metadata !620, metadata !DIExpression()), !dbg !708
  %42 = icmp eq i64 %41, 0, !dbg !709
  br i1 %42, label %43, label %44, !dbg !711

43:                                               ; preds = %39
  store %"struct.Halide::Runtime::Internal::Synchronization::word_lock_queue_data"* %2, %"struct.Halide::Runtime::Internal::Synchronization::word_lock_queue_data"** %11, align 8, !dbg !712, !tbaa !700
  br label %46, !dbg !714

44:                                               ; preds = %39
  %45 = inttoptr i64 %41 to %"struct.Halide::Runtime::Internal::Synchronization::word_lock_queue_data"*, !dbg !715
  call void @llvm.dbg.value(metadata %"struct.Halide::Runtime::Internal::Synchronization::word_lock_queue_data"* %45, metadata !620, metadata !DIExpression()), !dbg !708
  store %"struct.Halide::Runtime::Internal::Synchronization::word_lock_queue_data"* %45, %"struct.Halide::Runtime::Internal::Synchronization::word_lock_queue_data"** %9, align 8, !dbg !716, !tbaa !695
  br label %46

46:                                               ; preds = %44, %43
  call void @llvm.dbg.value(metadata i64 %30, metadata !614, metadata !DIExpression()), !dbg !622
  %47 = and i64 %30, 3, !dbg !718
  %48 = or i64 %47, %12, !dbg !719
  call void @llvm.dbg.value(metadata i64 %48, metadata !621, metadata !DIExpression()), !dbg !708
  call void @llvm.dbg.value(metadata i64* %3, metadata !720, metadata !DIExpression()), !dbg !725
  call void @llvm.dbg.value(metadata i64* undef, metadata !723, metadata !DIExpression()), !dbg !725
  call void @llvm.dbg.value(metadata i64* undef, metadata !724, metadata !DIExpression()), !dbg !725
  %49 = cmpxchg weak i64* %3, i64 %30, i64 %48 release monotonic, !dbg !728
  %50 = extractvalue { i64, i1 } %49, 1, !dbg !728
  br i1 %50, label %53, label %51, !dbg !728

51:                                               ; preds = %46
  %52 = extractvalue { i64, i1 } %49, 0, !dbg !728
  br label %61

53:                                               ; preds = %46
  call void @llvm.dbg.value(metadata %"struct.Halide::Runtime::Internal::Synchronization::word_lock_queue_data"* %2, metadata !729, metadata !DIExpression()) #8, !dbg !732
  call void @qurt_mutex_lock(%union.qurt_mutex_aligned8* nonnull %7) #7, !dbg !735
  %54 = load i8, i8* %6, align 8, !dbg !736, !tbaa !688, !range !737
  %55 = icmp eq i8 %54, 0, !dbg !736
  br i1 %55, label %59, label %56, !dbg !738

56:                                               ; preds = %53, %56
  call void @qurt_cond_wait(%union.qurt_cond_t* nonnull %8, %union.qurt_mutex_aligned8* nonnull %7) #7, !dbg !739
  %57 = load i8, i8* %6, align 8, !dbg !736, !tbaa !688, !range !737
  %58 = icmp eq i8 %57, 0, !dbg !736
  br i1 %58, label %59, label %56, !dbg !738, !llvm.loop !741

59:                                               ; preds = %56, %53
  call void @qurt_mutex_unlock(%union.qurt_mutex_aligned8* nonnull %7) #7, !dbg !744
  call void @llvm.dbg.value(metadata i32 40, metadata !602, metadata !DIExpression()), !dbg !622
  call void @llvm.dbg.value(metadata i64* %3, metadata !624, metadata !DIExpression()), !dbg !745
  call void @llvm.dbg.value(metadata i64* undef, metadata !631, metadata !DIExpression()), !dbg !745
  %60 = load atomic i64, i64* %3 monotonic, align 8, !dbg !747
  br label %61, !dbg !748

61:                                               ; preds = %51, %59
  %62 = phi i64 [ %60, %59 ], [ %52, %51 ], !dbg !622
  %63 = phi i32 [ 40, %59 ], [ %40, %51 ], !dbg !622
  call void @llvm.dbg.value(metadata i32 %63, metadata !602, metadata !DIExpression()), !dbg !622
  call void @llvm.dbg.value(metadata %"struct.Halide::Runtime::Internal::Synchronization::word_lock_queue_data"* %2, metadata !749, metadata !DIExpression()) #8, !dbg !752
  call void @llvm.dbg.value(metadata %"struct.Halide::Runtime::Internal::Synchronization::word_lock_queue_data"* %2, metadata !754, metadata !DIExpression()) #8, !dbg !757
  call void @qurt_cond_destroy(%union.qurt_cond_t* nonnull %8) #7, !dbg !760
  call void @qurt_mutex_destroy(%union.qurt_mutex_aligned8* nonnull %7) #7, !dbg !762
  call void @llvm.lifetime.end.p0i8(i64 64, i8* nonnull %5) #8, !dbg !763
  br label %64, !dbg !637

64:                                               ; preds = %61, %36
  %65 = phi i64 [ %38, %36 ], [ %62, %61 ]
  %66 = phi i32 [ %37, %36 ], [ %63, %61 ]
  br label %13, !dbg !622, !llvm.loop !764

67:                                               ; preds = %18
  ret void, !dbg !765
}

declare !dbg !766 dso_local void @halide_thread_yield() local_unnamed_addr #4

; Function Attrs: nounwind
define weak dso_local void @_ZN6Halide7Runtime8Internal15Synchronization9word_lock11unlock_fullEv(%"class.Halide::Runtime::Internal::Synchronization::word_lock"* nonnull dereferenceable(8) %0) local_unnamed_addr #5 align 2 !dbg !769 {
  call void @llvm.dbg.value(metadata %"class.Halide::Runtime::Internal::Synchronization::word_lock"* %0, metadata !771, metadata !DIExpression()), !dbg !793
  %2 = getelementptr inbounds %"class.Halide::Runtime::Internal::Synchronization::word_lock", %"class.Halide::Runtime::Internal::Synchronization::word_lock"* %0, i64 0, i32 0, !dbg !794
  call void @llvm.dbg.value(metadata i64* %2, metadata !624, metadata !DIExpression()), !dbg !795
  call void @llvm.dbg.value(metadata i64* undef, metadata !631, metadata !DIExpression()), !dbg !795
  %3 = load atomic i64, i64* %2 monotonic, align 8, !dbg !797
  br label %4, !dbg !798

4:                                                ; preds = %10, %1
  %5 = phi i64 [ %3, %1 ], [ %14, %10 ], !dbg !797
  call void @llvm.dbg.value(metadata i64 %5, metadata !772, metadata !DIExpression()), !dbg !793
  %6 = and i64 %5, 2, !dbg !799
  %7 = icmp ne i64 %6, 0, !dbg !800
  call void @llvm.dbg.value(metadata i1 %7, metadata !773, metadata !DIExpression(DW_OP_LLVM_convert, 1, DW_ATE_unsigned, DW_OP_LLVM_convert, 8, DW_ATE_unsigned, DW_OP_stack_value)), !dbg !801
  call void @llvm.dbg.value(metadata i1 undef, metadata !775, metadata !DIExpression(DW_OP_LLVM_convert, 1, DW_ATE_unsigned, DW_OP_LLVM_convert, 8, DW_ATE_unsigned, DW_OP_stack_value)), !dbg !801
  %8 = icmp ult i64 %5, 4
  %9 = or i1 %8, %7, !dbg !802
  call void @llvm.dbg.value(metadata i1 %8, metadata !775, metadata !DIExpression(DW_OP_LLVM_convert, 1, DW_ATE_unsigned, DW_OP_LLVM_convert, 8, DW_ATE_unsigned, DW_OP_stack_value)), !dbg !801
  br i1 %9, label %62, label %10, !dbg !802

10:                                               ; preds = %4
  call void @llvm.dbg.value(metadata i64 %5, metadata !772, metadata !DIExpression()), !dbg !793
  %11 = or i64 %5, 2, !dbg !804
  call void @llvm.dbg.value(metadata i64 %11, metadata !776, metadata !DIExpression()), !dbg !801
  call void @llvm.dbg.value(metadata i64* %2, metadata !643, metadata !DIExpression()), !dbg !805
  call void @llvm.dbg.value(metadata i64* undef, metadata !648, metadata !DIExpression()), !dbg !805
  call void @llvm.dbg.value(metadata i64* undef, metadata !649, metadata !DIExpression()), !dbg !805
  %12 = cmpxchg weak i64* %2, i64 %5, i64 %11 acquire monotonic, !dbg !808
  %13 = extractvalue { i64, i1 } %12, 1, !dbg !808
  %14 = extractvalue { i64, i1 } %12, 0
  br i1 %13, label %15, label %4

15:                                               ; preds = %10, %60
  %16 = phi { i64, i1 } [ %61, %60 ], [ %12, %10 ]
  %17 = extractvalue { i64, i1 } %16, 0, !dbg !797
  call void @llvm.dbg.value(metadata i64 %17, metadata !772, metadata !DIExpression()), !dbg !793
  %18 = and i64 %17, -4, !dbg !809
  %19 = inttoptr i64 %18 to %"struct.Halide::Runtime::Internal::Synchronization::word_lock_queue_data"*, !dbg !810
  call void @llvm.dbg.value(metadata %"struct.Halide::Runtime::Internal::Synchronization::word_lock_queue_data"* %19, metadata !777, metadata !DIExpression()), !dbg !811
  call void @llvm.dbg.value(metadata %"struct.Halide::Runtime::Internal::Synchronization::word_lock_queue_data"* %19, metadata !779, metadata !DIExpression()), !dbg !811
  %20 = getelementptr inbounds %"struct.Halide::Runtime::Internal::Synchronization::word_lock_queue_data", %"struct.Halide::Runtime::Internal::Synchronization::word_lock_queue_data"* %19, i64 0, i32 3, !dbg !812
  call void @llvm.dbg.value(metadata %"struct.Halide::Runtime::Internal::Synchronization::word_lock_queue_data"* undef, metadata !780, metadata !DIExpression()), !dbg !811
  call void @llvm.dbg.value(metadata i32 0, metadata !781, metadata !DIExpression()), !dbg !811
  %21 = load %"struct.Halide::Runtime::Internal::Synchronization::word_lock_queue_data"*, %"struct.Halide::Runtime::Internal::Synchronization::word_lock_queue_data"** %20, align 8, !dbg !811, !tbaa !700
  call void @llvm.dbg.value(metadata %"struct.Halide::Runtime::Internal::Synchronization::word_lock_queue_data"* %19, metadata !779, metadata !DIExpression()), !dbg !811
  call void @llvm.dbg.value(metadata i32 undef, metadata !781, metadata !DIExpression()), !dbg !811
  call void @llvm.dbg.value(metadata %"struct.Halide::Runtime::Internal::Synchronization::word_lock_queue_data"* %21, metadata !780, metadata !DIExpression()), !dbg !811
  %22 = icmp eq %"struct.Halide::Runtime::Internal::Synchronization::word_lock_queue_data"* %21, null, !dbg !813
  br i1 %22, label %23, label %34, !dbg !814

23:                                               ; preds = %15, %29
  %24 = phi %"struct.Halide::Runtime::Internal::Synchronization::word_lock_queue_data"* [ %26, %29 ], [ %19, %15 ]
  call void @llvm.dbg.value(metadata %"struct.Halide::Runtime::Internal::Synchronization::word_lock_queue_data"* %24, metadata !779, metadata !DIExpression()), !dbg !811
  %25 = getelementptr inbounds %"struct.Halide::Runtime::Internal::Synchronization::word_lock_queue_data", %"struct.Halide::Runtime::Internal::Synchronization::word_lock_queue_data"* %24, i64 0, i32 1, !dbg !815
  %26 = load %"struct.Halide::Runtime::Internal::Synchronization::word_lock_queue_data"*, %"struct.Halide::Runtime::Internal::Synchronization::word_lock_queue_data"** %25, align 8, !dbg !815, !tbaa !695
  call void @llvm.dbg.value(metadata %"struct.Halide::Runtime::Internal::Synchronization::word_lock_queue_data"* %26, metadata !782, metadata !DIExpression()), !dbg !816
  %27 = icmp eq %"struct.Halide::Runtime::Internal::Synchronization::word_lock_queue_data"* %26, null, !dbg !817
  br i1 %27, label %28, label %29, !dbg !820

28:                                               ; preds = %23
  tail call void @halide_print(i8* null, i8* getelementptr inbounds ([123 x i8], [123 x i8]* @.str, i64 0, i64 0)) #7, !dbg !821
  tail call void @abort() #7, !dbg !821
  br label %29, !dbg !821

29:                                               ; preds = %28, %23
  %30 = getelementptr inbounds %"struct.Halide::Runtime::Internal::Synchronization::word_lock_queue_data", %"struct.Halide::Runtime::Internal::Synchronization::word_lock_queue_data"* %26, i64 0, i32 2, !dbg !823
  store %"struct.Halide::Runtime::Internal::Synchronization::word_lock_queue_data"* %24, %"struct.Halide::Runtime::Internal::Synchronization::word_lock_queue_data"** %30, align 8, !dbg !824, !tbaa !698
  call void @llvm.dbg.value(metadata %"struct.Halide::Runtime::Internal::Synchronization::word_lock_queue_data"* %26, metadata !779, metadata !DIExpression()), !dbg !811
  %31 = getelementptr inbounds %"struct.Halide::Runtime::Internal::Synchronization::word_lock_queue_data", %"struct.Halide::Runtime::Internal::Synchronization::word_lock_queue_data"* %26, i64 0, i32 3, !dbg !825
  call void @llvm.dbg.value(metadata %"struct.Halide::Runtime::Internal::Synchronization::word_lock_queue_data"* undef, metadata !780, metadata !DIExpression()), !dbg !811
  call void @llvm.dbg.value(metadata i32 undef, metadata !781, metadata !DIExpression(DW_OP_plus_uconst, 1, DW_OP_stack_value)), !dbg !811
  %32 = load %"struct.Halide::Runtime::Internal::Synchronization::word_lock_queue_data"*, %"struct.Halide::Runtime::Internal::Synchronization::word_lock_queue_data"** %31, align 8, !dbg !811, !tbaa !700
  call void @llvm.dbg.value(metadata i32 undef, metadata !781, metadata !DIExpression()), !dbg !811
  call void @llvm.dbg.value(metadata %"struct.Halide::Runtime::Internal::Synchronization::word_lock_queue_data"* %32, metadata !780, metadata !DIExpression()), !dbg !811
  %33 = icmp eq %"struct.Halide::Runtime::Internal::Synchronization::word_lock_queue_data"* %32, null, !dbg !813
  br i1 %33, label %23, label %34, !dbg !814, !llvm.loop !826

34:                                               ; preds = %29, %15
  %35 = phi %"struct.Halide::Runtime::Internal::Synchronization::word_lock_queue_data"* [ %21, %15 ], [ %32, %29 ], !dbg !811
  store %"struct.Halide::Runtime::Internal::Synchronization::word_lock_queue_data"* %35, %"struct.Halide::Runtime::Internal::Synchronization::word_lock_queue_data"** %20, align 8, !dbg !828, !tbaa !700
  call void @llvm.dbg.value(metadata i64 %17, metadata !772, metadata !DIExpression()), !dbg !793
  %36 = and i64 %17, 1, !dbg !829
  %37 = icmp eq i64 %36, 0, !dbg !830
  br i1 %37, label %42, label %38, !dbg !831

38:                                               ; preds = %34
  call void @llvm.dbg.value(metadata i64 %17, metadata !772, metadata !DIExpression()), !dbg !793
  %39 = and i64 %17, -3, !dbg !832
  call void @llvm.dbg.value(metadata i64 %39, metadata !784, metadata !DIExpression()), !dbg !833
  call void @llvm.dbg.value(metadata i64* %2, metadata !834, metadata !DIExpression()), !dbg !841
  call void @llvm.dbg.value(metadata i64* undef, metadata !839, metadata !DIExpression()), !dbg !841
  call void @llvm.dbg.value(metadata i64* undef, metadata !840, metadata !DIExpression()), !dbg !841
  %40 = cmpxchg weak i64* %2, i64 %17, i64 %39 acq_rel monotonic, !dbg !844
  %41 = extractvalue { i64, i1 } %40, 1, !dbg !844
  br i1 %41, label %62, label %60, !dbg !844, !llvm.loop !845

42:                                               ; preds = %34
  %43 = getelementptr inbounds %"struct.Halide::Runtime::Internal::Synchronization::word_lock_queue_data", %"struct.Halide::Runtime::Internal::Synchronization::word_lock_queue_data"* %35, i64 0, i32 2, !dbg !848
  %44 = load %"struct.Halide::Runtime::Internal::Synchronization::word_lock_queue_data"*, %"struct.Halide::Runtime::Internal::Synchronization::word_lock_queue_data"** %43, align 8, !dbg !848, !tbaa !698
  call void @llvm.dbg.value(metadata %"struct.Halide::Runtime::Internal::Synchronization::word_lock_queue_data"* %44, metadata !787, metadata !DIExpression()), !dbg !811
  %45 = icmp eq %"struct.Halide::Runtime::Internal::Synchronization::word_lock_queue_data"* %44, null, !dbg !849
  br i1 %45, label %46, label %54, !dbg !850

46:                                               ; preds = %42, %51
  %47 = phi i64 [ %52, %51 ], [ %17, %42 ]
  call void @llvm.dbg.value(metadata i8 0, metadata !788, metadata !DIExpression()), !dbg !851
  call void @llvm.dbg.value(metadata i64 %47, metadata !772, metadata !DIExpression()), !dbg !793
  %48 = and i64 %47, 1, !dbg !852
  call void @llvm.dbg.value(metadata i64 %48, metadata !791, metadata !DIExpression()), !dbg !853
  call void @llvm.dbg.value(metadata i64* %2, metadata !834, metadata !DIExpression()), !dbg !854
  call void @llvm.dbg.value(metadata i64* undef, metadata !839, metadata !DIExpression()), !dbg !854
  call void @llvm.dbg.value(metadata i64* undef, metadata !840, metadata !DIExpression()), !dbg !854
  %49 = cmpxchg weak i64* %2, i64 %47, i64 %48 acq_rel monotonic, !dbg !857
  %50 = extractvalue { i64, i1 } %49, 1, !dbg !857
  br i1 %50, label %56, label %51, !dbg !857

51:                                               ; preds = %46
  %52 = extractvalue { i64, i1 } %49, 0, !dbg !857
  call void @llvm.dbg.value(metadata i64 %52, metadata !772, metadata !DIExpression()), !dbg !793
  %53 = icmp ult i64 %52, 4, !dbg !858
  br i1 %53, label %46, label %60, !dbg !860, !llvm.loop !861

54:                                               ; preds = %42
  store %"struct.Halide::Runtime::Internal::Synchronization::word_lock_queue_data"* %44, %"struct.Halide::Runtime::Internal::Synchronization::word_lock_queue_data"** %20, align 8, !dbg !864, !tbaa !700
  call void @llvm.dbg.value(metadata i64* %2, metadata !866, metadata !DIExpression()), !dbg !872
  call void @llvm.dbg.value(metadata i64 -3, metadata !871, metadata !DIExpression()), !dbg !872
  %55 = atomicrmw and i64* %2, i64 -3 release, !dbg !874
  br label %56

56:                                               ; preds = %46, %54
  call void @llvm.dbg.value(metadata %"struct.Halide::Runtime::Internal::Synchronization::word_lock_queue_data"* %35, metadata !875, metadata !DIExpression()) #8, !dbg !878
  %57 = getelementptr inbounds %"struct.Halide::Runtime::Internal::Synchronization::word_lock_queue_data", %"struct.Halide::Runtime::Internal::Synchronization::word_lock_queue_data"* %35, i64 0, i32 0, i32 0, !dbg !880
  tail call void @qurt_mutex_lock(%union.qurt_mutex_aligned8* nonnull %57) #7, !dbg !881
  call void @llvm.dbg.value(metadata %"struct.Halide::Runtime::Internal::Synchronization::word_lock_queue_data"* %35, metadata !882, metadata !DIExpression()) #8, !dbg !885
  %58 = getelementptr inbounds %"struct.Halide::Runtime::Internal::Synchronization::word_lock_queue_data", %"struct.Halide::Runtime::Internal::Synchronization::word_lock_queue_data"* %35, i64 0, i32 0, i32 2, !dbg !887
  store i8 0, i8* %58, align 8, !dbg !888, !tbaa !688
  %59 = getelementptr inbounds %"struct.Halide::Runtime::Internal::Synchronization::word_lock_queue_data", %"struct.Halide::Runtime::Internal::Synchronization::word_lock_queue_data"* %35, i64 0, i32 0, i32 1, !dbg !889
  tail call void @qurt_cond_signal(%union.qurt_cond_t* nonnull %59) #7, !dbg !890
  call void @llvm.dbg.value(metadata %"struct.Halide::Runtime::Internal::Synchronization::word_lock_queue_data"* %35, metadata !891, metadata !DIExpression()) #8, !dbg !894
  tail call void @qurt_mutex_unlock(%union.qurt_mutex_aligned8* nonnull %57) #7, !dbg !896
  br label %62, !dbg !897

60:                                               ; preds = %51, %38
  %61 = phi { i64, i1 } [ %40, %38 ], [ %49, %51 ]
  fence acquire, !dbg !811
  br label %15

62:                                               ; preds = %4, %38, %56
  ret void, !dbg !898
}

declare !dbg !899 extern_weak dso_local void @halide_print(i8*, i8*) local_unnamed_addr #4

declare !dbg !902 dso_local void @abort() local_unnamed_addr #4

; Function Attrs: nounwind mustprogress
define weak dso_local nonnull align 8 dereferenceable(24) %"struct.Halide::Runtime::Internal::Synchronization::hash_bucket"* @_ZN6Halide7Runtime8Internal15Synchronization11lock_bucketEy(i64 %0) local_unnamed_addr #2 !dbg !903 {
  call void @llvm.dbg.value(metadata i64 %0, metadata !908, metadata !DIExpression()), !dbg !911
  call void @llvm.dbg.value(metadata i64 %0, metadata !912, metadata !DIExpression()), !dbg !919
  call void @llvm.dbg.value(metadata i32 10, metadata !918, metadata !DIExpression()), !dbg !919
  %2 = mul i64 %0, -7046029254386353131, !dbg !921
  %3 = lshr i64 %2, 54, !dbg !924
  call void @llvm.dbg.value(metadata i64 %3, metadata !909, metadata !DIExpression()), !dbg !911
  %4 = getelementptr inbounds [1024 x %"struct.Halide::Runtime::Internal::Synchronization::hash_bucket"], [1024 x %"struct.Halide::Runtime::Internal::Synchronization::hash_bucket"]* bitcast ([24576 x i8]* @_ZN6Halide7Runtime8Internal15Synchronization13table_storageE to [1024 x %"struct.Halide::Runtime::Internal::Synchronization::hash_bucket"]*), i64 0, i64 %3, !dbg !925
  call void @llvm.dbg.value(metadata %"struct.Halide::Runtime::Internal::Synchronization::hash_bucket"* %4, metadata !910, metadata !DIExpression()), !dbg !911
  call void @llvm.dbg.value(metadata %"struct.Halide::Runtime::Internal::Synchronization::hash_bucket"* %4, metadata !926, metadata !DIExpression()) #8, !dbg !931
  call void @llvm.dbg.value(metadata i64 0, metadata !929, metadata !DIExpression()) #8, !dbg !931
  call void @llvm.dbg.value(metadata i64 1, metadata !930, metadata !DIExpression()) #8, !dbg !931
  %5 = getelementptr inbounds %"struct.Halide::Runtime::Internal::Synchronization::hash_bucket", %"struct.Halide::Runtime::Internal::Synchronization::hash_bucket"* %4, i64 0, i32 0, i32 0, !dbg !933
  call void @llvm.dbg.value(metadata i64* %5, metadata !643, metadata !DIExpression()) #8, !dbg !935
  call void @llvm.dbg.value(metadata i64* undef, metadata !648, metadata !DIExpression()) #8, !dbg !935
  call void @llvm.dbg.value(metadata i64* undef, metadata !649, metadata !DIExpression()) #8, !dbg !935
  %6 = cmpxchg weak i64* %5, i64 0, i64 1 acquire monotonic, !dbg !937
  %7 = extractvalue { i64, i1 } %6, 1, !dbg !937
  br i1 %7, label %10, label %8, !dbg !938

8:                                                ; preds = %1
  %9 = getelementptr inbounds %"struct.Halide::Runtime::Internal::Synchronization::hash_bucket", %"struct.Halide::Runtime::Internal::Synchronization::hash_bucket"* %4, i64 0, i32 0, !dbg !939
  call void @llvm.dbg.value(metadata %"class.Halide::Runtime::Internal::Synchronization::word_lock"* %9, metadata !926, metadata !DIExpression()) #8, !dbg !931
  tail call void @_ZN6Halide7Runtime8Internal15Synchronization9word_lock9lock_fullEv(%"class.Halide::Runtime::Internal::Synchronization::word_lock"* nonnull dereferenceable(8) %9) #7, !dbg !940
  br label %10, !dbg !942

10:                                               ; preds = %1, %8
  ret %"struct.Halide::Runtime::Internal::Synchronization::hash_bucket"* %4, !dbg !943
}

; Function Attrs: nounwind
define weak dso_local void @_ZN6Halide7Runtime8Internal15Synchronization16lock_bucket_pairEyy(%"struct.Halide::Runtime::Internal::Synchronization::bucket_pair"* noalias sret(%"struct.Halide::Runtime::Internal::Synchronization::bucket_pair") align 8 %0, i64 %1, i64 %2) local_unnamed_addr #5 !dbg !944 {
  call void @llvm.dbg.value(metadata i64 %1, metadata !956, metadata !DIExpression()), !dbg !970
  call void @llvm.dbg.value(metadata i64 %2, metadata !957, metadata !DIExpression()), !dbg !970
  call void @llvm.dbg.value(metadata i64 %1, metadata !912, metadata !DIExpression()), !dbg !971
  call void @llvm.dbg.value(metadata i32 10, metadata !918, metadata !DIExpression()), !dbg !971
  %4 = mul i64 %1, -7046029254386353131, !dbg !973
  %5 = lshr i64 %4, 54, !dbg !974
  call void @llvm.dbg.value(metadata i64 %5, metadata !958, metadata !DIExpression()), !dbg !970
  call void @llvm.dbg.value(metadata i64 %2, metadata !912, metadata !DIExpression()), !dbg !975
  call void @llvm.dbg.value(metadata i32 10, metadata !918, metadata !DIExpression()), !dbg !975
  %6 = mul i64 %2, -7046029254386353131, !dbg !977
  %7 = lshr i64 %6, 54, !dbg !978
  call void @llvm.dbg.value(metadata i64 %7, metadata !959, metadata !DIExpression()), !dbg !970
  %8 = icmp eq i64 %5, %7, !dbg !979
  br i1 %8, label %9, label %16, !dbg !980

9:                                                ; preds = %3
  %10 = getelementptr inbounds [1024 x %"struct.Halide::Runtime::Internal::Synchronization::hash_bucket"], [1024 x %"struct.Halide::Runtime::Internal::Synchronization::hash_bucket"]* bitcast ([24576 x i8]* @_ZN6Halide7Runtime8Internal15Synchronization13table_storageE to [1024 x %"struct.Halide::Runtime::Internal::Synchronization::hash_bucket"]*), i64 0, i64 %5, !dbg !981
  call void @llvm.dbg.value(metadata %"struct.Halide::Runtime::Internal::Synchronization::hash_bucket"* %10, metadata !960, metadata !DIExpression()), !dbg !982
  call void @llvm.dbg.value(metadata %"struct.Halide::Runtime::Internal::Synchronization::hash_bucket"* %10, metadata !926, metadata !DIExpression()) #8, !dbg !983
  call void @llvm.dbg.value(metadata i64 0, metadata !929, metadata !DIExpression()) #8, !dbg !983
  call void @llvm.dbg.value(metadata i64 1, metadata !930, metadata !DIExpression()) #8, !dbg !983
  %11 = getelementptr inbounds %"struct.Halide::Runtime::Internal::Synchronization::hash_bucket", %"struct.Halide::Runtime::Internal::Synchronization::hash_bucket"* %10, i64 0, i32 0, i32 0, !dbg !985
  call void @llvm.dbg.value(metadata i64* %11, metadata !643, metadata !DIExpression()) #8, !dbg !986
  call void @llvm.dbg.value(metadata i64* undef, metadata !648, metadata !DIExpression()) #8, !dbg !986
  call void @llvm.dbg.value(metadata i64* undef, metadata !649, metadata !DIExpression()) #8, !dbg !986
  %12 = cmpxchg weak i64* %11, i64 0, i64 1 acquire monotonic, !dbg !988
  %13 = extractvalue { i64, i1 } %12, 1, !dbg !988
  br i1 %13, label %46, label %14, !dbg !989

14:                                               ; preds = %9
  %15 = getelementptr inbounds %"struct.Halide::Runtime::Internal::Synchronization::hash_bucket", %"struct.Halide::Runtime::Internal::Synchronization::hash_bucket"* %10, i64 0, i32 0, !dbg !990
  call void @llvm.dbg.value(metadata %"class.Halide::Runtime::Internal::Synchronization::word_lock"* %15, metadata !926, metadata !DIExpression()) #8, !dbg !983
  tail call void @_ZN6Halide7Runtime8Internal15Synchronization9word_lock9lock_fullEv(%"class.Halide::Runtime::Internal::Synchronization::word_lock"* nonnull dereferenceable(8) %15) #7, !dbg !991
  br label %46, !dbg !992

16:                                               ; preds = %3
  %17 = icmp ult i64 %5, %7, !dbg !993
  br i1 %17, label %18, label %32, !dbg !994

18:                                               ; preds = %16
  %19 = getelementptr inbounds [1024 x %"struct.Halide::Runtime::Internal::Synchronization::hash_bucket"], [1024 x %"struct.Halide::Runtime::Internal::Synchronization::hash_bucket"]* bitcast ([24576 x i8]* @_ZN6Halide7Runtime8Internal15Synchronization13table_storageE to [1024 x %"struct.Halide::Runtime::Internal::Synchronization::hash_bucket"]*), i64 0, i64 %5, !dbg !995
  call void @llvm.dbg.value(metadata %"struct.Halide::Runtime::Internal::Synchronization::hash_bucket"* %19, metadata !963, metadata !DIExpression()), !dbg !996
  %20 = getelementptr inbounds [1024 x %"struct.Halide::Runtime::Internal::Synchronization::hash_bucket"], [1024 x %"struct.Halide::Runtime::Internal::Synchronization::hash_bucket"]* bitcast ([24576 x i8]* @_ZN6Halide7Runtime8Internal15Synchronization13table_storageE to [1024 x %"struct.Halide::Runtime::Internal::Synchronization::hash_bucket"]*), i64 0, i64 %7, !dbg !997
  call void @llvm.dbg.value(metadata %"struct.Halide::Runtime::Internal::Synchronization::hash_bucket"* %20, metadata !966, metadata !DIExpression()), !dbg !996
  call void @llvm.dbg.value(metadata %"struct.Halide::Runtime::Internal::Synchronization::hash_bucket"* %19, metadata !926, metadata !DIExpression()) #8, !dbg !998
  call void @llvm.dbg.value(metadata i64 0, metadata !929, metadata !DIExpression()) #8, !dbg !998
  call void @llvm.dbg.value(metadata i64 1, metadata !930, metadata !DIExpression()) #8, !dbg !998
  %21 = getelementptr inbounds %"struct.Halide::Runtime::Internal::Synchronization::hash_bucket", %"struct.Halide::Runtime::Internal::Synchronization::hash_bucket"* %19, i64 0, i32 0, i32 0, !dbg !1000
  call void @llvm.dbg.value(metadata i64* %21, metadata !643, metadata !DIExpression()) #8, !dbg !1001
  call void @llvm.dbg.value(metadata i64* undef, metadata !648, metadata !DIExpression()) #8, !dbg !1001
  call void @llvm.dbg.value(metadata i64* undef, metadata !649, metadata !DIExpression()) #8, !dbg !1001
  %22 = cmpxchg weak i64* %21, i64 0, i64 1 acquire monotonic, !dbg !1003
  %23 = extractvalue { i64, i1 } %22, 1, !dbg !1003
  br i1 %23, label %26, label %24, !dbg !1004

24:                                               ; preds = %18
  %25 = getelementptr inbounds %"struct.Halide::Runtime::Internal::Synchronization::hash_bucket", %"struct.Halide::Runtime::Internal::Synchronization::hash_bucket"* %19, i64 0, i32 0, !dbg !1005
  call void @llvm.dbg.value(metadata %"class.Halide::Runtime::Internal::Synchronization::word_lock"* %25, metadata !926, metadata !DIExpression()) #8, !dbg !998
  tail call void @_ZN6Halide7Runtime8Internal15Synchronization9word_lock9lock_fullEv(%"class.Halide::Runtime::Internal::Synchronization::word_lock"* nonnull dereferenceable(8) %25) #7, !dbg !1006
  br label %26, !dbg !1007

26:                                               ; preds = %18, %24
  call void @llvm.dbg.value(metadata %"struct.Halide::Runtime::Internal::Synchronization::hash_bucket"* %20, metadata !926, metadata !DIExpression()) #8, !dbg !1008
  call void @llvm.dbg.value(metadata i64 0, metadata !929, metadata !DIExpression()) #8, !dbg !1008
  call void @llvm.dbg.value(metadata i64 1, metadata !930, metadata !DIExpression()) #8, !dbg !1008
  %27 = getelementptr inbounds %"struct.Halide::Runtime::Internal::Synchronization::hash_bucket", %"struct.Halide::Runtime::Internal::Synchronization::hash_bucket"* %20, i64 0, i32 0, i32 0, !dbg !1010
  call void @llvm.dbg.value(metadata i64* %27, metadata !643, metadata !DIExpression()) #8, !dbg !1011
  call void @llvm.dbg.value(metadata i64* undef, metadata !648, metadata !DIExpression()) #8, !dbg !1011
  call void @llvm.dbg.value(metadata i64* undef, metadata !649, metadata !DIExpression()) #8, !dbg !1011
  %28 = cmpxchg weak i64* %27, i64 0, i64 1 acquire monotonic, !dbg !1013
  %29 = extractvalue { i64, i1 } %28, 1, !dbg !1013
  br i1 %29, label %46, label %30, !dbg !1014

30:                                               ; preds = %26
  %31 = getelementptr inbounds %"struct.Halide::Runtime::Internal::Synchronization::hash_bucket", %"struct.Halide::Runtime::Internal::Synchronization::hash_bucket"* %20, i64 0, i32 0, !dbg !1015
  call void @llvm.dbg.value(metadata %"class.Halide::Runtime::Internal::Synchronization::word_lock"* %31, metadata !926, metadata !DIExpression()) #8, !dbg !1008
  tail call void @_ZN6Halide7Runtime8Internal15Synchronization9word_lock9lock_fullEv(%"class.Halide::Runtime::Internal::Synchronization::word_lock"* nonnull dereferenceable(8) %31) #7, !dbg !1016
  br label %46, !dbg !1017

32:                                               ; preds = %16
  %33 = getelementptr inbounds [1024 x %"struct.Halide::Runtime::Internal::Synchronization::hash_bucket"], [1024 x %"struct.Halide::Runtime::Internal::Synchronization::hash_bucket"]* bitcast ([24576 x i8]* @_ZN6Halide7Runtime8Internal15Synchronization13table_storageE to [1024 x %"struct.Halide::Runtime::Internal::Synchronization::hash_bucket"]*), i64 0, i64 %7, !dbg !1018
  call void @llvm.dbg.value(metadata %"struct.Halide::Runtime::Internal::Synchronization::hash_bucket"* %33, metadata !967, metadata !DIExpression()), !dbg !1019
  %34 = getelementptr inbounds [1024 x %"struct.Halide::Runtime::Internal::Synchronization::hash_bucket"], [1024 x %"struct.Halide::Runtime::Internal::Synchronization::hash_bucket"]* bitcast ([24576 x i8]* @_ZN6Halide7Runtime8Internal15Synchronization13table_storageE to [1024 x %"struct.Halide::Runtime::Internal::Synchronization::hash_bucket"]*), i64 0, i64 %5, !dbg !1020
  call void @llvm.dbg.value(metadata %"struct.Halide::Runtime::Internal::Synchronization::hash_bucket"* %34, metadata !969, metadata !DIExpression()), !dbg !1019
  call void @llvm.dbg.value(metadata %"struct.Halide::Runtime::Internal::Synchronization::hash_bucket"* %33, metadata !926, metadata !DIExpression()) #8, !dbg !1021
  call void @llvm.dbg.value(metadata i64 0, metadata !929, metadata !DIExpression()) #8, !dbg !1021
  call void @llvm.dbg.value(metadata i64 1, metadata !930, metadata !DIExpression()) #8, !dbg !1021
  %35 = getelementptr inbounds %"struct.Halide::Runtime::Internal::Synchronization::hash_bucket", %"struct.Halide::Runtime::Internal::Synchronization::hash_bucket"* %33, i64 0, i32 0, i32 0, !dbg !1023
  call void @llvm.dbg.value(metadata i64* %35, metadata !643, metadata !DIExpression()) #8, !dbg !1024
  call void @llvm.dbg.value(metadata i64* undef, metadata !648, metadata !DIExpression()) #8, !dbg !1024
  call void @llvm.dbg.value(metadata i64* undef, metadata !649, metadata !DIExpression()) #8, !dbg !1024
  %36 = cmpxchg weak i64* %35, i64 0, i64 1 acquire monotonic, !dbg !1026
  %37 = extractvalue { i64, i1 } %36, 1, !dbg !1026
  br i1 %37, label %40, label %38, !dbg !1027

38:                                               ; preds = %32
  %39 = getelementptr inbounds %"struct.Halide::Runtime::Internal::Synchronization::hash_bucket", %"struct.Halide::Runtime::Internal::Synchronization::hash_bucket"* %33, i64 0, i32 0, !dbg !1028
  call void @llvm.dbg.value(metadata %"class.Halide::Runtime::Internal::Synchronization::word_lock"* %39, metadata !926, metadata !DIExpression()) #8, !dbg !1021
  tail call void @_ZN6Halide7Runtime8Internal15Synchronization9word_lock9lock_fullEv(%"class.Halide::Runtime::Internal::Synchronization::word_lock"* nonnull dereferenceable(8) %39) #7, !dbg !1029
  br label %40, !dbg !1030

40:                                               ; preds = %32, %38
  call void @llvm.dbg.value(metadata %"struct.Halide::Runtime::Internal::Synchronization::hash_bucket"* %34, metadata !926, metadata !DIExpression()) #8, !dbg !1031
  call void @llvm.dbg.value(metadata i64 0, metadata !929, metadata !DIExpression()) #8, !dbg !1031
  call void @llvm.dbg.value(metadata i64 1, metadata !930, metadata !DIExpression()) #8, !dbg !1031
  %41 = getelementptr inbounds %"struct.Halide::Runtime::Internal::Synchronization::hash_bucket", %"struct.Halide::Runtime::Internal::Synchronization::hash_bucket"* %34, i64 0, i32 0, i32 0, !dbg !1033
  call void @llvm.dbg.value(metadata i64* %41, metadata !643, metadata !DIExpression()) #8, !dbg !1034
  call void @llvm.dbg.value(metadata i64* undef, metadata !648, metadata !DIExpression()) #8, !dbg !1034
  call void @llvm.dbg.value(metadata i64* undef, metadata !649, metadata !DIExpression()) #8, !dbg !1034
  %42 = cmpxchg weak i64* %41, i64 0, i64 1 acquire monotonic, !dbg !1036
  %43 = extractvalue { i64, i1 } %42, 1, !dbg !1036
  br i1 %43, label %46, label %44, !dbg !1037

44:                                               ; preds = %40
  %45 = getelementptr inbounds %"struct.Halide::Runtime::Internal::Synchronization::hash_bucket", %"struct.Halide::Runtime::Internal::Synchronization::hash_bucket"* %34, i64 0, i32 0, !dbg !1038
  call void @llvm.dbg.value(metadata %"class.Halide::Runtime::Internal::Synchronization::word_lock"* %45, metadata !926, metadata !DIExpression()) #8, !dbg !1031
  tail call void @_ZN6Halide7Runtime8Internal15Synchronization9word_lock9lock_fullEv(%"class.Halide::Runtime::Internal::Synchronization::word_lock"* nonnull dereferenceable(8) %45) #7, !dbg !1039
  br label %46, !dbg !1040

46:                                               ; preds = %44, %40, %30, %26, %14, %9
  %47 = phi %"struct.Halide::Runtime::Internal::Synchronization::hash_bucket"* [ %10, %9 ], [ %10, %14 ], [ %19, %26 ], [ %19, %30 ], [ %34, %40 ], [ %34, %44 ]
  %48 = phi %"struct.Halide::Runtime::Internal::Synchronization::hash_bucket"* [ %10, %9 ], [ %10, %14 ], [ %20, %26 ], [ %20, %30 ], [ %33, %40 ], [ %33, %44 ]
  %49 = getelementptr inbounds %"struct.Halide::Runtime::Internal::Synchronization::bucket_pair", %"struct.Halide::Runtime::Internal::Synchronization::bucket_pair"* %0, i64 0, i32 0, !dbg !1041
  store %"struct.Halide::Runtime::Internal::Synchronization::hash_bucket"* %47, %"struct.Halide::Runtime::Internal::Synchronization::hash_bucket"** %49, align 8, !dbg !1041, !tbaa !1042
  %50 = getelementptr inbounds %"struct.Halide::Runtime::Internal::Synchronization::bucket_pair", %"struct.Halide::Runtime::Internal::Synchronization::bucket_pair"* %0, i64 0, i32 1, !dbg !1041
  store %"struct.Halide::Runtime::Internal::Synchronization::hash_bucket"* %48, %"struct.Halide::Runtime::Internal::Synchronization::hash_bucket"** %50, align 8, !dbg !1041, !tbaa !1042
  ret void, !dbg !1043
}

; Function Attrs: nounwind mustprogress
define weak dso_local void @_ZN6Halide7Runtime8Internal15Synchronization18unlock_bucket_pairERNS2_11bucket_pairE(%"struct.Halide::Runtime::Internal::Synchronization::bucket_pair"* nonnull align 8 dereferenceable(16) %0) local_unnamed_addr #2 !dbg !1044 {
  call void @llvm.dbg.value(metadata %"struct.Halide::Runtime::Internal::Synchronization::bucket_pair"* %0, metadata !1049, metadata !DIExpression()), !dbg !1050
  %2 = getelementptr inbounds %"struct.Halide::Runtime::Internal::Synchronization::bucket_pair", %"struct.Halide::Runtime::Internal::Synchronization::bucket_pair"* %0, i64 0, i32 0, !dbg !1051
  %3 = load %"struct.Halide::Runtime::Internal::Synchronization::hash_bucket"*, %"struct.Halide::Runtime::Internal::Synchronization::hash_bucket"** %2, align 8, !dbg !1051, !tbaa !1053
  %4 = getelementptr inbounds %"struct.Halide::Runtime::Internal::Synchronization::bucket_pair", %"struct.Halide::Runtime::Internal::Synchronization::bucket_pair"* %0, i64 0, i32 1, !dbg !1055
  %5 = load %"struct.Halide::Runtime::Internal::Synchronization::hash_bucket"*, %"struct.Halide::Runtime::Internal::Synchronization::hash_bucket"** %4, align 8, !dbg !1055, !tbaa !1056
  %6 = icmp eq %"struct.Halide::Runtime::Internal::Synchronization::hash_bucket"* %3, %5, !dbg !1057
  br i1 %6, label %7, label %16, !dbg !1058

7:                                                ; preds = %1
  call void @llvm.dbg.value(metadata %"struct.Halide::Runtime::Internal::Synchronization::hash_bucket"* %3, metadata !1059, metadata !DIExpression()) #8, !dbg !1065
  %8 = getelementptr inbounds %"struct.Halide::Runtime::Internal::Synchronization::hash_bucket", %"struct.Halide::Runtime::Internal::Synchronization::hash_bucket"* %3, i64 0, i32 0, i32 0, !dbg !1068
  call void @llvm.dbg.value(metadata i64* %8, metadata !1069, metadata !DIExpression()) #8, !dbg !1073
  call void @llvm.dbg.value(metadata i64 -2, metadata !1072, metadata !DIExpression()) #8, !dbg !1073
  %9 = atomicrmw and i64* %8, i64 -2 release, !dbg !1075
  call void @llvm.dbg.value(metadata i64 %9, metadata !1062, metadata !DIExpression()) #8, !dbg !1065
  %10 = and i64 %9, 2, !dbg !1076
  %11 = icmp ne i64 %10, 0, !dbg !1077
  call void @llvm.dbg.value(metadata i1 %11, metadata !1063, metadata !DIExpression(DW_OP_LLVM_convert, 1, DW_ATE_unsigned, DW_OP_LLVM_convert, 8, DW_ATE_unsigned, DW_OP_stack_value)) #8, !dbg !1065
  call void @llvm.dbg.value(metadata i1 undef, metadata !1064, metadata !DIExpression(DW_OP_LLVM_convert, 1, DW_ATE_unsigned, DW_OP_LLVM_convert, 8, DW_ATE_unsigned, DW_OP_stack_value)) #8, !dbg !1065
  %12 = icmp ult i64 %9, 4
  %13 = or i1 %12, %11, !dbg !1078
  call void @llvm.dbg.value(metadata i1 %12, metadata !1064, metadata !DIExpression(DW_OP_LLVM_convert, 1, DW_ATE_unsigned, DW_OP_LLVM_convert, 8, DW_ATE_unsigned, DW_OP_stack_value)) #8, !dbg !1065
  br i1 %13, label %56, label %14, !dbg !1078

14:                                               ; preds = %7
  %15 = getelementptr inbounds %"struct.Halide::Runtime::Internal::Synchronization::hash_bucket", %"struct.Halide::Runtime::Internal::Synchronization::hash_bucket"* %3, i64 0, i32 0, !dbg !1080
  call void @llvm.dbg.value(metadata %"class.Halide::Runtime::Internal::Synchronization::word_lock"* %15, metadata !1059, metadata !DIExpression()) #8, !dbg !1065
  tail call void @_ZN6Halide7Runtime8Internal15Synchronization9word_lock11unlock_fullEv(%"class.Halide::Runtime::Internal::Synchronization::word_lock"* nonnull dereferenceable(8) %15) #7, !dbg !1081
  br label %56, !dbg !1083

16:                                               ; preds = %1
  %17 = icmp ugt %"struct.Halide::Runtime::Internal::Synchronization::hash_bucket"* %3, %5, !dbg !1084
  br i1 %17, label %18, label %37, !dbg !1086

18:                                               ; preds = %16
  call void @llvm.dbg.value(metadata %"struct.Halide::Runtime::Internal::Synchronization::hash_bucket"* %3, metadata !1059, metadata !DIExpression()) #8, !dbg !1087
  %19 = getelementptr inbounds %"struct.Halide::Runtime::Internal::Synchronization::hash_bucket", %"struct.Halide::Runtime::Internal::Synchronization::hash_bucket"* %3, i64 0, i32 0, i32 0, !dbg !1090
  call void @llvm.dbg.value(metadata i64* %19, metadata !1069, metadata !DIExpression()) #8, !dbg !1091
  call void @llvm.dbg.value(metadata i64 -2, metadata !1072, metadata !DIExpression()) #8, !dbg !1091
  %20 = atomicrmw and i64* %19, i64 -2 release, !dbg !1093
  call void @llvm.dbg.value(metadata i64 %20, metadata !1062, metadata !DIExpression()) #8, !dbg !1087
  %21 = and i64 %20, 2, !dbg !1094
  %22 = icmp ne i64 %21, 0, !dbg !1095
  call void @llvm.dbg.value(metadata i1 %22, metadata !1063, metadata !DIExpression(DW_OP_LLVM_convert, 1, DW_ATE_unsigned, DW_OP_LLVM_convert, 8, DW_ATE_unsigned, DW_OP_stack_value)) #8, !dbg !1087
  call void @llvm.dbg.value(metadata i1 undef, metadata !1064, metadata !DIExpression(DW_OP_LLVM_convert, 1, DW_ATE_unsigned, DW_OP_LLVM_convert, 8, DW_ATE_unsigned, DW_OP_stack_value)) #8, !dbg !1087
  %23 = icmp ult i64 %20, 4
  %24 = or i1 %23, %22, !dbg !1096
  call void @llvm.dbg.value(metadata i1 %23, metadata !1064, metadata !DIExpression(DW_OP_LLVM_convert, 1, DW_ATE_unsigned, DW_OP_LLVM_convert, 8, DW_ATE_unsigned, DW_OP_stack_value)) #8, !dbg !1087
  br i1 %24, label %27, label %25, !dbg !1096

25:                                               ; preds = %18
  %26 = getelementptr inbounds %"struct.Halide::Runtime::Internal::Synchronization::hash_bucket", %"struct.Halide::Runtime::Internal::Synchronization::hash_bucket"* %3, i64 0, i32 0, !dbg !1097
  call void @llvm.dbg.value(metadata %"class.Halide::Runtime::Internal::Synchronization::word_lock"* %26, metadata !1059, metadata !DIExpression()) #8, !dbg !1087
  tail call void @_ZN6Halide7Runtime8Internal15Synchronization9word_lock11unlock_fullEv(%"class.Halide::Runtime::Internal::Synchronization::word_lock"* nonnull dereferenceable(8) %26) #7, !dbg !1098
  br label %27, !dbg !1099

27:                                               ; preds = %18, %25
  %28 = load %"struct.Halide::Runtime::Internal::Synchronization::hash_bucket"*, %"struct.Halide::Runtime::Internal::Synchronization::hash_bucket"** %4, align 8, !dbg !1100, !tbaa !1056
  call void @llvm.dbg.value(metadata %"struct.Halide::Runtime::Internal::Synchronization::hash_bucket"* %28, metadata !1059, metadata !DIExpression()) #8, !dbg !1101
  %29 = getelementptr inbounds %"struct.Halide::Runtime::Internal::Synchronization::hash_bucket", %"struct.Halide::Runtime::Internal::Synchronization::hash_bucket"* %28, i64 0, i32 0, i32 0, !dbg !1103
  call void @llvm.dbg.value(metadata i64* %29, metadata !1069, metadata !DIExpression()) #8, !dbg !1104
  call void @llvm.dbg.value(metadata i64 -2, metadata !1072, metadata !DIExpression()) #8, !dbg !1104
  %30 = atomicrmw and i64* %29, i64 -2 release, !dbg !1106
  call void @llvm.dbg.value(metadata i64 %30, metadata !1062, metadata !DIExpression()) #8, !dbg !1101
  %31 = and i64 %30, 2, !dbg !1107
  %32 = icmp ne i64 %31, 0, !dbg !1108
  call void @llvm.dbg.value(metadata i1 %32, metadata !1063, metadata !DIExpression(DW_OP_LLVM_convert, 1, DW_ATE_unsigned, DW_OP_LLVM_convert, 8, DW_ATE_unsigned, DW_OP_stack_value)) #8, !dbg !1101
  call void @llvm.dbg.value(metadata i1 undef, metadata !1064, metadata !DIExpression(DW_OP_LLVM_convert, 1, DW_ATE_unsigned, DW_OP_LLVM_convert, 8, DW_ATE_unsigned, DW_OP_stack_value)) #8, !dbg !1101
  %33 = icmp ult i64 %30, 4
  %34 = or i1 %33, %32, !dbg !1109
  call void @llvm.dbg.value(metadata i1 %33, metadata !1064, metadata !DIExpression(DW_OP_LLVM_convert, 1, DW_ATE_unsigned, DW_OP_LLVM_convert, 8, DW_ATE_unsigned, DW_OP_stack_value)) #8, !dbg !1101
  br i1 %34, label %56, label %35, !dbg !1109

35:                                               ; preds = %27
  %36 = getelementptr inbounds %"struct.Halide::Runtime::Internal::Synchronization::hash_bucket", %"struct.Halide::Runtime::Internal::Synchronization::hash_bucket"* %28, i64 0, i32 0, !dbg !1110
  call void @llvm.dbg.value(metadata %"class.Halide::Runtime::Internal::Synchronization::word_lock"* %36, metadata !1059, metadata !DIExpression()) #8, !dbg !1101
  tail call void @_ZN6Halide7Runtime8Internal15Synchronization9word_lock11unlock_fullEv(%"class.Halide::Runtime::Internal::Synchronization::word_lock"* nonnull dereferenceable(8) %36) #7, !dbg !1111
  br label %56, !dbg !1112

37:                                               ; preds = %16
  call void @llvm.dbg.value(metadata %"struct.Halide::Runtime::Internal::Synchronization::hash_bucket"* %5, metadata !1059, metadata !DIExpression()) #8, !dbg !1113
  %38 = getelementptr inbounds %"struct.Halide::Runtime::Internal::Synchronization::hash_bucket", %"struct.Halide::Runtime::Internal::Synchronization::hash_bucket"* %5, i64 0, i32 0, i32 0, !dbg !1116
  call void @llvm.dbg.value(metadata i64* %38, metadata !1069, metadata !DIExpression()) #8, !dbg !1117
  call void @llvm.dbg.value(metadata i64 -2, metadata !1072, metadata !DIExpression()) #8, !dbg !1117
  %39 = atomicrmw and i64* %38, i64 -2 release, !dbg !1119
  call void @llvm.dbg.value(metadata i64 %39, metadata !1062, metadata !DIExpression()) #8, !dbg !1113
  %40 = and i64 %39, 2, !dbg !1120
  %41 = icmp ne i64 %40, 0, !dbg !1121
  call void @llvm.dbg.value(metadata i1 %41, metadata !1063, metadata !DIExpression(DW_OP_LLVM_convert, 1, DW_ATE_unsigned, DW_OP_LLVM_convert, 8, DW_ATE_unsigned, DW_OP_stack_value)) #8, !dbg !1113
  call void @llvm.dbg.value(metadata i1 undef, metadata !1064, metadata !DIExpression(DW_OP_LLVM_convert, 1, DW_ATE_unsigned, DW_OP_LLVM_convert, 8, DW_ATE_unsigned, DW_OP_stack_value)) #8, !dbg !1113
  %42 = icmp ult i64 %39, 4
  %43 = or i1 %42, %41, !dbg !1122
  call void @llvm.dbg.value(metadata i1 %42, metadata !1064, metadata !DIExpression(DW_OP_LLVM_convert, 1, DW_ATE_unsigned, DW_OP_LLVM_convert, 8, DW_ATE_unsigned, DW_OP_stack_value)) #8, !dbg !1113
  br i1 %43, label %46, label %44, !dbg !1122

44:                                               ; preds = %37
  %45 = getelementptr inbounds %"struct.Halide::Runtime::Internal::Synchronization::hash_bucket", %"struct.Halide::Runtime::Internal::Synchronization::hash_bucket"* %5, i64 0, i32 0, !dbg !1123
  call void @llvm.dbg.value(metadata %"class.Halide::Runtime::Internal::Synchronization::word_lock"* %45, metadata !1059, metadata !DIExpression()) #8, !dbg !1113
  tail call void @_ZN6Halide7Runtime8Internal15Synchronization9word_lock11unlock_fullEv(%"class.Halide::Runtime::Internal::Synchronization::word_lock"* nonnull dereferenceable(8) %45) #7, !dbg !1124
  br label %46, !dbg !1125

46:                                               ; preds = %37, %44
  %47 = load %"struct.Halide::Runtime::Internal::Synchronization::hash_bucket"*, %"struct.Halide::Runtime::Internal::Synchronization::hash_bucket"** %2, align 8, !dbg !1126, !tbaa !1053
  call void @llvm.dbg.value(metadata %"struct.Halide::Runtime::Internal::Synchronization::hash_bucket"* %47, metadata !1059, metadata !DIExpression()) #8, !dbg !1127
  %48 = getelementptr inbounds %"struct.Halide::Runtime::Internal::Synchronization::hash_bucket", %"struct.Halide::Runtime::Internal::Synchronization::hash_bucket"* %47, i64 0, i32 0, i32 0, !dbg !1129
  call void @llvm.dbg.value(metadata i64* %48, metadata !1069, metadata !DIExpression()) #8, !dbg !1130
  call void @llvm.dbg.value(metadata i64 -2, metadata !1072, metadata !DIExpression()) #8, !dbg !1130
  %49 = atomicrmw and i64* %48, i64 -2 release, !dbg !1132
  call void @llvm.dbg.value(metadata i64 %49, metadata !1062, metadata !DIExpression()) #8, !dbg !1127
  %50 = and i64 %49, 2, !dbg !1133
  %51 = icmp ne i64 %50, 0, !dbg !1134
  call void @llvm.dbg.value(metadata i1 %51, metadata !1063, metadata !DIExpression(DW_OP_LLVM_convert, 1, DW_ATE_unsigned, DW_OP_LLVM_convert, 8, DW_ATE_unsigned, DW_OP_stack_value)) #8, !dbg !1127
  call void @llvm.dbg.value(metadata i1 undef, metadata !1064, metadata !DIExpression(DW_OP_LLVM_convert, 1, DW_ATE_unsigned, DW_OP_LLVM_convert, 8, DW_ATE_unsigned, DW_OP_stack_value)) #8, !dbg !1127
  %52 = icmp ult i64 %49, 4
  %53 = or i1 %52, %51, !dbg !1135
  call void @llvm.dbg.value(metadata i1 %52, metadata !1064, metadata !DIExpression(DW_OP_LLVM_convert, 1, DW_ATE_unsigned, DW_OP_LLVM_convert, 8, DW_ATE_unsigned, DW_OP_stack_value)) #8, !dbg !1127
  br i1 %53, label %56, label %54, !dbg !1135

54:                                               ; preds = %46
  %55 = getelementptr inbounds %"struct.Halide::Runtime::Internal::Synchronization::hash_bucket", %"struct.Halide::Runtime::Internal::Synchronization::hash_bucket"* %47, i64 0, i32 0, !dbg !1136
  call void @llvm.dbg.value(metadata %"class.Halide::Runtime::Internal::Synchronization::word_lock"* %55, metadata !1059, metadata !DIExpression()) #8, !dbg !1127
  tail call void @_ZN6Halide7Runtime8Internal15Synchronization9word_lock11unlock_fullEv(%"class.Halide::Runtime::Internal::Synchronization::word_lock"* nonnull dereferenceable(8) %55) #7, !dbg !1137
  br label %56, !dbg !1138

56:                                               ; preds = %54, %46, %35, %27, %14, %7
  ret void, !dbg !1139
}

; Function Attrs: nounwind willreturn mustprogress
define weak dso_local zeroext i1 @_ZN6Halide7Runtime8Internal15Synchronization24parking_control_validateEPvRNS2_15validate_actionE(i8* %0, %"struct.Halide::Runtime::Internal::Synchronization::validate_action"* nonnull align 8 dereferenceable(16) %1) #0 !dbg !1140 {
  call void @llvm.dbg.value(metadata i8* %0, metadata !1142, metadata !DIExpression()), !dbg !1144
  call void @llvm.dbg.value(metadata %"struct.Halide::Runtime::Internal::Synchronization::validate_action"* %1, metadata !1143, metadata !DIExpression()), !dbg !1144
  ret i1 true, !dbg !1145
}

; Function Attrs: nounwind willreturn mustprogress
define weak dso_local void @_ZN6Halide7Runtime8Internal15Synchronization28parking_control_before_sleepEPv(i8* %0) #0 !dbg !1146 {
  call void @llvm.dbg.value(metadata i8* %0, metadata !1148, metadata !DIExpression()), !dbg !1149
  ret void, !dbg !1150
}

; Function Attrs: nounwind willreturn mustprogress
define weak dso_local i64 @_ZN6Halide7Runtime8Internal15Synchronization22parking_control_unparkEPvib(i8* %0, i32 %1, i1 zeroext %2) #0 !dbg !1151 {
  call void @llvm.dbg.value(metadata i8* %0, metadata !1153, metadata !DIExpression()), !dbg !1156
  call void @llvm.dbg.value(metadata i32 %1, metadata !1154, metadata !DIExpression()), !dbg !1156
  call void @llvm.dbg.value(metadata i1 %2, metadata !1155, metadata !DIExpression(DW_OP_LLVM_convert, 1, DW_ATE_unsigned, DW_OP_LLVM_convert, 8, DW_ATE_unsigned, DW_OP_stack_value)), !dbg !1156
  ret i64 0, !dbg !1157
}

; Function Attrs: nounwind willreturn mustprogress
define weak dso_local void @_ZN6Halide7Runtime8Internal15Synchronization32parking_control_requeue_callbackEPvRKNS2_15validate_actionEbb(i8* %0, %"struct.Halide::Runtime::Internal::Synchronization::validate_action"* nonnull align 8 dereferenceable(16) %1, i1 zeroext %2, i1 zeroext %3) #0 !dbg !1158 {
  call void @llvm.dbg.value(metadata i8* %0, metadata !1160, metadata !DIExpression()), !dbg !1164
  call void @llvm.dbg.value(metadata %"struct.Halide::Runtime::Internal::Synchronization::validate_action"* %1, metadata !1161, metadata !DIExpression()), !dbg !1164
  call void @llvm.dbg.value(metadata i1 %2, metadata !1162, metadata !DIExpression(DW_OP_LLVM_convert, 1, DW_ATE_unsigned, DW_OP_LLVM_convert, 8, DW_ATE_unsigned, DW_OP_stack_value)), !dbg !1164
  call void @llvm.dbg.value(metadata i1 %3, metadata !1163, metadata !DIExpression(DW_OP_LLVM_convert, 1, DW_ATE_unsigned, DW_OP_LLVM_convert, 8, DW_ATE_unsigned, DW_OP_stack_value)), !dbg !1164
  ret void, !dbg !1165
}

; Function Attrs: nounwind
define weak dso_local i64 @_ZN6Halide7Runtime8Internal15Synchronization4parkEyRNS2_15parking_controlE(i64 %0, %"struct.Halide::Runtime::Internal::Synchronization::parking_control"* nonnull align 8 dereferenceable(32) %1) local_unnamed_addr #5 !dbg !1166 {
  %3 = alloca %"struct.Halide::Runtime::Internal::Synchronization::queue_data", align 8
  %4 = alloca %"struct.Halide::Runtime::Internal::Synchronization::validate_action", align 8
  call void @llvm.dbg.value(metadata i64 %0, metadata !1171, metadata !DIExpression()), !dbg !1176
  call void @llvm.dbg.value(metadata %"struct.Halide::Runtime::Internal::Synchronization::parking_control"* %1, metadata !1172, metadata !DIExpression()), !dbg !1176
  %5 = bitcast %"struct.Halide::Runtime::Internal::Synchronization::queue_data"* %3 to i8*, !dbg !1177
  call void @llvm.lifetime.start.p0i8(i64 64, i8* nonnull %5) #8, !dbg !1177
  call void @llvm.dbg.declare(metadata %"struct.Halide::Runtime::Internal::Synchronization::queue_data"* %3, metadata !1173, metadata !DIExpression()), !dbg !1178
  call void @llvm.dbg.value(metadata %"struct.Halide::Runtime::Internal::Synchronization::queue_data"* %3, metadata !1179, metadata !DIExpression()) #8, !dbg !1182
  call void @llvm.dbg.value(metadata %"struct.Halide::Runtime::Internal::Synchronization::queue_data"* %3, metadata !681, metadata !DIExpression()) #8, !dbg !1184
  %6 = getelementptr inbounds %"struct.Halide::Runtime::Internal::Synchronization::queue_data", %"struct.Halide::Runtime::Internal::Synchronization::queue_data"* %3, i64 0, i32 0, i32 2, !dbg !1186
  store i8 0, i8* %6, align 8, !dbg !1186, !tbaa !688
  %7 = getelementptr inbounds %"struct.Halide::Runtime::Internal::Synchronization::queue_data", %"struct.Halide::Runtime::Internal::Synchronization::queue_data"* %3, i64 0, i32 0, i32 0, !dbg !1187
  call void @qurt_mutex_init(%union.qurt_mutex_aligned8* nonnull %7) #7, !dbg !1188
  %8 = getelementptr inbounds %"struct.Halide::Runtime::Internal::Synchronization::queue_data", %"struct.Halide::Runtime::Internal::Synchronization::queue_data"* %3, i64 0, i32 0, i32 1, !dbg !1189
  call void @qurt_cond_init(%union.qurt_cond_t* nonnull %8) #7, !dbg !1190
  store i8 0, i8* %6, align 8, !dbg !1191, !tbaa !688
  %9 = getelementptr inbounds %"struct.Halide::Runtime::Internal::Synchronization::queue_data", %"struct.Halide::Runtime::Internal::Synchronization::queue_data"* %3, i64 0, i32 1, !dbg !1192
  store i64 0, i64* %9, align 8, !dbg !1192, !tbaa !1193
  %10 = getelementptr inbounds %"struct.Halide::Runtime::Internal::Synchronization::queue_data", %"struct.Halide::Runtime::Internal::Synchronization::queue_data"* %3, i64 0, i32 2, !dbg !1196
  store %"struct.Halide::Runtime::Internal::Synchronization::queue_data"* null, %"struct.Halide::Runtime::Internal::Synchronization::queue_data"** %10, align 8, !dbg !1196, !tbaa !1197
  %11 = getelementptr inbounds %"struct.Halide::Runtime::Internal::Synchronization::queue_data", %"struct.Halide::Runtime::Internal::Synchronization::queue_data"* %3, i64 0, i32 3, !dbg !1198
  store i64 0, i64* %11, align 8, !dbg !1198, !tbaa !1199
  %12 = call nonnull align 8 dereferenceable(24) %"struct.Halide::Runtime::Internal::Synchronization::hash_bucket"* @_ZN6Halide7Runtime8Internal15Synchronization11lock_bucketEy(i64 %0) #6, !dbg !1200
  call void @llvm.dbg.value(metadata %"struct.Halide::Runtime::Internal::Synchronization::hash_bucket"* %12, metadata !1174, metadata !DIExpression()), !dbg !1176
  %13 = getelementptr inbounds %"struct.Halide::Runtime::Internal::Synchronization::validate_action", %"struct.Halide::Runtime::Internal::Synchronization::validate_action"* %4, i64 0, i32 0, !dbg !1201
  call void @llvm.lifetime.start.p0i8(i64 16, i8* nonnull %13) #8, !dbg !1201
  call void @llvm.dbg.declare(metadata %"struct.Halide::Runtime::Internal::Synchronization::validate_action"* %4, metadata !1175, metadata !DIExpression()), !dbg !1202
  call void @llvm.dbg.value(metadata %"struct.Halide::Runtime::Internal::Synchronization::validate_action"* %4, metadata !1203, metadata !DIExpression()), !dbg !1207
  store i8 0, i8* %13, align 8, !dbg !1209, !tbaa !1210
  %14 = getelementptr inbounds %"struct.Halide::Runtime::Internal::Synchronization::validate_action", %"struct.Halide::Runtime::Internal::Synchronization::validate_action"* %4, i64 0, i32 2, !dbg !1212
  store i64 0, i64* %14, align 8, !dbg !1212, !tbaa !1213
  %15 = getelementptr inbounds %"struct.Halide::Runtime::Internal::Synchronization::parking_control", %"struct.Halide::Runtime::Internal::Synchronization::parking_control"* %1, i64 0, i32 0, !dbg !1214
  %16 = load i1 (i8*, %"struct.Halide::Runtime::Internal::Synchronization::validate_action"*)*, i1 (i8*, %"struct.Halide::Runtime::Internal::Synchronization::validate_action"*)** %15, align 8, !dbg !1214, !tbaa !1216
  %17 = bitcast %"struct.Halide::Runtime::Internal::Synchronization::parking_control"* %1 to i8*, !dbg !1218
  %18 = call zeroext i1 %16(i8* nonnull %17, %"struct.Halide::Runtime::Internal::Synchronization::validate_action"* nonnull align 8 dereferenceable(16) %4) #7, !dbg !1219
  br i1 %18, label %28, label %19, !dbg !1220

19:                                               ; preds = %2
  call void @llvm.dbg.value(metadata %"struct.Halide::Runtime::Internal::Synchronization::hash_bucket"* %12, metadata !1059, metadata !DIExpression()) #8, !dbg !1221
  %20 = getelementptr inbounds %"struct.Halide::Runtime::Internal::Synchronization::hash_bucket", %"struct.Halide::Runtime::Internal::Synchronization::hash_bucket"* %12, i64 0, i32 0, i32 0, !dbg !1224
  call void @llvm.dbg.value(metadata i64* %20, metadata !1069, metadata !DIExpression()) #8, !dbg !1225
  call void @llvm.dbg.value(metadata i64 -2, metadata !1072, metadata !DIExpression()) #8, !dbg !1225
  %21 = atomicrmw and i64* %20, i64 -2 release, !dbg !1227
  call void @llvm.dbg.value(metadata i64 %21, metadata !1062, metadata !DIExpression()) #8, !dbg !1221
  %22 = and i64 %21, 2, !dbg !1228
  %23 = icmp ne i64 %22, 0, !dbg !1229
  call void @llvm.dbg.value(metadata i1 %23, metadata !1063, metadata !DIExpression(DW_OP_LLVM_convert, 1, DW_ATE_unsigned, DW_OP_LLVM_convert, 8, DW_ATE_unsigned, DW_OP_stack_value)) #8, !dbg !1221
  call void @llvm.dbg.value(metadata i1 undef, metadata !1064, metadata !DIExpression(DW_OP_LLVM_convert, 1, DW_ATE_unsigned, DW_OP_LLVM_convert, 8, DW_ATE_unsigned, DW_OP_stack_value)) #8, !dbg !1221
  %24 = icmp ult i64 %21, 4
  %25 = or i1 %24, %23, !dbg !1230
  call void @llvm.dbg.value(metadata i1 %24, metadata !1064, metadata !DIExpression(DW_OP_LLVM_convert, 1, DW_ATE_unsigned, DW_OP_LLVM_convert, 8, DW_ATE_unsigned, DW_OP_stack_value)) #8, !dbg !1221
  br i1 %25, label %54, label %26, !dbg !1230

26:                                               ; preds = %19
  %27 = getelementptr inbounds %"struct.Halide::Runtime::Internal::Synchronization::hash_bucket", %"struct.Halide::Runtime::Internal::Synchronization::hash_bucket"* %12, i64 0, i32 0, !dbg !1231
  call void @llvm.dbg.value(metadata %"class.Halide::Runtime::Internal::Synchronization::word_lock"* %27, metadata !1059, metadata !DIExpression()) #8, !dbg !1221
  call void @_ZN6Halide7Runtime8Internal15Synchronization9word_lock11unlock_fullEv(%"class.Halide::Runtime::Internal::Synchronization::word_lock"* nonnull dereferenceable(8) %27) #7, !dbg !1232
  br label %54, !dbg !1233

28:                                               ; preds = %2
  store %"struct.Halide::Runtime::Internal::Synchronization::queue_data"* null, %"struct.Halide::Runtime::Internal::Synchronization::queue_data"** %10, align 8, !dbg !1234, !tbaa !1197
  store i64 %0, i64* %9, align 8, !dbg !1235, !tbaa !1193
  call void @llvm.dbg.value(metadata %"struct.Halide::Runtime::Internal::Synchronization::queue_data"* %3, metadata !701, metadata !DIExpression()), !dbg !1236
  store i8 1, i8* %6, align 8, !dbg !1238, !tbaa !688
  %29 = getelementptr inbounds %"struct.Halide::Runtime::Internal::Synchronization::hash_bucket", %"struct.Halide::Runtime::Internal::Synchronization::hash_bucket"* %12, i64 0, i32 1, !dbg !1239
  %30 = load %"struct.Halide::Runtime::Internal::Synchronization::queue_data"*, %"struct.Halide::Runtime::Internal::Synchronization::queue_data"** %29, align 8, !dbg !1239, !tbaa !1241
  %31 = icmp eq %"struct.Halide::Runtime::Internal::Synchronization::queue_data"* %30, null, !dbg !1244
  %32 = getelementptr inbounds %"struct.Halide::Runtime::Internal::Synchronization::hash_bucket", %"struct.Halide::Runtime::Internal::Synchronization::hash_bucket"* %12, i64 0, i32 2, !dbg !1245
  %33 = load %"struct.Halide::Runtime::Internal::Synchronization::queue_data"*, %"struct.Halide::Runtime::Internal::Synchronization::queue_data"** %32, align 8, !dbg !1245
  %34 = getelementptr inbounds %"struct.Halide::Runtime::Internal::Synchronization::queue_data", %"struct.Halide::Runtime::Internal::Synchronization::queue_data"* %33, i64 0, i32 2, !dbg !1245
  %35 = select i1 %31, %"struct.Halide::Runtime::Internal::Synchronization::queue_data"** %29, %"struct.Halide::Runtime::Internal::Synchronization::queue_data"** %34, !dbg !1245
  store %"struct.Halide::Runtime::Internal::Synchronization::queue_data"* %3, %"struct.Halide::Runtime::Internal::Synchronization::queue_data"** %35, align 8, !dbg !1246, !tbaa !1042
  %36 = getelementptr inbounds %"struct.Halide::Runtime::Internal::Synchronization::hash_bucket", %"struct.Halide::Runtime::Internal::Synchronization::hash_bucket"* %12, i64 0, i32 2, !dbg !1247
  store %"struct.Halide::Runtime::Internal::Synchronization::queue_data"* %3, %"struct.Halide::Runtime::Internal::Synchronization::queue_data"** %36, align 8, !dbg !1248, !tbaa !1249
  call void @llvm.dbg.value(metadata %"struct.Halide::Runtime::Internal::Synchronization::hash_bucket"* %12, metadata !1059, metadata !DIExpression()) #8, !dbg !1250
  %37 = getelementptr inbounds %"struct.Halide::Runtime::Internal::Synchronization::hash_bucket", %"struct.Halide::Runtime::Internal::Synchronization::hash_bucket"* %12, i64 0, i32 0, i32 0, !dbg !1252
  call void @llvm.dbg.value(metadata i64* %37, metadata !1069, metadata !DIExpression()) #8, !dbg !1253
  call void @llvm.dbg.value(metadata i64 -2, metadata !1072, metadata !DIExpression()) #8, !dbg !1253
  %38 = atomicrmw and i64* %37, i64 -2 release, !dbg !1255
  call void @llvm.dbg.value(metadata i64 %38, metadata !1062, metadata !DIExpression()) #8, !dbg !1250
  %39 = and i64 %38, 2, !dbg !1256
  %40 = icmp ne i64 %39, 0, !dbg !1257
  call void @llvm.dbg.value(metadata i1 %40, metadata !1063, metadata !DIExpression(DW_OP_LLVM_convert, 1, DW_ATE_unsigned, DW_OP_LLVM_convert, 8, DW_ATE_unsigned, DW_OP_stack_value)) #8, !dbg !1250
  call void @llvm.dbg.value(metadata i1 undef, metadata !1064, metadata !DIExpression(DW_OP_LLVM_convert, 1, DW_ATE_unsigned, DW_OP_LLVM_convert, 8, DW_ATE_unsigned, DW_OP_stack_value)) #8, !dbg !1250
  %41 = icmp ult i64 %38, 4
  %42 = or i1 %41, %40, !dbg !1258
  call void @llvm.dbg.value(metadata i1 %41, metadata !1064, metadata !DIExpression(DW_OP_LLVM_convert, 1, DW_ATE_unsigned, DW_OP_LLVM_convert, 8, DW_ATE_unsigned, DW_OP_stack_value)) #8, !dbg !1250
  br i1 %42, label %45, label %43, !dbg !1258

43:                                               ; preds = %28
  %44 = getelementptr inbounds %"struct.Halide::Runtime::Internal::Synchronization::hash_bucket", %"struct.Halide::Runtime::Internal::Synchronization::hash_bucket"* %12, i64 0, i32 0, !dbg !1259
  call void @llvm.dbg.value(metadata %"class.Halide::Runtime::Internal::Synchronization::word_lock"* %44, metadata !1059, metadata !DIExpression()) #8, !dbg !1250
  call void @_ZN6Halide7Runtime8Internal15Synchronization9word_lock11unlock_fullEv(%"class.Halide::Runtime::Internal::Synchronization::word_lock"* nonnull dereferenceable(8) %44) #7, !dbg !1260
  br label %45, !dbg !1261

45:                                               ; preds = %28, %43
  %46 = getelementptr inbounds %"struct.Halide::Runtime::Internal::Synchronization::parking_control", %"struct.Halide::Runtime::Internal::Synchronization::parking_control"* %1, i64 0, i32 1, !dbg !1262
  %47 = load void (i8*)*, void (i8*)** %46, align 8, !dbg !1262, !tbaa !1263
  call void %47(i8* nonnull %17) #7, !dbg !1264
  call void @llvm.dbg.value(metadata %"struct.Halide::Runtime::Internal::Synchronization::queue_data"* %3, metadata !729, metadata !DIExpression()) #8, !dbg !1265
  call void @qurt_mutex_lock(%union.qurt_mutex_aligned8* nonnull %7) #7, !dbg !1267
  %48 = load i8, i8* %6, align 8, !dbg !1268, !tbaa !688, !range !737
  %49 = icmp eq i8 %48, 0, !dbg !1268
  br i1 %49, label %53, label %50, !dbg !1269

50:                                               ; preds = %45, %50
  call void @qurt_cond_wait(%union.qurt_cond_t* nonnull %8, %union.qurt_mutex_aligned8* nonnull %7) #7, !dbg !1270
  %51 = load i8, i8* %6, align 8, !dbg !1268, !tbaa !688, !range !737
  %52 = icmp eq i8 %51, 0, !dbg !1268
  br i1 %52, label %53, label %50, !dbg !1269, !llvm.loop !1271

53:                                               ; preds = %50, %45
  call void @qurt_mutex_unlock(%union.qurt_mutex_aligned8* nonnull %7) #7, !dbg !1273
  br label %54, !dbg !1274

54:                                               ; preds = %26, %19, %53
  %55 = phi i64* [ %11, %53 ], [ %14, %19 ], [ %14, %26 ]
  %56 = load i64, i64* %55, align 8, !dbg !1176, !tbaa !1275
  call void @llvm.lifetime.end.p0i8(i64 16, i8* nonnull %13) #8, !dbg !1276
  call void @llvm.dbg.value(metadata %"struct.Halide::Runtime::Internal::Synchronization::queue_data"* %3, metadata !1277, metadata !DIExpression()) #8, !dbg !1280
  call void @llvm.dbg.value(metadata %"struct.Halide::Runtime::Internal::Synchronization::queue_data"* %3, metadata !754, metadata !DIExpression()) #8, !dbg !1282
  call void @qurt_cond_destroy(%union.qurt_cond_t* nonnull %8) #7, !dbg !1285
  call void @qurt_mutex_destroy(%union.qurt_mutex_aligned8* nonnull %7) #7, !dbg !1286
  call void @llvm.lifetime.end.p0i8(i64 64, i8* nonnull %5) #8, !dbg !1276
  ret i64 %56, !dbg !1276
}

; Function Attrs: nounwind mustprogress
define weak dso_local i64 @_ZN6Halide7Runtime8Internal15Synchronization10unpark_oneEyRNS2_15parking_controlE(i64 %0, %"struct.Halide::Runtime::Internal::Synchronization::parking_control"* nonnull align 8 dereferenceable(32) %1) local_unnamed_addr #2 !dbg !1287 {
  call void @llvm.dbg.value(metadata i64 %0, metadata !1289, metadata !DIExpression()), !dbg !1306
  call void @llvm.dbg.value(metadata %"struct.Halide::Runtime::Internal::Synchronization::parking_control"* %1, metadata !1290, metadata !DIExpression()), !dbg !1306
  %3 = tail call nonnull align 8 dereferenceable(24) %"struct.Halide::Runtime::Internal::Synchronization::hash_bucket"* @_ZN6Halide7Runtime8Internal15Synchronization11lock_bucketEy(i64 %0) #6, !dbg !1307
  call void @llvm.dbg.value(metadata %"struct.Halide::Runtime::Internal::Synchronization::hash_bucket"* %3, metadata !1291, metadata !DIExpression()), !dbg !1306
  %4 = getelementptr inbounds %"struct.Halide::Runtime::Internal::Synchronization::hash_bucket", %"struct.Halide::Runtime::Internal::Synchronization::hash_bucket"* %3, i64 0, i32 1, !dbg !1308
  call void @llvm.dbg.value(metadata %"struct.Halide::Runtime::Internal::Synchronization::queue_data"** %4, metadata !1292, metadata !DIExpression()), !dbg !1306
  call void @llvm.dbg.value(metadata %"struct.Halide::Runtime::Internal::Synchronization::queue_data"* null, metadata !1293, metadata !DIExpression()), !dbg !1306
  %5 = load %"struct.Halide::Runtime::Internal::Synchronization::queue_data"*, %"struct.Halide::Runtime::Internal::Synchronization::queue_data"** %4, align 8, !dbg !1309, !tbaa !1042
  call void @llvm.dbg.value(metadata %"struct.Halide::Runtime::Internal::Synchronization::queue_data"* %5, metadata !1294, metadata !DIExpression()), !dbg !1306
  %6 = getelementptr inbounds %"struct.Halide::Runtime::Internal::Synchronization::hash_bucket", %"struct.Halide::Runtime::Internal::Synchronization::hash_bucket"* %3, i64 0, i32 2
  %7 = getelementptr inbounds %"struct.Halide::Runtime::Internal::Synchronization::parking_control", %"struct.Halide::Runtime::Internal::Synchronization::parking_control"* %1, i64 0, i32 2
  %8 = bitcast %"struct.Halide::Runtime::Internal::Synchronization::parking_control"* %1 to i8*
  %9 = getelementptr inbounds %"struct.Halide::Runtime::Internal::Synchronization::hash_bucket", %"struct.Halide::Runtime::Internal::Synchronization::hash_bucket"* %3, i64 0, i32 0, i32 0
  %10 = getelementptr inbounds %"struct.Halide::Runtime::Internal::Synchronization::hash_bucket", %"struct.Halide::Runtime::Internal::Synchronization::hash_bucket"* %3, i64 0, i32 0
  br label %11, !dbg !1310

11:                                               ; preds = %57, %2
  %12 = phi %"struct.Halide::Runtime::Internal::Synchronization::queue_data"** [ %4, %2 ], [ %58, %57 ], !dbg !1311
  %13 = phi %"struct.Halide::Runtime::Internal::Synchronization::queue_data"* [ null, %2 ], [ %59, %57 ], !dbg !1312
  %14 = phi %"struct.Halide::Runtime::Internal::Synchronization::queue_data"* [ %5, %2 ], [ %60, %57 ], !dbg !1313
  %15 = phi i64 [ undef, %2 ], [ %61, %57 ]
  call void @llvm.dbg.value(metadata %"struct.Halide::Runtime::Internal::Synchronization::queue_data"* %14, metadata !1294, metadata !DIExpression()), !dbg !1306
  call void @llvm.dbg.value(metadata %"struct.Halide::Runtime::Internal::Synchronization::queue_data"* %13, metadata !1293, metadata !DIExpression()), !dbg !1306
  call void @llvm.dbg.value(metadata %"struct.Halide::Runtime::Internal::Synchronization::queue_data"** %12, metadata !1292, metadata !DIExpression()), !dbg !1306
  %16 = icmp eq %"struct.Halide::Runtime::Internal::Synchronization::queue_data"* %14, null, !dbg !1314
  br i1 %16, label %62, label %17, !dbg !1310

17:                                               ; preds = %11
  %18 = getelementptr inbounds %"struct.Halide::Runtime::Internal::Synchronization::queue_data", %"struct.Halide::Runtime::Internal::Synchronization::queue_data"* %14, i64 0, i32 1, !dbg !1315
  call void @llvm.dbg.value(metadata i64* %18, metadata !624, metadata !DIExpression()), !dbg !1316
  call void @llvm.dbg.value(metadata i64* undef, metadata !631, metadata !DIExpression()), !dbg !1316
  %19 = load atomic i64, i64* %18 monotonic, align 8, !dbg !1318
  call void @llvm.dbg.value(metadata i64 %19, metadata !1295, metadata !DIExpression()), !dbg !1319
  %20 = icmp eq i64 %19, %0, !dbg !1320
  %21 = getelementptr inbounds %"struct.Halide::Runtime::Internal::Synchronization::queue_data", %"struct.Halide::Runtime::Internal::Synchronization::queue_data"* %14, i64 0, i32 2, !dbg !1321
  %22 = load %"struct.Halide::Runtime::Internal::Synchronization::queue_data"*, %"struct.Halide::Runtime::Internal::Synchronization::queue_data"** %21, align 8, !dbg !1321, !tbaa !1197
  br i1 %20, label %23, label %57, !dbg !1322

23:                                               ; preds = %17
  call void @llvm.dbg.value(metadata %"struct.Halide::Runtime::Internal::Synchronization::queue_data"* %22, metadata !1297, metadata !DIExpression()), !dbg !1323
  store %"struct.Halide::Runtime::Internal::Synchronization::queue_data"* %22, %"struct.Halide::Runtime::Internal::Synchronization::queue_data"** %12, align 8, !dbg !1324, !tbaa !1042
  call void @llvm.dbg.value(metadata i8 0, metadata !1300, metadata !DIExpression()), !dbg !1323
  %24 = load %"struct.Halide::Runtime::Internal::Synchronization::queue_data"*, %"struct.Halide::Runtime::Internal::Synchronization::queue_data"** %6, align 8, !dbg !1325, !tbaa !1249
  %25 = icmp eq %"struct.Halide::Runtime::Internal::Synchronization::queue_data"* %24, %14, !dbg !1326
  br i1 %25, label %28, label %26, !dbg !1327

26:                                               ; preds = %23
  call void @llvm.dbg.value(metadata %"struct.Halide::Runtime::Internal::Synchronization::queue_data"* %22, metadata !1301, metadata !DIExpression()), !dbg !1328
  call void @llvm.dbg.value(metadata i8 0, metadata !1300, metadata !DIExpression()), !dbg !1323
  %27 = icmp eq %"struct.Halide::Runtime::Internal::Synchronization::queue_data"* %22, null, !dbg !1329
  br i1 %27, label %40, label %29, !dbg !1330

28:                                               ; preds = %23
  store %"struct.Halide::Runtime::Internal::Synchronization::queue_data"* %13, %"struct.Halide::Runtime::Internal::Synchronization::queue_data"** %6, align 8, !dbg !1331, !tbaa !1249
  br label %40, !dbg !1333

29:                                               ; preds = %26, %29
  %30 = phi %"struct.Halide::Runtime::Internal::Synchronization::queue_data"* [ %35, %29 ], [ %22, %26 ]
  call void @llvm.dbg.value(metadata %"struct.Halide::Runtime::Internal::Synchronization::queue_data"* %30, metadata !1301, metadata !DIExpression()), !dbg !1328
  %31 = getelementptr inbounds %"struct.Halide::Runtime::Internal::Synchronization::queue_data", %"struct.Halide::Runtime::Internal::Synchronization::queue_data"* %30, i64 0, i32 1, !dbg !1334
  call void @llvm.dbg.value(metadata i64* %31, metadata !624, metadata !DIExpression()), !dbg !1335
  call void @llvm.dbg.value(metadata i64* undef, metadata !631, metadata !DIExpression()), !dbg !1335
  %32 = load atomic i64, i64* %31 monotonic, align 8, !dbg !1337
  call void @llvm.dbg.value(metadata i64 %32, metadata !1304, metadata !DIExpression()), !dbg !1338
  %33 = icmp eq i64 %32, %0, !dbg !1339
  call void @llvm.dbg.value(metadata i1 %33, metadata !1300, metadata !DIExpression(DW_OP_LLVM_convert, 1, DW_ATE_unsigned, DW_OP_LLVM_convert, 8, DW_ATE_unsigned, DW_OP_stack_value)), !dbg !1323
  %34 = getelementptr inbounds %"struct.Halide::Runtime::Internal::Synchronization::queue_data", %"struct.Halide::Runtime::Internal::Synchronization::queue_data"* %30, i64 0, i32 2, !dbg !1340
  %35 = load %"struct.Halide::Runtime::Internal::Synchronization::queue_data"*, %"struct.Halide::Runtime::Internal::Synchronization::queue_data"** %34, align 8, !dbg !1340, !tbaa !1197
  call void @llvm.dbg.value(metadata %"struct.Halide::Runtime::Internal::Synchronization::queue_data"* %35, metadata !1301, metadata !DIExpression()), !dbg !1328
  %36 = icmp eq %"struct.Halide::Runtime::Internal::Synchronization::queue_data"* %35, null, !dbg !1329
  %37 = or i1 %33, %36, !dbg !1341
  br i1 %37, label %38, label %29, !dbg !1330, !llvm.loop !1342

38:                                               ; preds = %29
  %39 = zext i1 %33 to i8, !dbg !1344
  call void @llvm.dbg.value(metadata i8 %39, metadata !1300, metadata !DIExpression()), !dbg !1323
  br label %40, !dbg !1345

40:                                               ; preds = %38, %26, %28
  %41 = phi i8 [ 0, %28 ], [ 0, %26 ], [ %39, %38 ], !dbg !1346
  call void @llvm.dbg.value(metadata i8 %41, metadata !1300, metadata !DIExpression()), !dbg !1323
  %42 = load i64 (i8*, i32, i1)*, i64 (i8*, i32, i1)** %7, align 8, !dbg !1345, !tbaa !1347
  %43 = icmp ne i8 %41, 0, !dbg !1348
  %44 = tail call i64 %42(i8* nonnull %8, i32 1, i1 zeroext %43) #7, !dbg !1349
  %45 = getelementptr inbounds %"struct.Halide::Runtime::Internal::Synchronization::queue_data", %"struct.Halide::Runtime::Internal::Synchronization::queue_data"* %14, i64 0, i32 3, !dbg !1350
  store i64 %44, i64* %45, align 8, !dbg !1351, !tbaa !1199
  call void @llvm.dbg.value(metadata %"struct.Halide::Runtime::Internal::Synchronization::queue_data"* %14, metadata !875, metadata !DIExpression()) #8, !dbg !1352
  %46 = getelementptr inbounds %"struct.Halide::Runtime::Internal::Synchronization::queue_data", %"struct.Halide::Runtime::Internal::Synchronization::queue_data"* %14, i64 0, i32 0, i32 0, !dbg !1354
  tail call void @qurt_mutex_lock(%union.qurt_mutex_aligned8* nonnull %46) #7, !dbg !1355
  call void @llvm.dbg.value(metadata %"struct.Halide::Runtime::Internal::Synchronization::hash_bucket"* %3, metadata !1059, metadata !DIExpression()) #8, !dbg !1356
  call void @llvm.dbg.value(metadata i64* %9, metadata !1069, metadata !DIExpression()) #8, !dbg !1358
  call void @llvm.dbg.value(metadata i64 -2, metadata !1072, metadata !DIExpression()) #8, !dbg !1358
  %47 = atomicrmw and i64* %9, i64 -2 release, !dbg !1360
  call void @llvm.dbg.value(metadata i64 %47, metadata !1062, metadata !DIExpression()) #8, !dbg !1356
  %48 = and i64 %47, 2, !dbg !1361
  %49 = icmp ne i64 %48, 0, !dbg !1362
  call void @llvm.dbg.value(metadata i1 %49, metadata !1063, metadata !DIExpression(DW_OP_LLVM_convert, 1, DW_ATE_unsigned, DW_OP_LLVM_convert, 8, DW_ATE_unsigned, DW_OP_stack_value)) #8, !dbg !1356
  call void @llvm.dbg.value(metadata i1 undef, metadata !1064, metadata !DIExpression(DW_OP_LLVM_convert, 1, DW_ATE_unsigned, DW_OP_LLVM_convert, 8, DW_ATE_unsigned, DW_OP_stack_value)) #8, !dbg !1356
  %50 = icmp ult i64 %47, 4
  %51 = or i1 %50, %49, !dbg !1363
  call void @llvm.dbg.value(metadata i1 %50, metadata !1064, metadata !DIExpression(DW_OP_LLVM_convert, 1, DW_ATE_unsigned, DW_OP_LLVM_convert, 8, DW_ATE_unsigned, DW_OP_stack_value)) #8, !dbg !1356
  br i1 %51, label %53, label %52, !dbg !1363

52:                                               ; preds = %40
  call void @llvm.dbg.value(metadata %"class.Halide::Runtime::Internal::Synchronization::word_lock"* %10, metadata !1059, metadata !DIExpression()) #8, !dbg !1356
  tail call void @_ZN6Halide7Runtime8Internal15Synchronization9word_lock11unlock_fullEv(%"class.Halide::Runtime::Internal::Synchronization::word_lock"* nonnull dereferenceable(8) %10) #7, !dbg !1364
  br label %53, !dbg !1365

53:                                               ; preds = %40, %52
  call void @llvm.dbg.value(metadata %"struct.Halide::Runtime::Internal::Synchronization::queue_data"* %14, metadata !882, metadata !DIExpression()) #8, !dbg !1366
  %54 = getelementptr inbounds %"struct.Halide::Runtime::Internal::Synchronization::queue_data", %"struct.Halide::Runtime::Internal::Synchronization::queue_data"* %14, i64 0, i32 0, i32 2, !dbg !1368
  store i8 0, i8* %54, align 8, !dbg !1369, !tbaa !688
  %55 = getelementptr inbounds %"struct.Halide::Runtime::Internal::Synchronization::queue_data", %"struct.Halide::Runtime::Internal::Synchronization::queue_data"* %14, i64 0, i32 0, i32 1, !dbg !1370
  tail call void @qurt_cond_signal(%union.qurt_cond_t* nonnull %55) #7, !dbg !1371
  call void @llvm.dbg.value(metadata %"struct.Halide::Runtime::Internal::Synchronization::queue_data"* %14, metadata !891, metadata !DIExpression()) #8, !dbg !1372
  tail call void @qurt_mutex_unlock(%union.qurt_mutex_aligned8* nonnull %46) #7, !dbg !1374
  %56 = zext i8 %41 to i64
  br label %57

57:                                               ; preds = %17, %53
  %58 = phi %"struct.Halide::Runtime::Internal::Synchronization::queue_data"** [ %12, %53 ], [ %21, %17 ], !dbg !1306
  %59 = phi %"struct.Halide::Runtime::Internal::Synchronization::queue_data"* [ %13, %53 ], [ %14, %17 ], !dbg !1306
  %60 = phi %"struct.Halide::Runtime::Internal::Synchronization::queue_data"* [ %14, %53 ], [ %22, %17 ], !dbg !1306
  %61 = phi i64 [ %56, %53 ], [ %15, %17 ]
  call void @llvm.dbg.value(metadata %"struct.Halide::Runtime::Internal::Synchronization::queue_data"* %60, metadata !1294, metadata !DIExpression()), !dbg !1306
  call void @llvm.dbg.value(metadata %"struct.Halide::Runtime::Internal::Synchronization::queue_data"* %59, metadata !1293, metadata !DIExpression()), !dbg !1306
  call void @llvm.dbg.value(metadata %"struct.Halide::Runtime::Internal::Synchronization::queue_data"** %58, metadata !1292, metadata !DIExpression()), !dbg !1306
  br i1 %20, label %71, label %11, !llvm.loop !1375

62:                                               ; preds = %11
  %63 = load i64 (i8*, i32, i1)*, i64 (i8*, i32, i1)** %7, align 8, !dbg !1377, !tbaa !1347
  %64 = tail call i64 %63(i8* nonnull %8, i32 0, i1 zeroext false) #7, !dbg !1378
  call void @llvm.dbg.value(metadata %"struct.Halide::Runtime::Internal::Synchronization::hash_bucket"* %3, metadata !1059, metadata !DIExpression()) #8, !dbg !1379
  call void @llvm.dbg.value(metadata i64* %9, metadata !1069, metadata !DIExpression()) #8, !dbg !1381
  call void @llvm.dbg.value(metadata i64 -2, metadata !1072, metadata !DIExpression()) #8, !dbg !1381
  %65 = atomicrmw and i64* %9, i64 -2 release, !dbg !1383
  call void @llvm.dbg.value(metadata i64 %65, metadata !1062, metadata !DIExpression()) #8, !dbg !1379
  %66 = and i64 %65, 2, !dbg !1384
  %67 = icmp ne i64 %66, 0, !dbg !1385
  call void @llvm.dbg.value(metadata i1 %67, metadata !1063, metadata !DIExpression(DW_OP_LLVM_convert, 1, DW_ATE_unsigned, DW_OP_LLVM_convert, 8, DW_ATE_unsigned, DW_OP_stack_value)) #8, !dbg !1379
  call void @llvm.dbg.value(metadata i1 undef, metadata !1064, metadata !DIExpression(DW_OP_LLVM_convert, 1, DW_ATE_unsigned, DW_OP_LLVM_convert, 8, DW_ATE_unsigned, DW_OP_stack_value)) #8, !dbg !1379
  %68 = icmp ult i64 %65, 4
  %69 = or i1 %68, %67, !dbg !1386
  call void @llvm.dbg.value(metadata i1 %68, metadata !1064, metadata !DIExpression(DW_OP_LLVM_convert, 1, DW_ATE_unsigned, DW_OP_LLVM_convert, 8, DW_ATE_unsigned, DW_OP_stack_value)) #8, !dbg !1379
  br i1 %69, label %71, label %70, !dbg !1386

70:                                               ; preds = %62
  call void @llvm.dbg.value(metadata %"class.Halide::Runtime::Internal::Synchronization::word_lock"* %10, metadata !1059, metadata !DIExpression()) #8, !dbg !1379
  tail call void @_ZN6Halide7Runtime8Internal15Synchronization9word_lock11unlock_fullEv(%"class.Halide::Runtime::Internal::Synchronization::word_lock"* nonnull dereferenceable(8) %10) #7, !dbg !1387
  br label %71, !dbg !1388

71:                                               ; preds = %57, %70, %62
  %72 = phi i64 [ 0, %62 ], [ 0, %70 ], [ %61, %57 ], !dbg !1306
  ret i64 %72, !dbg !1389
}

; Function Attrs: nounwind mustprogress
define weak dso_local i64 @_ZN6Halide7Runtime8Internal15Synchronization10unpark_allEyy(i64 %0, i64 %1) local_unnamed_addr #2 !dbg !1390 {
  %3 = alloca [16 x %"struct.Halide::Runtime::Internal::Synchronization::queue_data"*], align 8
  call void @llvm.dbg.value(metadata i64 %0, metadata !1394, metadata !DIExpression()), !dbg !1420
  call void @llvm.dbg.value(metadata i64 %1, metadata !1395, metadata !DIExpression()), !dbg !1420
  %4 = tail call nonnull align 8 dereferenceable(24) %"struct.Halide::Runtime::Internal::Synchronization::hash_bucket"* @_ZN6Halide7Runtime8Internal15Synchronization11lock_bucketEy(i64 %0) #6, !dbg !1421
  call void @llvm.dbg.value(metadata %"struct.Halide::Runtime::Internal::Synchronization::hash_bucket"* %4, metadata !1396, metadata !DIExpression()), !dbg !1420
  %5 = getelementptr inbounds %"struct.Halide::Runtime::Internal::Synchronization::hash_bucket", %"struct.Halide::Runtime::Internal::Synchronization::hash_bucket"* %4, i64 0, i32 1, !dbg !1422
  call void @llvm.dbg.value(metadata %"struct.Halide::Runtime::Internal::Synchronization::queue_data"** %5, metadata !1397, metadata !DIExpression()), !dbg !1420
  call void @llvm.dbg.value(metadata %"struct.Halide::Runtime::Internal::Synchronization::queue_data"* null, metadata !1398, metadata !DIExpression()), !dbg !1420
  %6 = load %"struct.Halide::Runtime::Internal::Synchronization::queue_data"*, %"struct.Halide::Runtime::Internal::Synchronization::queue_data"** %5, align 8, !dbg !1423, !tbaa !1042
  call void @llvm.dbg.value(metadata %"struct.Halide::Runtime::Internal::Synchronization::queue_data"* %6, metadata !1399, metadata !DIExpression()), !dbg !1420
  call void @llvm.dbg.value(metadata i64 0, metadata !1400, metadata !DIExpression()), !dbg !1420
  %7 = bitcast [16 x %"struct.Halide::Runtime::Internal::Synchronization::queue_data"*]* %3 to i8*, !dbg !1424
  call void @llvm.lifetime.start.p0i8(i64 128, i8* nonnull %7) #8, !dbg !1424
  call void @llvm.dbg.declare(metadata [16 x %"struct.Halide::Runtime::Internal::Synchronization::queue_data"*]* %3, metadata !1402, metadata !DIExpression()), !dbg !1425
  %8 = getelementptr inbounds [16 x %"struct.Halide::Runtime::Internal::Synchronization::queue_data"*], [16 x %"struct.Halide::Runtime::Internal::Synchronization::queue_data"*]* %3, i64 0, i64 0, !dbg !1426
  call void @llvm.dbg.value(metadata %"struct.Halide::Runtime::Internal::Synchronization::queue_data"** %8, metadata !1404, metadata !DIExpression()), !dbg !1420
  call void @llvm.dbg.value(metadata i64 16, metadata !1405, metadata !DIExpression()), !dbg !1420
  call void @llvm.dbg.value(metadata %"struct.Halide::Runtime::Internal::Synchronization::queue_data"* null, metadata !1398, metadata !DIExpression()), !dbg !1420
  call void @llvm.dbg.value(metadata %"struct.Halide::Runtime::Internal::Synchronization::queue_data"* %6, metadata !1399, metadata !DIExpression()), !dbg !1420
  call void @llvm.dbg.value(metadata i64 0, metadata !1400, metadata !DIExpression()), !dbg !1420
  %9 = icmp eq %"struct.Halide::Runtime::Internal::Synchronization::queue_data"* %6, null, !dbg !1427
  br i1 %9, label %59, label %10, !dbg !1428

10:                                               ; preds = %2
  %11 = getelementptr inbounds %"struct.Halide::Runtime::Internal::Synchronization::hash_bucket", %"struct.Halide::Runtime::Internal::Synchronization::hash_bucket"* %4, i64 0, i32 2
  br label %12, !dbg !1428

12:                                               ; preds = %10, %53
  %13 = phi %"struct.Halide::Runtime::Internal::Synchronization::queue_data"* [ null, %10 ], [ %57, %53 ]
  %14 = phi %"struct.Halide::Runtime::Internal::Synchronization::queue_data"* [ %6, %10 ], [ %21, %53 ]
  %15 = phi i64 [ 16, %10 ], [ %56, %53 ]
  %16 = phi %"struct.Halide::Runtime::Internal::Synchronization::queue_data"** [ %8, %10 ], [ %55, %53 ]
  %17 = phi i64 [ 0, %10 ], [ %54, %53 ]
  call void @llvm.dbg.value(metadata %"struct.Halide::Runtime::Internal::Synchronization::queue_data"* %13, metadata !1398, metadata !DIExpression()), !dbg !1420
  call void @llvm.dbg.value(metadata %"struct.Halide::Runtime::Internal::Synchronization::queue_data"* %14, metadata !1399, metadata !DIExpression()), !dbg !1420
  call void @llvm.dbg.value(metadata i64 %15, metadata !1405, metadata !DIExpression()), !dbg !1420
  call void @llvm.dbg.value(metadata %"struct.Halide::Runtime::Internal::Synchronization::queue_data"** %16, metadata !1404, metadata !DIExpression()), !dbg !1420
  call void @llvm.dbg.value(metadata i64 %17, metadata !1400, metadata !DIExpression()), !dbg !1420
  %18 = getelementptr inbounds %"struct.Halide::Runtime::Internal::Synchronization::queue_data", %"struct.Halide::Runtime::Internal::Synchronization::queue_data"* %14, i64 0, i32 1, !dbg !1429
  call void @llvm.dbg.value(metadata i64* %18, metadata !624, metadata !DIExpression()), !dbg !1430
  call void @llvm.dbg.value(metadata i64* undef, metadata !631, metadata !DIExpression()), !dbg !1430
  %19 = load atomic i64, i64* %18 monotonic, align 8, !dbg !1432
  %20 = getelementptr inbounds %"struct.Halide::Runtime::Internal::Synchronization::queue_data", %"struct.Halide::Runtime::Internal::Synchronization::queue_data"* %14, i64 0, i32 2, !dbg !1433
  %21 = load %"struct.Halide::Runtime::Internal::Synchronization::queue_data"*, %"struct.Halide::Runtime::Internal::Synchronization::queue_data"** %20, align 8, !dbg !1433, !tbaa !1197
  call void @llvm.dbg.value(metadata %"struct.Halide::Runtime::Internal::Synchronization::queue_data"* %21, metadata !1408, metadata !DIExpression()), !dbg !1434
  call void @llvm.dbg.value(metadata i64 %19, metadata !1406, metadata !DIExpression()), !dbg !1434
  %22 = icmp eq i64 %19, %0, !dbg !1435
  store %"struct.Halide::Runtime::Internal::Synchronization::queue_data"* %21, %"struct.Halide::Runtime::Internal::Synchronization::queue_data"** %5, align 8, !dbg !1436, !tbaa !1042
  br i1 %22, label %23, label %53, !dbg !1437

23:                                               ; preds = %12
  %24 = load %"struct.Halide::Runtime::Internal::Synchronization::queue_data"*, %"struct.Halide::Runtime::Internal::Synchronization::queue_data"** %11, align 8, !dbg !1438, !tbaa !1249
  %25 = icmp eq %"struct.Halide::Runtime::Internal::Synchronization::queue_data"* %24, %14, !dbg !1440
  br i1 %25, label %26, label %27, !dbg !1441

26:                                               ; preds = %23
  store %"struct.Halide::Runtime::Internal::Synchronization::queue_data"* %13, %"struct.Halide::Runtime::Internal::Synchronization::queue_data"** %11, align 8, !dbg !1442, !tbaa !1249
  br label %27, !dbg !1444

27:                                               ; preds = %26, %23
  %28 = icmp eq i64 %17, %15, !dbg !1445
  br i1 %28, label %29, label %46, !dbg !1446

29:                                               ; preds = %27
  call void @llvm.dbg.value(metadata %"struct.Halide::Runtime::Internal::Synchronization::queue_data"** %16, metadata !1409, metadata !DIExpression()), !dbg !1447
  %30 = shl i64 %15, 4, !dbg !1448
  %31 = call i8* @malloc(i64 %30) #7, !dbg !1449
  %32 = bitcast i8* %31 to %"struct.Halide::Runtime::Internal::Synchronization::queue_data"**, !dbg !1450
  call void @llvm.dbg.value(metadata %"struct.Halide::Runtime::Internal::Synchronization::queue_data"** %32, metadata !1404, metadata !DIExpression()), !dbg !1420
  call void @llvm.dbg.value(metadata i64 0, metadata !1414, metadata !DIExpression()), !dbg !1451
  %33 = icmp eq i64 %15, 0, !dbg !1452
  br i1 %33, label %34, label %37, !dbg !1454

34:                                               ; preds = %37, %29
  %35 = shl i64 %15, 1, !dbg !1455
  call void @llvm.dbg.value(metadata i64 %35, metadata !1405, metadata !DIExpression()), !dbg !1420
  %36 = icmp eq %"struct.Halide::Runtime::Internal::Synchronization::queue_data"** %16, %8, !dbg !1456
  br i1 %36, label %46, label %44, !dbg !1458

37:                                               ; preds = %29, %37
  %38 = phi i64 [ %42, %37 ], [ 0, %29 ]
  call void @llvm.dbg.value(metadata i64 %38, metadata !1414, metadata !DIExpression()), !dbg !1451
  %39 = getelementptr inbounds %"struct.Halide::Runtime::Internal::Synchronization::queue_data"*, %"struct.Halide::Runtime::Internal::Synchronization::queue_data"** %16, i64 %38, !dbg !1459
  %40 = load %"struct.Halide::Runtime::Internal::Synchronization::queue_data"*, %"struct.Halide::Runtime::Internal::Synchronization::queue_data"** %39, align 8, !dbg !1459, !tbaa !1042
  %41 = getelementptr inbounds %"struct.Halide::Runtime::Internal::Synchronization::queue_data"*, %"struct.Halide::Runtime::Internal::Synchronization::queue_data"** %32, i64 %38, !dbg !1461
  store %"struct.Halide::Runtime::Internal::Synchronization::queue_data"* %40, %"struct.Halide::Runtime::Internal::Synchronization::queue_data"** %41, align 8, !dbg !1462, !tbaa !1042
  %42 = add nuw i64 %38, 1, !dbg !1463
  call void @llvm.dbg.value(metadata i64 %42, metadata !1414, metadata !DIExpression()), !dbg !1451
  %43 = icmp eq i64 %42, %15, !dbg !1452
  br i1 %43, label %34, label %37, !dbg !1454, !llvm.loop !1464

44:                                               ; preds = %34
  %45 = bitcast %"struct.Halide::Runtime::Internal::Synchronization::queue_data"** %16 to i8*, !dbg !1466
  call void @free(i8* %45) #7, !dbg !1468
  br label %46, !dbg !1469

46:                                               ; preds = %34, %44, %27
  %47 = phi %"struct.Halide::Runtime::Internal::Synchronization::queue_data"** [ %16, %27 ], [ %32, %44 ], [ %32, %34 ], !dbg !1420
  %48 = phi i64 [ %15, %27 ], [ %35, %44 ], [ %35, %34 ], !dbg !1420
  call void @llvm.dbg.value(metadata i64 %48, metadata !1405, metadata !DIExpression()), !dbg !1420
  call void @llvm.dbg.value(metadata %"struct.Halide::Runtime::Internal::Synchronization::queue_data"** %47, metadata !1404, metadata !DIExpression()), !dbg !1420
  %49 = getelementptr inbounds %"struct.Halide::Runtime::Internal::Synchronization::queue_data", %"struct.Halide::Runtime::Internal::Synchronization::queue_data"* %14, i64 0, i32 3, !dbg !1470
  store i64 %1, i64* %49, align 8, !dbg !1471, !tbaa !1199
  %50 = add i64 %17, 1, !dbg !1472
  call void @llvm.dbg.value(metadata i64 %50, metadata !1400, metadata !DIExpression()), !dbg !1420
  %51 = getelementptr inbounds %"struct.Halide::Runtime::Internal::Synchronization::queue_data"*, %"struct.Halide::Runtime::Internal::Synchronization::queue_data"** %47, i64 %17, !dbg !1473
  store %"struct.Halide::Runtime::Internal::Synchronization::queue_data"* %14, %"struct.Halide::Runtime::Internal::Synchronization::queue_data"** %51, align 8, !dbg !1474, !tbaa !1042
  call void @llvm.dbg.value(metadata %"struct.Halide::Runtime::Internal::Synchronization::queue_data"* %14, metadata !875, metadata !DIExpression()) #8, !dbg !1475
  %52 = getelementptr inbounds %"struct.Halide::Runtime::Internal::Synchronization::queue_data", %"struct.Halide::Runtime::Internal::Synchronization::queue_data"* %14, i64 0, i32 0, i32 0, !dbg !1477
  call void @qurt_mutex_lock(%union.qurt_mutex_aligned8* nonnull %52) #7, !dbg !1478
  call void @llvm.dbg.value(metadata %"struct.Halide::Runtime::Internal::Synchronization::queue_data"* %21, metadata !1399, metadata !DIExpression()), !dbg !1420
  br label %53, !dbg !1479

53:                                               ; preds = %12, %46
  %54 = phi i64 [ %50, %46 ], [ %17, %12 ], !dbg !1420
  %55 = phi %"struct.Halide::Runtime::Internal::Synchronization::queue_data"** [ %47, %46 ], [ %16, %12 ], !dbg !1420
  %56 = phi i64 [ %48, %46 ], [ %15, %12 ], !dbg !1420
  %57 = phi %"struct.Halide::Runtime::Internal::Synchronization::queue_data"* [ %13, %46 ], [ %14, %12 ], !dbg !1420
  call void @llvm.dbg.value(metadata %"struct.Halide::Runtime::Internal::Synchronization::queue_data"* %57, metadata !1398, metadata !DIExpression()), !dbg !1420
  call void @llvm.dbg.value(metadata %"struct.Halide::Runtime::Internal::Synchronization::queue_data"* %21, metadata !1399, metadata !DIExpression()), !dbg !1420
  call void @llvm.dbg.value(metadata i64 %56, metadata !1405, metadata !DIExpression()), !dbg !1420
  call void @llvm.dbg.value(metadata %"struct.Halide::Runtime::Internal::Synchronization::queue_data"** %55, metadata !1404, metadata !DIExpression()), !dbg !1420
  call void @llvm.dbg.value(metadata i64 %54, metadata !1400, metadata !DIExpression()), !dbg !1420
  %58 = icmp eq %"struct.Halide::Runtime::Internal::Synchronization::queue_data"* %21, null, !dbg !1427
  br i1 %58, label %59, label %12, !dbg !1428, !llvm.loop !1480

59:                                               ; preds = %53, %2
  %60 = phi i64 [ 0, %2 ], [ %54, %53 ], !dbg !1420
  %61 = phi %"struct.Halide::Runtime::Internal::Synchronization::queue_data"** [ %8, %2 ], [ %55, %53 ], !dbg !1420
  call void @llvm.dbg.value(metadata %"struct.Halide::Runtime::Internal::Synchronization::hash_bucket"* %4, metadata !1059, metadata !DIExpression()) #8, !dbg !1482
  %62 = getelementptr inbounds %"struct.Halide::Runtime::Internal::Synchronization::hash_bucket", %"struct.Halide::Runtime::Internal::Synchronization::hash_bucket"* %4, i64 0, i32 0, i32 0, !dbg !1484
  call void @llvm.dbg.value(metadata i64* %62, metadata !1069, metadata !DIExpression()) #8, !dbg !1485
  call void @llvm.dbg.value(metadata i64 -2, metadata !1072, metadata !DIExpression()) #8, !dbg !1485
  %63 = atomicrmw and i64* %62, i64 -2 release, !dbg !1487
  call void @llvm.dbg.value(metadata i64 %63, metadata !1062, metadata !DIExpression()) #8, !dbg !1482
  %64 = and i64 %63, 2, !dbg !1488
  %65 = icmp ne i64 %64, 0, !dbg !1489
  call void @llvm.dbg.value(metadata i1 %65, metadata !1063, metadata !DIExpression(DW_OP_LLVM_convert, 1, DW_ATE_unsigned, DW_OP_LLVM_convert, 8, DW_ATE_unsigned, DW_OP_stack_value)) #8, !dbg !1482
  call void @llvm.dbg.value(metadata i1 undef, metadata !1064, metadata !DIExpression(DW_OP_LLVM_convert, 1, DW_ATE_unsigned, DW_OP_LLVM_convert, 8, DW_ATE_unsigned, DW_OP_stack_value)) #8, !dbg !1482
  %66 = icmp ult i64 %63, 4
  %67 = or i1 %66, %65, !dbg !1490
  call void @llvm.dbg.value(metadata i1 %66, metadata !1064, metadata !DIExpression(DW_OP_LLVM_convert, 1, DW_ATE_unsigned, DW_OP_LLVM_convert, 8, DW_ATE_unsigned, DW_OP_stack_value)) #8, !dbg !1482
  br i1 %67, label %70, label %68, !dbg !1490

68:                                               ; preds = %59
  %69 = getelementptr inbounds %"struct.Halide::Runtime::Internal::Synchronization::hash_bucket", %"struct.Halide::Runtime::Internal::Synchronization::hash_bucket"* %4, i64 0, i32 0, !dbg !1491
  call void @llvm.dbg.value(metadata %"class.Halide::Runtime::Internal::Synchronization::word_lock"* %69, metadata !1059, metadata !DIExpression()) #8, !dbg !1482
  call void @_ZN6Halide7Runtime8Internal15Synchronization9word_lock11unlock_fullEv(%"class.Halide::Runtime::Internal::Synchronization::word_lock"* nonnull dereferenceable(8) %69) #7, !dbg !1492
  br label %70, !dbg !1493

70:                                               ; preds = %59, %68
  call void @llvm.dbg.value(metadata i64 0, metadata !1416, metadata !DIExpression()), !dbg !1494
  %71 = icmp eq i64 %60, 0, !dbg !1495
  br i1 %71, label %81, label %73, !dbg !1497

72:                                               ; preds = %73
  call void @llvm.dbg.value(metadata i64 0, metadata !1418, metadata !DIExpression()), !dbg !1498
  br i1 %71, label %81, label %83, !dbg !1499

73:                                               ; preds = %70, %73
  %74 = phi i64 [ %79, %73 ], [ 0, %70 ]
  call void @llvm.dbg.value(metadata i64 %74, metadata !1416, metadata !DIExpression()), !dbg !1494
  %75 = getelementptr inbounds %"struct.Halide::Runtime::Internal::Synchronization::queue_data"*, %"struct.Halide::Runtime::Internal::Synchronization::queue_data"** %61, i64 %74, !dbg !1500
  %76 = load %"struct.Halide::Runtime::Internal::Synchronization::queue_data"*, %"struct.Halide::Runtime::Internal::Synchronization::queue_data"** %75, align 8, !dbg !1500, !tbaa !1042
  call void @llvm.dbg.value(metadata %"struct.Halide::Runtime::Internal::Synchronization::queue_data"* %76, metadata !882, metadata !DIExpression()) #8, !dbg !1502
  %77 = getelementptr inbounds %"struct.Halide::Runtime::Internal::Synchronization::queue_data", %"struct.Halide::Runtime::Internal::Synchronization::queue_data"* %76, i64 0, i32 0, i32 2, !dbg !1504
  store i8 0, i8* %77, align 8, !dbg !1505, !tbaa !688
  %78 = getelementptr inbounds %"struct.Halide::Runtime::Internal::Synchronization::queue_data", %"struct.Halide::Runtime::Internal::Synchronization::queue_data"* %76, i64 0, i32 0, i32 1, !dbg !1506
  call void @qurt_cond_signal(%union.qurt_cond_t* nonnull %78) #7, !dbg !1507
  %79 = add nuw i64 %74, 1, !dbg !1508
  call void @llvm.dbg.value(metadata i64 %79, metadata !1416, metadata !DIExpression()), !dbg !1494
  %80 = icmp eq i64 %79, %60, !dbg !1495
  br i1 %80, label %72, label %73, !dbg !1497, !llvm.loop !1509

81:                                               ; preds = %83, %70, %72
  %82 = icmp eq %"struct.Halide::Runtime::Internal::Synchronization::queue_data"** %61, %8, !dbg !1511
  br i1 %82, label %92, label %90, !dbg !1513

83:                                               ; preds = %72, %83
  %84 = phi i64 [ %88, %83 ], [ 0, %72 ]
  call void @llvm.dbg.value(metadata i64 %84, metadata !1418, metadata !DIExpression()), !dbg !1498
  %85 = getelementptr inbounds %"struct.Halide::Runtime::Internal::Synchronization::queue_data"*, %"struct.Halide::Runtime::Internal::Synchronization::queue_data"** %61, i64 %84, !dbg !1514
  %86 = load %"struct.Halide::Runtime::Internal::Synchronization::queue_data"*, %"struct.Halide::Runtime::Internal::Synchronization::queue_data"** %85, align 8, !dbg !1514, !tbaa !1042
  call void @llvm.dbg.value(metadata %"struct.Halide::Runtime::Internal::Synchronization::queue_data"* %86, metadata !891, metadata !DIExpression()) #8, !dbg !1517
  %87 = getelementptr inbounds %"struct.Halide::Runtime::Internal::Synchronization::queue_data", %"struct.Halide::Runtime::Internal::Synchronization::queue_data"* %86, i64 0, i32 0, i32 0, !dbg !1519
  call void @qurt_mutex_unlock(%union.qurt_mutex_aligned8* nonnull %87) #7, !dbg !1520
  %88 = add nuw i64 %84, 1, !dbg !1521
  call void @llvm.dbg.value(metadata i64 %88, metadata !1418, metadata !DIExpression()), !dbg !1498
  %89 = icmp eq i64 %88, %60, !dbg !1522
  br i1 %89, label %81, label %83, !dbg !1499, !llvm.loop !1523

90:                                               ; preds = %81
  %91 = bitcast %"struct.Halide::Runtime::Internal::Synchronization::queue_data"** %61 to i8*, !dbg !1525
  call void @free(i8* %91) #7, !dbg !1527
  br label %92, !dbg !1528

92:                                               ; preds = %90, %81
  call void @llvm.lifetime.end.p0i8(i64 128, i8* nonnull %7) #8, !dbg !1529
  ret i64 %60, !dbg !1530
}

; Function Attrs: nounwind
define weak dso_local i32 @_ZN6Halide7Runtime8Internal15Synchronization14unpark_requeueEyyRNS2_15parking_controlEy(i64 %0, i64 %1, %"struct.Halide::Runtime::Internal::Synchronization::parking_control"* nonnull align 8 dereferenceable(32) %2, i64 %3) local_unnamed_addr #5 !dbg !1531 {
  %5 = alloca %"struct.Halide::Runtime::Internal::Synchronization::bucket_pair", align 8
  %6 = alloca %"struct.Halide::Runtime::Internal::Synchronization::validate_action", align 8
  call void @llvm.dbg.value(metadata i64 %0, metadata !1535, metadata !DIExpression()), !dbg !1550
  call void @llvm.dbg.value(metadata i64 %1, metadata !1536, metadata !DIExpression()), !dbg !1550
  call void @llvm.dbg.value(metadata %"struct.Halide::Runtime::Internal::Synchronization::parking_control"* %2, metadata !1537, metadata !DIExpression()), !dbg !1550
  call void @llvm.dbg.value(metadata i64 %3, metadata !1538, metadata !DIExpression()), !dbg !1550
  %7 = bitcast %"struct.Halide::Runtime::Internal::Synchronization::bucket_pair"* %5 to i8*, !dbg !1551
  call void @llvm.lifetime.start.p0i8(i64 16, i8* nonnull %7) #8, !dbg !1551
  call void @llvm.dbg.declare(metadata %"struct.Halide::Runtime::Internal::Synchronization::bucket_pair"* %5, metadata !1539, metadata !DIExpression()), !dbg !1552
  call void @llvm.dbg.value(metadata i64 %1, metadata !1536, metadata !DIExpression()), !dbg !1550
  call void @_ZN6Halide7Runtime8Internal15Synchronization16lock_bucket_pairEyy(%"struct.Halide::Runtime::Internal::Synchronization::bucket_pair"* nonnull sret(%"struct.Halide::Runtime::Internal::Synchronization::bucket_pair") align 8 %5, i64 %0, i64 %1) #6, !dbg !1553
  %8 = getelementptr inbounds %"struct.Halide::Runtime::Internal::Synchronization::validate_action", %"struct.Halide::Runtime::Internal::Synchronization::validate_action"* %6, i64 0, i32 0, !dbg !1554
  call void @llvm.lifetime.start.p0i8(i64 16, i8* nonnull %8) #8, !dbg !1554
  call void @llvm.dbg.declare(metadata %"struct.Halide::Runtime::Internal::Synchronization::validate_action"* %6, metadata !1540, metadata !DIExpression()), !dbg !1555
  call void @llvm.dbg.value(metadata %"struct.Halide::Runtime::Internal::Synchronization::validate_action"* %6, metadata !1203, metadata !DIExpression()), !dbg !1556
  store i8 0, i8* %8, align 8, !dbg !1558, !tbaa !1210
  %9 = getelementptr inbounds %"struct.Halide::Runtime::Internal::Synchronization::validate_action", %"struct.Halide::Runtime::Internal::Synchronization::validate_action"* %6, i64 0, i32 2, !dbg !1559
  store i64 0, i64* %9, align 8, !dbg !1559, !tbaa !1213
  %10 = getelementptr inbounds %"struct.Halide::Runtime::Internal::Synchronization::parking_control", %"struct.Halide::Runtime::Internal::Synchronization::parking_control"* %2, i64 0, i32 0, !dbg !1560
  %11 = load i1 (i8*, %"struct.Halide::Runtime::Internal::Synchronization::validate_action"*)*, i1 (i8*, %"struct.Halide::Runtime::Internal::Synchronization::validate_action"*)** %10, align 8, !dbg !1560, !tbaa !1216
  %12 = bitcast %"struct.Halide::Runtime::Internal::Synchronization::parking_control"* %2 to i8*, !dbg !1562
  %13 = call zeroext i1 %11(i8* nonnull %12, %"struct.Halide::Runtime::Internal::Synchronization::validate_action"* nonnull align 8 dereferenceable(16) %6) #7, !dbg !1563
  br i1 %13, label %15, label %14, !dbg !1564

14:                                               ; preds = %4
  call void @_ZN6Halide7Runtime8Internal15Synchronization18unlock_bucket_pairERNS2_11bucket_pairE(%"struct.Halide::Runtime::Internal::Synchronization::bucket_pair"* nonnull align 8 dereferenceable(16) %5) #6, !dbg !1565
  br label %91, !dbg !1567

15:                                               ; preds = %4
  %16 = getelementptr inbounds %"struct.Halide::Runtime::Internal::Synchronization::bucket_pair", %"struct.Halide::Runtime::Internal::Synchronization::bucket_pair"* %5, i64 0, i32 0, !dbg !1568
  %17 = load %"struct.Halide::Runtime::Internal::Synchronization::hash_bucket"*, %"struct.Halide::Runtime::Internal::Synchronization::hash_bucket"** %16, align 8, !dbg !1568, !tbaa !1053
  %18 = getelementptr inbounds %"struct.Halide::Runtime::Internal::Synchronization::hash_bucket", %"struct.Halide::Runtime::Internal::Synchronization::hash_bucket"* %17, i64 0, i32 1, !dbg !1569
  call void @llvm.dbg.value(metadata %"struct.Halide::Runtime::Internal::Synchronization::queue_data"** %18, metadata !1541, metadata !DIExpression()), !dbg !1550
  call void @llvm.dbg.value(metadata %"struct.Halide::Runtime::Internal::Synchronization::queue_data"* null, metadata !1542, metadata !DIExpression()), !dbg !1550
  %19 = load %"struct.Halide::Runtime::Internal::Synchronization::queue_data"*, %"struct.Halide::Runtime::Internal::Synchronization::queue_data"** %18, align 8, !dbg !1570, !tbaa !1042
  call void @llvm.dbg.value(metadata %"struct.Halide::Runtime::Internal::Synchronization::queue_data"* %19, metadata !1543, metadata !DIExpression()), !dbg !1550
  call void @llvm.dbg.value(metadata %"struct.Halide::Runtime::Internal::Synchronization::queue_data"* null, metadata !1544, metadata !DIExpression()), !dbg !1550
  call void @llvm.dbg.value(metadata %"struct.Halide::Runtime::Internal::Synchronization::queue_data"* null, metadata !1545, metadata !DIExpression()), !dbg !1550
  call void @llvm.dbg.value(metadata %"struct.Halide::Runtime::Internal::Synchronization::queue_data"* null, metadata !1546, metadata !DIExpression()), !dbg !1550
  call void @llvm.dbg.value(metadata %"struct.Halide::Runtime::Internal::Synchronization::queue_data"* null, metadata !1542, metadata !DIExpression()), !dbg !1550
  call void @llvm.dbg.value(metadata %"struct.Halide::Runtime::Internal::Synchronization::queue_data"** %18, metadata !1541, metadata !DIExpression()), !dbg !1550
  %20 = icmp eq %"struct.Halide::Runtime::Internal::Synchronization::queue_data"* %19, null, !dbg !1571
  br i1 %20, label %73, label %21, !dbg !1572

21:                                               ; preds = %15, %50
  %22 = phi %"struct.Halide::Runtime::Internal::Synchronization::queue_data"* [ %55, %50 ], [ null, %15 ]
  %23 = phi %"struct.Halide::Runtime::Internal::Synchronization::queue_data"* [ %54, %50 ], [ null, %15 ]
  %24 = phi %"struct.Halide::Runtime::Internal::Synchronization::queue_data"* [ %53, %50 ], [ null, %15 ]
  %25 = phi %"struct.Halide::Runtime::Internal::Synchronization::queue_data"* [ %31, %50 ], [ %19, %15 ]
  %26 = phi %"struct.Halide::Runtime::Internal::Synchronization::queue_data"* [ %52, %50 ], [ null, %15 ]
  %27 = phi %"struct.Halide::Runtime::Internal::Synchronization::queue_data"** [ %51, %50 ], [ %18, %15 ]
  call void @llvm.dbg.value(metadata %"struct.Halide::Runtime::Internal::Synchronization::queue_data"* %22, metadata !1546, metadata !DIExpression()), !dbg !1550
  call void @llvm.dbg.value(metadata %"struct.Halide::Runtime::Internal::Synchronization::queue_data"* %23, metadata !1545, metadata !DIExpression()), !dbg !1550
  call void @llvm.dbg.value(metadata %"struct.Halide::Runtime::Internal::Synchronization::queue_data"* %24, metadata !1544, metadata !DIExpression()), !dbg !1550
  call void @llvm.dbg.value(metadata %"struct.Halide::Runtime::Internal::Synchronization::queue_data"* %25, metadata !1543, metadata !DIExpression()), !dbg !1550
  call void @llvm.dbg.value(metadata %"struct.Halide::Runtime::Internal::Synchronization::queue_data"* %26, metadata !1542, metadata !DIExpression()), !dbg !1550
  call void @llvm.dbg.value(metadata %"struct.Halide::Runtime::Internal::Synchronization::queue_data"** %27, metadata !1541, metadata !DIExpression()), !dbg !1550
  %28 = getelementptr inbounds %"struct.Halide::Runtime::Internal::Synchronization::queue_data", %"struct.Halide::Runtime::Internal::Synchronization::queue_data"* %25, i64 0, i32 1, !dbg !1573
  call void @llvm.dbg.value(metadata i64* %28, metadata !624, metadata !DIExpression()), !dbg !1574
  call void @llvm.dbg.value(metadata i64* undef, metadata !631, metadata !DIExpression()), !dbg !1574
  %29 = load atomic i64, i64* %28 monotonic, align 8, !dbg !1576
  %30 = getelementptr inbounds %"struct.Halide::Runtime::Internal::Synchronization::queue_data", %"struct.Halide::Runtime::Internal::Synchronization::queue_data"* %25, i64 0, i32 2, !dbg !1577
  %31 = load %"struct.Halide::Runtime::Internal::Synchronization::queue_data"*, %"struct.Halide::Runtime::Internal::Synchronization::queue_data"** %30, align 8, !dbg !1577, !tbaa !1197
  call void @llvm.dbg.value(metadata %"struct.Halide::Runtime::Internal::Synchronization::queue_data"* %31, metadata !1549, metadata !DIExpression()), !dbg !1578
  call void @llvm.dbg.value(metadata i64 %29, metadata !1547, metadata !DIExpression()), !dbg !1578
  %32 = icmp eq i64 %29, %0, !dbg !1579
  br i1 %32, label %33, label %50, !dbg !1581

33:                                               ; preds = %21
  store %"struct.Halide::Runtime::Internal::Synchronization::queue_data"* %31, %"struct.Halide::Runtime::Internal::Synchronization::queue_data"** %27, align 8, !dbg !1582, !tbaa !1042
  %34 = load %"struct.Halide::Runtime::Internal::Synchronization::hash_bucket"*, %"struct.Halide::Runtime::Internal::Synchronization::hash_bucket"** %16, align 8, !dbg !1584, !tbaa !1053
  %35 = getelementptr inbounds %"struct.Halide::Runtime::Internal::Synchronization::hash_bucket", %"struct.Halide::Runtime::Internal::Synchronization::hash_bucket"* %34, i64 0, i32 2, !dbg !1586
  %36 = load %"struct.Halide::Runtime::Internal::Synchronization::queue_data"*, %"struct.Halide::Runtime::Internal::Synchronization::queue_data"** %35, align 8, !dbg !1586, !tbaa !1249
  %37 = icmp eq %"struct.Halide::Runtime::Internal::Synchronization::queue_data"* %36, %25, !dbg !1587
  br i1 %37, label %38, label %39, !dbg !1588

38:                                               ; preds = %33
  store %"struct.Halide::Runtime::Internal::Synchronization::queue_data"* %26, %"struct.Halide::Runtime::Internal::Synchronization::queue_data"** %35, align 8, !dbg !1589, !tbaa !1249
  br label %39, !dbg !1591

39:                                               ; preds = %38, %33
  %40 = load i8, i8* %8, align 8, !dbg !1592, !tbaa !1210, !range !737
  %41 = icmp ne i8 %40, 0, !dbg !1592
  %42 = icmp eq %"struct.Halide::Runtime::Internal::Synchronization::queue_data"* %22, null
  %43 = and i1 %42, %41, !dbg !1594
  br i1 %43, label %50, label %44, !dbg !1594

44:                                               ; preds = %39
  %45 = icmp eq %"struct.Halide::Runtime::Internal::Synchronization::queue_data"* %24, null, !dbg !1595
  br i1 %45, label %48, label %46, !dbg !1598

46:                                               ; preds = %44
  %47 = getelementptr inbounds %"struct.Halide::Runtime::Internal::Synchronization::queue_data", %"struct.Halide::Runtime::Internal::Synchronization::queue_data"* %23, i64 0, i32 2, !dbg !1599
  store %"struct.Halide::Runtime::Internal::Synchronization::queue_data"* %25, %"struct.Halide::Runtime::Internal::Synchronization::queue_data"** %47, align 8, !dbg !1601, !tbaa !1197
  br label %48

48:                                               ; preds = %44, %46
  %49 = phi %"struct.Halide::Runtime::Internal::Synchronization::queue_data"* [ %24, %46 ], [ %25, %44 ], !dbg !1550
  call void @llvm.dbg.value(metadata %"struct.Halide::Runtime::Internal::Synchronization::queue_data"* %49, metadata !1544, metadata !DIExpression()), !dbg !1550
  call void @llvm.dbg.value(metadata %"struct.Halide::Runtime::Internal::Synchronization::queue_data"* %25, metadata !1545, metadata !DIExpression()), !dbg !1550
  call void @llvm.dbg.value(metadata i64* %28, metadata !1602, metadata !DIExpression()), !dbg !1608
  call void @llvm.dbg.value(metadata i64* undef, metadata !1607, metadata !DIExpression()), !dbg !1608
  store atomic i64 %1, i64* %28 monotonic, align 8, !dbg !1610
  br label %50

50:                                               ; preds = %21, %48, %39
  %51 = phi %"struct.Halide::Runtime::Internal::Synchronization::queue_data"** [ %27, %39 ], [ %27, %48 ], [ %30, %21 ], !dbg !1550
  %52 = phi %"struct.Halide::Runtime::Internal::Synchronization::queue_data"* [ %26, %39 ], [ %26, %48 ], [ %25, %21 ], !dbg !1550
  %53 = phi %"struct.Halide::Runtime::Internal::Synchronization::queue_data"* [ %24, %39 ], [ %49, %48 ], [ %24, %21 ], !dbg !1611
  %54 = phi %"struct.Halide::Runtime::Internal::Synchronization::queue_data"* [ %23, %39 ], [ %25, %48 ], [ %23, %21 ], !dbg !1612
  %55 = phi %"struct.Halide::Runtime::Internal::Synchronization::queue_data"* [ %25, %39 ], [ %22, %48 ], [ %22, %21 ], !dbg !1550
  call void @llvm.dbg.value(metadata %"struct.Halide::Runtime::Internal::Synchronization::queue_data"* %55, metadata !1546, metadata !DIExpression()), !dbg !1550
  call void @llvm.dbg.value(metadata %"struct.Halide::Runtime::Internal::Synchronization::queue_data"* %54, metadata !1545, metadata !DIExpression()), !dbg !1550
  call void @llvm.dbg.value(metadata %"struct.Halide::Runtime::Internal::Synchronization::queue_data"* %53, metadata !1544, metadata !DIExpression()), !dbg !1550
  call void @llvm.dbg.value(metadata %"struct.Halide::Runtime::Internal::Synchronization::queue_data"* %31, metadata !1543, metadata !DIExpression()), !dbg !1550
  call void @llvm.dbg.value(metadata %"struct.Halide::Runtime::Internal::Synchronization::queue_data"* %52, metadata !1542, metadata !DIExpression()), !dbg !1550
  call void @llvm.dbg.value(metadata %"struct.Halide::Runtime::Internal::Synchronization::queue_data"** %51, metadata !1541, metadata !DIExpression()), !dbg !1550
  %56 = icmp eq %"struct.Halide::Runtime::Internal::Synchronization::queue_data"* %31, null, !dbg !1571
  br i1 %56, label %57, label %21, !dbg !1572, !llvm.loop !1613

57:                                               ; preds = %50
  %58 = icmp eq %"struct.Halide::Runtime::Internal::Synchronization::queue_data"* %53, null, !dbg !1615
  br i1 %58, label %73, label %59, !dbg !1617

59:                                               ; preds = %57
  %60 = getelementptr inbounds %"struct.Halide::Runtime::Internal::Synchronization::queue_data", %"struct.Halide::Runtime::Internal::Synchronization::queue_data"* %54, i64 0, i32 2, !dbg !1618
  store %"struct.Halide::Runtime::Internal::Synchronization::queue_data"* null, %"struct.Halide::Runtime::Internal::Synchronization::queue_data"** %60, align 8, !dbg !1620, !tbaa !1197
  %61 = getelementptr inbounds %"struct.Halide::Runtime::Internal::Synchronization::bucket_pair", %"struct.Halide::Runtime::Internal::Synchronization::bucket_pair"* %5, i64 0, i32 1, !dbg !1621
  %62 = load %"struct.Halide::Runtime::Internal::Synchronization::hash_bucket"*, %"struct.Halide::Runtime::Internal::Synchronization::hash_bucket"** %61, align 8, !dbg !1621, !tbaa !1056
  %63 = getelementptr inbounds %"struct.Halide::Runtime::Internal::Synchronization::hash_bucket", %"struct.Halide::Runtime::Internal::Synchronization::hash_bucket"* %62, i64 0, i32 1, !dbg !1623
  %64 = load %"struct.Halide::Runtime::Internal::Synchronization::queue_data"*, %"struct.Halide::Runtime::Internal::Synchronization::queue_data"** %63, align 8, !dbg !1623, !tbaa !1241
  %65 = icmp eq %"struct.Halide::Runtime::Internal::Synchronization::queue_data"* %64, null, !dbg !1624
  br i1 %65, label %70, label %66, !dbg !1625

66:                                               ; preds = %59
  %67 = getelementptr inbounds %"struct.Halide::Runtime::Internal::Synchronization::hash_bucket", %"struct.Halide::Runtime::Internal::Synchronization::hash_bucket"* %62, i64 0, i32 2, !dbg !1626
  %68 = load %"struct.Halide::Runtime::Internal::Synchronization::queue_data"*, %"struct.Halide::Runtime::Internal::Synchronization::queue_data"** %67, align 8, !dbg !1626, !tbaa !1249
  %69 = getelementptr inbounds %"struct.Halide::Runtime::Internal::Synchronization::queue_data", %"struct.Halide::Runtime::Internal::Synchronization::queue_data"* %68, i64 0, i32 2, !dbg !1628
  br label %70

70:                                               ; preds = %59, %66
  %71 = phi %"struct.Halide::Runtime::Internal::Synchronization::queue_data"** [ %69, %66 ], [ %63, %59 ]
  store %"struct.Halide::Runtime::Internal::Synchronization::queue_data"* %53, %"struct.Halide::Runtime::Internal::Synchronization::queue_data"** %71, align 8, !dbg !1629, !tbaa !1042
  %72 = getelementptr inbounds %"struct.Halide::Runtime::Internal::Synchronization::hash_bucket", %"struct.Halide::Runtime::Internal::Synchronization::hash_bucket"* %62, i64 0, i32 2, !dbg !1630
  store %"struct.Halide::Runtime::Internal::Synchronization::queue_data"* %54, %"struct.Halide::Runtime::Internal::Synchronization::queue_data"** %72, align 8, !dbg !1631, !tbaa !1249
  br label %73, !dbg !1632

73:                                               ; preds = %15, %70, %57
  %74 = phi i1 [ true, %70 ], [ false, %57 ], [ false, %15 ]
  %75 = phi %"struct.Halide::Runtime::Internal::Synchronization::queue_data"* [ %55, %70 ], [ %55, %57 ], [ null, %15 ]
  %76 = getelementptr inbounds %"struct.Halide::Runtime::Internal::Synchronization::parking_control", %"struct.Halide::Runtime::Internal::Synchronization::parking_control"* %2, i64 0, i32 3, !dbg !1633
  %77 = load void (i8*, %"struct.Halide::Runtime::Internal::Synchronization::validate_action"*, i1, i1)*, void (i8*, %"struct.Halide::Runtime::Internal::Synchronization::validate_action"*, i1, i1)** %76, align 8, !dbg !1633, !tbaa !1634
  %78 = icmp ne %"struct.Halide::Runtime::Internal::Synchronization::queue_data"* %75, null, !dbg !1635
  call void %77(i8* nonnull %12, %"struct.Halide::Runtime::Internal::Synchronization::validate_action"* nonnull align 8 dereferenceable(16) %6, i1 zeroext %78, i1 zeroext %74) #7, !dbg !1636
  br i1 %78, label %79, label %84, !dbg !1637

79:                                               ; preds = %73
  %80 = getelementptr inbounds %"struct.Halide::Runtime::Internal::Synchronization::queue_data", %"struct.Halide::Runtime::Internal::Synchronization::queue_data"* %75, i64 0, i32 3, !dbg !1638
  store i64 %3, i64* %80, align 8, !dbg !1641, !tbaa !1199
  call void @llvm.dbg.value(metadata %"struct.Halide::Runtime::Internal::Synchronization::queue_data"* %55, metadata !875, metadata !DIExpression()) #8, !dbg !1642
  %81 = getelementptr inbounds %"struct.Halide::Runtime::Internal::Synchronization::queue_data", %"struct.Halide::Runtime::Internal::Synchronization::queue_data"* %75, i64 0, i32 0, i32 0, !dbg !1644
  call void @qurt_mutex_lock(%union.qurt_mutex_aligned8* nonnull %81) #7, !dbg !1645
  call void @_ZN6Halide7Runtime8Internal15Synchronization18unlock_bucket_pairERNS2_11bucket_pairE(%"struct.Halide::Runtime::Internal::Synchronization::bucket_pair"* nonnull align 8 dereferenceable(16) %5) #6, !dbg !1646
  call void @llvm.dbg.value(metadata %"struct.Halide::Runtime::Internal::Synchronization::queue_data"* %55, metadata !882, metadata !DIExpression()) #8, !dbg !1647
  %82 = getelementptr inbounds %"struct.Halide::Runtime::Internal::Synchronization::queue_data", %"struct.Halide::Runtime::Internal::Synchronization::queue_data"* %75, i64 0, i32 0, i32 2, !dbg !1649
  store i8 0, i8* %82, align 8, !dbg !1650, !tbaa !688
  %83 = getelementptr inbounds %"struct.Halide::Runtime::Internal::Synchronization::queue_data", %"struct.Halide::Runtime::Internal::Synchronization::queue_data"* %75, i64 0, i32 0, i32 1, !dbg !1651
  call void @qurt_cond_signal(%union.qurt_cond_t* nonnull %83) #7, !dbg !1652
  call void @llvm.dbg.value(metadata %"struct.Halide::Runtime::Internal::Synchronization::queue_data"* %55, metadata !891, metadata !DIExpression()) #8, !dbg !1653
  call void @qurt_mutex_unlock(%union.qurt_mutex_aligned8* nonnull %81) #7, !dbg !1655
  br label %85, !dbg !1656

84:                                               ; preds = %73
  call void @_ZN6Halide7Runtime8Internal15Synchronization18unlock_bucket_pairERNS2_11bucket_pairE(%"struct.Halide::Runtime::Internal::Synchronization::bucket_pair"* nonnull align 8 dereferenceable(16) %5) #6, !dbg !1657
  br label %85

85:                                               ; preds = %84, %79
  %86 = load i8, i8* %8, align 8, !dbg !1659
  %87 = and i8 %86, 1, !dbg !1659
  %88 = icmp ne i8 %87, 0, !dbg !1659
  %89 = and i1 %78, %88, !dbg !1659
  %90 = zext i1 %89 to i32, !dbg !1660
  br label %91

91:                                               ; preds = %85, %14
  %92 = phi i32 [ %90, %85 ], [ 0, %14 ], !dbg !1550
  call void @llvm.lifetime.end.p0i8(i64 16, i8* nonnull %8) #8, !dbg !1661
  call void @llvm.lifetime.end.p0i8(i64 16, i8* nonnull %7) #8, !dbg !1661
  ret i32 %92, !dbg !1661
}

; Function Attrs: nounwind willreturn mustprogress
define weak dso_local zeroext i1 @_ZN6Halide7Runtime8Internal15Synchronization30mutex_parking_control_validateEPvRNS2_15validate_actionE(i8* %0, %"struct.Halide::Runtime::Internal::Synchronization::validate_action"* nonnull align 8 dereferenceable(16) %1) #0 !dbg !1662 {
  call void @llvm.dbg.value(metadata i8* %0, metadata !1664, metadata !DIExpression()), !dbg !1668
  call void @llvm.dbg.value(metadata %"struct.Halide::Runtime::Internal::Synchronization::validate_action"* %1, metadata !1665, metadata !DIExpression()), !dbg !1668
  call void @llvm.dbg.value(metadata i8* %0, metadata !1666, metadata !DIExpression()), !dbg !1668
  %3 = getelementptr inbounds i8, i8* %0, i64 32, !dbg !1669
  %4 = bitcast i8* %3 to i64**, !dbg !1669
  %5 = load i64*, i64** %4, align 8, !dbg !1669, !tbaa !1670
  call void @llvm.dbg.value(metadata i64* %5, metadata !624, metadata !DIExpression()), !dbg !1672
  call void @llvm.dbg.value(metadata i64* undef, metadata !631, metadata !DIExpression()), !dbg !1672
  %6 = load atomic i64, i64* %5 monotonic, align 8, !dbg !1674
  call void @llvm.dbg.value(metadata i64 %6, metadata !1667, metadata !DIExpression()), !dbg !1668
  %7 = icmp eq i64 %6, 3, !dbg !1675
  ret i1 %7, !dbg !1676
}

; Function Attrs: nounwind willreturn mustprogress
define weak dso_local i64 @_ZN6Halide7Runtime8Internal15Synchronization28mutex_parking_control_unparkEPvib(i8* %0, i32 %1, i1 zeroext %2) #0 !dbg !1677 {
  call void @llvm.dbg.value(metadata i8* %0, metadata !1679, metadata !DIExpression()), !dbg !1684
  call void @llvm.dbg.value(metadata i32 %1, metadata !1680, metadata !DIExpression()), !dbg !1684
  call void @llvm.dbg.value(metadata i1 %2, metadata !1681, metadata !DIExpression(DW_OP_LLVM_convert, 1, DW_ATE_unsigned, DW_OP_LLVM_convert, 8, DW_ATE_unsigned, DW_OP_stack_value)), !dbg !1684
  call void @llvm.dbg.value(metadata i8* %0, metadata !1682, metadata !DIExpression()), !dbg !1684
  %4 = select i1 %2, i64 2, i64 0, !dbg !1685
  call void @llvm.dbg.value(metadata i64 %4, metadata !1683, metadata !DIExpression()), !dbg !1684
  %5 = getelementptr inbounds i8, i8* %0, i64 32, !dbg !1686
  %6 = bitcast i8* %5 to i64**, !dbg !1686
  %7 = load i64*, i64** %6, align 8, !dbg !1686, !tbaa !1670
  call void @llvm.dbg.value(metadata i64* %7, metadata !1687, metadata !DIExpression()), !dbg !1691
  call void @llvm.dbg.value(metadata i64* undef, metadata !1690, metadata !DIExpression()), !dbg !1691
  store atomic i64 %4, i64* %7 release, align 8, !dbg !1693
  ret i64 0, !dbg !1694
}

; Function Attrs: nounwind willreturn mustprogress
define weak dso_local i64 @_ZN6Halide7Runtime8Internal15Synchronization29signal_parking_control_unparkEPvib(i8* %0, i32 %1, i1 zeroext %2) #0 !dbg !1695 {
  call void @llvm.dbg.value(metadata i8* %0, metadata !1697, metadata !DIExpression()), !dbg !1704
  call void @llvm.dbg.value(metadata i32 %1, metadata !1698, metadata !DIExpression()), !dbg !1704
  call void @llvm.dbg.value(metadata i1 %2, metadata !1699, metadata !DIExpression(DW_OP_LLVM_convert, 1, DW_ATE_unsigned, DW_OP_LLVM_convert, 8, DW_ATE_unsigned, DW_OP_stack_value)), !dbg !1704
  call void @llvm.dbg.value(metadata i8* %0, metadata !1700, metadata !DIExpression()), !dbg !1704
  br i1 %2, label %8, label %4, !dbg !1705

4:                                                ; preds = %3
  call void @llvm.dbg.value(metadata i8* %0, metadata !1700, metadata !DIExpression()), !dbg !1704
  call void @llvm.dbg.value(metadata i64 0, metadata !1701, metadata !DIExpression()), !dbg !1706
  %5 = getelementptr inbounds i8, i8* %0, i64 32, !dbg !1707
  %6 = bitcast i8* %5 to i64**, !dbg !1707
  %7 = load i64*, i64** %6, align 8, !dbg !1707, !tbaa !1708
  call void @llvm.dbg.value(metadata i64* %7, metadata !1602, metadata !DIExpression()), !dbg !1710
  call void @llvm.dbg.value(metadata i64* undef, metadata !1607, metadata !DIExpression()), !dbg !1710
  store atomic i64 0, i64* %7 monotonic, align 8, !dbg !1712
  br label %8, !dbg !1713

8:                                                ; preds = %4, %3
  ret i64 0, !dbg !1714
}

; Function Attrs: nounwind
define weak dso_local zeroext i1 @_ZN6Halide7Runtime8Internal15Synchronization34broadcast_parking_control_validateEPvRNS2_15validate_actionE(i8* %0, %"struct.Halide::Runtime::Internal::Synchronization::validate_action"* nonnull align 8 dereferenceable(16) %1) #5 !dbg !1715 {
  call void @llvm.dbg.value(metadata i8* %0, metadata !1717, metadata !DIExpression()), !dbg !1721
  call void @llvm.dbg.value(metadata %"struct.Halide::Runtime::Internal::Synchronization::validate_action"* %1, metadata !1718, metadata !DIExpression()), !dbg !1721
  call void @llvm.dbg.value(metadata i8* %0, metadata !1719, metadata !DIExpression()), !dbg !1721
  %3 = getelementptr inbounds i8, i8* %0, i64 32, !dbg !1722
  %4 = bitcast i8* %3 to i64**, !dbg !1722
  %5 = load i64*, i64** %4, align 8, !dbg !1722, !tbaa !1723
  call void @llvm.dbg.value(metadata i64* %5, metadata !624, metadata !DIExpression()), !dbg !1725
  call void @llvm.dbg.value(metadata i64* undef, metadata !631, metadata !DIExpression()), !dbg !1725
  %6 = load atomic i64, i64* %5 monotonic, align 8, !dbg !1727
  call void @llvm.dbg.value(metadata i64 %6, metadata !1720, metadata !DIExpression()), !dbg !1721
  %7 = getelementptr inbounds i8, i8* %0, i64 40, !dbg !1728
  %8 = bitcast i8* %7 to %"class.Halide::Runtime::Internal::Synchronization::fast_mutex"**, !dbg !1728
  %9 = load %"class.Halide::Runtime::Internal::Synchronization::fast_mutex"*, %"class.Halide::Runtime::Internal::Synchronization::fast_mutex"** %8, align 8, !dbg !1728, !tbaa !1730
  %10 = ptrtoint %"class.Halide::Runtime::Internal::Synchronization::fast_mutex"* %9 to i64, !dbg !1731
  %11 = icmp eq i64 %6, %10, !dbg !1732
  br i1 %11, label %12, label %30, !dbg !1733

12:                                               ; preds = %2
  call void @llvm.dbg.value(metadata i64 0, metadata !1720, metadata !DIExpression()), !dbg !1721
  call void @llvm.dbg.value(metadata i64* %5, metadata !1602, metadata !DIExpression()), !dbg !1734
  call void @llvm.dbg.value(metadata i64* undef, metadata !1607, metadata !DIExpression()), !dbg !1734
  store atomic i64 0, i64* %5 monotonic, align 8, !dbg !1736
  %13 = load %"class.Halide::Runtime::Internal::Synchronization::fast_mutex"*, %"class.Halide::Runtime::Internal::Synchronization::fast_mutex"** %8, align 8, !dbg !1737, !tbaa !1730
  call void @llvm.dbg.value(metadata %"class.Halide::Runtime::Internal::Synchronization::fast_mutex"* %13, metadata !1738, metadata !DIExpression()), !dbg !1744
  %14 = getelementptr inbounds %"class.Halide::Runtime::Internal::Synchronization::fast_mutex", %"class.Halide::Runtime::Internal::Synchronization::fast_mutex"* %13, i64 0, i32 0, !dbg !1746
  call void @llvm.dbg.value(metadata i64* %14, metadata !624, metadata !DIExpression()), !dbg !1747
  call void @llvm.dbg.value(metadata i64* undef, metadata !631, metadata !DIExpression()), !dbg !1747
  %15 = load atomic i64, i64* %14 monotonic, align 8, !dbg !1749
  call void @llvm.dbg.value(metadata i64 %15, metadata !1741, metadata !DIExpression()), !dbg !1744
  %16 = and i64 %15, 1, !dbg !1750
  %17 = icmp eq i64 %16, 0, !dbg !1752
  br i1 %17, label %27, label %18, !dbg !1753

18:                                               ; preds = %12, %23
  %19 = phi i64 [ %24, %23 ], [ %15, %12 ]
  call void @llvm.dbg.value(metadata i64 %19, metadata !1741, metadata !DIExpression()), !dbg !1744
  call void @llvm.dbg.value(metadata i64 %19, metadata !1741, metadata !DIExpression()), !dbg !1744
  %20 = or i64 %19, 2, !dbg !1754
  call void @llvm.dbg.value(metadata i64 %20, metadata !1742, metadata !DIExpression()), !dbg !1755
  call void @llvm.dbg.value(metadata i64* %14, metadata !1756, metadata !DIExpression()), !dbg !1761
  call void @llvm.dbg.value(metadata i64* undef, metadata !1759, metadata !DIExpression()), !dbg !1761
  call void @llvm.dbg.value(metadata i64* undef, metadata !1760, metadata !DIExpression()), !dbg !1761
  %21 = cmpxchg weak i64* %14, i64 %19, i64 %20 monotonic monotonic, !dbg !1764
  %22 = extractvalue { i64, i1 } %21, 1, !dbg !1764
  br i1 %22, label %27, label %23, !dbg !1764

23:                                               ; preds = %18
  %24 = extractvalue { i64, i1 } %21, 0, !dbg !1764
  call void @llvm.dbg.value(metadata i64 %24, metadata !1741, metadata !DIExpression()), !dbg !1744
  %25 = and i64 %24, 1, !dbg !1750
  %26 = icmp eq i64 %25, 0, !dbg !1752
  br i1 %26, label %27, label %18, !dbg !1753

27:                                               ; preds = %18, %23, %12
  %28 = phi i8 [ 1, %12 ], [ 0, %18 ], [ 1, %23 ]
  %29 = getelementptr inbounds %"struct.Halide::Runtime::Internal::Synchronization::validate_action", %"struct.Halide::Runtime::Internal::Synchronization::validate_action"* %1, i64 0, i32 0, !dbg !1765
  store i8 %28, i8* %29, align 8, !dbg !1766, !tbaa !1210
  br label %30, !dbg !1767

30:                                               ; preds = %2, %27
  ret i1 %11, !dbg !1768
}

; Function Attrs: nounwind willreturn mustprogress
define weak dso_local void @_ZN6Halide7Runtime8Internal15Synchronization42broadcast_parking_control_requeue_callbackEPvRKNS2_15validate_actionEbb(i8* %0, %"struct.Halide::Runtime::Internal::Synchronization::validate_action"* nonnull align 8 dereferenceable(16) %1, i1 zeroext %2, i1 zeroext %3) #0 !dbg !1769 {
  call void @llvm.dbg.value(metadata i8* %0, metadata !1771, metadata !DIExpression()), !dbg !1776
  call void @llvm.dbg.value(metadata %"struct.Halide::Runtime::Internal::Synchronization::validate_action"* %1, metadata !1772, metadata !DIExpression()), !dbg !1776
  call void @llvm.dbg.value(metadata i1 %2, metadata !1773, metadata !DIExpression(DW_OP_LLVM_convert, 1, DW_ATE_unsigned, DW_OP_LLVM_convert, 8, DW_ATE_unsigned, DW_OP_stack_value)), !dbg !1776
  call void @llvm.dbg.value(metadata i1 %3, metadata !1774, metadata !DIExpression(DW_OP_LLVM_convert, 1, DW_ATE_unsigned, DW_OP_LLVM_convert, 8, DW_ATE_unsigned, DW_OP_stack_value)), !dbg !1776
  call void @llvm.dbg.value(metadata i8* %0, metadata !1775, metadata !DIExpression()), !dbg !1776
  %5 = getelementptr inbounds %"struct.Halide::Runtime::Internal::Synchronization::validate_action", %"struct.Halide::Runtime::Internal::Synchronization::validate_action"* %1, i64 0, i32 0, !dbg !1777
  %6 = load i8, i8* %5, align 8, !dbg !1777, !tbaa !1210, !range !737
  %7 = icmp ne i8 %6, 0, !dbg !1777
  %8 = and i1 %7, %3, !dbg !1779
  br i1 %8, label %9, label %15, !dbg !1779

9:                                                ; preds = %4
  %10 = getelementptr inbounds i8, i8* %0, i64 40, !dbg !1780
  %11 = bitcast i8* %10 to %"class.Halide::Runtime::Internal::Synchronization::fast_mutex"**, !dbg !1780
  %12 = load %"class.Halide::Runtime::Internal::Synchronization::fast_mutex"*, %"class.Halide::Runtime::Internal::Synchronization::fast_mutex"** %11, align 8, !dbg !1780, !tbaa !1730
  call void @llvm.dbg.value(metadata %"class.Halide::Runtime::Internal::Synchronization::fast_mutex"* %12, metadata !1782, metadata !DIExpression()), !dbg !1785
  %13 = getelementptr inbounds %"class.Halide::Runtime::Internal::Synchronization::fast_mutex", %"class.Halide::Runtime::Internal::Synchronization::fast_mutex"* %12, i64 0, i32 0, !dbg !1787
  call void @llvm.dbg.value(metadata i64* %13, metadata !1788, metadata !DIExpression()), !dbg !1792
  call void @llvm.dbg.value(metadata i64 2, metadata !1791, metadata !DIExpression()), !dbg !1792
  %14 = atomicrmw or i64* %13, i64 2 monotonic, !dbg !1794
  br label %15, !dbg !1795

15:                                               ; preds = %4, %9
  ret void, !dbg !1796
}

; Function Attrs: nounwind willreturn mustprogress
define weak dso_local zeroext i1 @_ZN6Halide7Runtime8Internal15Synchronization29wait_parking_control_validateEPvRNS2_15validate_actionE(i8* %0, %"struct.Halide::Runtime::Internal::Synchronization::validate_action"* nonnull align 8 dereferenceable(16) %1) #0 !dbg !1797 {
  call void @llvm.dbg.value(metadata i8* %0, metadata !1799, metadata !DIExpression()), !dbg !1803
  call void @llvm.dbg.value(metadata %"struct.Halide::Runtime::Internal::Synchronization::validate_action"* %1, metadata !1800, metadata !DIExpression()), !dbg !1803
  call void @llvm.dbg.value(metadata i8* %0, metadata !1801, metadata !DIExpression()), !dbg !1803
  %3 = getelementptr inbounds i8, i8* %0, i64 32, !dbg !1804
  %4 = bitcast i8* %3 to i64**, !dbg !1804
  %5 = load i64*, i64** %4, align 8, !dbg !1804, !tbaa !1805
  call void @llvm.dbg.value(metadata i64* %5, metadata !624, metadata !DIExpression()), !dbg !1807
  call void @llvm.dbg.value(metadata i64* undef, metadata !631, metadata !DIExpression()), !dbg !1807
  %6 = load atomic i64, i64* %5 monotonic, align 8, !dbg !1809
  call void @llvm.dbg.value(metadata i64 %6, metadata !1802, metadata !DIExpression()), !dbg !1803
  %7 = icmp eq i64 %6, 0, !dbg !1810
  %8 = getelementptr inbounds i8, i8* %0, i64 40, !dbg !1812
  %9 = bitcast i8* %8 to %"class.Halide::Runtime::Internal::Synchronization::fast_mutex"**, !dbg !1812
  %10 = load %"class.Halide::Runtime::Internal::Synchronization::fast_mutex"*, %"class.Halide::Runtime::Internal::Synchronization::fast_mutex"** %9, align 8, !dbg !1812, !tbaa !1813
  %11 = ptrtoint %"class.Halide::Runtime::Internal::Synchronization::fast_mutex"* %10 to i64, !dbg !1812
  br i1 %7, label %12, label %13, !dbg !1814

12:                                               ; preds = %2
  call void @llvm.dbg.value(metadata i8* %0, metadata !1801, metadata !DIExpression()), !dbg !1803
  call void @llvm.dbg.value(metadata i64 %11, metadata !1802, metadata !DIExpression()), !dbg !1803
  call void @llvm.dbg.value(metadata i64* %5, metadata !1602, metadata !DIExpression()), !dbg !1815
  call void @llvm.dbg.value(metadata i64* undef, metadata !1607, metadata !DIExpression()), !dbg !1815
  store atomic i64 %11, i64* %5 monotonic, align 8, !dbg !1818
  br label %17, !dbg !1819

13:                                               ; preds = %2
  %14 = icmp eq i64 %6, %11, !dbg !1820
  br i1 %14, label %17, label %15, !dbg !1822

15:                                               ; preds = %13
  %16 = getelementptr inbounds %"struct.Halide::Runtime::Internal::Synchronization::validate_action", %"struct.Halide::Runtime::Internal::Synchronization::validate_action"* %1, i64 0, i32 2, !dbg !1823
  store i64 %11, i64* %16, align 8, !dbg !1825, !tbaa !1213
  br label %17, !dbg !1826

17:                                               ; preds = %12, %13, %15
  %18 = phi i1 [ false, %15 ], [ true, %13 ], [ true, %12 ], !dbg !1803
  ret i1 %18, !dbg !1827
}

; Function Attrs: nounwind
define weak dso_local void @_ZN6Halide7Runtime8Internal15Synchronization33wait_parking_control_before_sleepEPv(i8* %0) #5 !dbg !1828 {
  %2 = alloca %"struct.Halide::Runtime::Internal::Synchronization::mutex_parking_control", align 8
  call void @llvm.dbg.value(metadata i8* %0, metadata !1830, metadata !DIExpression()), !dbg !1832
  call void @llvm.dbg.value(metadata i8* %0, metadata !1831, metadata !DIExpression()), !dbg !1832
  %3 = getelementptr inbounds i8, i8* %0, i64 40, !dbg !1833
  %4 = bitcast i8* %3 to %"class.Halide::Runtime::Internal::Synchronization::fast_mutex"**, !dbg !1833
  %5 = load %"class.Halide::Runtime::Internal::Synchronization::fast_mutex"*, %"class.Halide::Runtime::Internal::Synchronization::fast_mutex"** %4, align 8, !dbg !1833, !tbaa !1813
  call void @llvm.dbg.value(metadata %"class.Halide::Runtime::Internal::Synchronization::fast_mutex"* %5, metadata !1834, metadata !DIExpression()) #8, !dbg !1839
  call void @llvm.dbg.value(metadata i64 1, metadata !1837, metadata !DIExpression()) #8, !dbg !1839
  call void @llvm.dbg.value(metadata i64 0, metadata !1838, metadata !DIExpression()) #8, !dbg !1839
  %6 = getelementptr inbounds %"class.Halide::Runtime::Internal::Synchronization::fast_mutex", %"class.Halide::Runtime::Internal::Synchronization::fast_mutex"* %5, i64 0, i32 0, !dbg !1841
  call void @llvm.dbg.value(metadata i64* %6, metadata !720, metadata !DIExpression()) #8, !dbg !1843
  call void @llvm.dbg.value(metadata i64* undef, metadata !723, metadata !DIExpression()) #8, !dbg !1843
  call void @llvm.dbg.value(metadata i64* undef, metadata !724, metadata !DIExpression()) #8, !dbg !1843
  %7 = cmpxchg weak i64* %6, i64 1, i64 0 release monotonic, !dbg !1845
  %8 = extractvalue { i64, i1 } %7, 1, !dbg !1845
  br i1 %8, label %22, label %9, !dbg !1846

9:                                                ; preds = %1
  call void @llvm.dbg.value(metadata %"class.Halide::Runtime::Internal::Synchronization::fast_mutex"* %5, metadata !1847, metadata !DIExpression()) #8, !dbg !1853
  call void @llvm.dbg.value(metadata i64 1, metadata !1850, metadata !DIExpression()) #8, !dbg !1853
  call void @llvm.dbg.value(metadata i64 0, metadata !1851, metadata !DIExpression()) #8, !dbg !1853
  call void @llvm.dbg.value(metadata i64* %6, metadata !1856, metadata !DIExpression()) #8, !dbg !1861
  call void @llvm.dbg.value(metadata i64* undef, metadata !1859, metadata !DIExpression()) #8, !dbg !1861
  call void @llvm.dbg.value(metadata i64* undef, metadata !1860, metadata !DIExpression()) #8, !dbg !1861
  %10 = cmpxchg i64* %6, i64 1, i64 0 release monotonic, !dbg !1864
  %11 = extractvalue { i64, i1 } %10, 1, !dbg !1864
  br i1 %11, label %22, label %12, !dbg !1865

12:                                               ; preds = %9
  %13 = bitcast %"struct.Halide::Runtime::Internal::Synchronization::mutex_parking_control"* %2 to i8*, !dbg !1866
  call void @llvm.lifetime.start.p0i8(i64 40, i8* nonnull %13) #8, !dbg !1866
  call void @llvm.dbg.declare(metadata %"struct.Halide::Runtime::Internal::Synchronization::mutex_parking_control"* %2, metadata !1852, metadata !DIExpression()) #8, !dbg !1867
  call void @llvm.dbg.value(metadata %"struct.Halide::Runtime::Internal::Synchronization::mutex_parking_control"* %2, metadata !1868, metadata !DIExpression()) #8, !dbg !1872
  call void @llvm.dbg.value(metadata i64* %6, metadata !1871, metadata !DIExpression()) #8, !dbg !1872
  call void @llvm.dbg.value(metadata %"struct.Halide::Runtime::Internal::Synchronization::mutex_parking_control"* %2, metadata !1874, metadata !DIExpression()) #8, !dbg !1878
  %14 = getelementptr inbounds %"struct.Halide::Runtime::Internal::Synchronization::mutex_parking_control", %"struct.Halide::Runtime::Internal::Synchronization::mutex_parking_control"* %2, i64 0, i32 0, i32 0, !dbg !1880
  %15 = getelementptr inbounds %"struct.Halide::Runtime::Internal::Synchronization::mutex_parking_control", %"struct.Halide::Runtime::Internal::Synchronization::mutex_parking_control"* %2, i64 0, i32 0, i32 1, !dbg !1881
  store void (i8*)* @_ZN6Halide7Runtime8Internal15Synchronization28parking_control_before_sleepEPv, void (i8*)** %15, align 8, !dbg !1881, !tbaa !1263
  %16 = getelementptr inbounds %"struct.Halide::Runtime::Internal::Synchronization::mutex_parking_control", %"struct.Halide::Runtime::Internal::Synchronization::mutex_parking_control"* %2, i64 0, i32 0, i32 2, !dbg !1882
  %17 = getelementptr inbounds %"struct.Halide::Runtime::Internal::Synchronization::mutex_parking_control", %"struct.Halide::Runtime::Internal::Synchronization::mutex_parking_control"* %2, i64 0, i32 0, i32 3, !dbg !1883
  store void (i8*, %"struct.Halide::Runtime::Internal::Synchronization::validate_action"*, i1, i1)* @_ZN6Halide7Runtime8Internal15Synchronization32parking_control_requeue_callbackEPvRKNS2_15validate_actionEbb, void (i8*, %"struct.Halide::Runtime::Internal::Synchronization::validate_action"*, i1, i1)** %17, align 8, !dbg !1883, !tbaa !1634
  %18 = getelementptr inbounds %"struct.Halide::Runtime::Internal::Synchronization::mutex_parking_control", %"struct.Halide::Runtime::Internal::Synchronization::mutex_parking_control"* %2, i64 0, i32 1, !dbg !1884
  store i64* %6, i64** %18, align 8, !dbg !1884, !tbaa !1670
  store i1 (i8*, %"struct.Halide::Runtime::Internal::Synchronization::validate_action"*)* @_ZN6Halide7Runtime8Internal15Synchronization30mutex_parking_control_validateEPvRNS2_15validate_actionE, i1 (i8*, %"struct.Halide::Runtime::Internal::Synchronization::validate_action"*)** %14, align 8, !dbg !1885, !tbaa !1216
  store i64 (i8*, i32, i1)* @_ZN6Halide7Runtime8Internal15Synchronization28mutex_parking_control_unparkEPvib, i64 (i8*, i32, i1)** %16, align 8, !dbg !1887, !tbaa !1347
  %19 = ptrtoint %"class.Halide::Runtime::Internal::Synchronization::fast_mutex"* %5 to i64, !dbg !1888
  %20 = getelementptr inbounds %"struct.Halide::Runtime::Internal::Synchronization::mutex_parking_control", %"struct.Halide::Runtime::Internal::Synchronization::mutex_parking_control"* %2, i64 0, i32 0, !dbg !1889
  %21 = call i64 @_ZN6Halide7Runtime8Internal15Synchronization10unpark_oneEyRNS2_15parking_controlE(i64 %19, %"struct.Halide::Runtime::Internal::Synchronization::parking_control"* nonnull align 8 dereferenceable(32) %20) #7, !dbg !1890
  call void @llvm.lifetime.end.p0i8(i64 40, i8* nonnull %13) #8, !dbg !1891
  br label %22, !dbg !1891

22:                                               ; preds = %1, %9, %12
  ret void, !dbg !1892
}

; Function Attrs: nounwind willreturn mustprogress
define weak dso_local i64 @_ZN6Halide7Runtime8Internal15Synchronization27wait_parking_control_unparkEPvib(i8* %0, i32 %1, i1 zeroext %2) #0 !dbg !1893 {
  call void @llvm.dbg.value(metadata i8* %0, metadata !1895, metadata !DIExpression()), !dbg !1902
  call void @llvm.dbg.value(metadata i32 %1, metadata !1896, metadata !DIExpression()), !dbg !1902
  call void @llvm.dbg.value(metadata i1 %2, metadata !1897, metadata !DIExpression(DW_OP_LLVM_convert, 1, DW_ATE_unsigned, DW_OP_LLVM_convert, 8, DW_ATE_unsigned, DW_OP_stack_value)), !dbg !1902
  call void @llvm.dbg.value(metadata i8* %0, metadata !1898, metadata !DIExpression()), !dbg !1902
  br i1 %2, label %8, label %4, !dbg !1903

4:                                                ; preds = %3
  call void @llvm.dbg.value(metadata i8* %0, metadata !1898, metadata !DIExpression()), !dbg !1902
  call void @llvm.dbg.value(metadata i64 0, metadata !1899, metadata !DIExpression()), !dbg !1904
  %5 = getelementptr inbounds i8, i8* %0, i64 32, !dbg !1905
  %6 = bitcast i8* %5 to i64**, !dbg !1905
  %7 = load i64*, i64** %6, align 8, !dbg !1905, !tbaa !1805
  call void @llvm.dbg.value(metadata i64* %7, metadata !1602, metadata !DIExpression()), !dbg !1906
  call void @llvm.dbg.value(metadata i64* undef, metadata !1607, metadata !DIExpression()), !dbg !1906
  store atomic i64 0, i64* %7 monotonic, align 8, !dbg !1908
  br label %8, !dbg !1909

8:                                                ; preds = %4, %3
  ret i64 0, !dbg !1910
}

; Function Attrs: nounwind
define weak dso_local void @halide_mutex_lock(%struct.halide_mutex* %0) local_unnamed_addr #5 !dbg !1911 {
  %2 = alloca %"struct.Halide::Runtime::Internal::Synchronization::mutex_parking_control", align 8
  call void @llvm.dbg.value(metadata %struct.halide_mutex* %0, metadata !1915, metadata !DIExpression()), !dbg !1917
  call void @llvm.dbg.value(metadata %struct.halide_mutex* %0, metadata !1916, metadata !DIExpression()), !dbg !1917
  call void @llvm.dbg.value(metadata %struct.halide_mutex* %0, metadata !1918, metadata !DIExpression()) #8, !dbg !1923
  call void @llvm.dbg.value(metadata i64 0, metadata !1921, metadata !DIExpression()) #8, !dbg !1923
  call void @llvm.dbg.value(metadata i64 1, metadata !1922, metadata !DIExpression()) #8, !dbg !1923
  %3 = getelementptr %struct.halide_mutex, %struct.halide_mutex* %0, i64 0, i32 0, i64 0, !dbg !1925
  call void @llvm.dbg.value(metadata i64* %3, metadata !643, metadata !DIExpression()) #8, !dbg !1927
  call void @llvm.dbg.value(metadata i64* undef, metadata !648, metadata !DIExpression()) #8, !dbg !1927
  call void @llvm.dbg.value(metadata i64* undef, metadata !649, metadata !DIExpression()) #8, !dbg !1927
  %4 = cmpxchg weak i64* %3, i64 0, i64 1 acquire monotonic, !dbg !1929
  %5 = extractvalue { i64, i1 } %4, 1, !dbg !1929
  br i1 %5, label %59, label %6, !dbg !1930

6:                                                ; preds = %1
  call void @llvm.dbg.value(metadata %struct.halide_mutex* %0, metadata !1918, metadata !DIExpression()) #8, !dbg !1923
  call void @llvm.dbg.value(metadata %struct.halide_mutex* %0, metadata !1916, metadata !DIExpression()), !dbg !1917
  call void @llvm.dbg.value(metadata %struct.halide_mutex* %0, metadata !1931, metadata !DIExpression()) #8, !dbg !1945
  call void @llvm.dbg.value(metadata i32 40, metadata !1934, metadata !DIExpression()) #8, !dbg !1945
  call void @llvm.dbg.value(metadata i64* %3, metadata !624, metadata !DIExpression()) #8, !dbg !1948
  call void @llvm.dbg.value(metadata i64* undef, metadata !631, metadata !DIExpression()) #8, !dbg !1948
  %7 = load atomic i64, i64* %3 monotonic, align 8, !dbg !1950
  %8 = bitcast %"struct.Halide::Runtime::Internal::Synchronization::mutex_parking_control"* %2 to i8*
  %9 = getelementptr inbounds %"struct.Halide::Runtime::Internal::Synchronization::mutex_parking_control", %"struct.Halide::Runtime::Internal::Synchronization::mutex_parking_control"* %2, i64 0, i32 0, i32 0
  %10 = getelementptr inbounds %"struct.Halide::Runtime::Internal::Synchronization::mutex_parking_control", %"struct.Halide::Runtime::Internal::Synchronization::mutex_parking_control"* %2, i64 0, i32 0, i32 1
  %11 = getelementptr inbounds %"struct.Halide::Runtime::Internal::Synchronization::mutex_parking_control", %"struct.Halide::Runtime::Internal::Synchronization::mutex_parking_control"* %2, i64 0, i32 0, i32 2
  %12 = getelementptr inbounds %"struct.Halide::Runtime::Internal::Synchronization::mutex_parking_control", %"struct.Halide::Runtime::Internal::Synchronization::mutex_parking_control"* %2, i64 0, i32 0, i32 3
  %13 = getelementptr inbounds %"struct.Halide::Runtime::Internal::Synchronization::mutex_parking_control", %"struct.Halide::Runtime::Internal::Synchronization::mutex_parking_control"* %2, i64 0, i32 1
  %14 = ptrtoint %struct.halide_mutex* %0 to i64
  %15 = getelementptr inbounds %"struct.Halide::Runtime::Internal::Synchronization::mutex_parking_control", %"struct.Halide::Runtime::Internal::Synchronization::mutex_parking_control"* %2, i64 0, i32 0
  br label %16, !dbg !1951

16:                                               ; preds = %55, %6
  %17 = phi i64 [ %7, %6 ], [ %56, %55 ]
  %18 = phi i32 [ 40, %6 ], [ %57, %55 ]
  call void @llvm.dbg.value(metadata i32 %18, metadata !1934, metadata !DIExpression()) #8, !dbg !1945
  call void @llvm.dbg.value(metadata i64 %17, metadata !1935, metadata !DIExpression()) #8, !dbg !1945
  %19 = and i64 %17, 1, !dbg !1952
  %20 = icmp eq i64 %19, 0, !dbg !1953
  br i1 %20, label %21, label %32, !dbg !1954

21:                                               ; preds = %16, %26
  %22 = phi i64 [ %27, %26 ], [ %17, %16 ]
  call void @llvm.dbg.value(metadata i64 %22, metadata !1935, metadata !DIExpression()) #8, !dbg !1945
  %23 = or i64 %22, 1, !dbg !1955
  call void @llvm.dbg.value(metadata i64 %23, metadata !1936, metadata !DIExpression()) #8, !dbg !1956
  call void @llvm.dbg.value(metadata i64* %3, metadata !643, metadata !DIExpression()) #8, !dbg !1957
  call void @llvm.dbg.value(metadata i64* undef, metadata !648, metadata !DIExpression()) #8, !dbg !1957
  call void @llvm.dbg.value(metadata i64* undef, metadata !649, metadata !DIExpression()) #8, !dbg !1957
  %24 = cmpxchg weak i64* %3, i64 %22, i64 %23 acquire monotonic, !dbg !1960
  %25 = extractvalue { i64, i1 } %24, 1, !dbg !1960
  br i1 %25, label %59, label %26, !dbg !1960

26:                                               ; preds = %21
  %27 = extractvalue { i64, i1 } %24, 0, !dbg !1960
  call void @llvm.dbg.value(metadata i32 %18, metadata !1934, metadata !DIExpression()) #8, !dbg !1945
  call void @llvm.dbg.value(metadata i64 %27, metadata !1935, metadata !DIExpression()) #8, !dbg !1945
  %28 = and i64 %27, 1, !dbg !1952
  %29 = icmp eq i64 %28, 0, !dbg !1953
  br i1 %29, label %21, label %30, !dbg !1954

30:                                               ; preds = %26
  %31 = extractvalue { i64, i1 } %24, 0, !dbg !1960
  br label %32, !dbg !1961

32:                                               ; preds = %30, %16
  %33 = phi i64 [ %17, %16 ], [ %31, %30 ], !dbg !1945
  call void @llvm.dbg.value(metadata %"class.Halide::Runtime::Internal::Synchronization::spin_control"* undef, metadata !657, metadata !DIExpression()) #8, !dbg !1964
  %34 = icmp sgt i32 %18, 0, !dbg !1961
  br i1 %34, label %35, label %40, !dbg !1965

35:                                               ; preds = %32
  call void @llvm.dbg.value(metadata i32 %18, metadata !1934, metadata !DIExpression(DW_OP_constu, 1, DW_OP_minus, DW_OP_stack_value)) #8, !dbg !1945
  %36 = icmp eq i32 %18, 1, !dbg !1966
  br i1 %36, label %40, label %37, !dbg !1967

37:                                               ; preds = %35
  %38 = add nsw i32 %18, -1, !dbg !1968
  call void @llvm.dbg.value(metadata i32 %38, metadata !1934, metadata !DIExpression()) #8, !dbg !1945
  call void @halide_thread_yield() #7, !dbg !1969
  call void @llvm.dbg.value(metadata i64* %3, metadata !624, metadata !DIExpression()) #8, !dbg !1971
  call void @llvm.dbg.value(metadata i64* undef, metadata !631, metadata !DIExpression()) #8, !dbg !1971
  %39 = load atomic i64, i64* %3 monotonic, align 8, !dbg !1973
  br label %55, !dbg !1974

40:                                               ; preds = %35, %32
  %41 = phi i32 [ 0, %35 ], [ %18, %32 ]
  call void @llvm.dbg.value(metadata i64 %33, metadata !1935, metadata !DIExpression()) #8, !dbg !1945
  %42 = and i64 %33, 2, !dbg !1975
  %43 = icmp eq i64 %42, 0, !dbg !1976
  br i1 %43, label %44, label %50, !dbg !1977

44:                                               ; preds = %40
  call void @llvm.dbg.value(metadata i64 %33, metadata !1935, metadata !DIExpression()) #8, !dbg !1945
  %45 = or i64 %33, 2, !dbg !1978
  call void @llvm.dbg.value(metadata i64 %45, metadata !1940, metadata !DIExpression()) #8, !dbg !1979
  call void @llvm.dbg.value(metadata i64* %3, metadata !1756, metadata !DIExpression()) #8, !dbg !1980
  call void @llvm.dbg.value(metadata i64* undef, metadata !1759, metadata !DIExpression()) #8, !dbg !1980
  call void @llvm.dbg.value(metadata i64* undef, metadata !1760, metadata !DIExpression()) #8, !dbg !1980
  %46 = cmpxchg weak i64* %3, i64 %33, i64 %45 monotonic monotonic, !dbg !1983
  %47 = extractvalue { i64, i1 } %46, 1, !dbg !1983
  br i1 %47, label %50, label %48, !dbg !1983

48:                                               ; preds = %44
  %49 = extractvalue { i64, i1 } %46, 0, !dbg !1983
  br label %55

50:                                               ; preds = %44, %40
  call void @llvm.lifetime.start.p0i8(i64 40, i8* nonnull %8) #8, !dbg !1984
  call void @llvm.dbg.declare(metadata %"struct.Halide::Runtime::Internal::Synchronization::mutex_parking_control"* %2, metadata !1943, metadata !DIExpression()) #8, !dbg !1985
  call void @llvm.dbg.value(metadata %"struct.Halide::Runtime::Internal::Synchronization::mutex_parking_control"* %2, metadata !1868, metadata !DIExpression()) #8, !dbg !1986
  call void @llvm.dbg.value(metadata i64* %3, metadata !1871, metadata !DIExpression()) #8, !dbg !1986
  call void @llvm.dbg.value(metadata %"struct.Halide::Runtime::Internal::Synchronization::mutex_parking_control"* %2, metadata !1874, metadata !DIExpression()) #8, !dbg !1988
  store void (i8*)* @_ZN6Halide7Runtime8Internal15Synchronization28parking_control_before_sleepEPv, void (i8*)** %10, align 8, !dbg !1990, !tbaa !1263
  store void (i8*, %"struct.Halide::Runtime::Internal::Synchronization::validate_action"*, i1, i1)* @_ZN6Halide7Runtime8Internal15Synchronization32parking_control_requeue_callbackEPvRKNS2_15validate_actionEbb, void (i8*, %"struct.Halide::Runtime::Internal::Synchronization::validate_action"*, i1, i1)** %12, align 8, !dbg !1991, !tbaa !1634
  store i64* %3, i64** %13, align 8, !dbg !1992, !tbaa !1670
  store i1 (i8*, %"struct.Halide::Runtime::Internal::Synchronization::validate_action"*)* @_ZN6Halide7Runtime8Internal15Synchronization30mutex_parking_control_validateEPvRNS2_15validate_actionE, i1 (i8*, %"struct.Halide::Runtime::Internal::Synchronization::validate_action"*)** %9, align 8, !dbg !1993, !tbaa !1216
  store i64 (i8*, i32, i1)* @_ZN6Halide7Runtime8Internal15Synchronization28mutex_parking_control_unparkEPvib, i64 (i8*, i32, i1)** %11, align 8, !dbg !1994, !tbaa !1347
  %51 = call i64 @_ZN6Halide7Runtime8Internal15Synchronization4parkEyRNS2_15parking_controlE(i64 %14, %"struct.Halide::Runtime::Internal::Synchronization::parking_control"* nonnull align 8 dereferenceable(32) %15) #7, !dbg !1995
  call void @llvm.dbg.value(metadata i64 %51, metadata !1944, metadata !DIExpression()) #8, !dbg !1996
  %52 = icmp eq i64 %51, %14, !dbg !1997
  br i1 %52, label %58, label %53, !dbg !1999

53:                                               ; preds = %50
  call void @llvm.dbg.value(metadata i32 40, metadata !1934, metadata !DIExpression()) #8, !dbg !1945
  call void @llvm.dbg.value(metadata i64* %3, metadata !624, metadata !DIExpression()) #8, !dbg !2000
  call void @llvm.dbg.value(metadata i64* undef, metadata !631, metadata !DIExpression()) #8, !dbg !2000
  %54 = load atomic i64, i64* %3 monotonic, align 8, !dbg !2002
  call void @llvm.lifetime.end.p0i8(i64 40, i8* nonnull %8) #8, !dbg !2003
  br label %55

55:                                               ; preds = %53, %48, %37
  %56 = phi i64 [ %49, %48 ], [ %54, %53 ], [ %39, %37 ]
  %57 = phi i32 [ %41, %48 ], [ 40, %53 ], [ %38, %37 ]
  br label %16, !dbg !1945, !llvm.loop !2004

58:                                               ; preds = %50
  call void @llvm.lifetime.end.p0i8(i64 40, i8* nonnull %8) #8, !dbg !2003
  br label %59

59:                                               ; preds = %21, %1, %58
  ret void, !dbg !2005
}

; Function Attrs: nounwind
define weak dso_local void @halide_mutex_unlock(%struct.halide_mutex* %0) local_unnamed_addr #5 !dbg !2006 {
  %2 = alloca %"struct.Halide::Runtime::Internal::Synchronization::mutex_parking_control", align 8
  call void @llvm.dbg.value(metadata %struct.halide_mutex* %0, metadata !2008, metadata !DIExpression()), !dbg !2010
  call void @llvm.dbg.value(metadata %struct.halide_mutex* %0, metadata !2009, metadata !DIExpression()), !dbg !2010
  call void @llvm.dbg.value(metadata %struct.halide_mutex* %0, metadata !1834, metadata !DIExpression()) #8, !dbg !2011
  call void @llvm.dbg.value(metadata i64 1, metadata !1837, metadata !DIExpression()) #8, !dbg !2011
  call void @llvm.dbg.value(metadata i64 0, metadata !1838, metadata !DIExpression()) #8, !dbg !2011
  %3 = getelementptr %struct.halide_mutex, %struct.halide_mutex* %0, i64 0, i32 0, i64 0, !dbg !2013
  call void @llvm.dbg.value(metadata i64* %3, metadata !720, metadata !DIExpression()) #8, !dbg !2014
  call void @llvm.dbg.value(metadata i64* undef, metadata !723, metadata !DIExpression()) #8, !dbg !2014
  call void @llvm.dbg.value(metadata i64* undef, metadata !724, metadata !DIExpression()) #8, !dbg !2014
  %4 = cmpxchg weak i64* %3, i64 1, i64 0 release monotonic, !dbg !2016
  %5 = extractvalue { i64, i1 } %4, 1, !dbg !2016
  br i1 %5, label %19, label %6, !dbg !2017

6:                                                ; preds = %1
  call void @llvm.dbg.value(metadata %struct.halide_mutex* %0, metadata !1847, metadata !DIExpression()) #8, !dbg !2018
  call void @llvm.dbg.value(metadata i64 1, metadata !1850, metadata !DIExpression()) #8, !dbg !2018
  call void @llvm.dbg.value(metadata i64 0, metadata !1851, metadata !DIExpression()) #8, !dbg !2018
  call void @llvm.dbg.value(metadata i64* %3, metadata !1856, metadata !DIExpression()) #8, !dbg !2020
  call void @llvm.dbg.value(metadata i64* undef, metadata !1859, metadata !DIExpression()) #8, !dbg !2020
  call void @llvm.dbg.value(metadata i64* undef, metadata !1860, metadata !DIExpression()) #8, !dbg !2020
  %7 = cmpxchg i64* %3, i64 1, i64 0 release monotonic, !dbg !2022
  %8 = extractvalue { i64, i1 } %7, 1, !dbg !2022
  br i1 %8, label %19, label %9, !dbg !2023

9:                                                ; preds = %6
  %10 = bitcast %"struct.Halide::Runtime::Internal::Synchronization::mutex_parking_control"* %2 to i8*, !dbg !2024
  call void @llvm.lifetime.start.p0i8(i64 40, i8* nonnull %10) #8, !dbg !2024
  call void @llvm.dbg.declare(metadata %"struct.Halide::Runtime::Internal::Synchronization::mutex_parking_control"* %2, metadata !1852, metadata !DIExpression()) #8, !dbg !2025
  call void @llvm.dbg.value(metadata %"struct.Halide::Runtime::Internal::Synchronization::mutex_parking_control"* %2, metadata !1868, metadata !DIExpression()) #8, !dbg !2026
  call void @llvm.dbg.value(metadata i64* %3, metadata !1871, metadata !DIExpression()) #8, !dbg !2026
  call void @llvm.dbg.value(metadata %"struct.Halide::Runtime::Internal::Synchronization::mutex_parking_control"* %2, metadata !1874, metadata !DIExpression()) #8, !dbg !2028
  %11 = getelementptr inbounds %"struct.Halide::Runtime::Internal::Synchronization::mutex_parking_control", %"struct.Halide::Runtime::Internal::Synchronization::mutex_parking_control"* %2, i64 0, i32 0, i32 0, !dbg !2030
  %12 = getelementptr inbounds %"struct.Halide::Runtime::Internal::Synchronization::mutex_parking_control", %"struct.Halide::Runtime::Internal::Synchronization::mutex_parking_control"* %2, i64 0, i32 0, i32 1, !dbg !2031
  store void (i8*)* @_ZN6Halide7Runtime8Internal15Synchronization28parking_control_before_sleepEPv, void (i8*)** %12, align 8, !dbg !2031, !tbaa !1263
  %13 = getelementptr inbounds %"struct.Halide::Runtime::Internal::Synchronization::mutex_parking_control", %"struct.Halide::Runtime::Internal::Synchronization::mutex_parking_control"* %2, i64 0, i32 0, i32 2, !dbg !2032
  %14 = getelementptr inbounds %"struct.Halide::Runtime::Internal::Synchronization::mutex_parking_control", %"struct.Halide::Runtime::Internal::Synchronization::mutex_parking_control"* %2, i64 0, i32 0, i32 3, !dbg !2033
  store void (i8*, %"struct.Halide::Runtime::Internal::Synchronization::validate_action"*, i1, i1)* @_ZN6Halide7Runtime8Internal15Synchronization32parking_control_requeue_callbackEPvRKNS2_15validate_actionEbb, void (i8*, %"struct.Halide::Runtime::Internal::Synchronization::validate_action"*, i1, i1)** %14, align 8, !dbg !2033, !tbaa !1634
  %15 = getelementptr inbounds %"struct.Halide::Runtime::Internal::Synchronization::mutex_parking_control", %"struct.Halide::Runtime::Internal::Synchronization::mutex_parking_control"* %2, i64 0, i32 1, !dbg !2034
  store i64* %3, i64** %15, align 8, !dbg !2034, !tbaa !1670
  store i1 (i8*, %"struct.Halide::Runtime::Internal::Synchronization::validate_action"*)* @_ZN6Halide7Runtime8Internal15Synchronization30mutex_parking_control_validateEPvRNS2_15validate_actionE, i1 (i8*, %"struct.Halide::Runtime::Internal::Synchronization::validate_action"*)** %11, align 8, !dbg !2035, !tbaa !1216
  store i64 (i8*, i32, i1)* @_ZN6Halide7Runtime8Internal15Synchronization28mutex_parking_control_unparkEPvib, i64 (i8*, i32, i1)** %13, align 8, !dbg !2036, !tbaa !1347
  %16 = ptrtoint %struct.halide_mutex* %0 to i64, !dbg !2037
  %17 = getelementptr inbounds %"struct.Halide::Runtime::Internal::Synchronization::mutex_parking_control", %"struct.Halide::Runtime::Internal::Synchronization::mutex_parking_control"* %2, i64 0, i32 0, !dbg !2038
  %18 = call i64 @_ZN6Halide7Runtime8Internal15Synchronization10unpark_oneEyRNS2_15parking_controlE(i64 %16, %"struct.Halide::Runtime::Internal::Synchronization::parking_control"* nonnull align 8 dereferenceable(32) %17) #7, !dbg !2039
  call void @llvm.lifetime.end.p0i8(i64 40, i8* nonnull %10) #8, !dbg !2040
  br label %19, !dbg !2040

19:                                               ; preds = %1, %6, %9
  ret void, !dbg !2041
}

; Function Attrs: nounwind
define weak dso_local void @halide_cond_broadcast(%struct.halide_cond* %0) local_unnamed_addr #5 !dbg !2042 {
  %2 = alloca %"struct.Halide::Runtime::Internal::Synchronization::broadcast_parking_control", align 8
  call void @llvm.dbg.value(metadata %struct.halide_cond* %0, metadata !2047, metadata !DIExpression()), !dbg !2049
  call void @llvm.dbg.value(metadata %struct.halide_cond* %0, metadata !2048, metadata !DIExpression()), !dbg !2049
  call void @llvm.dbg.value(metadata %struct.halide_cond* %0, metadata !2050, metadata !DIExpression()) #8, !dbg !2055
  %3 = getelementptr %struct.halide_cond, %struct.halide_cond* %0, i64 0, i32 0, i64 0, !dbg !2057
  call void @llvm.dbg.value(metadata i64* %3, metadata !624, metadata !DIExpression()) #8, !dbg !2058
  call void @llvm.dbg.value(metadata i64* undef, metadata !631, metadata !DIExpression()) #8, !dbg !2058
  %4 = load atomic i64, i64* %3 monotonic, align 8, !dbg !2060
  call void @llvm.dbg.value(metadata i64 %4, metadata !2053, metadata !DIExpression()) #8, !dbg !2055
  %5 = icmp eq i64 %4, 0, !dbg !2061
  br i1 %5, label %18, label %6, !dbg !2063

6:                                                ; preds = %1
  call void @llvm.dbg.value(metadata %struct.halide_cond* %0, metadata !2050, metadata !DIExpression()) #8, !dbg !2055
  call void @llvm.dbg.value(metadata %struct.halide_cond* %0, metadata !2048, metadata !DIExpression()), !dbg !2049
  %7 = bitcast %"struct.Halide::Runtime::Internal::Synchronization::broadcast_parking_control"* %2 to i8*, !dbg !2064
  call void @llvm.lifetime.start.p0i8(i64 48, i8* nonnull %7) #8, !dbg !2064
  call void @llvm.dbg.declare(metadata %"struct.Halide::Runtime::Internal::Synchronization::broadcast_parking_control"* %2, metadata !2054, metadata !DIExpression()) #8, !dbg !2065
  call void @llvm.dbg.value(metadata i64 %4, metadata !2053, metadata !DIExpression()) #8, !dbg !2055
  %8 = inttoptr i64 %4 to %"class.Halide::Runtime::Internal::Synchronization::fast_mutex"*, !dbg !2066
  call void @llvm.dbg.value(metadata %"struct.Halide::Runtime::Internal::Synchronization::broadcast_parking_control"* %2, metadata !2067, metadata !DIExpression()) #8, !dbg !2072
  call void @llvm.dbg.value(metadata i64* %3, metadata !2070, metadata !DIExpression()) #8, !dbg !2072
  call void @llvm.dbg.value(metadata %"class.Halide::Runtime::Internal::Synchronization::fast_mutex"* %8, metadata !2071, metadata !DIExpression()) #8, !dbg !2072
  call void @llvm.dbg.value(metadata %"struct.Halide::Runtime::Internal::Synchronization::broadcast_parking_control"* %2, metadata !1874, metadata !DIExpression()) #8, !dbg !2074
  %9 = getelementptr inbounds %"struct.Halide::Runtime::Internal::Synchronization::broadcast_parking_control", %"struct.Halide::Runtime::Internal::Synchronization::broadcast_parking_control"* %2, i64 0, i32 0, i32 0, !dbg !2076
  %10 = getelementptr inbounds %"struct.Halide::Runtime::Internal::Synchronization::broadcast_parking_control", %"struct.Halide::Runtime::Internal::Synchronization::broadcast_parking_control"* %2, i64 0, i32 0, i32 1, !dbg !2077
  store void (i8*)* @_ZN6Halide7Runtime8Internal15Synchronization28parking_control_before_sleepEPv, void (i8*)** %10, align 8, !dbg !2077, !tbaa !1263
  %11 = getelementptr inbounds %"struct.Halide::Runtime::Internal::Synchronization::broadcast_parking_control", %"struct.Halide::Runtime::Internal::Synchronization::broadcast_parking_control"* %2, i64 0, i32 0, i32 2, !dbg !2078
  store i64 (i8*, i32, i1)* @_ZN6Halide7Runtime8Internal15Synchronization22parking_control_unparkEPvib, i64 (i8*, i32, i1)** %11, align 8, !dbg !2078, !tbaa !1347
  %12 = getelementptr inbounds %"struct.Halide::Runtime::Internal::Synchronization::broadcast_parking_control", %"struct.Halide::Runtime::Internal::Synchronization::broadcast_parking_control"* %2, i64 0, i32 0, i32 3, !dbg !2079
  %13 = getelementptr inbounds %"struct.Halide::Runtime::Internal::Synchronization::broadcast_parking_control", %"struct.Halide::Runtime::Internal::Synchronization::broadcast_parking_control"* %2, i64 0, i32 1, !dbg !2080
  store i64* %3, i64** %13, align 8, !dbg !2080, !tbaa !1723
  %14 = getelementptr inbounds %"struct.Halide::Runtime::Internal::Synchronization::broadcast_parking_control", %"struct.Halide::Runtime::Internal::Synchronization::broadcast_parking_control"* %2, i64 0, i32 2, !dbg !2081
  store %"class.Halide::Runtime::Internal::Synchronization::fast_mutex"* %8, %"class.Halide::Runtime::Internal::Synchronization::fast_mutex"** %14, align 8, !dbg !2081, !tbaa !1730
  store i1 (i8*, %"struct.Halide::Runtime::Internal::Synchronization::validate_action"*)* @_ZN6Halide7Runtime8Internal15Synchronization34broadcast_parking_control_validateEPvRNS2_15validate_actionE, i1 (i8*, %"struct.Halide::Runtime::Internal::Synchronization::validate_action"*)** %9, align 8, !dbg !2082, !tbaa !1216
  store void (i8*, %"struct.Halide::Runtime::Internal::Synchronization::validate_action"*, i1, i1)* @_ZN6Halide7Runtime8Internal15Synchronization42broadcast_parking_control_requeue_callbackEPvRKNS2_15validate_actionEbb, void (i8*, %"struct.Halide::Runtime::Internal::Synchronization::validate_action"*, i1, i1)** %12, align 8, !dbg !2084, !tbaa !1634
  %15 = ptrtoint %struct.halide_cond* %0 to i64, !dbg !2085
  %16 = getelementptr inbounds %"struct.Halide::Runtime::Internal::Synchronization::broadcast_parking_control", %"struct.Halide::Runtime::Internal::Synchronization::broadcast_parking_control"* %2, i64 0, i32 0, !dbg !2086
  %17 = call i32 @_ZN6Halide7Runtime8Internal15Synchronization14unpark_requeueEyyRNS2_15parking_controlEy(i64 %15, i64 %4, %"struct.Halide::Runtime::Internal::Synchronization::parking_control"* nonnull align 8 dereferenceable(32) %16, i64 0) #7, !dbg !2087
  call void @llvm.lifetime.end.p0i8(i64 48, i8* nonnull %7) #8, !dbg !2088
  br label %18, !dbg !2088

18:                                               ; preds = %1, %6
  ret void, !dbg !2089
}

; Function Attrs: nounwind
define weak dso_local void @halide_cond_signal(%struct.halide_cond* %0) local_unnamed_addr #5 !dbg !2090 {
  %2 = alloca %"struct.Halide::Runtime::Internal::Synchronization::signal_parking_control", align 8
  call void @llvm.dbg.value(metadata %struct.halide_cond* %0, metadata !2092, metadata !DIExpression()), !dbg !2094
  call void @llvm.dbg.value(metadata %struct.halide_cond* %0, metadata !2093, metadata !DIExpression()), !dbg !2094
  call void @llvm.dbg.value(metadata %struct.halide_cond* %0, metadata !2095, metadata !DIExpression()) #8, !dbg !2100
  %3 = getelementptr %struct.halide_cond, %struct.halide_cond* %0, i64 0, i32 0, i64 0, !dbg !2102
  call void @llvm.dbg.value(metadata i64* %3, metadata !624, metadata !DIExpression()) #8, !dbg !2103
  call void @llvm.dbg.value(metadata i64* undef, metadata !631, metadata !DIExpression()) #8, !dbg !2103
  %4 = load atomic i64, i64* %3 monotonic, align 8, !dbg !2105
  call void @llvm.dbg.value(metadata i64 %4, metadata !2098, metadata !DIExpression()) #8, !dbg !2100
  %5 = icmp eq i64 %4, 0, !dbg !2106
  br i1 %5, label %18, label %6, !dbg !2108

6:                                                ; preds = %1
  call void @llvm.dbg.value(metadata %struct.halide_cond* %0, metadata !2095, metadata !DIExpression()) #8, !dbg !2100
  call void @llvm.dbg.value(metadata %struct.halide_cond* %0, metadata !2093, metadata !DIExpression()), !dbg !2094
  %7 = bitcast %"struct.Halide::Runtime::Internal::Synchronization::signal_parking_control"* %2 to i8*, !dbg !2109
  call void @llvm.lifetime.start.p0i8(i64 48, i8* nonnull %7) #8, !dbg !2109
  call void @llvm.dbg.declare(metadata %"struct.Halide::Runtime::Internal::Synchronization::signal_parking_control"* %2, metadata !2099, metadata !DIExpression()) #8, !dbg !2110
  call void @llvm.dbg.value(metadata i64 %4, metadata !2098, metadata !DIExpression()) #8, !dbg !2100
  %8 = inttoptr i64 %4 to %"class.Halide::Runtime::Internal::Synchronization::fast_mutex"*, !dbg !2111
  call void @llvm.dbg.value(metadata %"struct.Halide::Runtime::Internal::Synchronization::signal_parking_control"* %2, metadata !2112, metadata !DIExpression()) #8, !dbg !2117
  call void @llvm.dbg.value(metadata i64* %3, metadata !2115, metadata !DIExpression()) #8, !dbg !2117
  call void @llvm.dbg.value(metadata %"class.Halide::Runtime::Internal::Synchronization::fast_mutex"* %8, metadata !2116, metadata !DIExpression()) #8, !dbg !2117
  call void @llvm.dbg.value(metadata %"struct.Halide::Runtime::Internal::Synchronization::signal_parking_control"* %2, metadata !1874, metadata !DIExpression()) #8, !dbg !2119
  %9 = getelementptr inbounds %"struct.Halide::Runtime::Internal::Synchronization::signal_parking_control", %"struct.Halide::Runtime::Internal::Synchronization::signal_parking_control"* %2, i64 0, i32 0, i32 0, !dbg !2121
  store i1 (i8*, %"struct.Halide::Runtime::Internal::Synchronization::validate_action"*)* @_ZN6Halide7Runtime8Internal15Synchronization24parking_control_validateEPvRNS2_15validate_actionE, i1 (i8*, %"struct.Halide::Runtime::Internal::Synchronization::validate_action"*)** %9, align 8, !dbg !2121, !tbaa !1216
  %10 = getelementptr inbounds %"struct.Halide::Runtime::Internal::Synchronization::signal_parking_control", %"struct.Halide::Runtime::Internal::Synchronization::signal_parking_control"* %2, i64 0, i32 0, i32 1, !dbg !2122
  store void (i8*)* @_ZN6Halide7Runtime8Internal15Synchronization28parking_control_before_sleepEPv, void (i8*)** %10, align 8, !dbg !2122, !tbaa !1263
  %11 = getelementptr inbounds %"struct.Halide::Runtime::Internal::Synchronization::signal_parking_control", %"struct.Halide::Runtime::Internal::Synchronization::signal_parking_control"* %2, i64 0, i32 0, i32 2, !dbg !2123
  %12 = getelementptr inbounds %"struct.Halide::Runtime::Internal::Synchronization::signal_parking_control", %"struct.Halide::Runtime::Internal::Synchronization::signal_parking_control"* %2, i64 0, i32 0, i32 3, !dbg !2124
  store void (i8*, %"struct.Halide::Runtime::Internal::Synchronization::validate_action"*, i1, i1)* @_ZN6Halide7Runtime8Internal15Synchronization32parking_control_requeue_callbackEPvRKNS2_15validate_actionEbb, void (i8*, %"struct.Halide::Runtime::Internal::Synchronization::validate_action"*, i1, i1)** %12, align 8, !dbg !2124, !tbaa !1634
  %13 = getelementptr inbounds %"struct.Halide::Runtime::Internal::Synchronization::signal_parking_control", %"struct.Halide::Runtime::Internal::Synchronization::signal_parking_control"* %2, i64 0, i32 1, !dbg !2125
  store i64* %3, i64** %13, align 8, !dbg !2125, !tbaa !1708
  %14 = getelementptr inbounds %"struct.Halide::Runtime::Internal::Synchronization::signal_parking_control", %"struct.Halide::Runtime::Internal::Synchronization::signal_parking_control"* %2, i64 0, i32 2, !dbg !2126
  store %"class.Halide::Runtime::Internal::Synchronization::fast_mutex"* %8, %"class.Halide::Runtime::Internal::Synchronization::fast_mutex"** %14, align 8, !dbg !2126, !tbaa !2127
  store i64 (i8*, i32, i1)* @_ZN6Halide7Runtime8Internal15Synchronization29signal_parking_control_unparkEPvib, i64 (i8*, i32, i1)** %11, align 8, !dbg !2128, !tbaa !1347
  %15 = ptrtoint %struct.halide_cond* %0 to i64, !dbg !2130
  %16 = getelementptr inbounds %"struct.Halide::Runtime::Internal::Synchronization::signal_parking_control", %"struct.Halide::Runtime::Internal::Synchronization::signal_parking_control"* %2, i64 0, i32 0, !dbg !2131
  %17 = call i64 @_ZN6Halide7Runtime8Internal15Synchronization10unpark_oneEyRNS2_15parking_controlE(i64 %15, %"struct.Halide::Runtime::Internal::Synchronization::parking_control"* nonnull align 8 dereferenceable(32) %16) #7, !dbg !2132
  call void @llvm.lifetime.end.p0i8(i64 48, i8* nonnull %7) #8, !dbg !2133
  br label %18, !dbg !2133

18:                                               ; preds = %1, %6
  ret void, !dbg !2134
}

; Function Attrs: nounwind
define weak dso_local void @halide_cond_wait(%struct.halide_cond* %0, %struct.halide_mutex* %1) local_unnamed_addr #5 !dbg !2135 {
  %3 = alloca %"struct.Halide::Runtime::Internal::Synchronization::mutex_parking_control", align 8
  %4 = alloca %"struct.Halide::Runtime::Internal::Synchronization::wait_parking_control", align 8
  call void @llvm.dbg.value(metadata %struct.halide_cond* %0, metadata !2139, metadata !DIExpression()), !dbg !2143
  call void @llvm.dbg.value(metadata %struct.halide_mutex* %1, metadata !2140, metadata !DIExpression()), !dbg !2143
  call void @llvm.dbg.value(metadata %struct.halide_cond* %0, metadata !2141, metadata !DIExpression()), !dbg !2143
  call void @llvm.dbg.value(metadata %struct.halide_mutex* %1, metadata !2142, metadata !DIExpression()), !dbg !2143
  call void @llvm.dbg.value(metadata %struct.halide_cond* %0, metadata !2144, metadata !DIExpression()) #8, !dbg !2153
  call void @llvm.dbg.value(metadata %struct.halide_mutex* %1, metadata !2147, metadata !DIExpression()) #8, !dbg !2153
  %5 = bitcast %"struct.Halide::Runtime::Internal::Synchronization::wait_parking_control"* %4 to i8*, !dbg !2155
  call void @llvm.lifetime.start.p0i8(i64 48, i8* nonnull %5) #8, !dbg !2155
  call void @llvm.dbg.declare(metadata %"struct.Halide::Runtime::Internal::Synchronization::wait_parking_control"* %4, metadata !2148, metadata !DIExpression()) #8, !dbg !2156
  %6 = getelementptr %struct.halide_cond, %struct.halide_cond* %0, i64 0, i32 0, i64 0, !dbg !2157
  call void @llvm.dbg.value(metadata %"struct.Halide::Runtime::Internal::Synchronization::wait_parking_control"* %4, metadata !2158, metadata !DIExpression()) #8, !dbg !2163
  call void @llvm.dbg.value(metadata i64* %6, metadata !2161, metadata !DIExpression()) #8, !dbg !2163
  call void @llvm.dbg.value(metadata %struct.halide_mutex* %1, metadata !2162, metadata !DIExpression()) #8, !dbg !2163
  call void @llvm.dbg.value(metadata %"struct.Halide::Runtime::Internal::Synchronization::wait_parking_control"* %4, metadata !1874, metadata !DIExpression()) #8, !dbg !2165
  %7 = getelementptr inbounds %"struct.Halide::Runtime::Internal::Synchronization::wait_parking_control", %"struct.Halide::Runtime::Internal::Synchronization::wait_parking_control"* %4, i64 0, i32 0, i32 0, !dbg !2167
  %8 = getelementptr inbounds %"struct.Halide::Runtime::Internal::Synchronization::wait_parking_control", %"struct.Halide::Runtime::Internal::Synchronization::wait_parking_control"* %4, i64 0, i32 0, i32 1, !dbg !2168
  %9 = getelementptr inbounds %"struct.Halide::Runtime::Internal::Synchronization::wait_parking_control", %"struct.Halide::Runtime::Internal::Synchronization::wait_parking_control"* %4, i64 0, i32 0, i32 2, !dbg !2169
  %10 = getelementptr inbounds %"struct.Halide::Runtime::Internal::Synchronization::wait_parking_control", %"struct.Halide::Runtime::Internal::Synchronization::wait_parking_control"* %4, i64 0, i32 0, i32 3, !dbg !2170
  store void (i8*, %"struct.Halide::Runtime::Internal::Synchronization::validate_action"*, i1, i1)* @_ZN6Halide7Runtime8Internal15Synchronization32parking_control_requeue_callbackEPvRKNS2_15validate_actionEbb, void (i8*, %"struct.Halide::Runtime::Internal::Synchronization::validate_action"*, i1, i1)** %10, align 8, !dbg !2170, !tbaa !1634
  %11 = getelementptr inbounds %"struct.Halide::Runtime::Internal::Synchronization::wait_parking_control", %"struct.Halide::Runtime::Internal::Synchronization::wait_parking_control"* %4, i64 0, i32 1, !dbg !2171
  store i64* %6, i64** %11, align 8, !dbg !2171, !tbaa !1805
  %12 = getelementptr inbounds %"struct.Halide::Runtime::Internal::Synchronization::wait_parking_control", %"struct.Halide::Runtime::Internal::Synchronization::wait_parking_control"* %4, i64 0, i32 2, !dbg !2172
  %13 = bitcast %"class.Halide::Runtime::Internal::Synchronization::fast_mutex"** %12 to %struct.halide_mutex**, !dbg !2172
  store %struct.halide_mutex* %1, %struct.halide_mutex** %13, align 8, !dbg !2172, !tbaa !1813
  store i1 (i8*, %"struct.Halide::Runtime::Internal::Synchronization::validate_action"*)* @_ZN6Halide7Runtime8Internal15Synchronization29wait_parking_control_validateEPvRNS2_15validate_actionE, i1 (i8*, %"struct.Halide::Runtime::Internal::Synchronization::validate_action"*)** %7, align 8, !dbg !2173, !tbaa !1216
  store void (i8*)* @_ZN6Halide7Runtime8Internal15Synchronization33wait_parking_control_before_sleepEPv, void (i8*)** %8, align 8, !dbg !2175, !tbaa !1263
  store i64 (i8*, i32, i1)* @_ZN6Halide7Runtime8Internal15Synchronization27wait_parking_control_unparkEPvib, i64 (i8*, i32, i1)** %9, align 8, !dbg !2176, !tbaa !1347
  %14 = ptrtoint %struct.halide_cond* %0 to i64, !dbg !2177
  %15 = getelementptr inbounds %"struct.Halide::Runtime::Internal::Synchronization::wait_parking_control", %"struct.Halide::Runtime::Internal::Synchronization::wait_parking_control"* %4, i64 0, i32 0, !dbg !2178
  %16 = call i64 @_ZN6Halide7Runtime8Internal15Synchronization4parkEyRNS2_15parking_controlE(i64 %14, %"struct.Halide::Runtime::Internal::Synchronization::parking_control"* nonnull align 8 dereferenceable(32) %15) #7, !dbg !2179
  call void @llvm.dbg.value(metadata i64 %16, metadata !2149, metadata !DIExpression()) #8, !dbg !2153
  %17 = ptrtoint %struct.halide_mutex* %1 to i64, !dbg !2180
  %18 = icmp eq i64 %16, %17, !dbg !2181
  %19 = getelementptr %struct.halide_mutex, %struct.halide_mutex* %1, i64 0, i32 0, i64 0, !dbg !2182
  br i1 %18, label %75, label %20, !dbg !2183

20:                                               ; preds = %2
  call void @llvm.dbg.value(metadata %struct.halide_mutex* %1, metadata !1918, metadata !DIExpression()) #8, !dbg !2184
  call void @llvm.dbg.value(metadata i64 0, metadata !1921, metadata !DIExpression()) #8, !dbg !2184
  call void @llvm.dbg.value(metadata i64 1, metadata !1922, metadata !DIExpression()) #8, !dbg !2184
  call void @llvm.dbg.value(metadata i64* %19, metadata !643, metadata !DIExpression()) #8, !dbg !2187
  call void @llvm.dbg.value(metadata i64* undef, metadata !648, metadata !DIExpression()) #8, !dbg !2187
  call void @llvm.dbg.value(metadata i64* undef, metadata !649, metadata !DIExpression()) #8, !dbg !2187
  %21 = cmpxchg weak i64* %19, i64 0, i64 1 acquire monotonic, !dbg !2189
  %22 = extractvalue { i64, i1 } %21, 1, !dbg !2189
  br i1 %22, label %80, label %23, !dbg !2190

23:                                               ; preds = %20
  call void @llvm.dbg.value(metadata %struct.halide_mutex* %1, metadata !1931, metadata !DIExpression()) #8, !dbg !2191
  call void @llvm.dbg.value(metadata i32 40, metadata !1934, metadata !DIExpression()) #8, !dbg !2191
  call void @llvm.dbg.value(metadata i64* %19, metadata !624, metadata !DIExpression()) #8, !dbg !2193
  call void @llvm.dbg.value(metadata i64* undef, metadata !631, metadata !DIExpression()) #8, !dbg !2193
  %24 = load atomic i64, i64* %19 monotonic, align 8, !dbg !2195
  %25 = bitcast %"struct.Halide::Runtime::Internal::Synchronization::mutex_parking_control"* %3 to i8*
  %26 = getelementptr inbounds %"struct.Halide::Runtime::Internal::Synchronization::mutex_parking_control", %"struct.Halide::Runtime::Internal::Synchronization::mutex_parking_control"* %3, i64 0, i32 0, i32 0
  %27 = getelementptr inbounds %"struct.Halide::Runtime::Internal::Synchronization::mutex_parking_control", %"struct.Halide::Runtime::Internal::Synchronization::mutex_parking_control"* %3, i64 0, i32 0, i32 1
  %28 = getelementptr inbounds %"struct.Halide::Runtime::Internal::Synchronization::mutex_parking_control", %"struct.Halide::Runtime::Internal::Synchronization::mutex_parking_control"* %3, i64 0, i32 0, i32 2
  %29 = getelementptr inbounds %"struct.Halide::Runtime::Internal::Synchronization::mutex_parking_control", %"struct.Halide::Runtime::Internal::Synchronization::mutex_parking_control"* %3, i64 0, i32 0, i32 3
  %30 = getelementptr inbounds %"struct.Halide::Runtime::Internal::Synchronization::mutex_parking_control", %"struct.Halide::Runtime::Internal::Synchronization::mutex_parking_control"* %3, i64 0, i32 1
  %31 = getelementptr inbounds %"struct.Halide::Runtime::Internal::Synchronization::mutex_parking_control", %"struct.Halide::Runtime::Internal::Synchronization::mutex_parking_control"* %3, i64 0, i32 0
  br label %32, !dbg !2196

32:                                               ; preds = %71, %23
  %33 = phi i64 [ %24, %23 ], [ %72, %71 ]
  %34 = phi i32 [ 40, %23 ], [ %73, %71 ]
  call void @llvm.dbg.value(metadata i32 %34, metadata !1934, metadata !DIExpression()) #8, !dbg !2191
  call void @llvm.dbg.value(metadata i64 %33, metadata !1935, metadata !DIExpression()) #8, !dbg !2191
  %35 = and i64 %33, 1, !dbg !2197
  %36 = icmp eq i64 %35, 0, !dbg !2198
  br i1 %36, label %37, label %48, !dbg !2199

37:                                               ; preds = %32, %42
  %38 = phi i64 [ %43, %42 ], [ %33, %32 ]
  call void @llvm.dbg.value(metadata i64 %38, metadata !1935, metadata !DIExpression()) #8, !dbg !2191
  %39 = or i64 %38, 1, !dbg !2200
  call void @llvm.dbg.value(metadata i64 %39, metadata !1936, metadata !DIExpression()) #8, !dbg !2201
  call void @llvm.dbg.value(metadata i64* %19, metadata !643, metadata !DIExpression()) #8, !dbg !2202
  call void @llvm.dbg.value(metadata i64* undef, metadata !648, metadata !DIExpression()) #8, !dbg !2202
  call void @llvm.dbg.value(metadata i64* undef, metadata !649, metadata !DIExpression()) #8, !dbg !2202
  %40 = cmpxchg weak i64* %19, i64 %38, i64 %39 acquire monotonic, !dbg !2204
  %41 = extractvalue { i64, i1 } %40, 1, !dbg !2204
  br i1 %41, label %80, label %42, !dbg !2204

42:                                               ; preds = %37
  %43 = extractvalue { i64, i1 } %40, 0, !dbg !2204
  call void @llvm.dbg.value(metadata i32 %34, metadata !1934, metadata !DIExpression()) #8, !dbg !2191
  call void @llvm.dbg.value(metadata i64 %43, metadata !1935, metadata !DIExpression()) #8, !dbg !2191
  %44 = and i64 %43, 1, !dbg !2197
  %45 = icmp eq i64 %44, 0, !dbg !2198
  br i1 %45, label %37, label %46, !dbg !2199

46:                                               ; preds = %42
  %47 = extractvalue { i64, i1 } %40, 0, !dbg !2204
  br label %48, !dbg !2205

48:                                               ; preds = %46, %32
  %49 = phi i64 [ %33, %32 ], [ %47, %46 ], !dbg !2191
  call void @llvm.dbg.value(metadata %"class.Halide::Runtime::Internal::Synchronization::spin_control"* undef, metadata !657, metadata !DIExpression()) #8, !dbg !2207
  %50 = icmp sgt i32 %34, 0, !dbg !2205
  br i1 %50, label %51, label %56, !dbg !2208

51:                                               ; preds = %48
  call void @llvm.dbg.value(metadata i32 %34, metadata !1934, metadata !DIExpression(DW_OP_constu, 1, DW_OP_minus, DW_OP_stack_value)) #8, !dbg !2191
  %52 = icmp eq i32 %34, 1, !dbg !2209
  br i1 %52, label %56, label %53, !dbg !2210

53:                                               ; preds = %51
  %54 = add nsw i32 %34, -1, !dbg !2211
  call void @llvm.dbg.value(metadata i32 %54, metadata !1934, metadata !DIExpression()) #8, !dbg !2191
  call void @halide_thread_yield() #7, !dbg !2212
  call void @llvm.dbg.value(metadata i64* %19, metadata !624, metadata !DIExpression()) #8, !dbg !2213
  call void @llvm.dbg.value(metadata i64* undef, metadata !631, metadata !DIExpression()) #8, !dbg !2213
  %55 = load atomic i64, i64* %19 monotonic, align 8, !dbg !2215
  br label %71, !dbg !2216

56:                                               ; preds = %51, %48
  %57 = phi i32 [ 0, %51 ], [ %34, %48 ]
  call void @llvm.dbg.value(metadata i64 %49, metadata !1935, metadata !DIExpression()) #8, !dbg !2191
  %58 = and i64 %49, 2, !dbg !2217
  %59 = icmp eq i64 %58, 0, !dbg !2218
  br i1 %59, label %60, label %66, !dbg !2219

60:                                               ; preds = %56
  call void @llvm.dbg.value(metadata i64 %49, metadata !1935, metadata !DIExpression()) #8, !dbg !2191
  %61 = or i64 %49, 2, !dbg !2220
  call void @llvm.dbg.value(metadata i64 %61, metadata !1940, metadata !DIExpression()) #8, !dbg !2221
  call void @llvm.dbg.value(metadata i64* %19, metadata !1756, metadata !DIExpression()) #8, !dbg !2222
  call void @llvm.dbg.value(metadata i64* undef, metadata !1759, metadata !DIExpression()) #8, !dbg !2222
  call void @llvm.dbg.value(metadata i64* undef, metadata !1760, metadata !DIExpression()) #8, !dbg !2222
  %62 = cmpxchg weak i64* %19, i64 %49, i64 %61 monotonic monotonic, !dbg !2224
  %63 = extractvalue { i64, i1 } %62, 1, !dbg !2224
  br i1 %63, label %66, label %64, !dbg !2224

64:                                               ; preds = %60
  %65 = extractvalue { i64, i1 } %62, 0, !dbg !2224
  br label %71

66:                                               ; preds = %60, %56
  call void @llvm.lifetime.start.p0i8(i64 40, i8* nonnull %25) #8, !dbg !2225
  call void @llvm.dbg.declare(metadata %"struct.Halide::Runtime::Internal::Synchronization::mutex_parking_control"* %3, metadata !1943, metadata !DIExpression()) #8, !dbg !2226
  call void @llvm.dbg.value(metadata %"struct.Halide::Runtime::Internal::Synchronization::mutex_parking_control"* %3, metadata !1868, metadata !DIExpression()) #8, !dbg !2227
  call void @llvm.dbg.value(metadata i64* %19, metadata !1871, metadata !DIExpression()) #8, !dbg !2227
  call void @llvm.dbg.value(metadata %"struct.Halide::Runtime::Internal::Synchronization::mutex_parking_control"* %3, metadata !1874, metadata !DIExpression()) #8, !dbg !2229
  store void (i8*)* @_ZN6Halide7Runtime8Internal15Synchronization28parking_control_before_sleepEPv, void (i8*)** %27, align 8, !dbg !2231, !tbaa !1263
  store void (i8*, %"struct.Halide::Runtime::Internal::Synchronization::validate_action"*, i1, i1)* @_ZN6Halide7Runtime8Internal15Synchronization32parking_control_requeue_callbackEPvRKNS2_15validate_actionEbb, void (i8*, %"struct.Halide::Runtime::Internal::Synchronization::validate_action"*, i1, i1)** %29, align 8, !dbg !2232, !tbaa !1634
  store i64* %19, i64** %30, align 8, !dbg !2233, !tbaa !1670
  store i1 (i8*, %"struct.Halide::Runtime::Internal::Synchronization::validate_action"*)* @_ZN6Halide7Runtime8Internal15Synchronization30mutex_parking_control_validateEPvRNS2_15validate_actionE, i1 (i8*, %"struct.Halide::Runtime::Internal::Synchronization::validate_action"*)** %26, align 8, !dbg !2234, !tbaa !1216
  store i64 (i8*, i32, i1)* @_ZN6Halide7Runtime8Internal15Synchronization28mutex_parking_control_unparkEPvib, i64 (i8*, i32, i1)** %28, align 8, !dbg !2235, !tbaa !1347
  %67 = call i64 @_ZN6Halide7Runtime8Internal15Synchronization4parkEyRNS2_15parking_controlE(i64 %17, %"struct.Halide::Runtime::Internal::Synchronization::parking_control"* nonnull align 8 dereferenceable(32) %31) #7, !dbg !2236
  call void @llvm.dbg.value(metadata i64 %67, metadata !1944, metadata !DIExpression()) #8, !dbg !2237
  %68 = icmp eq i64 %67, %17, !dbg !2238
  br i1 %68, label %74, label %69, !dbg !2239

69:                                               ; preds = %66
  call void @llvm.dbg.value(metadata i32 40, metadata !1934, metadata !DIExpression()) #8, !dbg !2191
  call void @llvm.dbg.value(metadata i64* %19, metadata !624, metadata !DIExpression()) #8, !dbg !2240
  call void @llvm.dbg.value(metadata i64* undef, metadata !631, metadata !DIExpression()) #8, !dbg !2240
  %70 = load atomic i64, i64* %19 monotonic, align 8, !dbg !2242
  call void @llvm.lifetime.end.p0i8(i64 40, i8* nonnull %25) #8, !dbg !2243
  br label %71

71:                                               ; preds = %69, %64, %53
  %72 = phi i64 [ %65, %64 ], [ %70, %69 ], [ %55, %53 ]
  %73 = phi i32 [ %57, %64 ], [ 40, %69 ], [ %54, %53 ]
  br label %32, !dbg !2191, !llvm.loop !2244

74:                                               ; preds = %66
  call void @llvm.lifetime.end.p0i8(i64 40, i8* nonnull %25) #8, !dbg !2243
  br label %80

75:                                               ; preds = %2
  call void @llvm.dbg.value(metadata %struct.halide_mutex* %1, metadata !2162, metadata !DIExpression()) #8, !dbg !2163
  call void @llvm.dbg.value(metadata %struct.halide_mutex* %1, metadata !2147, metadata !DIExpression()) #8, !dbg !2153
  call void @llvm.dbg.value(metadata %struct.halide_mutex* %1, metadata !2142, metadata !DIExpression()), !dbg !2143
  call void @llvm.dbg.value(metadata i64* %19, metadata !624, metadata !DIExpression()) #8, !dbg !2245
  call void @llvm.dbg.value(metadata i64* undef, metadata !631, metadata !DIExpression()) #8, !dbg !2245
  %76 = load atomic i64, i64* %19 monotonic, align 8, !dbg !2247
  call void @llvm.dbg.value(metadata i64 %76, metadata !2150, metadata !DIExpression()) #8, !dbg !2248
  %77 = and i64 %76, 1, !dbg !2249
  %78 = icmp eq i64 %77, 0, !dbg !2249
  br i1 %78, label %79, label %80, !dbg !2252

79:                                               ; preds = %75
  call void @halide_print(i8* null, i8* getelementptr inbounds ([118 x i8], [118 x i8]* @.str.6, i64 0, i64 0)) #7, !dbg !2253
  call void @abort() #7, !dbg !2253
  br label %80, !dbg !2253

80:                                               ; preds = %37, %20, %74, %75, %79
  call void @llvm.lifetime.end.p0i8(i64 48, i8* nonnull %5) #8, !dbg !2255
  ret void, !dbg !2256
}

; Function Attrs: nounwind mustprogress
define weak dso_local %struct.halide_mutex_array* @halide_mutex_array_create(i32 %0) local_unnamed_addr #2 !dbg !2257 {
  call void @llvm.dbg.value(metadata i32 %0, metadata !2261, metadata !DIExpression()), !dbg !2263
  %2 = tail call i8* @halide_malloc(i8* null, i64 8) #7, !dbg !2264
  %3 = bitcast i8* %2 to %struct.halide_mutex_array*, !dbg !2265
  call void @llvm.dbg.value(metadata %struct.halide_mutex_array* %3, metadata !2262, metadata !DIExpression()), !dbg !2263
  %4 = icmp eq i8* %2, null, !dbg !2266
  br i1 %4, label %14, label %5, !dbg !2268

5:                                                ; preds = %1
  %6 = sext i32 %0 to i64, !dbg !2269
  %7 = shl nsw i64 %6, 3, !dbg !2270
  %8 = tail call i8* @halide_malloc(i8* null, i64 %7) #7, !dbg !2271
  %9 = bitcast i8* %2 to i8**, !dbg !2272
  store i8* %8, i8** %9, align 8, !dbg !2272, !tbaa !2273
  %10 = icmp eq i8* %8, null, !dbg !2275
  br i1 %10, label %11, label %12, !dbg !2277

11:                                               ; preds = %5
  tail call void @halide_free(i8* null, i8* nonnull %2) #7, !dbg !2278
  br label %14, !dbg !2280

12:                                               ; preds = %5
  %13 = tail call i8* @memset(i8* nonnull %8, i32 0, i64 %7) #7, !dbg !2281
  br label %14, !dbg !2282

14:                                               ; preds = %1, %12, %11
  %15 = phi %struct.halide_mutex_array* [ null, %11 ], [ %3, %12 ], [ null, %1 ], !dbg !2263
  ret %struct.halide_mutex_array* %15, !dbg !2283
}

declare !dbg !2284 dso_local i8* @halide_malloc(i8*, i64) local_unnamed_addr #4

declare !dbg !2287 dso_local void @halide_free(i8*, i8*) local_unnamed_addr #4

; Function Attrs: nounwind mustprogress
define weak dso_local void @halide_mutex_array_destroy(i8* %0, i8* %1) local_unnamed_addr #2 !dbg !2290 {
  call void @llvm.dbg.value(metadata i8* %0, metadata !2292, metadata !DIExpression()), !dbg !2295
  call void @llvm.dbg.value(metadata i8* %1, metadata !2293, metadata !DIExpression()), !dbg !2295
  call void @llvm.dbg.value(metadata i8* %1, metadata !2294, metadata !DIExpression()), !dbg !2295
  %3 = bitcast i8* %1 to i8**, !dbg !2296
  %4 = load i8*, i8** %3, align 8, !dbg !2296, !tbaa !2273
  tail call void @halide_free(i8* %0, i8* %4) #7, !dbg !2297
  tail call void @halide_free(i8* %0, i8* %1) #7, !dbg !2298
  ret void, !dbg !2299
}

; Function Attrs: nounwind mustprogress
define weak dso_local i32 @halide_mutex_array_lock(%struct.halide_mutex_array* %0, i32 %1) local_unnamed_addr #2 !dbg !2300 {
  call void @llvm.dbg.value(metadata %struct.halide_mutex_array* %0, metadata !2304, metadata !DIExpression()), !dbg !2306
  call void @llvm.dbg.value(metadata i32 %1, metadata !2305, metadata !DIExpression()), !dbg !2306
  %3 = getelementptr inbounds %struct.halide_mutex_array, %struct.halide_mutex_array* %0, i64 0, i32 0, !dbg !2307
  %4 = load %struct.halide_mutex*, %struct.halide_mutex** %3, align 8, !dbg !2307, !tbaa !2273
  %5 = sext i32 %1 to i64, !dbg !2308
  %6 = getelementptr inbounds %struct.halide_mutex, %struct.halide_mutex* %4, i64 %5, !dbg !2308
  tail call void @halide_mutex_lock(%struct.halide_mutex* %6) #6, !dbg !2309
  ret i32 0, !dbg !2310
}

; Function Attrs: nounwind mustprogress
define weak dso_local i32 @halide_mutex_array_unlock(%struct.halide_mutex_array* %0, i32 %1) local_unnamed_addr #2 !dbg !2311 {
  call void @llvm.dbg.value(metadata %struct.halide_mutex_array* %0, metadata !2313, metadata !DIExpression()), !dbg !2315
  call void @llvm.dbg.value(metadata i32 %1, metadata !2314, metadata !DIExpression()), !dbg !2315
  %3 = getelementptr inbounds %struct.halide_mutex_array, %struct.halide_mutex_array* %0, i64 0, i32 0, !dbg !2316
  %4 = load %struct.halide_mutex*, %struct.halide_mutex** %3, align 8, !dbg !2316, !tbaa !2273
  %5 = sext i32 %1 to i64, !dbg !2317
  %6 = getelementptr inbounds %struct.halide_mutex, %struct.halide_mutex* %4, i64 %5, !dbg !2317
  tail call void @halide_mutex_unlock(%struct.halide_mutex* %6) #6, !dbg !2318
  ret i32 0, !dbg !2319
}

; Function Attrs: nounwind willreturn mustprogress
define weak dso_local i32 @_ZN6Halide7Runtime8Internal17clamp_num_threadsEi(i32 %0) local_unnamed_addr #0 !dbg !2320 {
  call void @llvm.dbg.value(metadata i32 %0, metadata !2324, metadata !DIExpression()), !dbg !2325
  %2 = icmp sgt i32 %0, 256, !dbg !2326
  br i1 %2, label %6, label %3, !dbg !2328

3:                                                ; preds = %1
  %4 = icmp sgt i32 %0, 1, !dbg !2329
  %5 = select i1 %4, i32 %0, i32 1, !dbg !2329
  ret i32 %5, !dbg !2329

6:                                                ; preds = %1
  call void @llvm.dbg.value(metadata i32 256, metadata !2324, metadata !DIExpression()), !dbg !2325
  ret i32 256, !dbg !2330
}

; Function Attrs: nounwind mustprogress
define weak dso_local i32 @_ZN6Halide7Runtime8Internal27default_desired_num_threadsEv() local_unnamed_addr #2 !dbg !2331 {
  call void @llvm.dbg.value(metadata i32 0, metadata !2333, metadata !DIExpression()), !dbg !2335
  %1 = tail call i8* @getenv(i8* getelementptr inbounds ([15 x i8], [15 x i8]* @.str.1, i64 0, i64 0)) #7, !dbg !2336
  call void @llvm.dbg.value(metadata i8* %1, metadata !2334, metadata !DIExpression()), !dbg !2335
  %2 = icmp eq i8* %1, null, !dbg !2337
  br i1 %2, label %3, label %6, !dbg !2339

3:                                                ; preds = %0
  %4 = tail call i8* @getenv(i8* getelementptr inbounds ([14 x i8], [14 x i8]* @.str.2, i64 0, i64 0)) #7, !dbg !2340
  call void @llvm.dbg.value(metadata i8* %4, metadata !2334, metadata !DIExpression()), !dbg !2335
  %5 = icmp eq i8* %4, null, !dbg !2342
  br i1 %5, label %9, label %6, !dbg !2344

6:                                                ; preds = %0, %3
  %7 = phi i8* [ %4, %3 ], [ %1, %0 ]
  %8 = tail call i32 @atoi(i8* nonnull %7) #7, !dbg !2345
  call void @llvm.dbg.value(metadata i32 %8, metadata !2333, metadata !DIExpression()), !dbg !2335
  br label %11, !dbg !2347

9:                                                ; preds = %3
  %10 = tail call i32 @halide_host_cpu_count() #6, !dbg !2348
  call void @llvm.dbg.value(metadata i32 %10, metadata !2333, metadata !DIExpression()), !dbg !2335
  br label %11

11:                                               ; preds = %9, %6
  %12 = phi i32 [ %8, %6 ], [ %10, %9 ], !dbg !2350
  call void @llvm.dbg.value(metadata i32 %12, metadata !2333, metadata !DIExpression()), !dbg !2335
  ret i32 %12, !dbg !2351
}

declare !dbg !2352 dso_local i8* @getenv(i8*) local_unnamed_addr #4

declare !dbg !2355 dso_local i32 @atoi(i8*) local_unnamed_addr #4

; Function Attrs: nounwind mustprogress
define weak dso_local void @_ZN6Halide7Runtime8Internal28worker_thread_already_lockedEPNS1_4workE(%"struct.Halide::Runtime::Internal::work"* %0) local_unnamed_addr #2 !dbg !2358 {
  call void @llvm.dbg.value(metadata %"struct.Halide::Runtime::Internal::work"* %0, metadata !2362, metadata !DIExpression()), !dbg !2388
  call void @llvm.dbg.value(metadata i32 0, metadata !2363, metadata !DIExpression()), !dbg !2388
  call void @llvm.dbg.value(metadata i32 40, metadata !2364, metadata !DIExpression()), !dbg !2388
  %2 = getelementptr inbounds %"struct.Halide::Runtime::Internal::work", %"struct.Halide::Runtime::Internal::work"* %0, i64 0, i32 8, !dbg !2389
  %3 = icmp eq %"struct.Halide::Runtime::Internal::work"* %0, null
  %4 = getelementptr inbounds %"struct.Halide::Runtime::Internal::work", %"struct.Halide::Runtime::Internal::work"* %0, i64 0, i32 0, i32 6
  %5 = getelementptr inbounds %"struct.Halide::Runtime::Internal::work", %"struct.Halide::Runtime::Internal::work"* %0, i64 0, i32 9
  %6 = getelementptr inbounds %"struct.Halide::Runtime::Internal::work", %"struct.Halide::Runtime::Internal::work"* %0, i64 0, i32 5
  %7 = getelementptr inbounds %"struct.Halide::Runtime::Internal::work", %"struct.Halide::Runtime::Internal::work"* %0, i64 0, i32 3
  %8 = getelementptr inbounds %"struct.Halide::Runtime::Internal::work", %"struct.Halide::Runtime::Internal::work"* %0, i64 0, i32 11
  %9 = getelementptr inbounds %"struct.Halide::Runtime::Internal::work", %"struct.Halide::Runtime::Internal::work"* %0, i64 0, i32 2
  br label %10, !dbg !2395

10:                                               ; preds = %402, %1
  %11 = phi i32 [ 0, %1 ], [ %403, %402 ], !dbg !2396
  call void @llvm.dbg.value(metadata i32 %11, metadata !2363, metadata !DIExpression()), !dbg !2388
  br i1 %3, label %15, label %12, !dbg !2397

12:                                               ; preds = %10
  call void @llvm.dbg.value(metadata %"struct.Halide::Runtime::Internal::work"* %0, metadata !2392, metadata !DIExpression()), !dbg !2398
  %13 = load i32, i32* %4, align 8, !dbg !2399, !tbaa !2400
  %14 = icmp eq i32 %13, 0, !dbg !2403
  br i1 %14, label %18, label %21, !dbg !2404

15:                                               ; preds = %10
  %16 = load i8, i8* getelementptr inbounds (%"struct.Halide::Runtime::Internal::work_queue_t", %"struct.Halide::Runtime::Internal::work_queue_t"* @_ZN6Halide7Runtime8Internal10work_queueE, i64 0, i32 14), align 8, !dbg !2405, !tbaa !2406, !range !737
  %17 = icmp eq i8 %16, 0, !dbg !2405
  br i1 %17, label %48, label %417, !dbg !2395

18:                                               ; preds = %12
  %19 = load i32, i32* %2, align 8, !dbg !2389, !tbaa !2410
  %20 = icmp eq i32 %19, 0, !dbg !2389
  br i1 %20, label %417, label %21, !dbg !2395

21:                                               ; preds = %12, %18
  %22 = load %"struct.Halide::Runtime::Internal::work"*, %"struct.Halide::Runtime::Internal::work"** getelementptr inbounds (%"struct.Halide::Runtime::Internal::work_queue_t", %"struct.Halide::Runtime::Internal::work_queue_t"* @_ZN6Halide7Runtime8Internal10work_queueE, i64 0, i32 3), align 8, !dbg !2411, !tbaa !2412
  call void @llvm.dbg.value(metadata %"struct.Halide::Runtime::Internal::work"* %49, metadata !2366, metadata !DIExpression()), !dbg !2413
  %23 = load i32, i32* %5, align 4, !dbg !2414, !tbaa !2418
  %24 = icmp eq i32 %23, 0, !dbg !2419
  br i1 %24, label %38, label %25, !dbg !2420

25:                                               ; preds = %21
  %26 = load i32, i32* %2, align 8, !dbg !2421, !tbaa !2410
  %27 = icmp eq i32 %26, 0, !dbg !2424
  br i1 %27, label %28, label %46, !dbg !2425

28:                                               ; preds = %25
  call void @llvm.dbg.value(metadata %"struct.Halide::Runtime::Internal::work"* %22, metadata !2366, metadata !DIExpression()), !dbg !2413
  call void @llvm.dbg.value(metadata %"struct.Halide::Runtime::Internal::work"** getelementptr inbounds (%"struct.Halide::Runtime::Internal::work_queue_t", %"struct.Halide::Runtime::Internal::work_queue_t"* @_ZN6Halide7Runtime8Internal10work_queueE, i64 0, i32 3), metadata !2368, metadata !DIExpression()), !dbg !2413
  %29 = icmp eq %"struct.Halide::Runtime::Internal::work"* %22, %0, !dbg !2426
  br i1 %29, label %35, label %30, !dbg !2428

30:                                               ; preds = %28, %30
  %31 = phi %"struct.Halide::Runtime::Internal::work"* [ %33, %30 ], [ %22, %28 ]
  call void @llvm.dbg.value(metadata %"struct.Halide::Runtime::Internal::work"* %31, metadata !2366, metadata !DIExpression()), !dbg !2413
  %32 = getelementptr inbounds %"struct.Halide::Runtime::Internal::work", %"struct.Halide::Runtime::Internal::work"* %31, i64 0, i32 2, !dbg !2429
  call void @llvm.dbg.value(metadata %"struct.Halide::Runtime::Internal::work"** %32, metadata !2368, metadata !DIExpression()), !dbg !2413
  %33 = load %"struct.Halide::Runtime::Internal::work"*, %"struct.Halide::Runtime::Internal::work"** %32, align 8, !dbg !2431, !tbaa !2432
  call void @llvm.dbg.value(metadata %"struct.Halide::Runtime::Internal::work"* %33, metadata !2366, metadata !DIExpression()), !dbg !2413
  %34 = icmp eq %"struct.Halide::Runtime::Internal::work"* %33, %0, !dbg !2426
  br i1 %34, label %35, label %30, !dbg !2428, !llvm.loop !2433

35:                                               ; preds = %30, %28
  %36 = phi %"struct.Halide::Runtime::Internal::work"** [ getelementptr inbounds (%"struct.Halide::Runtime::Internal::work_queue_t", %"struct.Halide::Runtime::Internal::work_queue_t"* @_ZN6Halide7Runtime8Internal10work_queueE, i64 0, i32 3), %28 ], [ %32, %30 ], !dbg !2413
  %37 = load %"struct.Halide::Runtime::Internal::work"*, %"struct.Halide::Runtime::Internal::work"** %9, align 8, !dbg !2435, !tbaa !2432
  store %"struct.Halide::Runtime::Internal::work"* %37, %"struct.Halide::Runtime::Internal::work"** %36, align 8, !dbg !2436, !tbaa !1042
  store i32 0, i32* %4, align 8, !dbg !2437, !tbaa !2400
  br label %402, !dbg !2438

38:                                               ; preds = %21
  %39 = load %"struct.Halide::Runtime::Internal::work"*, %"struct.Halide::Runtime::Internal::work"** %6, align 8, !dbg !2439, !tbaa !2441
  %40 = icmp eq %"struct.Halide::Runtime::Internal::work"* %39, null, !dbg !2442
  br i1 %40, label %46, label %41, !dbg !2443

41:                                               ; preds = %38
  %42 = getelementptr inbounds %"struct.Halide::Runtime::Internal::work", %"struct.Halide::Runtime::Internal::work"* %39, i64 0, i32 9, !dbg !2444
  %43 = load i32, i32* %42, align 4, !dbg !2444, !tbaa !2418
  %44 = icmp eq i32 %43, 0, !dbg !2445
  br i1 %44, label %46, label %45, !dbg !2446

45:                                               ; preds = %41
  store i32 %43, i32* %5, align 4, !dbg !2447, !tbaa !2418
  tail call void @halide_cond_broadcast(%struct.halide_cond* getelementptr inbounds (%"struct.Halide::Runtime::Internal::work_queue_t", %"struct.Halide::Runtime::Internal::work_queue_t"* @_ZN6Halide7Runtime8Internal10work_queueE, i64 0, i32 10)) #6, !dbg !2449
  br label %402, !dbg !2450

46:                                               ; preds = %25, %41, %38
  call void @llvm.dbg.value(metadata %"struct.Halide::Runtime::Internal::work"* %22, metadata !2366, metadata !DIExpression()), !dbg !2413
  call void @llvm.dbg.value(metadata %"struct.Halide::Runtime::Internal::work"** getelementptr inbounds (%"struct.Halide::Runtime::Internal::work_queue_t", %"struct.Halide::Runtime::Internal::work_queue_t"* @_ZN6Halide7Runtime8Internal10work_queueE, i64 0, i32 3), metadata !2368, metadata !DIExpression()), !dbg !2413
  %47 = icmp eq %"struct.Halide::Runtime::Internal::work"* %22, null, !dbg !2451
  br i1 %47, label %196, label %51, !dbg !2452

48:                                               ; preds = %15
  %49 = load %"struct.Halide::Runtime::Internal::work"*, %"struct.Halide::Runtime::Internal::work"** getelementptr inbounds (%"struct.Halide::Runtime::Internal::work_queue_t", %"struct.Halide::Runtime::Internal::work_queue_t"* @_ZN6Halide7Runtime8Internal10work_queueE, i64 0, i32 3), align 8, !dbg !2411, !tbaa !2412
  call void @llvm.dbg.value(metadata %"struct.Halide::Runtime::Internal::work"* %22, metadata !2366, metadata !DIExpression()), !dbg !2413
  call void @llvm.dbg.value(metadata %"struct.Halide::Runtime::Internal::work"** getelementptr inbounds (%"struct.Halide::Runtime::Internal::work_queue_t", %"struct.Halide::Runtime::Internal::work_queue_t"* @_ZN6Halide7Runtime8Internal10work_queueE, i64 0, i32 3), metadata !2368, metadata !DIExpression()), !dbg !2413
  %50 = icmp eq %"struct.Halide::Runtime::Internal::work"* %49, null, !dbg !2451
  br i1 %50, label %206, label %52, !dbg !2452

51:                                               ; preds = %46
  br i1 %3, label %52, label %121, !dbg !2452

52:                                               ; preds = %48, %51
  %53 = phi %"struct.Halide::Runtime::Internal::work"* [ %49, %48 ], [ %22, %51 ]
  br label %54, !dbg !2453

54:                                               ; preds = %52, %117
  %55 = phi %"struct.Halide::Runtime::Internal::work"* [ %119, %117 ], [ %53, %52 ]
  %56 = phi %"struct.Halide::Runtime::Internal::work"** [ %118, %117 ], [ getelementptr inbounds (%"struct.Halide::Runtime::Internal::work_queue_t", %"struct.Halide::Runtime::Internal::work_queue_t"* @_ZN6Halide7Runtime8Internal10work_queueE, i64 0, i32 3), %52 ]
  call void @llvm.dbg.value(metadata %"struct.Halide::Runtime::Internal::work"* %55, metadata !2366, metadata !DIExpression()), !dbg !2413
  call void @llvm.dbg.value(metadata %"struct.Halide::Runtime::Internal::work"** %56, metadata !2368, metadata !DIExpression()), !dbg !2413
  %57 = getelementptr inbounds %"struct.Halide::Runtime::Internal::work", %"struct.Halide::Runtime::Internal::work"* %55, i64 0, i32 5, !dbg !2454
  %58 = load %"struct.Halide::Runtime::Internal::work"*, %"struct.Halide::Runtime::Internal::work"** %57, align 8, !dbg !2454, !tbaa !2441
  call void @llvm.dbg.value(metadata %"struct.Halide::Runtime::Internal::work"* %58, metadata !2372, metadata !DIExpression()), !dbg !2455
  %59 = icmp eq %"struct.Halide::Runtime::Internal::work"* %58, null, !dbg !2456
  br i1 %59, label %75, label %60, !dbg !2453

60:                                               ; preds = %54
  %61 = getelementptr inbounds %"struct.Halide::Runtime::Internal::work", %"struct.Halide::Runtime::Internal::work"* %58, i64 0, i32 8, !dbg !2458
  %62 = load i32, i32* %61, align 8, !dbg !2458, !tbaa !2410
  %63 = icmp eq i32 %62, 0, !dbg !2461
  %64 = getelementptr inbounds %"struct.Halide::Runtime::Internal::work", %"struct.Halide::Runtime::Internal::work"* %58, i64 0, i32 0, i32 7, !dbg !2462
  %65 = load i32, i32* %64, align 4, !dbg !2462, !tbaa !2463
  br i1 %63, label %71, label %66, !dbg !2464

66:                                               ; preds = %60
  %67 = mul nsw i32 %65, %62, !dbg !2465
  %68 = getelementptr inbounds %"struct.Halide::Runtime::Internal::work", %"struct.Halide::Runtime::Internal::work"* %58, i64 0, i32 6, !dbg !2467
  %69 = load i32, i32* %68, align 8, !dbg !2467, !tbaa !2468
  %70 = sub nsw i32 %67, %69, !dbg !2469
  call void @llvm.dbg.value(metadata i32 %70, metadata !2373, metadata !DIExpression()), !dbg !2455
  br label %80

71:                                               ; preds = %60
  %72 = getelementptr inbounds %"struct.Halide::Runtime::Internal::work", %"struct.Halide::Runtime::Internal::work"* %58, i64 0, i32 6, !dbg !2470
  %73 = load i32, i32* %72, align 8, !dbg !2470, !tbaa !2468
  %74 = sub nsw i32 %65, %73, !dbg !2472
  call void @llvm.dbg.value(metadata i32 %74, metadata !2373, metadata !DIExpression()), !dbg !2455
  br label %80, !dbg !2473

75:                                               ; preds = %54
  %76 = load i32, i32* getelementptr inbounds (%"struct.Halide::Runtime::Internal::work_queue_t", %"struct.Halide::Runtime::Internal::work_queue_t"* @_ZN6Halide7Runtime8Internal10work_queueE, i64 0, i32 4), align 8, !dbg !2474, !tbaa !2476
  %77 = add nsw i32 %76, 1, !dbg !2477
  %78 = load i32, i32* getelementptr inbounds (%"struct.Halide::Runtime::Internal::work_queue_t", %"struct.Halide::Runtime::Internal::work_queue_t"* @_ZN6Halide7Runtime8Internal10work_queueE, i64 0, i32 16), align 4, !dbg !2478, !tbaa !2479
  %79 = sub i32 %77, %78, !dbg !2480
  call void @llvm.dbg.value(metadata i32 %79, metadata !2373, metadata !DIExpression()), !dbg !2455
  br label %80, !dbg !2481

80:                                               ; preds = %75, %71, %66
  %81 = phi i32 [ %79, %75 ], [ %74, %71 ], [ %70, %66 ], !dbg !2482
  call void @llvm.dbg.value(metadata i32 %81, metadata !2373, metadata !DIExpression()), !dbg !2455
  %82 = getelementptr inbounds %"struct.Halide::Runtime::Internal::work", %"struct.Halide::Runtime::Internal::work"* %55, i64 0, i32 0, i32 7, !dbg !2483
  %83 = load i32, i32* %82, align 4, !dbg !2483, !tbaa !2463
  %84 = icmp sge i32 %81, %83, !dbg !2484
  call void @llvm.dbg.value(metadata i1 %84, metadata !2370, metadata !DIExpression(DW_OP_LLVM_convert, 1, DW_ATE_unsigned, DW_OP_LLVM_convert, 8, DW_ATE_unsigned, DW_OP_stack_value)), !dbg !2455
  call void @llvm.dbg.value(metadata i1 true, metadata !2374, metadata !DIExpression(DW_OP_LLVM_convert, 1, DW_ATE_unsigned, DW_OP_LLVM_convert, 8, DW_ATE_unsigned, DW_OP_stack_value)), !dbg !2455
  %85 = getelementptr inbounds %"struct.Halide::Runtime::Internal::work", %"struct.Halide::Runtime::Internal::work"* %55, i64 0, i32 0, i32 8, !dbg !2485
  %86 = load i8, i8* %85, align 8, !dbg !2485, !tbaa !2486, !range !737
  %87 = icmp eq i8 %86, 0, !dbg !2485
  br i1 %87, label %92, label %88, !dbg !2487

88:                                               ; preds = %80
  %89 = getelementptr inbounds %"struct.Halide::Runtime::Internal::work", %"struct.Halide::Runtime::Internal::work"* %55, i64 0, i32 8, !dbg !2488
  %90 = load i32, i32* %89, align 8, !dbg !2488, !tbaa !2410
  %91 = icmp eq i32 %90, 0, !dbg !2489
  br label %92, !dbg !2487

92:                                               ; preds = %88, %80
  %93 = phi i1 [ true, %80 ], [ %91, %88 ]
  call void @llvm.dbg.value(metadata i1 %93, metadata !2375, metadata !DIExpression(DW_OP_LLVM_convert, 1, DW_ATE_unsigned, DW_OP_LLVM_convert, 8, DW_ATE_unsigned, DW_OP_stack_value)), !dbg !2455
  %94 = and i1 %93, %84, !dbg !2490
  br i1 %94, label %95, label %117, !dbg !2490

95:                                               ; preds = %92
  call void @llvm.dbg.value(metadata %"struct.Halide::Runtime::Internal::work"* %55, metadata !2492, metadata !DIExpression()) #8, !dbg !2495
  %96 = getelementptr inbounds %"struct.Halide::Runtime::Internal::work", %"struct.Halide::Runtime::Internal::work"* %55, i64 0, i32 10, !dbg !2499
  %97 = load i32, i32* %96, align 8, !dbg !2499, !tbaa !2502
  %98 = getelementptr inbounds %"struct.Halide::Runtime::Internal::work", %"struct.Halide::Runtime::Internal::work"* %55, i64 0, i32 0, i32 4, !dbg !2503
  %99 = load i32, i32* %98, align 8, !dbg !2503, !tbaa !2504
  %100 = icmp slt i32 %97, %99, !dbg !2505
  br i1 %100, label %101, label %225, !dbg !2506

101:                                              ; preds = %95
  %102 = getelementptr inbounds %"struct.Halide::Runtime::Internal::work", %"struct.Halide::Runtime::Internal::work"* %55, i64 0, i32 0, i32 3
  br label %103, !dbg !2506

103:                                              ; preds = %112, %101
  %104 = phi i32 [ %97, %101 ], [ %114, %112 ]
  %105 = load %struct.halide_semaphore_acquire_t*, %struct.halide_semaphore_acquire_t** %102, align 8, !dbg !2507, !tbaa !2510
  %106 = sext i32 %104 to i64, !dbg !2511
  %107 = getelementptr inbounds %struct.halide_semaphore_acquire_t, %struct.halide_semaphore_acquire_t* %105, i64 %106, i32 0, !dbg !2512
  %108 = load %struct.halide_semaphore_t*, %struct.halide_semaphore_t** %107, align 8, !dbg !2512, !tbaa !2513
  %109 = getelementptr inbounds %struct.halide_semaphore_acquire_t, %struct.halide_semaphore_acquire_t* %105, i64 %106, i32 1, !dbg !2515
  %110 = load i32, i32* %109, align 8, !dbg !2515, !tbaa !2516
  %111 = tail call zeroext i1 @halide_default_semaphore_try_acquire(%struct.halide_semaphore_t* %108, i32 %110) #7, !dbg !2517
  br i1 %111, label %112, label %117, !dbg !2518

112:                                              ; preds = %103
  %113 = load i32, i32* %96, align 8, !dbg !2519, !tbaa !2502
  %114 = add nsw i32 %113, 1, !dbg !2519
  store i32 %114, i32* %96, align 8, !dbg !2519, !tbaa !2502
  %115 = load i32, i32* %98, align 8, !dbg !2503, !tbaa !2504
  %116 = icmp slt i32 %114, %115, !dbg !2505
  br i1 %116, label %103, label %225, !dbg !2506, !llvm.loop !2520

117:                                              ; preds = %103, %92
  %118 = getelementptr inbounds %"struct.Halide::Runtime::Internal::work", %"struct.Halide::Runtime::Internal::work"* %55, i64 0, i32 2, !dbg !2522
  call void @llvm.dbg.value(metadata %"struct.Halide::Runtime::Internal::work"** %118, metadata !2368, metadata !DIExpression()), !dbg !2413
  %119 = load %"struct.Halide::Runtime::Internal::work"*, %"struct.Halide::Runtime::Internal::work"** %118, align 8, !dbg !2523, !tbaa !2432
  call void @llvm.dbg.value(metadata %"struct.Halide::Runtime::Internal::work"* %119, metadata !2366, metadata !DIExpression()), !dbg !2413
  %120 = icmp eq %"struct.Halide::Runtime::Internal::work"* %119, null, !dbg !2451
  br i1 %120, label %196, label %54, !dbg !2452

121:                                              ; preds = %51, %192
  %122 = phi %"struct.Halide::Runtime::Internal::work"* [ %194, %192 ], [ %22, %51 ]
  %123 = phi %"struct.Halide::Runtime::Internal::work"** [ %193, %192 ], [ getelementptr inbounds (%"struct.Halide::Runtime::Internal::work_queue_t", %"struct.Halide::Runtime::Internal::work_queue_t"* @_ZN6Halide7Runtime8Internal10work_queueE, i64 0, i32 3), %51 ]
  call void @llvm.dbg.value(metadata %"struct.Halide::Runtime::Internal::work"* %122, metadata !2366, metadata !DIExpression()), !dbg !2413
  call void @llvm.dbg.value(metadata %"struct.Halide::Runtime::Internal::work"** %123, metadata !2368, metadata !DIExpression()), !dbg !2413
  %124 = getelementptr inbounds %"struct.Halide::Runtime::Internal::work", %"struct.Halide::Runtime::Internal::work"* %122, i64 0, i32 5, !dbg !2454
  %125 = load %"struct.Halide::Runtime::Internal::work"*, %"struct.Halide::Runtime::Internal::work"** %124, align 8, !dbg !2454, !tbaa !2441
  call void @llvm.dbg.value(metadata %"struct.Halide::Runtime::Internal::work"* %125, metadata !2372, metadata !DIExpression()), !dbg !2455
  %126 = icmp eq %"struct.Halide::Runtime::Internal::work"* %125, null, !dbg !2456
  br i1 %126, label %127, label %132, !dbg !2453

127:                                              ; preds = %121
  %128 = load i32, i32* getelementptr inbounds (%"struct.Halide::Runtime::Internal::work_queue_t", %"struct.Halide::Runtime::Internal::work_queue_t"* @_ZN6Halide7Runtime8Internal10work_queueE, i64 0, i32 4), align 8, !dbg !2474, !tbaa !2476
  %129 = add nsw i32 %128, 1, !dbg !2477
  %130 = load i32, i32* getelementptr inbounds (%"struct.Halide::Runtime::Internal::work_queue_t", %"struct.Halide::Runtime::Internal::work_queue_t"* @_ZN6Halide7Runtime8Internal10work_queueE, i64 0, i32 16), align 4, !dbg !2478, !tbaa !2479
  %131 = sub i32 %129, %130, !dbg !2480
  call void @llvm.dbg.value(metadata i32 %131, metadata !2373, metadata !DIExpression()), !dbg !2455
  br label %147, !dbg !2481

132:                                              ; preds = %121
  %133 = getelementptr inbounds %"struct.Halide::Runtime::Internal::work", %"struct.Halide::Runtime::Internal::work"* %125, i64 0, i32 8, !dbg !2458
  %134 = load i32, i32* %133, align 8, !dbg !2458, !tbaa !2410
  %135 = icmp eq i32 %134, 0, !dbg !2461
  %136 = getelementptr inbounds %"struct.Halide::Runtime::Internal::work", %"struct.Halide::Runtime::Internal::work"* %125, i64 0, i32 0, i32 7, !dbg !2462
  %137 = load i32, i32* %136, align 4, !dbg !2462, !tbaa !2463
  br i1 %135, label %138, label %142, !dbg !2464

138:                                              ; preds = %132
  %139 = getelementptr inbounds %"struct.Halide::Runtime::Internal::work", %"struct.Halide::Runtime::Internal::work"* %125, i64 0, i32 6, !dbg !2470
  %140 = load i32, i32* %139, align 8, !dbg !2470, !tbaa !2468
  %141 = sub nsw i32 %137, %140, !dbg !2472
  call void @llvm.dbg.value(metadata i32 %141, metadata !2373, metadata !DIExpression()), !dbg !2455
  br label %147, !dbg !2473

142:                                              ; preds = %132
  %143 = mul nsw i32 %137, %134, !dbg !2465
  %144 = getelementptr inbounds %"struct.Halide::Runtime::Internal::work", %"struct.Halide::Runtime::Internal::work"* %125, i64 0, i32 6, !dbg !2467
  %145 = load i32, i32* %144, align 8, !dbg !2467, !tbaa !2468
  %146 = sub nsw i32 %143, %145, !dbg !2469
  call void @llvm.dbg.value(metadata i32 %146, metadata !2373, metadata !DIExpression()), !dbg !2455
  br label %147

147:                                              ; preds = %138, %142, %127
  %148 = phi i32 [ %131, %127 ], [ %141, %138 ], [ %146, %142 ], !dbg !2482
  call void @llvm.dbg.value(metadata i32 %148, metadata !2373, metadata !DIExpression()), !dbg !2455
  %149 = getelementptr inbounds %"struct.Halide::Runtime::Internal::work", %"struct.Halide::Runtime::Internal::work"* %122, i64 0, i32 0, i32 7, !dbg !2483
  %150 = load i32, i32* %149, align 4, !dbg !2483, !tbaa !2463
  %151 = icmp slt i32 %148, %150, !dbg !2484
  call void @llvm.dbg.value(metadata i1 %151, metadata !2370, metadata !DIExpression(DW_OP_LLVM_convert, 1, DW_ATE_unsigned, DW_OP_LLVM_convert, 8, DW_ATE_unsigned, DW_OP_stack_value)), !dbg !2455
  %152 = getelementptr inbounds %"struct.Halide::Runtime::Internal::work", %"struct.Halide::Runtime::Internal::work"* %122, i64 0, i32 3, !dbg !2524
  %153 = load %"struct.Halide::Runtime::Internal::work"*, %"struct.Halide::Runtime::Internal::work"** %152, align 8, !dbg !2524, !tbaa !2525
  %154 = load %"struct.Halide::Runtime::Internal::work"*, %"struct.Halide::Runtime::Internal::work"** %7, align 8, !dbg !2526, !tbaa !2525
  %155 = icmp ne %"struct.Halide::Runtime::Internal::work"* %153, %154, !dbg !2527
  %156 = icmp ne i32 %150, 0
  call void @llvm.dbg.value(metadata i1 undef, metadata !2374, metadata !DIExpression(DW_OP_LLVM_convert, 1, DW_ATE_unsigned, DW_OP_LLVM_convert, 8, DW_ATE_unsigned, DW_OP_stack_value)), !dbg !2455
  %157 = getelementptr inbounds %"struct.Halide::Runtime::Internal::work", %"struct.Halide::Runtime::Internal::work"* %122, i64 0, i32 0, i32 8, !dbg !2485
  %158 = load i8, i8* %157, align 8, !dbg !2485, !tbaa !2486, !range !737
  %159 = icmp eq i8 %158, 0, !dbg !2485
  br i1 %159, label %164, label %160, !dbg !2487

160:                                              ; preds = %147
  %161 = getelementptr inbounds %"struct.Halide::Runtime::Internal::work", %"struct.Halide::Runtime::Internal::work"* %122, i64 0, i32 8, !dbg !2488
  %162 = load i32, i32* %161, align 8, !dbg !2488, !tbaa !2410
  %163 = icmp eq i32 %162, 0, !dbg !2489
  br label %164, !dbg !2487

164:                                              ; preds = %160, %147
  %165 = phi i1 [ true, %147 ], [ %163, %160 ]
  call void @llvm.dbg.value(metadata i1 %165, metadata !2375, metadata !DIExpression(DW_OP_LLVM_convert, 1, DW_ATE_unsigned, DW_OP_LLVM_convert, 8, DW_ATE_unsigned, DW_OP_stack_value)), !dbg !2455
  %166 = and i1 %156, %155, !dbg !2490
  %167 = or i1 %151, %166, !dbg !2490
  %168 = xor i1 %165, true, !dbg !2490
  %169 = or i1 %167, %168, !dbg !2490
  br i1 %169, label %192, label %170, !dbg !2490

170:                                              ; preds = %164
  call void @llvm.dbg.value(metadata %"struct.Halide::Runtime::Internal::work"* %122, metadata !2492, metadata !DIExpression()) #8, !dbg !2495
  %171 = getelementptr inbounds %"struct.Halide::Runtime::Internal::work", %"struct.Halide::Runtime::Internal::work"* %122, i64 0, i32 10, !dbg !2499
  %172 = load i32, i32* %171, align 8, !dbg !2499, !tbaa !2502
  %173 = getelementptr inbounds %"struct.Halide::Runtime::Internal::work", %"struct.Halide::Runtime::Internal::work"* %122, i64 0, i32 0, i32 4, !dbg !2503
  %174 = load i32, i32* %173, align 8, !dbg !2503, !tbaa !2504
  %175 = icmp slt i32 %172, %174, !dbg !2505
  br i1 %175, label %176, label %225, !dbg !2506

176:                                              ; preds = %170
  %177 = getelementptr inbounds %"struct.Halide::Runtime::Internal::work", %"struct.Halide::Runtime::Internal::work"* %122, i64 0, i32 0, i32 3
  br label %178, !dbg !2506

178:                                              ; preds = %187, %176
  %179 = phi i32 [ %172, %176 ], [ %189, %187 ]
  %180 = load %struct.halide_semaphore_acquire_t*, %struct.halide_semaphore_acquire_t** %177, align 8, !dbg !2507, !tbaa !2510
  %181 = sext i32 %179 to i64, !dbg !2511
  %182 = getelementptr inbounds %struct.halide_semaphore_acquire_t, %struct.halide_semaphore_acquire_t* %180, i64 %181, i32 0, !dbg !2512
  %183 = load %struct.halide_semaphore_t*, %struct.halide_semaphore_t** %182, align 8, !dbg !2512, !tbaa !2513
  %184 = getelementptr inbounds %struct.halide_semaphore_acquire_t, %struct.halide_semaphore_acquire_t* %180, i64 %181, i32 1, !dbg !2515
  %185 = load i32, i32* %184, align 8, !dbg !2515, !tbaa !2516
  %186 = tail call zeroext i1 @halide_default_semaphore_try_acquire(%struct.halide_semaphore_t* %183, i32 %185) #7, !dbg !2517
  br i1 %186, label %187, label %192, !dbg !2518

187:                                              ; preds = %178
  %188 = load i32, i32* %171, align 8, !dbg !2519, !tbaa !2502
  %189 = add nsw i32 %188, 1, !dbg !2519
  store i32 %189, i32* %171, align 8, !dbg !2519, !tbaa !2502
  %190 = load i32, i32* %173, align 8, !dbg !2503, !tbaa !2504
  %191 = icmp slt i32 %189, %190, !dbg !2505
  br i1 %191, label %178, label %225, !dbg !2506, !llvm.loop !2520

192:                                              ; preds = %178, %164
  %193 = getelementptr inbounds %"struct.Halide::Runtime::Internal::work", %"struct.Halide::Runtime::Internal::work"* %122, i64 0, i32 2, !dbg !2522
  call void @llvm.dbg.value(metadata %"struct.Halide::Runtime::Internal::work"** %193, metadata !2368, metadata !DIExpression()), !dbg !2413
  %194 = load %"struct.Halide::Runtime::Internal::work"*, %"struct.Halide::Runtime::Internal::work"** %193, align 8, !dbg !2523, !tbaa !2432
  call void @llvm.dbg.value(metadata %"struct.Halide::Runtime::Internal::work"* %194, metadata !2366, metadata !DIExpression()), !dbg !2413
  %195 = icmp eq %"struct.Halide::Runtime::Internal::work"* %194, null, !dbg !2451
  br i1 %195, label %196, label %121, !dbg !2452

196:                                              ; preds = %192, %117, %46
  call void @llvm.dbg.value(metadata %"struct.Halide::Runtime::Internal::work"* undef, metadata !2366, metadata !DIExpression()), !dbg !2413
  call void @llvm.dbg.value(metadata %"struct.Halide::Runtime::Internal::work"** undef, metadata !2368, metadata !DIExpression()), !dbg !2413
  br i1 %3, label %206, label %197, !dbg !2528

197:                                              ; preds = %196
  %198 = add nsw i32 %11, 1, !dbg !2531
  call void @llvm.dbg.value(metadata i32 %198, metadata !2363, metadata !DIExpression()), !dbg !2388
  %199 = icmp slt i32 %11, 40, !dbg !2535
  br i1 %199, label %200, label %201, !dbg !2536

200:                                              ; preds = %197
  tail call void @halide_mutex_unlock(%struct.halide_mutex* getelementptr inbounds (%"struct.Halide::Runtime::Internal::work_queue_t", %"struct.Halide::Runtime::Internal::work_queue_t"* @_ZN6Halide7Runtime8Internal10work_queueE, i64 0, i32 0)) #6, !dbg !2537
  tail call void @halide_thread_yield() #7, !dbg !2539
  tail call void @halide_mutex_lock(%struct.halide_mutex* getelementptr inbounds (%"struct.Halide::Runtime::Internal::work_queue_t", %"struct.Halide::Runtime::Internal::work_queue_t"* @_ZN6Halide7Runtime8Internal10work_queueE, i64 0, i32 0)) #6, !dbg !2540
  br label %402, !dbg !2541

201:                                              ; preds = %197
  %202 = load i32, i32* getelementptr inbounds (%"struct.Halide::Runtime::Internal::work_queue_t", %"struct.Halide::Runtime::Internal::work_queue_t"* @_ZN6Halide7Runtime8Internal10work_queueE, i64 0, i32 12), align 4, !dbg !2542, !tbaa !2544
  %203 = add nsw i32 %202, 1, !dbg !2542
  store i32 %203, i32* getelementptr inbounds (%"struct.Halide::Runtime::Internal::work_queue_t", %"struct.Halide::Runtime::Internal::work_queue_t"* @_ZN6Halide7Runtime8Internal10work_queueE, i64 0, i32 12), align 4, !dbg !2542, !tbaa !2544
  store i8 1, i8* %8, align 4, !dbg !2545, !tbaa !2546
  tail call void @halide_cond_wait(%struct.halide_cond* getelementptr inbounds (%"struct.Halide::Runtime::Internal::work_queue_t", %"struct.Halide::Runtime::Internal::work_queue_t"* @_ZN6Halide7Runtime8Internal10work_queueE, i64 0, i32 10), %struct.halide_mutex* getelementptr inbounds (%"struct.Halide::Runtime::Internal::work_queue_t", %"struct.Halide::Runtime::Internal::work_queue_t"* @_ZN6Halide7Runtime8Internal10work_queueE, i64 0, i32 0)) #6, !dbg !2547
