; ModuleID = '/media/maaz/Data/Repos/rake/Halide-master-d48fbde/src/runtime/windows_d3d12compute_arm.cpp'
source_filename = "/media/maaz/Data/Repos/rake/Halide-master-d48fbde/src/runtime/windows_d3d12compute_arm.cpp"
target datalayout = "e-m:w-p:64:64-i32:32-i64:64-i128:128-n32:64-S128"
target triple = "aarch64-unknown-windows-msvc19.11.0"

%struct._GUID = type { i32, i16, i16, [8 x i8] }
%struct.IDXGIAdapter1 = type { %struct.IDXGIAdapter }
%struct.IDXGIAdapter = type { %struct.IDXGIObject }
%struct.IDXGIObject = type { %struct.IUnknown }
%struct.IUnknown = type { i32 (...)** }
%struct.halide_d3d12compute_device = type { i8 }
%struct.halide_d3d12compute_command_queue = type { i8 }
%struct.ID3D12Fence = type { %struct.ID3D12Pageable }
%struct.ID3D12Pageable = type { %struct.ID3D12DeviceChild }
%struct.ID3D12DeviceChild = type { %struct.ID3D12Object }
%struct.ID3D12Object = type { %struct.IUnknown }
%struct.ID3D12RootSignature = type { %struct.ID3D12DeviceChild }
%"struct.Halide::Runtime::Internal::D3D12Compute::d3d12_buffer" = type { %struct.ID3D12Resource*, i32, i32, i32, i32, i32, i32, i32, i32, %struct.halide_type_t, %"struct.Halide::Runtime::Internal::D3D12Compute::d3d12_buffer::transfer_t"*, i8, i8*, i8*, i64, i64 }
%struct.ID3D12Resource = type { %struct.ID3D12Pageable }
%struct.halide_type_t = type { i8, i8, i16 }
%"struct.Halide::Runtime::Internal::D3D12Compute::d3d12_buffer::transfer_t" = type { %"struct.Halide::Runtime::Internal::D3D12Compute::d3d12_buffer"*, i64, i64 }
%"struct.Halide::Runtime::Internal::D3D12Compute::d3d12_command_allocator" = type { i8 }
%"struct.Halide::Runtime::Internal::D3D12Compute::d3d12_frame" = type { %"struct.Halide::Runtime::Internal::D3D12Compute::d3d12_graphics_command_list"*, %"struct.Halide::Runtime::Internal::D3D12Compute::d3d12_binder"*, %"struct.Halide::Runtime::Internal::D3D12Compute::d3d12_buffer", i64 }
%"struct.Halide::Runtime::Internal::D3D12Compute::d3d12_graphics_command_list" = type { %struct.halide_d3d12_deep_wrapper, i64 }
%struct.halide_d3d12_deep_wrapper = type { %struct.ID3D12GraphicsCommandList* }
%struct.ID3D12GraphicsCommandList = type { %struct.ID3D12CommandList }
%struct.ID3D12CommandList = type { %struct.ID3D12DeviceChild }
%"struct.Halide::Runtime::Internal::D3D12Compute::d3d12_binder" = type { %struct.ID3D12DescriptorHeap*, %struct.D3D12_CPU_DESCRIPTOR_HANDLE, %struct.D3D12_GPU_DESCRIPTOR_HANDLE, [3 x %struct.D3D12_CPU_DESCRIPTOR_HANDLE], [3 x %struct.D3D12_GPU_DESCRIPTOR_HANDLE], i32 }
%struct.ID3D12DescriptorHeap = type { %struct.ID3D12Pageable }
%struct.D3D12_CPU_DESCRIPTOR_HANDLE = type { i64 }
%struct.D3D12_GPU_DESCRIPTOR_HANDLE = type { i64 }
%struct.halide_device_interface_t = type { i32 (i8*, %struct.halide_buffer_t*, %struct.halide_device_interface_t*)*, i32 (i8*, %struct.halide_buffer_t*)*, i32 (i8*, %struct.halide_buffer_t*)*, void (i8*, %struct.halide_device_interface_t*)*, i32 (i8*, %struct.halide_buffer_t*)*, i32 (i8*, %struct.halide_buffer_t*, %struct.halide_device_interface_t*)*, i32 (i8*, %struct.halide_buffer_t*, %struct.halide_device_interface_t*)*, i32 (i8*, %struct.halide_buffer_t*)*, i32 (i8*, %struct.halide_buffer_t*, %struct.halide_device_interface_t*, %struct.halide_buffer_t*)*, i32 (i8*, %struct.halide_buffer_t*, %struct.halide_buffer_t*)*, i32 (i8*, %struct.halide_buffer_t*, i32, i32, %struct.halide_buffer_t*)*, i32 (i8*, %struct.halide_buffer_t*)*, i32 (i8*, %struct.halide_buffer_t*, i64, %struct.halide_device_interface_t*)*, i32 (i8*, %struct.halide_buffer_t*)*, i32 (i8*, i32*, i32*)*, %struct.halide_device_interface_impl_t* }
%struct.halide_buffer_t = type { i64, %struct.halide_device_interface_t*, i8*, i64, %struct.halide_type_t, i32, %struct.halide_dimension_t*, i8* }
%struct.halide_dimension_t = type { i32, i32, i32, i32 }
%struct.halide_device_interface_impl_t = type { void ()*, void ()*, i32 (i8*, %struct.halide_buffer_t*)*, i32 (i8*, %struct.halide_buffer_t*)*, i32 (i8*, %struct.halide_buffer_t*)*, i32 (i8*)*, i32 (i8*, %struct.halide_buffer_t*)*, i32 (i8*, %struct.halide_buffer_t*)*, i32 (i8*, %struct.halide_buffer_t*)*, i32 (i8*, %struct.halide_buffer_t*)*, i32 (i8*, %struct.halide_buffer_t*, %struct.halide_device_interface_t*, %struct.halide_buffer_t*)*, i32 (i8*, %struct.halide_buffer_t*, %struct.halide_buffer_t*)*, i32 (i8*, %struct.halide_buffer_t*, i32, i32, %struct.halide_buffer_t*)*, i32 (i8*, %struct.halide_buffer_t*)*, i32 (i8*, %struct.halide_buffer_t*, i64)*, i32 (i8*, %struct.halide_buffer_t*)* }
%struct.D3D12_ROOT_SIGNATURE_DESC = type { i32, %struct.D3D12_ROOT_PARAMETER*, i32, %struct.D3D12_STATIC_SAMPLER_DESC*, i32 }
%struct.D3D12_ROOT_PARAMETER = type { i32, %union.anon, i32 }
%union.anon = type { %struct.D3D12_ROOT_DESCRIPTOR_TABLE }
%struct.D3D12_ROOT_DESCRIPTOR_TABLE = type { i32, %struct.D3D12_DESCRIPTOR_RANGE* }
%struct.D3D12_DESCRIPTOR_RANGE = type { i32, i32, i32, i32, i32 }
%struct.D3D12_STATIC_SAMPLER_DESC = type { i32, i32, i32, i32, float, i32, i32, i32, float, float, i32, i32, i32 }
%struct.ID3D10Blob = type { %struct.IUnknown }
%"class.Halide::Internal::GPUCompilationCache" = type { %struct.halide_mutex, i32, %"struct.Halide::Internal::GPUCompilationCache<halide_d3d12compute_device *, Halide::Runtime::Internal::D3D12Compute::d3d12_library *>::CachedCompilation"*, i32, i32 }
%struct.halide_mutex = type { [1 x i64] }
%"struct.Halide::Internal::GPUCompilationCache<halide_d3d12compute_device *, Halide::Runtime::Internal::D3D12Compute::d3d12_library *>::CachedCompilation" = type { %struct.halide_d3d12compute_device*, %"struct.Halide::Runtime::Internal::D3D12Compute::d3d12_library"*, i32, i32 }
%"struct.Halide::Runtime::Internal::D3D12Compute::d3d12_library" = type { %"struct.Halide::Runtime::Internal::THashMap", i32, [1 x i8] }
%"struct.Halide::Runtime::Internal::THashMap" = type { %"struct.Halide::Runtime::Internal::HashMap" }
%"struct.Halide::Runtime::Internal::HashMap" = type { %struct.halide_mutex, [256 x %"struct.Halide::Runtime::Internal::CacheEntry"*], %"struct.Halide::Runtime::Internal::CacheEntry"*, %"struct.Halide::Runtime::Internal::CacheEntry"*, i64, i64, i64, void (i8*, i8*, i64)*, void (i8*, i64)*, i8*, i8 }
%"struct.Halide::Runtime::Internal::CacheEntry" = type { %"struct.Halide::Runtime::Internal::CacheEntry"*, %"struct.Halide::Runtime::Internal::CacheEntry"*, %"struct.Halide::Runtime::Internal::CacheEntry"*, i8*, i64, i8*, i32, i32, i64, i8* }
%struct._D3D_SHADER_MACRO = type { i8*, i8* }
%struct.ID3DInclude = type { i32 (...)** }
%"struct.Halide::Runtime::Internal::device_copy" = type { i64, i64, i64, [16 x i64], [16 x i64], [16 x i64], i64 }
%"class.Halide::Runtime::Internal::(anonymous namespace)::Printer" = type { i8*, i8*, i8*, i8*, i8, [1 x i8] }
%struct.DXGI_ADAPTER_DESC1 = type { [128 x i16], i32, i32, i32, i32, i64, i64, i64, %struct.__LUID, i32 }
%struct.__LUID = type { i32, i32 }
%struct.ID3D12Device = type { %struct.ID3D12Object }
%struct.D3D12_RESOURCE_DESC = type { i32, i64, i64, i32, i16, i16, i32, %struct.DXGI_SAMPLE_DESC, i32, i32 }
%struct.DXGI_SAMPLE_DESC = type { i32, i32 }
%struct.D3D12_HEAP_PROPERTIES = type { i32, i32, i32, i32, i32 }
%struct.D3D12_CLEAR_VALUE = type { i32, %union.anon.4 }
%union.anon.4 = type { [4 x float] }
%struct.D3D12_RANGE = type { i64, i64 }
%"struct.Halide::Runtime::Internal::D3D12Compute::ID3D12MemoryMappedResourceFAUX" = type opaque
%"struct.Halide::Runtime::Internal::D3D12Compute::d3d12_profiler" = type { %"struct.Halide::Runtime::Internal::D3D12Compute::d3d12_buffer", i64, %struct.ID3D12QueryHeap*, i32, i32 }
%struct.ID3D12QueryHeap = type { %struct.ID3D12Pageable }
%struct.D3D12_QUERY_HEAP_DESC = type { i32, i32, i32 }
%struct.ID3D12CommandQueue = type { %struct.ID3D12Pageable }
%"struct.Halide::Runtime::Internal::D3D12Compute::ID3D12CommandQueueTimestampFrequencyFAUX" = type opaque
%struct.D3D12_COMMAND_QUEUE_DESC = type { i32, i32, i32, i32 }
%struct._SECURITY_ATTRIBUTES = type { i32, i8*, i32 }
%struct.D3D12_CONSTANT_BUFFER_VIEW_DESC = type { i64, i32 }
%struct.D3D12_UNORDERED_ACCESS_VIEW_DESC = type { i32, i32, %union.anon.5 }
%union.anon.5 = type { %struct.D3D12_BUFFER_UAV }
%struct.D3D12_BUFFER_UAV = type { i64, i32, i32, i64, i32 }
%"class.Halide::Runtime::Internal::D3D12Compute::D3D12ContextHolder" = type { i8*, %struct.halide_d3d12compute_device*, %struct.halide_d3d12compute_command_queue*, i32 }
%struct.ID3D12CommandAllocator = type { %struct.ID3D12Pageable }
%struct.IDXGIFactory1 = type { %struct.IDXGIFactory }
%struct.IDXGIFactory = type { %struct.IDXGIObject }
%struct.D3D12_RESOURCE_BARRIER = type { i32, i32, %union.anon.6 }
%union.anon.6 = type { %struct.D3D12_RESOURCE_TRANSITION_BARRIER }
%struct.D3D12_RESOURCE_TRANSITION_BARRIER = type { %struct.ID3D12Resource*, i32, i32, i32 }
%struct.ID3D12PipelineState = type { %struct.ID3D12Pageable }
%struct.D3D12_COMPUTE_PIPELINE_STATE_DESC = type { %struct.ID3D12RootSignature*, %struct.D3D12_SHADER_BYTECODE, i32, %struct.D3D12_CACHED_PIPELINE_STATE, i32 }
%struct.D3D12_SHADER_BYTECODE = type { i8*, i64 }
%struct.D3D12_CACHED_PIPELINE_STATE = type { i8*, i64 }
%"class.Halide::Runtime::Internal::(anonymous namespace)::Printer.11" = type { i8*, i8*, i8*, i8*, i8, [16 x i8] }
%"struct.Halide::Runtime::Internal::D3D12Compute::d3d12_function" = type { %struct.ID3D10Blob*, %struct.ID3D12RootSignature*, %"struct.Halide::Runtime::Internal::D3D12Compute::d3d12_pipeline_state"* }
%"struct.Halide::Runtime::Internal::D3D12Compute::d3d12_pipeline_state" = type { i8 }
%"class.Halide::Runtime::Internal::(anonymous namespace)::Printer.10" = type { i8*, i8*, i8*, i8*, i8, [256 x i8] }
%struct.D3D12_DESCRIPTOR_HEAP_DESC = type { i32, i32, i32, i32 }
%struct.D3D12_SHADER_RESOURCE_VIEW_DESC = type { i32, i32, i32, %union.anon.9 }
%union.anon.9 = type { %struct.D3D12_BUFFER_SRV }
%struct.D3D12_BUFFER_SRV = type { i64, i32, i32, i32 }

$"??$kernel_state_setup@P6APEAUd3d12_library@D3D12Compute@Internal@Runtime@Halide@@PEAUhalide_d3d12compute_device@@PEBDHPEAH@ZPEAU6@PEBDHPEAH@?$GPUCompilationCache@PEAUhalide_d3d12compute_device@@PEAUd3d12_library@D3D12Compute@Internal@Runtime@Halide@@@Internal@Halide@@QEAA_NPEAXPEAPEAXPEAUhalide_d3d12compute_device@@AEAPEAUd3d12_library@D3D12Compute@1Runtime@2@P6APEAU45162@2PEBDHPEAH@Z24H5@Z" = comdat any

$"??$release_all@$$A6AXPEAUd3d12_library@D3D12Compute@Internal@Runtime@Halide@@@Z@?$GPUCompilationCache@PEAUhalide_d3d12compute_device@@PEAUd3d12_library@D3D12Compute@Internal@Runtime@Halide@@@Internal@Halide@@QEAAXPEAXA6AXPEAUd3d12_library@D3D12Compute@1Runtime@2@@Z@Z" = comdat any

$"?destroy_value_func@?$THashMap@PEADPEAUd3d12_function@D3D12Compute@Internal@Runtime@Halide@@@Internal@Runtime@Halide@@SAXPEAE_K@Z" = comdat any

$"?copy_value_func@?$THashMap@PEADPEAUd3d12_function@D3D12Compute@Internal@Runtime@Halide@@@Internal@Runtime@Halide@@SAXPEAEPEBE_K@Z" = comdat any

$"?lookup@HashMap@Internal@Runtime@Halide@@QEAAHPEAXPEBEHPEAE_K@Z" = comdat any

$"?store@HashMap@Internal@Runtime@Halide@@QEAAHPEAXPEBEH1_K@Z" = comdat any

$"?prune@HashMap@Internal@Runtime@Halide@@QEAAXXZ" = comdat any

$"?insert@?$GPUCompilationCache@PEAUhalide_d3d12compute_device@@PEAUd3d12_library@D3D12Compute@Internal@Runtime@Halide@@@Internal@Halide@@QEAA_NAEBUCachedCompilation@123@@Z" = comdat any

$"?resize_table@?$GPUCompilationCache@PEAUhalide_d3d12compute_device@@PEAUd3d12_library@D3D12Compute@Internal@Runtime@Halide@@@Internal@Halide@@QEAA_NH@Z" = comdat any

$IID_ID3D12Object = comdat any

$IID_ID3D12DeviceChild = comdat any

$IID_ID3D12RootSignature = comdat any

$IID_ID3D12RootSignatureDeserializer = comdat any

$IID_ID3D12VersionedRootSignatureDeserializer = comdat any

$IID_ID3D12Pageable = comdat any

$IID_ID3D12Heap = comdat any

$IID_ID3D12Resource = comdat any

$IID_ID3D12CommandAllocator = comdat any

$IID_ID3D12Fence = comdat any

$IID_ID3D12PipelineState = comdat any

$IID_ID3D12DescriptorHeap = comdat any

$IID_ID3D12QueryHeap = comdat any

$IID_ID3D12CommandSignature = comdat any

$IID_ID3D12CommandList = comdat any

$IID_ID3D12GraphicsCommandList = comdat any

$IID_ID3D12GraphicsCommandList1 = comdat any

$IID_ID3D12CommandQueue = comdat any

$IID_ID3D12Device = comdat any

$IID_ID3D12PipelineLibrary = comdat any

$IID_ID3D12PipelineLibrary1 = comdat any

$IID_ID3D12Device1 = comdat any

$IID_ID3D12Device2 = comdat any

$IID_ID3D12Tools = comdat any

$IID_ID3D12Debug = comdat any

$IID_IDXGIObject = comdat any

$IID_IDXGIDeviceSubObject = comdat any

$IID_IDXGIResource = comdat any

$IID_IDXGIKeyedMutex = comdat any

$IID_IDXGISurface = comdat any

$IID_IDXGISurface1 = comdat any

$IID_IDXGIAdapter = comdat any

$IID_IDXGIOutput = comdat any

$IID_IDXGISwapChain = comdat any

$IID_IDXGIFactory = comdat any

$IID_IDXGIDevice = comdat any

$IID_IDXGIFactory1 = comdat any

$IID_IDXGIAdapter1 = comdat any

$IID_IDXGIDevice1 = comdat any

$"??_C@_0CB@OJMCFILH@Unable?5to?5load?5runtime?5library?3?5@" = comdat any

$"??_C@_01EEMJAFIK@?6?$AA@" = comdat any

$"??_C@_0CE@MGMMPJGA@vvvvv?5D3D12?5Begin?5Debug?5Dump?5vvv@" = comdat any

$"??_C@_0CE@PCPJBLP@?$FO?$FO?$FO?$FO?$FO?5D3D12?5?5End?5?5Debug?5Dump?5?$FO?$FO?$FO@" = comdat any

$"??_C@_0BA@FGKOLOB@D3D12?5HALT?5?$CB?$CB?$CB?6?$AA@" = comdat any

$"??_C@_0BD@FEGNPKLO@Symbol?5not?5found?3?5?$AA@" = comdat any

$"??_C@_0HK@DOPNIAMO@?1media?1maaz?1Data?1Repos?1rake?1Hali@" = comdat any

$"??_C@_0IC@DAJENPLN@?1media?1maaz?1Data?1Repos?1rake?1Hali@" = comdat any

$"??_C@_0CC@BDDMCIOG@unsupported?5buffer?5element?5type?3@" = comdat any

$"??_C@_0IK@FFGIGOBH@?1media?1maaz?1Data?1Repos?1rake?1Hali@" = comdat any

$"??_C@_0DD@JMFCFLOG@Unable?5to?5serialize?5the?5Direct3D@" = comdat any

$"??_C@_0GP@PMNGDIHN@?1media?1maaz?1Data?1Repos?1rake?1Hali@" = comdat any

$_GUID_c54a6b66_72df_4ee8_8be5_a946a1429214 = comdat any

$"??_C@_0DA@LBIGKBEG@Unable?5to?5create?5the?5Direct3D?512@" = comdat any

$"??_C@_0GK@DILKJBBI@?1media?1maaz?1Data?1Repos?1rake?1Hali@" = comdat any

$_GUID_696442be_a72e_4059_bc79_5b5c98040fad = comdat any

$"??_C@_0CI@NPEAIHAH@Unable?5to?5create?5the?5Direct3D?512@" = comdat any

$"??_C@_0GK@NMMJINNK@?1media?1maaz?1Data?1Repos?1rake?1Hali@" = comdat any

$"??_C@_0DA@HBIDIHJB@Unable?5to?5map?5Direct3D?512?5stagin@" = comdat any

$"??_C@_0GK@HACGJCLB@?1media?1maaz?1Data?1Repos?1rake?1Hali@" = comdat any

$"??_C@_0GK@MGAKONOO@?1media?1maaz?1Data?1Repos?1rake?1Hali@" = comdat any

$"??_C@_0HF@GEOCDJFN@?1media?1maaz?1Data?1Repos?1rake?1Hali@" = comdat any

$"??_C@_0HF@NJIFOIPF@?1media?1maaz?1Data?1Repos?1rake?1Hali@" = comdat any

$"??_C@_0HJ@DKCFLDBN@?1media?1maaz?1Data?1Repos?1rake?1Hali@" = comdat any

$"??_C@_0HL@MCKOJAGC@?1media?1maaz?1Data?1Repos?1rake?1Hali@" = comdat any

$"??_C@_0GK@BCNCIOPH@?1media?1maaz?1Data?1Repos?1rake?1Hali@" = comdat any

$"??_C@_0II@CBKJDPFH@?1media?1maaz?1Data?1Repos?1rake?1Hali@" = comdat any

$"??_C@_0HF@CECKD@?1media?1maaz?1Data?1Repos?1rake?1Hali@" = comdat any

$"??_C@_0DN@OAKEFMAC@Unable?5to?5query?5the?5timestamp?5fr@" = comdat any

$_GUID_0d9658ae_ed45_469e_a61d_970ec583cab4 = comdat any

$"??_C@_0CG@NBKDFBHJ@Unable?5to?5create?5timestamp?5query@" = comdat any

$_GUID_0ec870a6_5d7e_4c22_8cfc_5baae07616ed = comdat any

$"??_C@_0CP@MODFOMNJ@Unable?5to?5create?5the?5Direct3D?512@" = comdat any

$_GUID_0a753dcf_c4d8_4b91_adf6_be5a60d95a76 = comdat any

$"??_C@_0DJ@DBKGGAGH@Unable?5to?5create?5the?5Direct3D?512@" = comdat any

$"??_C@_0JA@ODKGALFD@?1media?1maaz?1Data?1Repos?1rake?1Hali@" = comdat any

$"??_C@_0IJ@OPLHAIKP@?1media?1maaz?1Data?1Repos?1rake?1Hali@" = comdat any

$"??_C@_0IJ@HNGKJPKA@?1media?1maaz?1Data?1Repos?1rake?1Hali@" = comdat any

$"??_C@_0GK@KJKJJPGE@?1media?1maaz?1Data?1Repos?1rake?1Hali@" = comdat any

$"??_C@_0IO@KLEIPOMC@?1media?1maaz?1Data?1Repos?1rake?1Hali@" = comdat any

$"??_C@_0GN@EDMIPHNF@?1media?1maaz?1Data?1Repos?1rake?1Hali@" = comdat any

$"??_C@_0HM@KLNKIJPM@?1media?1maaz?1Data?1Repos?1rake?1Hali@" = comdat any

$"??_C@_0CK@IEEBLAKI@D3D12?3?5Failed?5to?5allocate?5buffer@" = comdat any

$"??_C@_0DG@DFIKFHFI@D3D12?3?5unable?5to?5wrap?5halide?5buf@" = comdat any

$"??_C@_0IN@BMJECIBC@?1media?1maaz?1Data?1Repos?1rake?1Hali@" = comdat any

$"??_C@_0GL@HHOHMCJC@?1media?1maaz?1Data?1Repos?1rake?1Hali@" = comdat any

$"??_C@_0ID@GPCJFJNF@?1media?1maaz?1Data?1Repos?1rake?1Hali@" = comdat any

$"??_C@_0HO@OJIECJKO@?1media?1maaz?1Data?1Repos?1rake?1Hali@" = comdat any

$"??_C@_0JH@JGIADBHE@?1media?1maaz?1Data?1Repos?1rake?1Hali@" = comdat any

$"??_C@_0GL@HEDOAOHD@?1media?1maaz?1Data?1Repos?1rake?1Hali@" = comdat any

$"??_C@_0ID@LIPAGPCO@?1media?1maaz?1Data?1Repos?1rake?1Hali@" = comdat any

$"??_C@_0GK@JBIOIBNJ@?1media?1maaz?1Data?1Repos?1rake?1Hali@" = comdat any

$"??_C@_0JH@DPKKJPPD@?1media?1maaz?1Data?1Repos?1rake?1Hali@" = comdat any

$"??_C@_0IA@GKICIJMP@?1media?1maaz?1Data?1Repos?1rake?1Hali@" = comdat any

$"??_C@_0GN@JEILPOMA@?1media?1maaz?1Data?1Repos?1rake?1Hali@" = comdat any

$"??_C@_0IN@NBDDCMMP@?1media?1maaz?1Data?1Repos?1rake?1Hali@" = comdat any

$"??_C@_0HI@GJGOKOND@?1media?1maaz?1Data?1Repos?1rake?1Hali@" = comdat any

$"??_C@_0HF@DFDPDGHJ@?1media?1maaz?1Data?1Repos?1rake?1Hali@" = comdat any

$"??_C@_0HG@ONCHKHIM@?1media?1maaz?1Data?1Repos?1rake?1Hali@" = comdat any

$"??_C@_0DD@BBIFNIEA@D3D12Compute?3?5Could?5not?5allocate@" = comdat any

$"??_C@_0HK@OFACIBGA@?1media?1maaz?1Data?1Repos?1rake?1Hali@" = comdat any

$"??_C@_0GK@LJLFAGKH@?1media?1maaz?1Data?1Repos?1rake?1Hali@" = comdat any

$"??_C@_0GK@BIMLBHIN@?1media?1maaz?1Data?1Repos?1rake?1Hali@" = comdat any

$"??_C@_0GK@HBMNIJNC@?1media?1maaz?1Data?1Repos?1rake?1Hali@" = comdat any

$"??_C@_0IG@MKOCFILD@?1media?1maaz?1Data?1Repos?1rake?1Hali@" = comdat any

$"??_C@_0IJ@MNBDOJEE@?1media?1maaz?1Data?1Repos?1rake?1Hali@" = comdat any

$"??_C@_0DF@LCGCOEGO@Buffer?5has?5too?5many?5dimensions?5t@" = comdat any

$"??_C@_0MC@HDEPANAE@?1media?1maaz?1Data?1Repos?1rake?1Hali@" = comdat any

$"??_C@_0JL@MEIFODEH@?1media?1maaz?1Data?1Repos?1rake?1Hali@" = comdat any

$"??_C@_0HL@BCFBGMIG@?1media?1maaz?1Data?1Repos?1rake?1Hali@" = comdat any

$"??_C@_0GN@LGOPAMLC@?1media?1maaz?1Data?1Repos?1rake?1Hali@" = comdat any

$"??_C@_0JO@MBMNFKIK@?1media?1maaz?1Data?1Repos?1rake?1Hali@" = comdat any

$"??_C@_0JO@GHEAJMCJ@?1media?1maaz?1Data?1Repos?1rake?1Hali@" = comdat any

$"??_C@_0HL@MMJDCFEN@?1media?1maaz?1Data?1Repos?1rake?1Hali@" = comdat any

$"??_C@_0HL@GJCHNPHA@?1media?1maaz?1Data?1Repos?1rake?1Hali@" = comdat any

$"??_C@_0HF@MLNMPA@?1media?1maaz?1Data?1Repos?1rake?1Hali@" = comdat any

$"??_C@_0GM@LMKBMAKN@?1media?1maaz?1Data?1Repos?1rake?1Hali@" = comdat any

$"??_C@_0JO@GCIBHMBO@?1media?1maaz?1Data?1Repos?1rake?1Hali@" = comdat any

$"??_C@_0IH@LKALKAII@?1media?1maaz?1Data?1Repos?1rake?1Hali@" = comdat any

$"??_C@_0HL@GHAGNCKA@?1media?1maaz?1Data?1Repos?1rake?1Hali@" = comdat any

$"??_C@_0HL@CMMPFMCI@?1media?1maaz?1Data?1Repos?1rake?1Hali@" = comdat any

$"??_C@_0HF@DIJLIEGH@?1media?1maaz?1Data?1Repos?1rake?1Hali@" = comdat any

$"??_C@_0DO@DKCCILEE@halide_d3d12compute_device_crop?3@" = comdat any

$"??_C@_0HM@PMHOEIAI@?1media?1maaz?1Data?1Repos?1rake?1Hali@" = comdat any

$"??_C@_0IL@ELHOHBDO@?1media?1maaz?1Data?1Repos?1rake?1Hali@" = comdat any

$"??_C@_0JF@HBKAJKKG@?1media?1maaz?1Data?1Repos?1rake?1Hali@" = comdat any

$"??_C@_0IG@JHIDPJCM@?1media?1maaz?1Data?1Repos?1rake?1Hali@" = comdat any

$"??_C@_0IG@NLGIEOAM@?1media?1maaz?1Data?1Repos?1rake?1Hali@" = comdat any

$"??_C@_0HL@PJKJFAAC@?1media?1maaz?1Data?1Repos?1rake?1Hali@" = comdat any

$"??_C@_0EF@BJFFFHJC@halide_d3d12compute_wrap_buffer?3@" = comdat any

$"??_C@_0HH@DCCLAMGD@?1media?1maaz?1Data?1Repos?1rake?1Hali@" = comdat any

$"??_C@_0HG@CAELBHFM@?1media?1maaz?1Data?1Repos?1rake?1Hali@" = comdat any

$"??_C@_0IH@ELBHFNGA@?1media?1maaz?1Data?1Repos?1rake?1Hali@" = comdat any

$"??_C@_0II@HPNAIILO@?1media?1maaz?1Data?1Repos?1rake?1Hali@" = comdat any

$"??_C@_0IJ@IINKHGHG@?1media?1maaz?1Data?1Repos?1rake?1Hali@" = comdat any

$"??_C@_0GJ@HCOGLMCJ@?1media?1maaz?1Data?1Repos?1rake?1Hali@" = comdat any

$"??_C@_0HI@FNCIDAJF@?1media?1maaz?1Data?1Repos?1rake?1Hali@" = comdat any

$"??_C@_0KB@NININJGE@?1media?1maaz?1Data?1Repos?1rake?1Hali@" = comdat any

$"??_C@_0HI@MFPPBOBE@?1media?1maaz?1Data?1Repos?1rake?1Hali@" = comdat any

$"??_C@_0GE@IILGOCND@?1media?1maaz?1Data?1Repos?1rake?1Hali@" = comdat any

$"??_C@_0HG@HILAPLNM@?1media?1maaz?1Data?1Repos?1rake?1Hali@" = comdat any

$"??_C@_0HG@DPCFCKPA@?1media?1maaz?1Data?1Repos?1rake?1Hali@" = comdat any

$"??_C@_0HP@CJJAKJAL@?1media?1maaz?1Data?1Repos?1rake?1Hali@" = comdat any

$"??_C@_0HH@BCDAACAG@?1media?1maaz?1Data?1Repos?1rake?1Hali@" = comdat any

$"??_C@_0IE@KCBLAMLL@?1media?1maaz?1Data?1Repos?1rake?1Hali@" = comdat any

$"??_C@_0HC@EJNCMKGA@?1media?1maaz?1Data?1Repos?1rake?1Hali@" = comdat any

$"??_C@_0HE@JADBJBDC@?1media?1maaz?1Data?1Repos?1rake?1Hali@" = comdat any

$_GUID_770aae78_f26f_4dba_a829_253c83d1b387 = comdat any

$"??_C@_0CO@PFDCLHOL@Unable?5to?5create?5DXGI?5Factory?5?$CII@" = comdat any

$"??_C@_0HN@EFBLJJLF@?1media?1maaz?1Data?1Repos?1rake?1Hali@" = comdat any

$"??_C@_0DC@FNBIDBIK@Unable?5to?5enumerate?5DXGI?5adapter@" = comdat any

$"??_C@_0EL@CNMMEDGN@Unable?5to?5retrieve?5information?5?$CI@" = comdat any

$"??_C@_0CJ@GPPKLMOI@Unable?5to?5find?5a?5suitable?5D3D12?5@" = comdat any

$"??_C@_09ICPCIOEL@d3d12?4dll?$AA@" = comdat any

$"??_C@_0BD@CLKCCNEK@D3DCompiler_47?4dll?$AA@" = comdat any

$"??_C@_08EEBGHKPL@dxgi?4dll?$AA@" = comdat any

$"??_C@_0BC@OOAMCEEI@D3D12CreateDevice?$AA@" = comdat any

$"??_C@_0BH@BKICNBLB@D3D12GetDebugInterface?$AA@" = comdat any

$"??_C@_0BM@FFPIANAM@D3D12SerializeRootSignature?$AA@" = comdat any

$"??_C@_0L@HKGOFPCI@D3DCompile?$AA@" = comdat any

$"??_C@_0BD@JFLLLCON@CreateDXGIFactory1?$AA@" = comdat any

$"??_C@_0L@IAGCJOCP@?5?$CIHRESULT?$DN?$AA@" = comdat any

$"??_C@_0L@FELFIFPM@?0?5object?$CK?$DN?$AA@" = comdat any

$"??_C@_01PKGAHCOL@?$CJ?$AA@" = comdat any

$"??_C@_0EP@FDCDGPDE@Unable?5to?5retrieve?5information?5?$CI@" = comdat any

$_GUID_189819f1_1db6_4b57_be54_1821339b85f7 = comdat any

$"??_C@_0CI@IGMLMPFG@Unable?5to?5create?5the?5Direct3D?512@" = comdat any

$"??_C@_0GL@MKEDKIBD@?1media?1maaz?1Data?1Repos?1rake?1Hali@" = comdat any

$_GUID_6102dee4_af59_4b09_b999_b44d73f09b24 = comdat any

$"??_C@_0DD@BGLBECPN@Unable?5to?5create?5the?5Direct3D?512@" = comdat any

$"??_C@_0CG@BDJKEANK@Debug?5info?5not?5available?3?5no?5dev@" = comdat any

$"??_C@_0HN@LLGMPKNO@?1media?1maaz?1Data?1Repos?1rake?1Hali@" = comdat any

$"??_C@_0DK@KDCNPKGG@Unable?5to?5retrieve?5information?5a@" = comdat any

$"??_C@_0CP@JMHIFPPF@Unable?5to?5allocate?5memory?5for?5th@" = comdat any

$"??_C@_0BH@CHHGHFME@D3D12?5Device?5Adapter?3?5?$AA@" = comdat any

$"??_C@_0CI@KNFDFENG@Device?5Lost?$CB?5GetDeviceRemovedRea@" = comdat any

$"??_C@_08NBDONIIG@before?3?5?$AA@" = comdat any

$"??_C@_03LGOGDKEL@?5?$HM?5?$AA@" = comdat any

$"??_C@_07NCNFGCHF@after?3?5?$AA@" = comdat any

$"??_C@_0BP@JEHMDIGO@Unable?5to?5wait?5for?5Fence?5Event?$AA@" = comdat any

$"??_C@_0HF@HPJKODMC@?1media?1maaz?1Data?1Repos?1rake?1Hali@" = comdat any

$"??_C@_0HG@BKPBFCDC@?1media?1maaz?1Data?1Repos?1rake?1Hali@" = comdat any

$"??_C@_0GK@KGJGGHMA@?1media?1maaz?1Data?1Repos?1rake?1Hali@" = comdat any

$"??_C@_0IG@GFIJNJDO@?1media?1maaz?1Data?1Repos?1rake?1Hali@" = comdat any

$"??_C@_0JI@PCJLNBL@?1media?1maaz?1Data?1Repos?1rake?1Hali@" = comdat any

$"??_C@_0II@PGFAABKF@?1media?1maaz?1Data?1Repos?1rake?1Hali@" = comdat any

$"??_C@_0JI@EEDFJGKA@?1media?1maaz?1Data?1Repos?1rake?1Hali@" = comdat any

$"??_C@_0GL@JKLPMJCE@?1media?1maaz?1Data?1Repos?1rake?1Hali@" = comdat any

$"??_C@_0GI@CIKNBAH@?1media?1maaz?1Data?1Repos?1rake?1Hali@" = comdat any

$"??_C@_0GI@GGLHCMMF@?1media?1maaz?1Data?1Repos?1rake?1Hali@" = comdat any

$"??_C@_0IJ@PHCCBPFH@?1media?1maaz?1Data?1Repos?1rake?1Hali@" = comdat any

$"??_C@_0IJ@FKOMGEEA@?1media?1maaz?1Data?1Repos?1rake?1Hali@" = comdat any

$"??_C@_0IK@ONFBLGCD@?1media?1maaz?1Data?1Repos?1rake?1Hali@" = comdat any

$"??_C@_0IK@GOCPPNJP@?1media?1maaz?1Data?1Repos?1rake?1Hali@" = comdat any

$"??_C@_0HC@DEBHPEJP@?1media?1maaz?1Data?1Repos?1rake?1Hali@" = comdat any

$"??_C@_0II@HKEHGFPG@?1media?1maaz?1Data?1Repos?1rake?1Hali@" = comdat any

$"??_C@_0IK@HFNGBPMB@?1media?1maaz?1Data?1Repos?1rake?1Hali@" = comdat any

$"??_C@_0HL@FDNNDOAP@?1media?1maaz?1Data?1Repos?1rake?1Hali@" = comdat any

$"??_C@_0IK@HCNEAADD@?1media?1maaz?1Data?1Repos?1rake?1Hali@" = comdat any

$"??_C@_0HL@GDNHBGNM@?1media?1maaz?1Data?1Repos?1rake?1Hali@" = comdat any

$"??_C@_0II@NAEKBKKG@?1media?1maaz?1Data?1Repos?1rake?1Hali@" = comdat any

$"??_C@_0IK@JBDMNMFO@?1media?1maaz?1Data?1Repos?1rake?1Hali@" = comdat any

$"??_C@_0IK@BCECJHOC@?1media?1maaz?1Data?1Repos?1rake?1Hali@" = comdat any

$"??_C@_0GK@DOBONIIG@?1media?1maaz?1Data?1Repos?1rake?1Hali@" = comdat any

$"??_C@_0GK@DKOLFJKC@?1media?1maaz?1Data?1Repos?1rake?1Hali@" = comdat any

$"??_C@_0GK@GCMMKOFI@?1media?1maaz?1Data?1Repos?1rake?1Hali@" = comdat any

$_GUID_5b160d0f_ac1b_4185_8ba8_b3ae42a5a455 = comdat any

$"??_C@_0CO@OKNPIGDH@Unable?5to?5create?5the?5Direct3D?512@" = comdat any

$_GUID_8efb471d_616c_4f49_90f7_127bb763fa51 = comdat any

$"??_C@_0DB@GKGAOIPC@Unable?5to?5create?5the?5Direct3D?512@" = comdat any

$"??_C@_02DKADOBMK@_?$CI?$AA@" = comdat any

$"??_C@_01IHBHIGKO@?0?$AA@" = comdat any

$"??_C@_03DNCOCNEF@?$CJ_?$FL?$AA@" = comdat any

$"??_C@_01LBDDMOBJ@?$FN?$AA@" = comdat any

$"??_C@_0IG@KHODCDFK@?1media?1maaz?1Data?1Repos?1rake?1Hali@" = comdat any

$"??_C@_0HK@BHBNEKNC@?1media?1maaz?1Data?1Repos?1rake?1Hali@" = comdat any

$"??_C@_0HK@HOPDFHBF@?1media?1maaz?1Data?1Repos?1rake?1Hali@" = comdat any

$"??_C@_09CGLEKJAK@?$DMnullptr?$DO?$AA@" = comdat any

$"??_C@_0HK@ILGBKOLL@?1media?1maaz?1Data?1Repos?1rake?1Hali@" = comdat any

$"??_C@_0HJ@MNNHDLMG@?1media?1maaz?1Data?1Repos?1rake?1Hali@" = comdat any

$"??_C@_0HK@MPEPNOAE@?1media?1maaz?1Data?1Repos?1rake?1Hali@" = comdat any

$"??_C@_0IE@KOIFDNCL@?1media?1maaz?1Data?1Repos?1rake?1Hali@" = comdat any

$"??_C@_0CD@IKIJNBLF@Printer?5buffer?5allocation?5failed@" = comdat any

$"??_C@_0BM@EDALEHEN@__GROUPSHARED_SIZE_IN_BYTES?$AA@" = comdat any

$"??_C@_0P@LOBBBKDE@__NUM_TREADS_X?$AA@" = comdat any

$"??_C@_0P@KHAKCLHF@__NUM_TREADS_Y?$AA@" = comdat any

$"??_C@_0P@IMCHHILG@__NUM_TREADS_Z?$AA@" = comdat any

$"??_C@_06IJHADHCA@cs_5_1?$AA@" = comdat any

$"??_C@_0BF@NPMABELF@?$FLend?9of?9shader?9dump?$FN?$AA@" = comdat any

$"??_C@_0DB@POFDFLDH@D3D12Compute?3?5Could?5not?5allocate@" = comdat any

$"??_C@_0BM@GELOKDC@?$DMno?5error?5message?5reported?$DO?$AA@" = comdat any

$"??_C@_0P@NJDLPAMC@D3DCompile?$CI?$CJ?3?5?$AA@" = comdat any

$"??_C@_0CB@LJCJJOMA@?$DO?$DO?$DO?5HLSL?5shader?5source?5dump?5?$DM?$DM?$DM?6@" = comdat any

$_GUID_765a30f3_f624_4c6f_a828_ace948622445 = comdat any

$"??_C@_0DA@KOEOGIGO@Unable?5to?5create?5the?5Direct3D?512@" = comdat any

$"??_C@_0IE@OEGJPCDB@?1media?1maaz?1Data?1Repos?1rake?1Hali@" = comdat any

$"??_C@_0GD@KIHFBKKG@?1media?1maaz?1Data?1Repos?1rake?1Hali@" = comdat any

$"??_C@_0HH@BADGLHLC@?1media?1maaz?1Data?1Repos?1rake?1Hali@" = comdat any

$"??_C@_0GM@GIODNIAA@?1media?1maaz?1Data?1Repos?1rake?1Hali@" = comdat any

$"??_C@_0GO@DFIAIKAP@?1media?1maaz?1Data?1Repos?1rake?1Hali@" = comdat any

$"??_C@_0GO@OECFGMGJ@?1media?1maaz?1Data?1Repos?1rake?1Hali@" = comdat any

@IID_ID3D12Object = weak_odr dso_local local_unnamed_addr constant %struct._GUID { i32 -989937009, i16 31078, i16 20117, [8 x i8] c"\9F\94\F41\CBV\C3\B8" }, comdat, align 8
@IID_ID3D12DeviceChild = weak_odr dso_local local_unnamed_addr constant %struct._GUID { i32 -1872905909, i16 -24564, i16 16704, [8 x i8] c"\9D\F5+d\CA\9E\A3W" }, comdat, align 8
@IID_ID3D12RootSignature = weak_odr dso_local local_unnamed_addr constant %struct._GUID { i32 -984978586, i16 29407, i16 20200, [8 x i8] c"\8B\E5\A9F\A1B\92\14" }, comdat, align 8
@IID_ID3D12RootSignatureDeserializer = weak_odr dso_local local_unnamed_addr constant %struct._GUID { i32 883647611, i16 15560, i16 18092, [8 x i8] c"\84\1B\C0\96VE\C0F" }, comdat, align 8
@IID_ID3D12VersionedRootSignatureDeserializer = weak_odr dso_local local_unnamed_addr constant %struct._GUID { i32 2140261991, i16 2316, i16 19383, [8 x i8] c"\B7\8E\ED\8F\F2\E3\1D\A0" }, comdat, align 8
@IID_ID3D12Pageable = weak_odr dso_local local_unnamed_addr constant %struct._GUID { i32 1676564731, i16 4712, i16 18485, [8 x i8] c"\86\DA\F0\08\CEb\F0\D6" }, comdat, align 8
@IID_ID3D12Heap = weak_odr dso_local local_unnamed_addr constant %struct._GUID { i32 1799038210, i16 28241, i16 17843, [8 x i8] c"\90\EE\98\84&^\8D\F3" }, comdat, align 8
@IID_ID3D12Resource = weak_odr dso_local local_unnamed_addr constant %struct._GUID { i32 1768178366, i16 -22738, i16 16473, [8 x i8] c"\BCy[\\\98\04\0F\AD" }, comdat, align 8
@IID_ID3D12CommandAllocator = weak_odr dso_local local_unnamed_addr constant %struct._GUID { i32 1627578084, i16 -20647, i16 19209, [8 x i8] c"\B9\99\B4Ms\F0\9B$" }, comdat, align 8
@IID_ID3D12Fence = weak_odr dso_local local_unnamed_addr constant %struct._GUID { i32 175455695, i16 -15144, i16 19345, [8 x i8] c"\AD\F6\BEZ`\D9Zv" }, comdat, align 8
@IID_ID3D12PipelineState = weak_odr dso_local local_unnamed_addr constant %struct._GUID { i32 1985622259, i16 -2524, i16 19567, [8 x i8] c"\A8(\AC\E9Hb$E" }, comdat, align 8
@IID_ID3D12DescriptorHeap = weak_odr dso_local local_unnamed_addr constant %struct._GUID { i32 -1896134883, i16 24940, i16 20297, [8 x i8] c"\90\F7\12{\B7c\FAQ" }, comdat, align 8
@IID_ID3D12QueryHeap = weak_odr dso_local local_unnamed_addr constant %struct._GUID { i32 227956910, i16 -4795, i16 18078, [8 x i8] c"\A6\1D\97\0E\C5\83\CA\B4" }, comdat, align 8
@IID_ID3D12CommandSignature = weak_odr dso_local local_unnamed_addr constant %struct._GUID { i32 -1016432260, i16 -4992, i16 20234, [8 x i8] c"\89\85\A7\B2GP\82\D1" }, comdat, align 8
@IID_ID3D12CommandList = weak_odr dso_local local_unnamed_addr constant %struct._GUID { i32 1897322780, i16 -6172, i16 18382, [8 x i8] c"\B8\C6\EC\81h\F47\E5" }, comdat, align 8
@IID_ID3D12GraphicsCommandList = weak_odr dso_local local_unnamed_addr constant %struct._GUID { i32 1528171791, i16 -21477, i16 16773, [8 x i8] c"\8B\A8\B3\AEB\A5\A4U" }, comdat, align 8
@IID_ID3D12GraphicsCommandList1 = weak_odr dso_local local_unnamed_addr constant %struct._GUID { i32 1429275643, i16 8167, i16 17751, [8 x i8] c"\BB8\94m}\0E|\A7" }, comdat, align 8
@IID_ID3D12CommandQueue = weak_odr dso_local local_unnamed_addr constant %struct._GUID { i32 248017062, i16 23934, i16 19490, [8 x i8] c"\8C\FC[\AA\E0v\16\ED" }, comdat, align 8
@IID_ID3D12Device = weak_odr dso_local local_unnamed_addr constant %struct._GUID { i32 412621297, i16 7606, i16 19287, [8 x i8] c"\BET\18!3\9B\85\F7" }, comdat, align 8
@IID_ID3D12PipelineLibrary = weak_odr dso_local local_unnamed_addr constant %struct._GUID { i32 -968743256, i16 -28159, i16 18095, [8 x i8] c"\B4\CCS\FB\9F\F7AO" }, comdat, align 8
@IID_ID3D12PipelineLibrary1 = weak_odr dso_local local_unnamed_addr constant %struct._GUID { i32 -2132099262, i16 9576, i16 20062, [8 x i8] c"\BD\82\C3\7F\86\96\1D\C3" }, comdat, align 8
@IID_ID3D12Device1 = weak_odr dso_local local_unnamed_addr constant %struct._GUID { i32 2007813760, i16 25486, i16 20069, [8 x i8] c"\88\95\C1\F23\86\86>" }, comdat, align 8
@IID_ID3D12Device2 = weak_odr dso_local local_unnamed_addr constant %struct._GUID { i32 817538078, i16 -20133, i16 18268, [8 x i8] c"\A0\BB\1A\F5\C5\B6C(" }, comdat, align 8
@IID_ID3D12Tools = weak_odr dso_local local_unnamed_addr constant %struct._GUID { i32 1886511600, i16 -6069, i16 19251, [8 x i8] c"\97O\12\FAI\DEe\C5" }, comdat, align 8
@IID_ID3D12Debug = weak_odr dso_local local_unnamed_addr constant %struct._GUID { i32 876906679, i16 26694, i16 18251, [8 x i8] c"\B9\89\F0'D\82E\E0" }, comdat, align 8
@IID_IDXGIObject = weak_odr dso_local local_unnamed_addr constant %struct._GUID { i32 -1363005512, i16 30451, i16 17977, [8 x i8] c"\9B\E0(\EBC\A6z." }, comdat, align 8
@IID_IDXGIDeviceSubObject = weak_odr dso_local local_unnamed_addr constant %struct._GUID { i32 1027474297, i16 -1570, i16 19800, [8 x i8] c"\BBl\18\D6)\92\F1\A6" }, comdat, align 8
@IID_IDXGIResource = weak_odr dso_local local_unnamed_addr constant %struct._GUID { i32 56572596, i16 18478, i16 20048, [8 x i8] c"\B4\1F\8A\7F\8B\D8\96\0B" }, comdat, align 8
@IID_IDXGIKeyedMutex = weak_odr dso_local local_unnamed_addr constant %struct._GUID { i32 -1651633527, i16 -10317, i16 18015, [8 x i8] c"\81&%\0E4\9A\F8]" }, comdat, align 8
@IID_IDXGISurface = weak_odr dso_local local_unnamed_addr constant %struct._GUID { i32 -889408148, i16 27331, i16 18569, [8 x i8] c"\BFG\9E#\BB\D2`\EC" }, comdat, align 8
@IID_IDXGISurface1 = weak_odr dso_local local_unnamed_addr constant %struct._GUID { i32 1256599698, i16 25383, i16 19483, [8 x i8] c"\80\AE\BF\E1.\A3+\86" }, comdat, align 8
@IID_IDXGIAdapter = weak_odr dso_local local_unnamed_addr constant %struct._GUID { i32 605153249, i16 4780, i16 19663, [8 x i8] c"\BD\14\97\98\E8SM\C0" }, comdat, align 8
@IID_IDXGIOutput = weak_odr dso_local local_unnamed_addr constant %struct._GUID { i32 -1375539493, i16 -14539, i16 18064, [8 x i8] c"\8DRZ\8D\C2\02\13\AA" }, comdat, align 8
@IID_IDXGISwapChain = weak_odr dso_local local_unnamed_addr constant %struct._GUID { i32 822949536, i16 -11545, i16 19466, [8 x i8] c"\AA\04j\9D#\B8\88j" }, comdat, align 8
@IID_IDXGIFactory = weak_odr dso_local local_unnamed_addr constant %struct._GUID { i32 2071029484, i16 8647, i16 17582, [8 x i8] c"\B2\1A\C9\AE2\1A\E3i" }, comdat, align 8
@IID_IDXGIDevice = weak_odr dso_local local_unnamed_addr constant %struct._GUID { i32 1424783354, i16 4983, i16 17638, [8 x i8] c"\8C2\88\FD_D\C8L" }, comdat, align 8
@IID_IDXGIFactory1 = weak_odr dso_local local_unnamed_addr constant %struct._GUID { i32 1997188728, i16 -3473, i16 19898, [8 x i8] c"\A8)%<\83\D1\B3\87" }, comdat, align 8
@IID_IDXGIAdapter1 = weak_odr dso_local local_unnamed_addr constant %struct._GUID { i32 688099169, i16 14393, i16 17958, [8 x i8] c"\91\FD\08hy\01\1A\05" }, comdat, align 8
@IID_IDXGIDevice1 = weak_odr dso_local local_unnamed_addr constant %struct._GUID { i32 2010879759, i16 25206, i16 18618, [8 x i8] c"\BA(\07\01C\B49," }, comdat, align 8
@"??_C@_0CB@OJMCFILH@Unable?5to?5load?5runtime?5library?3?5@" = linkonce_odr dso_local unnamed_addr constant [33 x i8] c"Unable to load runtime library: \00", comdat, align 8
@"??_C@_01EEMJAFIK@?6?$AA@" = linkonce_odr dso_local unnamed_addr constant [2 x i8] c"\0A\00", comdat, align 4
@"??_C@_0CE@MGMMPJGA@vvvvv?5D3D12?5Begin?5Debug?5Dump?5vvv@" = linkonce_odr dso_local unnamed_addr constant [36 x i8] c"vvvvv D3D12 Begin Debug Dump vvvvv\0A\00", comdat, align 8
@"??_C@_0CE@PCPJBLP@?$FO?$FO?$FO?$FO?$FO?5D3D12?5?5End?5?5Debug?5Dump?5?$FO?$FO?$FO@" = linkonce_odr dso_local unnamed_addr constant [36 x i8] c"^^^^^ D3D12  End  Debug Dump ^^^^^\0A\00", comdat, align 8
@"??_C@_0BA@FGKOLOB@D3D12?5HALT?5?$CB?$CB?$CB?6?$AA@" = linkonce_odr dso_local unnamed_addr constant [16 x i8] c"D3D12 HALT !!!\0A\00", comdat, align 8
@"??_C@_0BD@FEGNPKLO@Symbol?5not?5found?3?5?$AA@" = linkonce_odr dso_local unnamed_addr constant [19 x i8] c"Symbol not found: \00", comdat, align 8
@"?dxgiAdapter@D3D12Compute@Internal@Runtime@Halide@@3PEAUIDXGIAdapter1@@EA" = weak dso_local local_unnamed_addr global %struct.IDXGIAdapter1* null, align 8
@"?device@D3D12Compute@Internal@Runtime@Halide@@3PEAUhalide_d3d12compute_device@@EA" = weak dso_local local_unnamed_addr global %struct.halide_d3d12compute_device* null, align 8
@"?queue@D3D12Compute@Internal@Runtime@Halide@@3PEAUhalide_d3d12compute_command_queue@@EA" = weak dso_local local_unnamed_addr global %struct.halide_d3d12compute_command_queue* null, align 8
@"?queue_fence@D3D12Compute@Internal@Runtime@Halide@@3PEAUID3D12Fence@@EA" = weak dso_local local_unnamed_addr global %struct.ID3D12Fence* null, align 8
@"?queue_last_signal@D3D12Compute@Internal@Runtime@Halide@@3_KC" = weak dso_local global i64 0, align 8
@"?rootSignature@D3D12Compute@Internal@Runtime@Halide@@3PEAUID3D12RootSignature@@EA" = weak dso_local local_unnamed_addr global %struct.ID3D12RootSignature* null, align 8
@"?upload@D3D12Compute@Internal@Runtime@Halide@@3Ud3d12_buffer@1234@A" = weak dso_local global %"struct.Halide::Runtime::Internal::D3D12Compute::d3d12_buffer" zeroinitializer, align 16
@"?readback@D3D12Compute@Internal@Runtime@Halide@@3Ud3d12_buffer@1234@A" = weak dso_local global %"struct.Halide::Runtime::Internal::D3D12Compute::d3d12_buffer" zeroinitializer, align 16
@"?hFenceEvent@D3D12Compute@Internal@Runtime@Halide@@3PEAXEA" = weak dso_local local_unnamed_addr global i8* null, align 8
@"?cmd_allocator_main@D3D12Compute@Internal@Runtime@Halide@@3PEAUd3d12_command_allocator@1234@EA" = weak dso_local local_unnamed_addr global %"struct.Halide::Runtime::Internal::D3D12Compute::d3d12_command_allocator"* null, align 8
@"?frame_pool@D3D12Compute@Internal@Runtime@Halide@@3PAUd3d12_frame@1234@A" = weak dso_local global [8 x %"struct.Halide::Runtime::Internal::D3D12Compute::d3d12_frame"] zeroinitializer, align 16
@"??_C@_0HK@DOPNIAMO@?1media?1maaz?1Data?1Repos?1rake?1Hali@" = linkonce_odr dso_local unnamed_addr constant [122 x i8] c"/media/maaz/Data/Repos/rake/Halide-master-d48fbde/src/runtime/d3d12compute.cpp:905 Assert failed: (hbuffer->device == 0)\0A\00", comdat, align 16
@"??_C@_0IC@DAJENPLN@?1media?1maaz?1Data?1Repos?1rake?1Hali@" = linkonce_odr dso_local unnamed_addr constant [130 x i8] c"/media/maaz/Data/Repos/rake/Halide-master-d48fbde/src/runtime/d3d12compute.cpp:910 Assert failed: (dbuffer->resource != nullptr)\0A\00", comdat, align 16
@"??_C@_0CC@BDDMCIOG@unsupported?5buffer?5element?5type?3@" = linkonce_odr dso_local unnamed_addr constant [34 x i8] c"unsupported buffer element type: \00", comdat, align 8
@"??_C@_0IK@FFGIGOBH@?1media?1maaz?1Data?1Repos?1rake?1Hali@" = linkonce_odr dso_local unnamed_addr constant [138 x i8] c"/media/maaz/Data/Repos/rake/Halide-master-d48fbde/src/runtime/d3d12compute.cpp:924 Assert failed: (hbuffer->device_interface == nullptr)\0A\00", comdat, align 16
@"?d3d12compute_device_interface@D3D12Compute@Internal@Runtime@Halide@@3Uhalide_device_interface_t@@A" = weak dso_local global %struct.halide_device_interface_t { i32 (i8*, %struct.halide_buffer_t*, %struct.halide_device_interface_t*)* @halide_device_malloc, i32 (i8*, %struct.halide_buffer_t*)* @halide_device_free, i32 (i8*, %struct.halide_buffer_t*)* @halide_device_sync, void (i8*, %struct.halide_device_interface_t*)* @halide_device_release, i32 (i8*, %struct.halide_buffer_t*)* @halide_copy_to_host, i32 (i8*, %struct.halide_buffer_t*, %struct.halide_device_interface_t*)* @halide_copy_to_device, i32 (i8*, %struct.halide_buffer_t*, %struct.halide_device_interface_t*)* @halide_device_and_host_malloc, i32 (i8*, %struct.halide_buffer_t*)* @halide_device_and_host_free, i32 (i8*, %struct.halide_buffer_t*, %struct.halide_device_interface_t*, %struct.halide_buffer_t*)* @halide_buffer_copy, i32 (i8*, %struct.halide_buffer_t*, %struct.halide_buffer_t*)* @halide_device_crop, i32 (i8*, %struct.halide_buffer_t*, i32, i32, %struct.halide_buffer_t*)* @halide_device_slice, i32 (i8*, %struct.halide_buffer_t*)* @halide_device_release_crop, i32 (i8*, %struct.halide_buffer_t*, i64, %struct.halide_device_interface_t*)* @halide_device_wrap_native, i32 (i8*, %struct.halide_buffer_t*)* @halide_device_detach_native, i32 (i8*, i32*, i32*)* null, %struct.halide_device_interface_impl_t* @"?d3d12compute_device_interface_impl@D3D12Compute@Internal@Runtime@Halide@@3Uhalide_device_interface_impl_t@@A" }, align 16
@D3D12SerializeRootSignature = internal unnamed_addr global i32 (%struct.D3D12_ROOT_SIGNATURE_DESC*, i32, %struct.ID3D10Blob**, %struct.ID3D10Blob**)* null, align 8
@"??_C@_0DD@JMFCFLOG@Unable?5to?5serialize?5the?5Direct3D@" = linkonce_odr dso_local unnamed_addr constant [51 x i8] c"Unable to serialize the Direct3D 12 root signature\00", comdat, align 8
@"??_C@_0GP@PMNGDIHN@?1media?1maaz?1Data?1Repos?1rake?1Hali@" = linkonce_odr dso_local unnamed_addr constant [111 x i8] c"/media/maaz/Data/Repos/rake/Halide-master-d48fbde/src/runtime/d3d12compute.cpp:1252 Assert failed: pSignError\0A\00", comdat, align 16
@_GUID_c54a6b66_72df_4ee8_8be5_a946a1429214 = linkonce_odr dso_local constant %struct._GUID { i32 -984978586, i16 29407, i16 20200, [8 x i8] c"\8B\E5\A9F\A1B\92\14" }, comdat
@"??_C@_0DA@LBIGKBEG@Unable?5to?5create?5the?5Direct3D?512@" = linkonce_odr dso_local unnamed_addr constant [48 x i8] c"Unable to create the Direct3D 12 root signature\00", comdat, align 8
@"??_C@_0GK@DILKJBBI@?1media?1maaz?1Data?1Repos?1rake?1Hali@" = linkonce_odr dso_local unnamed_addr constant [106 x i8] c"/media/maaz/Data/Repos/rake/Halide-master-d48fbde/src/runtime/d3d12compute.cpp:1334 Assert failed: false\0A\00", comdat, align 16
@_GUID_696442be_a72e_4059_bc79_5b5c98040fad = linkonce_odr dso_local constant %struct._GUID { i32 1768178366, i16 -22738, i16 16473, [8 x i8] c"\BCy[\\\98\04\0F\AD" }, comdat
@"??_C@_0CI@NPEAIHAH@Unable?5to?5create?5the?5Direct3D?512@" = linkonce_odr dso_local unnamed_addr constant [40 x i8] c"Unable to create the Direct3D 12 buffer\00", comdat, align 8
@"??_C@_0GK@NMMJINNK@?1media?1maaz?1Data?1Repos?1rake?1Hali@" = linkonce_odr dso_local unnamed_addr constant [106 x i8] c"/media/maaz/Data/Repos/rake/Halide-master-d48fbde/src/runtime/d3d12compute.cpp:1397 Assert failed: false\0A\00", comdat, align 16
@"??_C@_0DA@HBIDIHJB@Unable?5to?5map?5Direct3D?512?5stagin@" = linkonce_odr dso_local unnamed_addr constant [48 x i8] c"Unable to map Direct3D 12 staging buffer memory\00", comdat, align 8
@"??_C@_0GK@HACGJCLB@?1media?1maaz?1Data?1Repos?1rake?1Hali@" = linkonce_odr dso_local unnamed_addr constant [106 x i8] c"/media/maaz/Data/Repos/rake/Halide-master-d48fbde/src/runtime/d3d12compute.cpp:1413 Assert failed: pData\0A\00", comdat, align 16
@"??_C@_0GK@MGAKONOO@?1media?1maaz?1Data?1Repos?1rake?1Hali@" = linkonce_odr dso_local unnamed_addr constant [106 x i8] c"/media/maaz/Data/Repos/rake/Halide-master-d48fbde/src/runtime/d3d12compute.cpp:1441 Assert failed: false\0A\00", comdat, align 16
@"??_C@_0HF@GEOCDJFN@?1media?1maaz?1Data?1Repos?1rake?1Hali@" = linkonce_odr dso_local unnamed_addr constant [117 x i8] c"/media/maaz/Data/Repos/rake/Halide-master-d48fbde/src/runtime/d3d12compute.cpp:1501 Assert failed: (use_count == 1)\0A\00", comdat, align 16
@"??_C@_0HF@NJIFOIPF@?1media?1maaz?1Data?1Repos?1rake?1Hali@" = linkonce_odr dso_local unnamed_addr constant [117 x i8] c"/media/maaz/Data/Repos/rake/Halide-master-d48fbde/src/runtime/d3d12compute.cpp:1508 Assert failed: (use_count == 0)\0A\00", comdat, align 16
@"??_C@_0HJ@DKCFLDBN@?1media?1maaz?1Data?1Repos?1rake?1Hali@" = linkonce_odr dso_local unnamed_addr constant [121 x i8] c"/media/maaz/Data/Repos/rake/Halide-master-d48fbde/src/runtime/d3d12compute.cpp:1513 Assert failed: (staging == &upload)\0A\00", comdat, align 16
@"??_C@_0HL@MCKOJAGC@?1media?1maaz?1Data?1Repos?1rake?1Hali@" = linkonce_odr dso_local unnamed_addr constant [123 x i8] c"/media/maaz/Data/Repos/rake/Halide-master-d48fbde/src/runtime/d3d12compute.cpp:1517 Assert failed: (staging == &readback)\0A\00", comdat, align 16
@"??_C@_0GK@BCNCIOPH@?1media?1maaz?1Data?1Repos?1rake?1Hali@" = linkonce_odr dso_local unnamed_addr constant [106 x i8] c"/media/maaz/Data/Repos/rake/Halide-master-d48fbde/src/runtime/d3d12compute.cpp:1522 Assert failed: false\0A\00", comdat, align 16
@"??_C@_0II@CBKJDPFH@?1media?1maaz?1Data?1Repos?1rake?1Hali@" = linkonce_odr dso_local unnamed_addr constant [136 x i8] c"/media/maaz/Data/Repos/rake/Halide-master-d48fbde/src/runtime/d3d12compute.cpp:1527 Assert failed: (staging->sizeInBytes >= num_bytes)\0A\00", comdat, align 16
@"??_C@_0HF@CECKD@?1media?1maaz?1Data?1Repos?1rake?1Hali@" = linkonce_odr dso_local unnamed_addr constant [117 x i8] c"/media/maaz/Data/Repos/rake/Halide-master-d48fbde/src/runtime/d3d12compute.cpp:1531 Assert failed: (use_count == 1)\0A\00", comdat, align 16
@"??_C@_0DN@OAKEFMAC@Unable?5to?5query?5the?5timestamp?5fr@" = linkonce_odr dso_local unnamed_addr constant [61 x i8] c"Unable to query the timestamp frequency of the command queue\00", comdat, align 8
@_GUID_0d9658ae_ed45_469e_a61d_970ec583cab4 = linkonce_odr dso_local constant %struct._GUID { i32 227956910, i16 -4795, i16 18078, [8 x i8] c"\A6\1D\97\0E\C5\83\CA\B4" }, comdat
@"??_C@_0CG@NBKDFBHJ@Unable?5to?5create?5timestamp?5query@" = linkonce_odr dso_local unnamed_addr constant [38 x i8] c"Unable to create timestamp query heap\00", comdat, align 8
@_GUID_0ec870a6_5d7e_4c22_8cfc_5baae07616ed = linkonce_odr dso_local constant %struct._GUID { i32 248017062, i16 23934, i16 19490, [8 x i8] c"\8C\FC[\AA\E0v\16\ED" }, comdat
@"??_C@_0CP@MODFOMNJ@Unable?5to?5create?5the?5Direct3D?512@" = linkonce_odr dso_local unnamed_addr constant [47 x i8] c"Unable to create the Direct3D 12 command queue\00", comdat, align 8
@_GUID_0a753dcf_c4d8_4b91_adf6_be5a60d95a76 = linkonce_odr dso_local constant %struct._GUID { i32 175455695, i16 -15144, i16 19345, [8 x i8] c"\AD\F6\BEZ`\D9Zv" }, comdat
@"??_C@_0DJ@DBKGGAGH@Unable?5to?5create?5the?5Direct3D?512@" = linkonce_odr dso_local unnamed_addr constant [57 x i8] c"Unable to create the Direct3D 12 fence for command queue\00", comdat, align 8
@"??_C@_0JA@ODKGALFD@?1media?1maaz?1Data?1Repos?1rake?1Hali@" = linkonce_odr dso_local unnamed_addr constant [144 x i8] c"/media/maaz/Data/Repos/rake/Halide-master-d48fbde/src/runtime/d3d12compute.cpp:1974 Assert failed: input_buffer->format == DXGI_FORMAT_UNKNOWN\0A\00", comdat, align 16
@"??_C@_0IJ@OPLHAIKP@?1media?1maaz?1Data?1Repos?1rake?1Hali@" = linkonce_odr dso_local unnamed_addr constant [137 x i8] c"/media/maaz/Data/Repos/rake/Halide-master-d48fbde/src/runtime/d3d12compute.cpp:1985 Assert failed: (index < ResourceBindingLimits[CBV])\0A\00", comdat, align 16
@"??_C@_0IJ@HNGKJPKA@?1media?1maaz?1Data?1Repos?1rake?1Hali@" = linkonce_odr dso_local unnamed_addr constant [137 x i8] c"/media/maaz/Data/Repos/rake/Halide-master-d48fbde/src/runtime/d3d12compute.cpp:2041 Assert failed: (index < ResourceBindingLimits[UAV])\0A\00", comdat, align 16
@"??_C@_0GK@KJKJJPGE@?1media?1maaz?1Data?1Repos?1rake?1Hali@" = linkonce_odr dso_local unnamed_addr constant [106 x i8] c"/media/maaz/Data/Repos/rake/Halide-master-d48fbde/src/runtime/d3d12compute.cpp:2058 Assert failed: false\0A\00", comdat, align 16
@"?thread_lock@D3D12Compute@Internal@Runtime@Halide@@3DC" = weak dso_local global i8 0, align 1
@"?compilation_cache@D3D12Compute@Internal@Runtime@Halide@@3V?$GPUCompilationCache@PEAUhalide_d3d12compute_device@@PEAUd3d12_library@D3D12Compute@Internal@Runtime@Halide@@@24@A" = weak dso_local global %"class.Halide::Internal::GPUCompilationCache" zeroinitializer, align 8
@"??_C@_0IO@KLEIPOMC@?1media?1maaz?1Data?1Repos?1rake?1Hali@" = linkonce_odr dso_local unnamed_addr constant [142 x i8] c"/media/maaz/Data/Repos/rake/Halide-master-d48fbde/src/runtime/d3d12compute.cpp:2569 Assert failed: (device == nullptr) || (queue != nullptr)\0A\00", comdat, align 16
@"?enable_allocation_cache@@3_NA" = weak dso_local local_unnamed_addr global i8 0, align 1
@"?buffer_pool@@3PAPEAUd3d12_buffer@D3D12Compute@Internal@Runtime@Halide@@A" = weak dso_local local_unnamed_addr global [32 x %"struct.Halide::Runtime::Internal::D3D12Compute::d3d12_buffer"*] zeroinitializer, align 16
@"?buffer_pool_lock@@3Uhalide_mutex@@A" = weak dso_local global %struct.halide_mutex zeroinitializer, align 8
@"??_C@_0GN@EDMIPHNF@?1media?1maaz?1Data?1Repos?1rake?1Hali@" = linkonce_odr dso_local unnamed_addr constant [109 x i8] c"/media/maaz/Data/Repos/rake/Halide-master-d48fbde/src/runtime/d3d12compute.cpp:2696 Assert failed: size > 0\0A\00", comdat, align 16
@"??_C@_0HM@KLNKIJPM@?1media?1maaz?1Data?1Repos?1rake?1Hali@" = linkonce_odr dso_local unnamed_addr constant [124 x i8] c"/media/maaz/Data/Repos/rake/Halide-master-d48fbde/src/runtime/d3d12compute.cpp:2700 Assert failed: buf->dim[i].stride >= 0\0A\00", comdat, align 16
@"??_C@_0CK@IEEBLAKI@D3D12?3?5Failed?5to?5allocate?5buffer@" = linkonce_odr dso_local unnamed_addr constant [42 x i8] c"D3D12: Failed to allocate buffer of size \00", comdat, align 8
@"??_C@_0DG@DFIKFHFI@D3D12?3?5unable?5to?5wrap?5halide?5buf@" = linkonce_odr dso_local unnamed_addr constant [54 x i8] c"D3D12: unable to wrap halide buffer and D3D12 buffer.\00", comdat, align 8
@"??_C@_0IN@BMJECIBC@?1media?1maaz?1Data?1Repos?1rake?1Hali@" = linkonce_odr dso_local unnamed_addr constant [141 x i8] c"/media/maaz/Data/Repos/rake/Halide-master-d48fbde/src/runtime/d3d12compute.cpp:2877 Assert failed: (dsrc->halide_type == ddst->halide_type)\0A\00", comdat, align 16
@"??_C@_0GL@HHOHMCJC@?1media?1maaz?1Data?1Repos?1rake?1Hali@" = linkonce_odr dso_local unnamed_addr constant [107 x i8] c"/media/maaz/Data/Repos/rake/Halide-master-d48fbde/src/runtime/d3d12compute.cpp:2907 Assert failed: buffer\0A\00", comdat, align 16
@"??_C@_0ID@GPCJFJNF@?1media?1maaz?1Data?1Repos?1rake?1Hali@" = linkonce_odr dso_local unnamed_addr constant [131 x i8] c"/media/maaz/Data/Repos/rake/Halide-master-d48fbde/src/runtime/d3d12compute.cpp:2908 Assert failed: buffer->host && buffer->device\0A\00", comdat, align 16
@"??_C@_0HO@OJIECJKO@?1media?1maaz?1Data?1Repos?1rake?1Hali@" = linkonce_odr dso_local unnamed_addr constant [126 x i8] c"/media/maaz/Data/Repos/rake/Halide-master-d48fbde/src/runtime/d3d12compute.cpp:2917 Assert failed: (c.dst == buffer->device)\0A\00", comdat, align 16
@"??_C@_0JH@JGIADBHE@?1media?1maaz?1Data?1Repos?1rake?1Hali@" = linkonce_odr dso_local unnamed_addr constant [151 x i8] c"/media/maaz/Data/Repos/rake/Halide-master-d48fbde/src/runtime/d3d12compute.cpp:2919 Assert failed: buffer->size_in_bytes() == dev_buffer->sizeInBytes\0A\00", comdat, align 16
@"??_C@_0GL@HEDOAOHD@?1media?1maaz?1Data?1Repos?1rake?1Hali@" = linkonce_odr dso_local unnamed_addr constant [107 x i8] c"/media/maaz/Data/Repos/rake/Halide-master-d48fbde/src/runtime/d3d12compute.cpp:2950 Assert failed: buffer\0A\00", comdat, align 16
@"??_C@_0ID@LIPAGPCO@?1media?1maaz?1Data?1Repos?1rake?1Hali@" = linkonce_odr dso_local unnamed_addr constant [131 x i8] c"/media/maaz/Data/Repos/rake/Halide-master-d48fbde/src/runtime/d3d12compute.cpp:2951 Assert failed: buffer->host && buffer->device\0A\00", comdat, align 16
@"??_C@_0GK@JBIOIBNJ@?1media?1maaz?1Data?1Repos?1rake?1Hali@" = linkonce_odr dso_local unnamed_addr constant [106 x i8] c"/media/maaz/Data/Repos/rake/Halide-master-d48fbde/src/runtime/d3d12compute.cpp:2953 Assert failed: false\0A\00", comdat, align 16
@"??_C@_0JH@DPKKJPPD@?1media?1maaz?1Data?1Repos?1rake?1Hali@" = linkonce_odr dso_local unnamed_addr constant [151 x i8] c"/media/maaz/Data/Repos/rake/Halide-master-d48fbde/src/runtime/d3d12compute.cpp:2965 Assert failed: buffer->size_in_bytes() == dev_buffer->sizeInBytes\0A\00", comdat, align 16
@"??_C@_0IA@GKICIJMP@?1media?1maaz?1Data?1Repos?1rake?1Hali@" = linkonce_odr dso_local unnamed_addr constant [128 x i8] c"/media/maaz/Data/Repos/rake/Halide-master-d48fbde/src/runtime/d3d12compute.cpp:3010 Assert failed: found && library != nullptr\0A\00", comdat, align 16
@"??_C@_0GN@JEILPOMA@?1media?1maaz?1Data?1Repos?1rake?1Hali@" = linkonce_odr dso_local unnamed_addr constant [109 x i8] c"/media/maaz/Data/Repos/rake/Halide-master-d48fbde/src/runtime/d3d12compute.cpp:3024 Assert failed: function\0A\00", comdat, align 16
@"??_C@_0IN@NBDDCMMP@?1media?1maaz?1Data?1Repos?1rake?1Hali@" = linkonce_odr dso_local unnamed_addr constant [141 x i8] c"/media/maaz/Data/Repos/rake/Halide-master-d48fbde/src/runtime/d3d12compute.cpp:3061 Assert failed: (arg_sizes[i] & (arg_sizes[i] - 1)) == 0\0A\00", comdat, align 16
@"??_C@_0HI@GJGOKOND@?1media?1maaz?1Data?1Repos?1rake?1Hali@" = linkonce_odr dso_local unnamed_addr constant [120 x i8] c"/media/maaz/Data/Repos/rake/Halide-master-d48fbde/src/runtime/d3d12compute.cpp:3065 Assert failed: arg_type.lanes == 1\0A\00", comdat, align 16
@"??_C@_0HF@DFDPDGHJ@?1media?1maaz?1Data?1Repos?1rake?1Hali@" = linkonce_odr dso_local unnamed_addr constant [117 x i8] c"/media/maaz/Data/Repos/rake/Halide-master-d48fbde/src/runtime/d3d12compute.cpp:3066 Assert failed: arg_sizes[i] > 0\0A\00", comdat, align 16
@"??_C@_0HG@ONCHKHIM@?1media?1maaz?1Data?1Repos?1rake?1Hali@" = linkonce_odr dso_local unnamed_addr constant [118 x i8] c"/media/maaz/Data/Repos/rake/Halide-master-d48fbde/src/runtime/d3d12compute.cpp:3067 Assert failed: arg_sizes[i] <= 4\0A\00", comdat, align 16
@"??_C@_0DD@BBIFNIEA@D3D12Compute?3?5Could?5not?5allocate@" = linkonce_odr dso_local unnamed_addr constant [51 x i8] c"D3D12Compute: Could not allocate arguments buffer.\00", comdat, align 8
@"??_C@_0HK@OFACIBGA@?1media?1maaz?1Data?1Repos?1rake?1Hali@" = linkonce_odr dso_local unnamed_addr constant [122 x i8] c"/media/maaz/Data/Repos/rake/Halide-master-d48fbde/src/runtime/d3d12compute.cpp:3100 Assert failed: (arg_type.bits == 32)\0A\00", comdat, align 16
@"??_C@_0GK@LJLFAGKH@?1media?1maaz?1Data?1Repos?1rake?1Hali@" = linkonce_odr dso_local unnamed_addr constant [106 x i8] c"/media/maaz/Data/Repos/rake/Halide-master-d48fbde/src/runtime/d3d12compute.cpp:3116 Assert failed: false\0A\00", comdat, align 16
@"??_C@_0GK@BIMLBHIN@?1media?1maaz?1Data?1Repos?1rake?1Hali@" = linkonce_odr dso_local unnamed_addr constant [106 x i8] c"/media/maaz/Data/Repos/rake/Halide-master-d48fbde/src/runtime/d3d12compute.cpp:3131 Assert failed: false\0A\00", comdat, align 16
@"??_C@_0GK@HBMNIJNC@?1media?1maaz?1Data?1Repos?1rake?1Hali@" = linkonce_odr dso_local unnamed_addr constant [106 x i8] c"/media/maaz/Data/Repos/rake/Halide-master-d48fbde/src/runtime/d3d12compute.cpp:3135 Assert failed: false\0A\00", comdat, align 16
@"??_C@_0IG@MKOCFILD@?1media?1maaz?1Data?1Repos?1rake?1Hali@" = linkonce_odr dso_local unnamed_addr constant [134 x i8] c"/media/maaz/Data/Repos/rake/Halide-master-d48fbde/src/runtime/d3d12compute.cpp:3141 Assert failed: offset == total_uniform_args_size\0A\00", comdat, align 16
@"??_C@_0IJ@MNBDOJEE@?1media?1maaz?1Data?1Repos?1rake?1Hali@" = linkonce_odr dso_local unnamed_addr constant [137 x i8] c"/media/maaz/Data/Repos/rake/Halide-master-d48fbde/src/runtime/d3d12compute.cpp:3252 Assert failed: (src->dimensions == dst->dimensions)\0A\00", comdat, align 16
@"??_C@_0DF@LCGCOEGO@Buffer?5has?5too?5many?5dimensions?5t@" = linkonce_odr dso_local unnamed_addr constant [53 x i8] c"Buffer has too many dimensions to copy to/from GPU.\0A\00", comdat, align 8
@"??_C@_0MC@HDEPANAE@?1media?1maaz?1Data?1Repos?1rake?1Hali@" = linkonce_odr dso_local unnamed_addr constant [194 x i8] c"/media/maaz/Data/Repos/rake/Halide-master-d48fbde/src/runtime/d3d12compute.cpp:3261 Assert failed: (dst_device_interface == nullptr) || (dst_device_interface == &d3d12compute_device_interface)\0A\00", comdat, align 16
@"??_C@_0JL@MEIFODEH@?1media?1maaz?1Data?1Repos?1rake?1Hali@" = linkonce_odr dso_local unnamed_addr constant [155 x i8] c"/media/maaz/Data/Repos/rake/Halide-master-d48fbde/src/runtime/d3d12compute.cpp:3265 Assert failed: dst_device_interface == &d3d12compute_device_interface\0A\00", comdat, align 16
@"??_C@_0HL@BCFBGMIG@?1media?1maaz?1Data?1Repos?1rake?1Hali@" = linkonce_odr dso_local unnamed_addr constant [123 x i8] c"/media/maaz/Data/Repos/rake/Halide-master-d48fbde/src/runtime/d3d12compute.cpp:3276 Assert failed: to_host || dst->device\0A\00", comdat, align 16
@"??_C@_0GN@LGOPAMLC@?1media?1maaz?1Data?1Repos?1rake?1Hali@" = linkonce_odr dso_local unnamed_addr constant [109 x i8] c"/media/maaz/Data/Repos/rake/Halide-master-d48fbde/src/runtime/d3d12compute.cpp:3302 Assert failed: !to_host\0A\00", comdat, align 16
@"??_C@_0JO@MBMNFKIK@?1media?1maaz?1Data?1Repos?1rake?1Hali@" = linkonce_odr dso_local unnamed_addr constant [158 x i8] c"/media/maaz/Data/Repos/rake/Halide-master-d48fbde/src/runtime/d3d12compute.cpp:3303 Assert failed: (dst->device_interface == &d3d12compute_device_interface)\0A\00", comdat, align 16
@"??_C@_0JO@GHEAJMCJ@?1media?1maaz?1Data?1Repos?1rake?1Hali@" = linkonce_odr dso_local unnamed_addr constant [158 x i8] c"/media/maaz/Data/Repos/rake/Halide-master-d48fbde/src/runtime/d3d12compute.cpp:3304 Assert failed: (src->device_interface != &d3d12compute_device_interface)\0A\00", comdat, align 16
@"??_C@_0HL@MMJDCFEN@?1media?1maaz?1Data?1Repos?1rake?1Hali@" = linkonce_odr dso_local unnamed_addr constant [123 x i8] c"/media/maaz/Data/Repos/rake/Halide-master-d48fbde/src/runtime/d3d12compute.cpp:3305 Assert failed: (src->host != nullptr)\0A\00", comdat, align 16
@"??_C@_0HL@GJCHNPHA@?1media?1maaz?1Data?1Repos?1rake?1Hali@" = linkonce_odr dso_local unnamed_addr constant [123 x i8] c"/media/maaz/Data/Repos/rake/Halide-master-d48fbde/src/runtime/d3d12compute.cpp:3308 Assert failed: (dst->device == c.dst)\0A\00", comdat, align 16
@"??_C@_0HF@MLNMPA@?1media?1maaz?1Data?1Repos?1rake?1Hali@" = linkonce_odr dso_local unnamed_addr constant [117 x i8] c"/media/maaz/Data/Repos/rake/Halide-master-d48fbde/src/runtime/d3d12compute.cpp:3337 Assert failed: (use_count == 0)\0A\00", comdat, align 16
@"??_C@_0GM@LMKBMAKN@?1media?1maaz?1Data?1Repos?1rake?1Hali@" = linkonce_odr dso_local unnamed_addr constant [108 x i8] c"/media/maaz/Data/Repos/rake/Halide-master-d48fbde/src/runtime/d3d12compute.cpp:3342 Assert failed: to_host\0A\00", comdat, align 16
@"??_C@_0JO@GCIBHMBO@?1media?1maaz?1Data?1Repos?1rake?1Hali@" = linkonce_odr dso_local unnamed_addr constant [158 x i8] c"/media/maaz/Data/Repos/rake/Halide-master-d48fbde/src/runtime/d3d12compute.cpp:3343 Assert failed: (src->device_interface == &d3d12compute_device_interface)\0A\00", comdat, align 16
@"??_C@_0IH@LKALKAII@?1media?1maaz?1Data?1Repos?1rake?1Hali@" = linkonce_odr dso_local unnamed_addr constant [135 x i8] c"/media/maaz/Data/Repos/rake/Halide-master-d48fbde/src/runtime/d3d12compute.cpp:3344 Assert failed: (dst->device_interface == nullptr)\0A\00", comdat, align 16
@"??_C@_0HL@GHAGNCKA@?1media?1maaz?1Data?1Repos?1rake?1Hali@" = linkonce_odr dso_local unnamed_addr constant [123 x i8] c"/media/maaz/Data/Repos/rake/Halide-master-d48fbde/src/runtime/d3d12compute.cpp:3345 Assert failed: (dst->host != nullptr)\0A\00", comdat, align 16
@"??_C@_0HL@CMMPFMCI@?1media?1maaz?1Data?1Repos?1rake?1Hali@" = linkonce_odr dso_local unnamed_addr constant [123 x i8] c"/media/maaz/Data/Repos/rake/Halide-master-d48fbde/src/runtime/d3d12compute.cpp:3348 Assert failed: (src->device == c.src)\0A\00", comdat, align 16
@"??_C@_0HF@DIJLIEGH@?1media?1maaz?1Data?1Repos?1rake?1Hali@" = linkonce_odr dso_local unnamed_addr constant [117 x i8] c"/media/maaz/Data/Repos/rake/Halide-master-d48fbde/src/runtime/d3d12compute.cpp:3377 Assert failed: (use_count == 0)\0A\00", comdat, align 16
@"??_C@_0DO@DKCCILEE@halide_d3d12compute_device_crop?3@" = linkonce_odr dso_local unnamed_addr constant [62 x i8] c"halide_d3d12compute_device_crop: failed when wrapping buffer.\00", comdat, align 8
@"??_C@_0HM@PMHOEIAI@?1media?1maaz?1Data?1Repos?1rake?1Hali@" = linkonce_odr dso_local unnamed_addr constant [124 x i8] c"/media/maaz/Data/Repos/rake/Halide-master-d48fbde/src/runtime/d3d12compute.cpp:3405 Assert failed: (new_handle != nullptr)\0A\00", comdat, align 16
@"??_C@_0IL@ELHOHBDO@?1media?1maaz?1Data?1Repos?1rake?1Hali@" = linkonce_odr dso_local unnamed_addr constant [139 x i8] c"/media/maaz/Data/Repos/rake/Halide-master-d48fbde/src/runtime/d3d12compute.cpp:3406 Assert failed: (new_handle->halide_type == dst->type)\0A\00", comdat, align 16
@"??_C@_0JF@HBKAJKKG@?1media?1maaz?1Data?1Repos?1rake?1Hali@" = linkonce_odr dso_local unnamed_addr constant [149 x i8] c"/media/maaz/Data/Repos/rake/Halide-master-d48fbde/src/runtime/d3d12compute.cpp:3407 Assert failed: (src->device_interface == dst->device_interface)\0A\00", comdat, align 16
@"??_C@_0IG@JHIDPJCM@?1media?1maaz?1Data?1Repos?1rake?1Hali@" = linkonce_odr dso_local unnamed_addr constant [134 x i8] c"/media/maaz/Data/Repos/rake/Halide-master-d48fbde/src/runtime/d3d12compute.cpp:3438 Assert failed: (offset % src->type.bytes()) == 0\0A\00", comdat, align 16
@"??_C@_0IG@NLGIEOAM@?1media?1maaz?1Data?1Repos?1rake?1Hali@" = linkonce_odr dso_local unnamed_addr constant [134 x i8] c"/media/maaz/Data/Repos/rake/Halide-master-d48fbde/src/runtime/d3d12compute.cpp:3451 Assert failed: (offset % src->type.bytes()) == 0\0A\00", comdat, align 16
@"??_C@_0HL@PJKJFAAC@?1media?1maaz?1Data?1Repos?1rake?1Hali@" = linkonce_odr dso_local unnamed_addr constant [123 x i8] c"/media/maaz/Data/Repos/rake/Halide-master-d48fbde/src/runtime/d3d12compute.cpp:3493 Assert failed: (pResource != nullptr)\0A\00", comdat, align 16
@"??_C@_0EF@BJFFFHJC@halide_d3d12compute_wrap_buffer?3@" = linkonce_odr dso_local unnamed_addr constant [69 x i8] c"halide_d3d12compute_wrap_buffer: malloc failed making device handle.\00", comdat, align 16
@"?d3d12compute_device_interface_impl@D3D12Compute@Internal@Runtime@Halide@@3Uhalide_device_interface_impl_t@@A" = weak dso_local global %struct.halide_device_interface_impl_t { void ()* @halide_use_jit_module, void ()* @halide_release_jit_module, i32 (i8*, %struct.halide_buffer_t*)* @halide_d3d12compute_device_malloc, i32 (i8*, %struct.halide_buffer_t*)* @halide_d3d12compute_device_free, i32 (i8*, %struct.halide_buffer_t*)* @halide_d3d12compute_device_sync, i32 (i8*)* @halide_d3d12compute_device_release, i32 (i8*, %struct.halide_buffer_t*)* @halide_d3d12compute_copy_to_host, i32 (i8*, %struct.halide_buffer_t*)* @halide_d3d12compute_copy_to_device, i32 (i8*, %struct.halide_buffer_t*)* @halide_d3d12compute_device_and_host_malloc, i32 (i8*, %struct.halide_buffer_t*)* @halide_d3d12compute_device_and_host_free, i32 (i8*, %struct.halide_buffer_t*, %struct.halide_device_interface_t*, %struct.halide_buffer_t*)* @halide_d3d12compute_buffer_copy, i32 (i8*, %struct.halide_buffer_t*, %struct.halide_buffer_t*)* @halide_d3d12compute_device_crop, i32 (i8*, %struct.halide_buffer_t*, i32, i32, %struct.halide_buffer_t*)* @halide_d3d12compute_device_slice, i32 (i8*, %struct.halide_buffer_t*)* @halide_d3d12compute_device_release_crop, i32 (i8*, %struct.halide_buffer_t*, i64)* @halide_d3d12compute_wrap_buffer, i32 (i8*, %struct.halide_buffer_t*)* @halide_d3d12compute_detach_buffer }, align 16
@"??_C@_0HH@DCCLAMGD@?1media?1maaz?1Data?1Repos?1rake?1Hali@" = linkonce_odr dso_local unnamed_addr constant [119 x i8] c"/media/maaz/Data/Repos/rake/Halide-master-d48fbde/src/runtime/d3d12compute.cpp:664 Assert failed: (size_in_bytes > 0)\0A\00", comdat, align 16
@"??_C@_0HG@CAELBHFM@?1media?1maaz?1Data?1Repos?1rake?1Hali@" = linkonce_odr dso_local unnamed_addr constant [118 x i8] c"/media/maaz/Data/Repos/rake/Halide-master-d48fbde/src/runtime/d3d12compute.cpp:669 Assert failed: (element_size > 0)\0A\00", comdat, align 16
@"??_C@_0IH@ELBHFNGA@?1media?1maaz?1Data?1Repos?1rake?1Hali@" = linkonce_odr dso_local unnamed_addr constant [135 x i8] c"/media/maaz/Data/Repos/rake/Halide-master-d48fbde/src/runtime/d3d12compute.cpp:672 Assert failed: (size_in_bytes % element_size) == 0\0A\00", comdat, align 16
@"__const.?FindD3D12FormatForHalideType@@YA?AW4DXGI_FORMAT@@PEAXUhalide_type_t@@@Z.FORMATS" = private unnamed_addr constant [3 x [4 x [4 x i32]]] [[4 x [4 x i32]] [[4 x i32] [i32 64, i32 59, i32 43, i32 0], [4 x i32] [i32 52, i32 38, i32 18, i32 0], [4 x i32] [i32 0, i32 0, i32 8, i32 0], [4 x i32] [i32 32, i32 14, i32 4, i32 0]], [4 x [4 x i32]] [[4 x i32] [i32 62, i32 57, i32 42, i32 0], [4 x i32] [i32 50, i32 36, i32 17, i32 0], [4 x i32] [i32 0, i32 0, i32 7, i32 0], [4 x i32] [i32 30, i32 12, i32 3, i32 0]], [4 x [4 x i32]] [[4 x i32] [i32 0, i32 54, i32 41, i32 0], [4 x i32] [i32 0, i32 34, i32 16, i32 0], [4 x i32] [i32 0, i32 0, i32 6, i32 0], [4 x i32] [i32 0, i32 10, i32 2, i32 0]]], align 4
@"??_C@_0II@HPNAIILO@?1media?1maaz?1Data?1Repos?1rake?1Hali@" = linkonce_odr dso_local unnamed_addr constant [136 x i8] c"/media/maaz/Data/Repos/rake/Halide-master-d48fbde/src/runtime/d3d12compute.cpp:423 Assert failed: (type.code >= 0) && (type.code <= 2)\0A\00", comdat, align 16
@"??_C@_0IJ@IINKHGHG@?1media?1maaz?1Data?1Repos?1rake?1Hali@" = linkonce_odr dso_local unnamed_addr constant [137 x i8] c"/media/maaz/Data/Repos/rake/Halide-master-d48fbde/src/runtime/d3d12compute.cpp:424 Assert failed: (type.lanes > 0) && (type.lanes <= 4)\0A\00", comdat, align 16
@"??_C@_0GJ@HCOGLMCJ@?1media?1maaz?1Data?1Repos?1rake?1Hali@" = linkonce_odr dso_local unnamed_addr constant [105 x i8] c"/media/maaz/Data/Repos/rake/Halide-master-d48fbde/src/runtime/d3d12compute.cpp:441 Assert failed: false\0A\00", comdat, align 16
@"??_C@_0HI@FNCIDAJF@?1media?1maaz?1Data?1Repos?1rake?1Hali@" = linkonce_odr dso_local unnamed_addr constant [120 x i8] c"/media/maaz/Data/Repos/rake/Halide-master-d48fbde/src/runtime/d3d12compute.cpp:893 Assert failed: (hbuffer != nullptr)\0A\00", comdat, align 16
@"??_C@_0KB@NININJGE@?1media?1maaz?1Data?1Repos?1rake?1Hali@" = linkonce_odr dso_local unnamed_addr constant [161 x i8] c"/media/maaz/Data/Repos/rake/Halide-master-d48fbde/src/runtime/d3d12compute.cpp:894 Assert failed: (hbuffer->device_interface == &d3d12compute_device_interface)\0A\00", comdat, align 16
@"??_C@_0HI@MFPPBOBE@?1media?1maaz?1Data?1Repos?1rake?1Hali@" = linkonce_odr dso_local unnamed_addr constant [120 x i8] c"/media/maaz/Data/Repos/rake/Halide-master-d48fbde/src/runtime/d3d12compute.cpp:896 Assert failed: (dbuffer != nullptr)\0A\00", comdat, align 16
@"??_C@_0GE@IILGOCND@?1media?1maaz?1Data?1Repos?1rake?1Hali@" = linkonce_odr dso_local unnamed_addr constant [100 x i8] c"/media/maaz/Data/Repos/rake/Halide-master-d48fbde/src/runtime/hashmap.h:152 Assert failed: !inited\0A\00", comdat, align 16
@"??_C@_0HG@HILAPLNM@?1media?1maaz?1Data?1Repos?1rake?1Hali@" = linkonce_odr dso_local unnamed_addr constant [118 x i8] c"/media/maaz/Data/Repos/rake/Halide-master-d48fbde/src/runtime/hashmap.h:406 Assert failed: sizeof(ValueType) == size\0A\00", comdat, align 16
@"??_C@_0HG@DPCFCKPA@?1media?1maaz?1Data?1Repos?1rake?1Hali@" = linkonce_odr dso_local unnamed_addr constant [118 x i8] c"/media/maaz/Data/Repos/rake/Halide-master-d48fbde/src/runtime/hashmap.h:399 Assert failed: sizeof(ValueType) == size\0A\00", comdat, align 16
@"??_C@_0HP@CJJAKJAL@?1media?1maaz?1Data?1Repos?1rake?1Hali@" = linkonce_odr dso_local unnamed_addr constant [127 x i8] c"/media/maaz/Data/Repos/rake/Halide-master-d48fbde/src/runtime/d3d12compute.cpp:2480 Assert failed: (rootSignature == nullptr)\0A\00", comdat, align 16
@"??_C@_0HH@BCDAACAG@?1media?1maaz?1Data?1Repos?1rake?1Hali@" = linkonce_odr dso_local unnamed_addr constant [119 x i8] c"/media/maaz/Data/Repos/rake/Halide-master-d48fbde/src/runtime/d3d12compute.cpp:2488 Assert failed: (queue == nullptr)\0A\00", comdat, align 16
@"??_C@_0IE@KCBLAMLL@?1media?1maaz?1Data?1Repos?1rake?1Hali@" = linkonce_odr dso_local unnamed_addr constant [132 x i8] c"/media/maaz/Data/Repos/rake/Halide-master-d48fbde/src/runtime/d3d12compute.cpp:2496 Assert failed: (cmd_allocator_main == nullptr)\0A\00", comdat, align 16
@"??_C@_0HC@EJNCMKGA@?1media?1maaz?1Data?1Repos?1rake?1Hali@" = linkonce_odr dso_local unnamed_addr constant [114 x i8] c"/media/maaz/Data/Repos/rake/Halide-master-d48fbde/src/runtime/d3d12compute.cpp:2506 Assert failed: (upload == 0)\0A\00", comdat, align 16
@"??_C@_0HE@JADBJBDC@?1media?1maaz?1Data?1Repos?1rake?1Hali@" = linkonce_odr dso_local unnamed_addr constant [116 x i8] c"/media/maaz/Data/Repos/rake/Halide-master-d48fbde/src/runtime/d3d12compute.cpp:2507 Assert failed: (readback == 0)\0A\00", comdat, align 16
@CreateDXGIFactory1 = internal unnamed_addr global i32 (%struct._GUID*, i8**)* null, align 8
@_GUID_770aae78_f26f_4dba_a829_253c83d1b387 = linkonce_odr dso_local constant %struct._GUID { i32 1997188728, i16 -3473, i16 19898, [8 x i8] c"\A8)%<\83\D1\B3\87" }, comdat
@"??_C@_0CO@PFDCLHOL@Unable?5to?5create?5DXGI?5Factory?5?$CII@" = linkonce_odr dso_local unnamed_addr constant [46 x i8] c"Unable to create DXGI Factory (IDXGIFactory1)\00", comdat, align 8
@"??_C@_0HN@EFBLJJLF@?1media?1maaz?1Data?1Repos?1rake?1Hali@" = linkonce_odr dso_local unnamed_addr constant [125 x i8] c"/media/maaz/Data/Repos/rake/Halide-master-d48fbde/src/runtime/d3d12compute.cpp:1120 Assert failed: (dxgiAdapter == nullptr)\0A\00", comdat, align 16
@"??_C@_0DC@FNBIDBIK@Unable?5to?5enumerate?5DXGI?5adapter@" = linkonce_odr dso_local unnamed_addr constant [50 x i8] c"Unable to enumerate DXGI adapter (IDXGIAdapter1).\00", comdat, align 8
@"??_C@_0EL@CNMMEDGN@Unable?5to?5retrieve?5information?5?$CI@" = linkonce_odr dso_local unnamed_addr constant [75 x i8] c"Unable to retrieve information (DXGI_ADAPTER_DESC1) about adapter number #\00", comdat, align 16
@"??_C@_0CJ@GPPKLMOI@Unable?5to?5find?5a?5suitable?5D3D12?5@" = linkonce_odr dso_local unnamed_addr constant [41 x i8] c"Unable to find a suitable D3D12 Adapter.\00", comdat, align 8
@"??_C@_09ICPCIOEL@d3d12?4dll?$AA@" = linkonce_odr dso_local unnamed_addr constant [10 x i8] c"d3d12.dll\00", comdat, align 8
@"??_C@_0BD@CLKCCNEK@D3DCompiler_47?4dll?$AA@" = linkonce_odr dso_local unnamed_addr constant [19 x i8] c"D3DCompiler_47.dll\00", comdat, align 8
@"??_C@_08EEBGHKPL@dxgi?4dll?$AA@" = linkonce_odr dso_local unnamed_addr constant [9 x i8] c"dxgi.dll\00", comdat, align 8
@lib_d3d12 = internal unnamed_addr global i8* null, align 8
@lib_D3DCompiler_47 = internal unnamed_addr global i8* null, align 8
@lib_dxgi = internal unnamed_addr global i8* null, align 8
@"??_C@_0BC@OOAMCEEI@D3D12CreateDevice?$AA@" = linkonce_odr dso_local unnamed_addr constant [18 x i8] c"D3D12CreateDevice\00", comdat, align 8
@D3D12CreateDevice = internal unnamed_addr global i32 (%struct.IUnknown*, i32, %struct._GUID*, i8**)* null, align 8
@"??_C@_0BH@BKICNBLB@D3D12GetDebugInterface?$AA@" = linkonce_odr dso_local unnamed_addr constant [23 x i8] c"D3D12GetDebugInterface\00", comdat, align 8
@D3D12GetDebugInterface = internal unnamed_addr global i32 (%struct._GUID*, i8**)* null, align 8
@"??_C@_0BM@FFPIANAM@D3D12SerializeRootSignature?$AA@" = linkonce_odr dso_local unnamed_addr constant [28 x i8] c"D3D12SerializeRootSignature\00", comdat, align 8
@"??_C@_0L@HKGOFPCI@D3DCompile?$AA@" = linkonce_odr dso_local unnamed_addr constant [11 x i8] c"D3DCompile\00", comdat, align 8
@D3DCompile = internal unnamed_addr global i32 (i8*, i64, i8*, %struct._D3D_SHADER_MACRO*, %struct.ID3DInclude*, i8*, i8*, i32, i32, %struct.ID3D10Blob**, %struct.ID3D10Blob**)* null, align 8
@"??_C@_0BD@JFLLLCON@CreateDXGIFactory1?$AA@" = linkonce_odr dso_local unnamed_addr constant [19 x i8] c"CreateDXGIFactory1\00", comdat, align 8
@"??_C@_0L@IAGCJOCP@?5?$CIHRESULT?$DN?$AA@" = linkonce_odr dso_local unnamed_addr constant [11 x i8] c" (HRESULT=\00", comdat, align 8
@"??_C@_0L@FELFIFPM@?0?5object?$CK?$DN?$AA@" = linkonce_odr dso_local unnamed_addr constant [11 x i8] c", object*=\00", comdat, align 8
@"??_C@_01PKGAHCOL@?$CJ?$AA@" = linkonce_odr dso_local unnamed_addr constant [2 x i8] c")\00", comdat, align 4
@"??_C@_0EP@FDCDGPDE@Unable?5to?5retrieve?5information?5?$CI@" = linkonce_odr dso_local unnamed_addr constant [79 x i8] c"Unable to retrieve information (DXGI_ADAPTER_DESC1) about the selectd adapter.\00", comdat, align 16
@_GUID_189819f1_1db6_4b57_be54_1821339b85f7 = linkonce_odr dso_local constant %struct._GUID { i32 412621297, i16 7606, i16 19287, [8 x i8] c"\BET\18!3\9B\85\F7" }, comdat
@"??_C@_0CI@IGMLMPFG@Unable?5to?5create?5the?5Direct3D?512@" = linkonce_odr dso_local unnamed_addr constant [40 x i8] c"Unable to create the Direct3D 12 device\00", comdat, align 8
@"??_C@_0GL@MKEDKIBD@?1media?1maaz?1Data?1Repos?1rake?1Hali@" = linkonce_odr dso_local unnamed_addr constant [107 x i8] c"/media/maaz/Data/Repos/rake/Halide-master-d48fbde/src/runtime/d3d12compute.cpp:1671 Assert failed: device\0A\00", comdat, align 16
@_GUID_6102dee4_af59_4b09_b999_b44d73f09b24 = linkonce_odr dso_local constant %struct._GUID { i32 1627578084, i16 -20647, i16 19209, [8 x i8] c"\B9\99\B4Ms\F0\9B$" }, comdat
@"??_C@_0DD@BGLBECPN@Unable?5to?5create?5the?5Direct3D?512@" = linkonce_odr dso_local unnamed_addr constant [51 x i8] c"Unable to create the Direct3D 12 command allocator\00", comdat, align 8
@"??_C@_0CG@BDJKEANK@Debug?5info?5not?5available?3?5no?5dev@" = linkonce_odr dso_local unnamed_addr constant [38 x i8] c"Debug info not available: no device.\0A\00", comdat, align 8
@"??_C@_0HN@LLGMPKNO@?1media?1maaz?1Data?1Repos?1rake?1Hali@" = linkonce_odr dso_local unnamed_addr constant [125 x i8] c"/media/maaz/Data/Repos/rake/Halide-master-d48fbde/src/runtime/d3d12compute.cpp:2591 Assert failed: (dxgiAdapter != nullptr)\0A\00", comdat, align 16
@"??_C@_0DK@KDCNPKGG@Unable?5to?5retrieve?5information?5a@" = linkonce_odr dso_local unnamed_addr constant [58 x i8] c"Unable to retrieve information about the device adapter.\0A\00", comdat, align 8
@"??_C@_0CP@JMHIFPPF@Unable?5to?5allocate?5memory?5for?5th@" = linkonce_odr dso_local unnamed_addr constant [47 x i8] c"Unable to allocate memory for the debug dump.\0A\00", comdat, align 8
@"??_C@_0BH@CHHGHFME@D3D12?5Device?5Adapter?3?5?$AA@" = linkonce_odr dso_local unnamed_addr constant [23 x i8] c"D3D12 Device Adapter: \00", comdat, align 8
@"??_C@_0CI@KNFDFENG@Device?5Lost?$CB?5GetDeviceRemovedRea@" = linkonce_odr dso_local unnamed_addr constant [40 x i8] c"Device Lost! GetDeviceRemovedReason(): \00", comdat, align 8
@"??_C@_08NBDONIIG@before?3?5?$AA@" = linkonce_odr dso_local unnamed_addr constant [9 x i8] c"before: \00", comdat, align 8
@"??_C@_03LGOGDKEL@?5?$HM?5?$AA@" = linkonce_odr dso_local unnamed_addr constant [4 x i8] c" | \00", comdat, align 4
@"??_C@_07NCNFGCHF@after?3?5?$AA@" = linkonce_odr dso_local unnamed_addr constant [8 x i8] c"after: \00", comdat, align 8
@"??_C@_0BP@JEHMDIGO@Unable?5to?5wait?5for?5Fence?5Event?$AA@" = linkonce_odr dso_local unnamed_addr constant [31 x i8] c"Unable to wait for Fence Event\00", comdat, align 8
@"??_C@_0HF@HPJKODMC@?1media?1maaz?1Data?1Repos?1rake?1Hali@" = linkonce_odr dso_local unnamed_addr constant [117 x i8] c"/media/maaz/Data/Repos/rake/Halide-master-d48fbde/src/runtime/d3d12compute.cpp:2310 Assert failed: (use_count == 0)\0A\00", comdat, align 16
@"??_C@_0HG@BKPBFCDC@?1media?1maaz?1Data?1Repos?1rake?1Hali@" = linkonce_odr dso_local unnamed_addr constant [118 x i8] c"/media/maaz/Data/Repos/rake/Halide-master-d48fbde/src/runtime/d3d12compute.cpp:2246 Assert failed: (xfer != nullptr)\0A\00", comdat, align 16
@"??_C@_0GK@KGJGGHMA@?1media?1maaz?1Data?1Repos?1rake?1Hali@" = linkonce_odr dso_local unnamed_addr constant [106 x i8] c"/media/maaz/Data/Repos/rake/Halide-master-d48fbde/src/runtime/d3d12compute.cpp:2273 Assert failed: false\0A\00", comdat, align 16
@"??_C@_0IG@GFIJNJDO@?1media?1maaz?1Data?1Repos?1rake?1Hali@" = linkonce_odr dso_local unnamed_addr constant [134 x i8] c"/media/maaz/Data/Repos/rake/Halide-master-d48fbde/src/runtime/d3d12compute.cpp:2196 Assert failed: src->type == d3d12_buffer::Upload\0A\00", comdat, align 16
@"??_C@_0JI@PCJLNBL@?1media?1maaz?1Data?1Repos?1rake?1Hali@" = linkonce_odr dso_local unnamed_addr constant [152 x i8] c"/media/maaz/Data/Repos/rake/Halide-master-d48fbde/src/runtime/d3d12compute.cpp:2199 Assert failed: src->state == D3D12_RESOURCE_STATE_UNORDERED_ACCESS\0A\00", comdat, align 16
@"??_C@_0II@PGFAABKF@?1media?1maaz?1Data?1Repos?1rake?1Hali@" = linkonce_odr dso_local unnamed_addr constant [136 x i8] c"/media/maaz/Data/Repos/rake/Halide-master-d48fbde/src/runtime/d3d12compute.cpp:2212 Assert failed: dst->type == d3d12_buffer::ReadBack\0A\00", comdat, align 16
@"??_C@_0JI@EEDFJGKA@?1media?1maaz?1Data?1Repos?1rake?1Hali@" = linkonce_odr dso_local unnamed_addr constant [152 x i8] c"/media/maaz/Data/Repos/rake/Halide-master-d48fbde/src/runtime/d3d12compute.cpp:2214 Assert failed: dst->state == D3D12_RESOURCE_STATE_UNORDERED_ACCESS\0A\00", comdat, align 16
@"??_C@_0GL@JKLPMJCE@?1media?1maaz?1Data?1Repos?1rake?1Hali@" = linkonce_odr dso_local unnamed_addr constant [107 x i8] c"/media/maaz/Data/Repos/rake/Halide-master-d48fbde/src/runtime/d3d12compute.cpp:2323 Assert failed: device\0A\00", comdat, align 16
@"??_C@_0GI@CIKNBAH@?1media?1maaz?1Data?1Repos?1rake?1Hali@" = linkonce_odr dso_local unnamed_addr constant [104 x i8] c"/media/maaz/Data/Repos/rake/Halide-master-d48fbde/src/runtime/d3d12compute.cpp:2324 Assert failed: src\0A\00", comdat, align 16
@"??_C@_0GI@GGLHCMMF@?1media?1maaz?1Data?1Repos?1rake?1Hali@" = linkonce_odr dso_local unnamed_addr constant [104 x i8] c"/media/maaz/Data/Repos/rake/Halide-master-d48fbde/src/runtime/d3d12compute.cpp:2325 Assert failed: dst\0A\00", comdat, align 16
@"??_C@_0IJ@PHCCBPFH@?1media?1maaz?1Data?1Repos?1rake?1Hali@" = linkonce_odr dso_local unnamed_addr constant [137 x i8] c"/media/maaz/Data/Repos/rake/Halide-master-d48fbde/src/runtime/d3d12compute.cpp:2326 Assert failed: (src->type != d3d12_buffer::Unknown)\0A\00", comdat, align 16
@"??_C@_0IJ@FKOMGEEA@?1media?1maaz?1Data?1Repos?1rake?1Hali@" = linkonce_odr dso_local unnamed_addr constant [137 x i8] c"/media/maaz/Data/Repos/rake/Halide-master-d48fbde/src/runtime/d3d12compute.cpp:2327 Assert failed: (dst->type != d3d12_buffer::Unknown)\0A\00", comdat, align 16
@"??_C@_0IK@ONFBLGCD@?1media?1maaz?1Data?1Repos?1rake?1Hali@" = linkonce_odr dso_local unnamed_addr constant [138 x i8] c"/media/maaz/Data/Repos/rake/Halide-master-d48fbde/src/runtime/d3d12compute.cpp:2330 Assert failed: (src->type != d3d12_buffer::Constant)\0A\00", comdat, align 16
@"??_C@_0IK@GOCPPNJP@?1media?1maaz?1Data?1Repos?1rake?1Hali@" = linkonce_odr dso_local unnamed_addr constant [138 x i8] c"/media/maaz/Data/Repos/rake/Halide-master-d48fbde/src/runtime/d3d12compute.cpp:2331 Assert failed: (dst->type != d3d12_buffer::Constant)\0A\00", comdat, align 16
@"??_C@_0HC@DEBHPEJP@?1media?1maaz?1Data?1Repos?1rake?1Hali@" = linkonce_odr dso_local unnamed_addr constant [114 x i8] c"/media/maaz/Data/Repos/rake/Halide-master-d48fbde/src/runtime/d3d12compute.cpp:2333 Assert failed: num_bytes > 0\0A\00", comdat, align 16
@"??_C@_0II@HKEHGFPG@?1media?1maaz?1Data?1Repos?1rake?1Hali@" = linkonce_odr dso_local unnamed_addr constant [136 x i8] c"/media/maaz/Data/Repos/rake/Halide-master-d48fbde/src/runtime/d3d12compute.cpp:2337 Assert failed: (dst->type != d3d12_buffer::Upload)\0A\00", comdat, align 16
@"??_C@_0IK@HFNGBPMB@?1media?1maaz?1Data?1Repos?1rake?1Hali@" = linkonce_odr dso_local unnamed_addr constant [138 x i8] c"/media/maaz/Data/Repos/rake/Halide-master-d48fbde/src/runtime/d3d12compute.cpp:2338 Assert failed: (dst->type != d3d12_buffer::ReadBack)\0A\00", comdat, align 16
@"??_C@_0HL@FDNNDOAP@?1media?1maaz?1Data?1Repos?1rake?1Hali@" = linkonce_odr dso_local unnamed_addr constant [123 x i8] c"/media/maaz/Data/Repos/rake/Halide-master-d48fbde/src/runtime/d3d12compute.cpp:2344 Assert failed: (dst->xfer == nullptr)\0A\00", comdat, align 16
@"??_C@_0IK@HCNEAADD@?1media?1maaz?1Data?1Repos?1rake?1Hali@" = linkonce_odr dso_local unnamed_addr constant [138 x i8] c"/media/maaz/Data/Repos/rake/Halide-master-d48fbde/src/runtime/d3d12compute.cpp:2353 Assert failed: (src->type != d3d12_buffer::ReadBack)\0A\00", comdat, align 16
@"??_C@_0HL@GDNHBGNM@?1media?1maaz?1Data?1Repos?1rake?1Hali@" = linkonce_odr dso_local unnamed_addr constant [123 x i8] c"/media/maaz/Data/Repos/rake/Halide-master-d48fbde/src/runtime/d3d12compute.cpp:2359 Assert failed: (src->xfer == nullptr)\0A\00", comdat, align 16
@"??_C@_0II@NAEKBKKG@?1media?1maaz?1Data?1Repos?1rake?1Hali@" = linkonce_odr dso_local unnamed_addr constant [136 x i8] c"/media/maaz/Data/Repos/rake/Halide-master-d48fbde/src/runtime/d3d12compute.cpp:2367 Assert failed: (dst->type != d3d12_buffer::Upload)\0A\00", comdat, align 16
@"??_C@_0IK@JBDMNMFO@?1media?1maaz?1Data?1Repos?1rake?1Hali@" = linkonce_odr dso_local unnamed_addr constant [138 x i8] c"/media/maaz/Data/Repos/rake/Halide-master-d48fbde/src/runtime/d3d12compute.cpp:2368 Assert failed: (src->type != d3d12_buffer::ReadBack)\0A\00", comdat, align 16
@"??_C@_0IK@BCECJHOC@?1media?1maaz?1Data?1Repos?1rake?1Hali@" = linkonce_odr dso_local unnamed_addr constant [138 x i8] c"/media/maaz/Data/Repos/rake/Halide-master-d48fbde/src/runtime/d3d12compute.cpp:2369 Assert failed: (dst->type != d3d12_buffer::ReadBack)\0A\00", comdat, align 16
@"??_C@_0GK@DOBONIIG@?1media?1maaz?1Data?1Repos?1rake?1Hali@" = linkonce_odr dso_local unnamed_addr constant [106 x i8] c"/media/maaz/Data/Repos/rake/Halide-master-d48fbde/src/runtime/d3d12compute.cpp:2407 Assert failed: false\0A\00", comdat, align 16
@"??_C@_0GK@DKOLFJKC@?1media?1maaz?1Data?1Repos?1rake?1Hali@" = linkonce_odr dso_local unnamed_addr constant [106 x i8] c"/media/maaz/Data/Repos/rake/Halide-master-d48fbde/src/runtime/d3d12compute.cpp:2430 Assert failed: false\0A\00", comdat, align 16
@"??_C@_0GK@GCMMKOFI@?1media?1maaz?1Data?1Repos?1rake?1Hali@" = linkonce_odr dso_local unnamed_addr constant [106 x i8] c"/media/maaz/Data/Repos/rake/Halide-master-d48fbde/src/runtime/d3d12compute.cpp:2434 Assert failed: pData\0A\00", comdat, align 16
@"?frame_selector@D3D12Compute@Internal@Runtime@Halide@@3_KA" = internal unnamed_addr global i64 0, align 8
@_GUID_5b160d0f_ac1b_4185_8ba8_b3ae42a5a455 = linkonce_odr dso_local constant %struct._GUID { i32 1528171791, i16 -21477, i16 16773, [8 x i8] c"\8B\A8\B3\AEB\A5\A4U" }, comdat
@"??_C@_0CO@OKNPIGDH@Unable?5to?5create?5the?5Direct3D?512@" = linkonce_odr dso_local unnamed_addr constant [46 x i8] c"Unable to create the Direct3D 12 command list\00", comdat, align 8
@_GUID_8efb471d_616c_4f49_90f7_127bb763fa51 = linkonce_odr dso_local constant %struct._GUID { i32 -1896134883, i16 24940, i16 20297, [8 x i8] c"\90\F7\12{\B7c\FAQ" }, comdat
@"??_C@_0DB@GKGAOIPC@Unable?5to?5create?5the?5Direct3D?512@" = linkonce_odr dso_local unnamed_addr constant [49 x i8] c"Unable to create the Direct3D 12 descriptor heap\00", comdat, align 8
@"??_C@_02DKADOBMK@_?$CI?$AA@" = linkonce_odr dso_local unnamed_addr constant [3 x i8] c"_(\00", comdat, align 4
@"??_C@_01IHBHIGKO@?0?$AA@" = linkonce_odr dso_local unnamed_addr constant [2 x i8] c",\00", comdat, align 4
@"??_C@_03DNCOCNEF@?$CJ_?$FL?$AA@" = linkonce_odr dso_local unnamed_addr constant [4 x i8] c")_[\00", comdat, align 4
@"??_C@_01LBDDMOBJ@?$FN?$AA@" = linkonce_odr dso_local unnamed_addr constant [2 x i8] c"]\00", comdat, align 4
@"??_C@_0IG@KHODCDFK@?1media?1maaz?1Data?1Repos?1rake?1Hali@" = linkonce_odr dso_local unnamed_addr constant [134 x i8] c"/media/maaz/Data/Repos/rake/Halide-master-d48fbde/src/runtime/d3d12compute.cpp:1944 Assert failed: (key.size() < key.capacity() - 1)\0A\00", comdat, align 16
@"??_C@_0HK@BHBNEKNC@?1media?1maaz?1Data?1Repos?1rake?1Hali@" = linkonce_odr dso_local unnamed_addr constant [122 x i8] c"/media/maaz/Data/Repos/rake/Halide-master-d48fbde/src/runtime/d3d12compute.cpp:1948 Assert failed: (function == nullptr)\0A\00", comdat, align 16
@"??_C@_0HK@HOPDFHBF@?1media?1maaz?1Data?1Repos?1rake?1Hali@" = linkonce_odr dso_local unnamed_addr constant [122 x i8] c"/media/maaz/Data/Repos/rake/Halide-master-d48fbde/src/runtime/d3d12compute.cpp:1959 Assert failed: (function != nullptr)\0A\00", comdat, align 16
@"??_C@_09CGLEKJAK@?$DMnullptr?$DO?$AA@" = linkonce_odr dso_local unnamed_addr constant [10 x i8] c"<nullptr>\00", comdat, align 8
@"??_C@_0HK@ILGBKOLL@?1media?1maaz?1Data?1Repos?1rake?1Hali@" = linkonce_odr dso_local unnamed_addr constant [122 x i8] c"/media/maaz/Data/Repos/rake/Halide-master-d48fbde/src/runtime/hashmap.h:264 Assert failed: entry->more_recent != nullptr\0A\00", comdat, align 16
@"??_C@_0HJ@MNNHDLMG@?1media?1maaz?1Data?1Repos?1rake?1Hali@" = linkonce_odr dso_local unnamed_addr constant [121 x i8] c"/media/maaz/Data/Repos/rake/Halide-master-d48fbde/src/runtime/hashmap.h:268 Assert failed: least_recently_used == entry\0A\00", comdat, align 16
@"??_C@_0HK@MPEPNOAE@?1media?1maaz?1Data?1Repos?1rake?1Hali@" = linkonce_odr dso_local unnamed_addr constant [122 x i8] c"/media/maaz/Data/Repos/rake/Halide-master-d48fbde/src/runtime/hashmap.h:271 Assert failed: entry->more_recent != nullptr\0A\00", comdat, align 16
@"??_C@_0IE@KOIFDNCL@?1media?1maaz?1Data?1Repos?1rake?1Hali@" = linkonce_odr dso_local unnamed_addr constant [132 x i8] c"/media/maaz/Data/Repos/rake/Halide-master-d48fbde/src/runtime/hashmap.h:282 Assert failed: (cache_value_size == entry->value_size)\0A\00", comdat, align 16
@"??_C@_0CD@IKIJNBLF@Printer?5buffer?5allocation?5failed@" = linkonce_odr dso_local unnamed_addr constant [35 x i8] c"Printer buffer allocation failed.\0A\00", comdat, align 8
@"??_C@_0BM@EDALEHEN@__GROUPSHARED_SIZE_IN_BYTES?$AA@" = linkonce_odr dso_local unnamed_addr constant [28 x i8] c"__GROUPSHARED_SIZE_IN_BYTES\00", comdat, align 8
@"??_C@_0P@LOBBBKDE@__NUM_TREADS_X?$AA@" = linkonce_odr dso_local unnamed_addr constant [15 x i8] c"__NUM_TREADS_X\00", comdat, align 8
@"??_C@_0P@KHAKCLHF@__NUM_TREADS_Y?$AA@" = linkonce_odr dso_local unnamed_addr constant [15 x i8] c"__NUM_TREADS_Y\00", comdat, align 8
@"??_C@_0P@IMCHHILG@__NUM_TREADS_Z?$AA@" = linkonce_odr dso_local unnamed_addr constant [15 x i8] c"__NUM_TREADS_Z\00", comdat, align 8
@"??_C@_06IJHADHCA@cs_5_1?$AA@" = linkonce_odr dso_local unnamed_addr constant [7 x i8] c"cs_5_1\00", comdat, align 4
@"??_C@_0BF@NPMABELF@?$FLend?9of?9shader?9dump?$FN?$AA@" = linkonce_odr dso_local unnamed_addr constant [21 x i8] c"[end-of-shader-dump]\00", comdat, align 8
@"??_C@_0DB@POFDFLDH@D3D12Compute?3?5Could?5not?5allocate@" = linkonce_odr dso_local unnamed_addr constant [49 x i8] c"D3D12Compute: Could not allocate pipeline state.\00", comdat, align 8
@"??_C@_0BM@GELOKDC@?$DMno?5error?5message?5reported?$DO?$AA@" = linkonce_odr dso_local unnamed_addr constant [28 x i8] c"<no error message reported>\00", comdat, align 8
@"??_C@_0P@NJDLPAMC@D3DCompile?$CI?$CJ?3?5?$AA@" = linkonce_odr dso_local unnamed_addr constant [15 x i8] c"D3DCompile(): \00", comdat, align 8
@"??_C@_0CB@LJCJJOMA@?$DO?$DO?$DO?5HLSL?5shader?5source?5dump?5?$DM?$DM?$DM?6@" = linkonce_odr dso_local unnamed_addr constant [33 x i8] c">>> HLSL shader source dump <<<\0A\00", comdat, align 8
@_GUID_765a30f3_f624_4c6f_a828_ace948622445 = linkonce_odr dso_local constant %struct._GUID { i32 1985622259, i16 -2524, i16 19567, [8 x i8] c"\A8(\AC\E9Hb$E" }, comdat
@"??_C@_0DA@KOEOGIGO@Unable?5to?5create?5the?5Direct3D?512@" = linkonce_odr dso_local unnamed_addr constant [48 x i8] c"Unable to create the Direct3D 12 pipeline state\00", comdat, align 8
@"??_C@_0IE@OEGJPCDB@?1media?1maaz?1Data?1Repos?1rake?1Hali@" = linkonce_odr dso_local unnamed_addr constant [132 x i8] c"/media/maaz/Data/Repos/rake/Halide-master-d48fbde/src/runtime/hashmap.h:328 Assert failed: (cache_value_size == entry->value_size)\0A\00", comdat, align 16
@"??_C@_0GD@KIHFBKKG@?1media?1maaz?1Data?1Repos?1rake?1Hali@" = linkonce_odr dso_local unnamed_addr constant [99 x i8] c"/media/maaz/Data/Repos/rake/Halide-master-d48fbde/src/runtime/hashmap.h:338 Assert failed: inited\0A\00", comdat, align 16
@"??_C@_0HH@BADGLHLC@?1media?1maaz?1Data?1Repos?1rake?1Hali@" = linkonce_odr dso_local unnamed_addr constant [119 x i8] c"/media/maaz/Data/Repos/rake/Halide-master-d48fbde/src/runtime/hashmap.h:191 Assert failed: prev_hash_entry != nullptr\0A\00", comdat, align 16
@"??_C@_0GM@GIODNIAA@?1media?1maaz?1Data?1Repos?1rake?1Hali@" = linkonce_odr dso_local unnamed_addr constant [108 x i8] c"/media/maaz/Data/Repos/rake/Halide-master-d48fbde/src/runtime/gpu_context_common.h:69 Assert failed: false\0A\00", comdat, align 16
@"??_C@_0GO@DFIAIKAP@?1media?1maaz?1Data?1Repos?1rake?1Hali@" = linkonce_odr dso_local unnamed_addr constant [110 x i8] c"/media/maaz/Data/Repos/rake/Halide-master-d48fbde/src/runtime/gpu_context_common.h:127 Assert failed: result\0A\00", comdat, align 16
@"??_C@_0GO@OECFGMGJ@?1media?1maaz?1Data?1Repos?1rake?1Hali@" = linkonce_odr dso_local unnamed_addr constant [110 x i8] c"/media/maaz/Data/Repos/rake/Halide-master-d48fbde/src/runtime/gpu_context_common.h:215 Assert failed: result\0A\00", comdat, align 16
@llvm.global_ctors = appending global [1 x { i32, void ()*, i8* }] [{ i32, void ()*, i8* } { i32 65535, void ()* @_GLOBAL__sub_I_windows_d3d12compute_arm.cpp, i8* null }]
@llvm.global_dtors = appending global [1 x { i32, void ()*, i8* }] [{ i32, void ()*, i8* } { i32 65535, void ()* @halide_d3d12compute_cleanup, i8* null }]
@"switch.table.?wrap_buffer@D3D12Compute@Internal@Runtime@Halide@@YAHPEAXPEAUhalide_buffer_t@@PEAUd3d12_buffer@1234@@Z" = private unnamed_addr constant [8 x i64] [i64 0, i64 1, i64 0, i64 2, i64 0, i64 0, i64 0, i64 3], align 8

; Function Attrs: nounwind mustprogress
define weak dso_local void @"?copy_memory_helper@Internal@Runtime@Halide@@YAXAEBUdevice_copy@123@H_J1@Z"(%"struct.Halide::Runtime::Internal::device_copy"* nonnull align 8 dereferenceable(416) %0, i32 %1, i64 %2, i64 %3) local_unnamed_addr #0 {
  %5 = icmp sgt i32 %1, -1
  br i1 %5, label %6, label %15

6:                                                ; preds = %4, %12
  %7 = phi i32 [ %13, %12 ], [ %1, %4 ]
  %8 = zext i32 %7 to i64
  %9 = getelementptr inbounds %"struct.Halide::Runtime::Internal::device_copy", %"struct.Halide::Runtime::Internal::device_copy"* %0, i64 0, i32 3, i64 %8
  %10 = load i64, i64* %9, align 8, !tbaa !6
  %11 = icmp eq i64 %10, 1
  br i1 %11, label %12, label %15

12:                                               ; preds = %6
  %13 = add nsw i32 %7, -1
  %14 = icmp sgt i32 %7, 0
  br i1 %14, label %6, label %27, !llvm.loop !10

15:                                               ; preds = %6, %4
  %16 = phi i32 [ %1, %4 ], [ %7, %6 ]
  %17 = icmp eq i32 %16, -1
  br i1 %17, label %27, label %18

18:                                               ; preds = %15
  %19 = sext i32 %16 to i64
  %20 = getelementptr inbounds %"struct.Halide::Runtime::Internal::device_copy", %"struct.Halide::Runtime::Internal::device_copy"* %0, i64 0, i32 3, i64 %19
  %21 = load i64, i64* %20, align 8, !tbaa !6
  %22 = icmp eq i64 %21, 0
  br i1 %22, label %50, label %23

23:                                               ; preds = %18
  %24 = add nsw i32 %16, -1
  %25 = getelementptr inbounds %"struct.Halide::Runtime::Internal::device_copy", %"struct.Halide::Runtime::Internal::device_copy"* %0, i64 0, i32 4, i64 %19
  %26 = getelementptr inbounds %"struct.Halide::Runtime::Internal::device_copy", %"struct.Halide::Runtime::Internal::device_copy"* %0, i64 0, i32 5, i64 %19
  br label %39

27:                                               ; preds = %12, %15
  %28 = getelementptr inbounds %"struct.Halide::Runtime::Internal::device_copy", %"struct.Halide::Runtime::Internal::device_copy"* %0, i64 0, i32 0
  %29 = load i64, i64* %28, align 8, !tbaa !12
  %30 = add i64 %29, %2
  %31 = inttoptr i64 %30 to i8*
  %32 = getelementptr inbounds %"struct.Halide::Runtime::Internal::device_copy", %"struct.Halide::Runtime::Internal::device_copy"* %0, i64 0, i32 1
  %33 = load i64, i64* %32, align 8, !tbaa !14
  %34 = add i64 %33, %3
  %35 = inttoptr i64 %34 to i8*
  %36 = getelementptr inbounds %"struct.Halide::Runtime::Internal::device_copy", %"struct.Halide::Runtime::Internal::device_copy"* %0, i64 0, i32 6
  %37 = load i64, i64* %36, align 8, !tbaa !15
  %38 = tail call i8* @memcpy(i8* %35, i8* %31, i64 %37) #10
  br label %50

39:                                               ; preds = %23, %39
  %40 = phi i64 [ 0, %23 ], [ %47, %39 ]
  %41 = phi i64 [ %3, %23 ], [ %46, %39 ]
  %42 = phi i64 [ %2, %23 ], [ %44, %39 ]
  tail call void @"?copy_memory_helper@Internal@Runtime@Halide@@YAXAEBUdevice_copy@123@H_J1@Z"(%"struct.Halide::Runtime::Internal::device_copy"* nonnull align 8 dereferenceable(416) %0, i32 %24, i64 %42, i64 %41) #11
  %43 = load i64, i64* %25, align 8, !tbaa !6
  %44 = add i64 %43, %42
  %45 = load i64, i64* %26, align 8, !tbaa !6
  %46 = add i64 %45, %41
  %47 = add nuw i64 %40, 1
  %48 = load i64, i64* %20, align 8, !tbaa !6
  %49 = icmp ult i64 %47, %48
  br i1 %49, label %39, label %50, !llvm.loop !16

50:                                               ; preds = %39, %18, %27
  ret void
}

; Function Attrs: argmemonly nofree nosync nounwind willreturn
declare void @llvm.lifetime.start.p0i8(i64 immarg, i8* nocapture) #1

declare dso_local i8* @memcpy(i8*, i8*, i64) local_unnamed_addr #2

; Function Attrs: argmemonly nofree nosync nounwind willreturn
declare void @llvm.lifetime.end.p0i8(i64 immarg, i8* nocapture) #1

; Function Attrs: nounwind mustprogress
define weak dso_local void @"?copy_memory@Internal@Runtime@Halide@@YAXAEBUdevice_copy@123@PEAX@Z"(%"struct.Halide::Runtime::Internal::device_copy"* nonnull align 8 dereferenceable(416) %0, i8* %1) local_unnamed_addr #0 {
  %3 = getelementptr inbounds %"struct.Halide::Runtime::Internal::device_copy", %"struct.Halide::Runtime::Internal::device_copy"* %0, i64 0, i32 0
  %4 = load i64, i64* %3, align 8, !tbaa !12
  %5 = getelementptr inbounds %"struct.Halide::Runtime::Internal::device_copy", %"struct.Halide::Runtime::Internal::device_copy"* %0, i64 0, i32 1
  %6 = load i64, i64* %5, align 8, !tbaa !14
  %7 = icmp eq i64 %4, %6
  br i1 %7, label %11, label %8

8:                                                ; preds = %2
  %9 = getelementptr inbounds %"struct.Halide::Runtime::Internal::device_copy", %"struct.Halide::Runtime::Internal::device_copy"* %0, i64 0, i32 2
  %10 = load i64, i64* %9, align 8, !tbaa !17
  tail call void @"?copy_memory_helper@Internal@Runtime@Halide@@YAXAEBUdevice_copy@123@H_J1@Z"(%"struct.Halide::Runtime::Internal::device_copy"* nonnull align 8 dereferenceable(416) %0, i32 15, i64 %10, i64 0) #11
  br label %11

11:                                               ; preds = %2, %8
  ret void
}

; Function Attrs: nounwind mustprogress
define weak dso_local void @"?make_buffer_copy@Internal@Runtime@Halide@@YA?AUdevice_copy@123@PEBUhalide_buffer_t@@_N01@Z"(%"struct.Halide::Runtime::Internal::device_copy"* noalias sret(%"struct.Halide::Runtime::Internal::device_copy") align 8 %0, %struct.halide_buffer_t* %1, i1 %2, %struct.halide_buffer_t* %3, i1 %4) local_unnamed_addr #0 {
  %6 = alloca %"struct.Halide::Runtime::Internal::device_copy", align 8
  %7 = bitcast %"struct.Halide::Runtime::Internal::device_copy"* %6 to i8*
  call void @llvm.lifetime.start.p0i8(i64 416, i8* nonnull %7) #12
  br i1 %2, label %8, label %12

8:                                                ; preds = %5
  %9 = getelementptr inbounds %struct.halide_buffer_t, %struct.halide_buffer_t* %1, i64 0, i32 2
  %10 = load i8*, i8** %9, align 8, !tbaa !18
  %11 = ptrtoint i8* %10 to i64
  br label %15

12:                                               ; preds = %5
  %13 = getelementptr inbounds %struct.halide_buffer_t, %struct.halide_buffer_t* %1, i64 0, i32 0
  %14 = load i64, i64* %13, align 8, !tbaa !25
  br label %15

15:                                               ; preds = %12, %8
  %16 = phi i64 [ %11, %8 ], [ %14, %12 ]
  %17 = getelementptr inbounds %"struct.Halide::Runtime::Internal::device_copy", %"struct.Halide::Runtime::Internal::device_copy"* %6, i64 0, i32 0
  store i64 %16, i64* %17, align 8, !tbaa !12
  br i1 %4, label %18, label %22

18:                                               ; preds = %15
  %19 = getelementptr inbounds %struct.halide_buffer_t, %struct.halide_buffer_t* %3, i64 0, i32 2
  %20 = load i8*, i8** %19, align 8, !tbaa !18
  %21 = ptrtoint i8* %20 to i64
  br label %25

22:                                               ; preds = %15
  %23 = getelementptr inbounds %struct.halide_buffer_t, %struct.halide_buffer_t* %3, i64 0, i32 0
  %24 = load i64, i64* %23, align 8, !tbaa !25
  br label %25

25:                                               ; preds = %22, %18
  %26 = phi i64 [ %21, %18 ], [ %24, %22 ]
  %27 = getelementptr inbounds %"struct.Halide::Runtime::Internal::device_copy", %"struct.Halide::Runtime::Internal::device_copy"* %6, i64 0, i32 1
  store i64 %26, i64* %27, align 8, !tbaa !14
  %28 = getelementptr inbounds %struct.halide_buffer_t, %struct.halide_buffer_t* %1, i64 0, i32 4, i32 1
  %29 = load i8, i8* %28, align 1, !tbaa !26
  %30 = zext i8 %29 to i32
  %31 = add nuw nsw i32 %30, 7
  %32 = lshr i32 %31, 3
  %33 = zext i32 %32 to i64
  %34 = getelementptr inbounds %"struct.Halide::Runtime::Internal::device_copy", %"struct.Halide::Runtime::Internal::device_copy"* %6, i64 0, i32 6
  store i64 %33, i64* %34, align 8, !tbaa !15
  %35 = getelementptr inbounds %"struct.Halide::Runtime::Internal::device_copy", %"struct.Halide::Runtime::Internal::device_copy"* %6, i64 0, i32 3, i64 0
  %36 = getelementptr inbounds %"struct.Halide::Runtime::Internal::device_copy", %"struct.Halide::Runtime::Internal::device_copy"* %6, i64 0, i32 4, i64 0
  %37 = getelementptr inbounds %"struct.Halide::Runtime::Internal::device_copy", %"struct.Halide::Runtime::Internal::device_copy"* %6, i64 0, i32 5, i64 0
  %38 = getelementptr inbounds %"struct.Halide::Runtime::Internal::device_copy", %"struct.Halide::Runtime::Internal::device_copy"* %6, i64 0, i32 3, i64 1
  %39 = bitcast i64* %35 to <2 x i64>*
  store <2 x i64> <i64 1, i64 1>, <2 x i64>* %39, align 8, !tbaa !6
  %40 = getelementptr inbounds %"struct.Halide::Runtime::Internal::device_copy", %"struct.Halide::Runtime::Internal::device_copy"* %6, i64 0, i32 4, i64 1
  %41 = bitcast i64* %36 to <2 x i64>*
  store <2 x i64> zeroinitializer, <2 x i64>* %41, align 8, !tbaa !6
  %42 = getelementptr inbounds %"struct.Halide::Runtime::Internal::device_copy", %"struct.Halide::Runtime::Internal::device_copy"* %6, i64 0, i32 5, i64 1
  %43 = bitcast i64* %37 to <2 x i64>*
  store <2 x i64> zeroinitializer, <2 x i64>* %43, align 8, !tbaa !6
  %44 = getelementptr inbounds %"struct.Halide::Runtime::Internal::device_copy", %"struct.Halide::Runtime::Internal::device_copy"* %6, i64 0, i32 3, i64 2
  %45 = getelementptr inbounds %"struct.Halide::Runtime::Internal::device_copy", %"struct.Halide::Runtime::Internal::device_copy"* %6, i64 0, i32 4, i64 2
  %46 = getelementptr inbounds %"struct.Halide::Runtime::Internal::device_copy", %"struct.Halide::Runtime::Internal::device_copy"* %6, i64 0, i32 5, i64 2
  %47 = getelementptr inbounds %"struct.Halide::Runtime::Internal::device_copy", %"struct.Halide::Runtime::Internal::device_copy"* %6, i64 0, i32 3, i64 3
  %48 = bitcast i64* %44 to <2 x i64>*
  store <2 x i64> <i64 1, i64 1>, <2 x i64>* %48, align 8, !tbaa !6
  %49 = getelementptr inbounds %"struct.Halide::Runtime::Internal::device_copy", %"struct.Halide::Runtime::Internal::device_copy"* %6, i64 0, i32 4, i64 3
  %50 = bitcast i64* %45 to <2 x i64>*
  store <2 x i64> zeroinitializer, <2 x i64>* %50, align 8, !tbaa !6
  %51 = getelementptr inbounds %"struct.Halide::Runtime::Internal::device_copy", %"struct.Halide::Runtime::Internal::device_copy"* %6, i64 0, i32 5, i64 3
  %52 = bitcast i64* %46 to <2 x i64>*
  store <2 x i64> zeroinitializer, <2 x i64>* %52, align 8, !tbaa !6
  %53 = getelementptr inbounds %"struct.Halide::Runtime::Internal::device_copy", %"struct.Halide::Runtime::Internal::device_copy"* %6, i64 0, i32 3, i64 4
  %54 = getelementptr inbounds %"struct.Halide::Runtime::Internal::device_copy", %"struct.Halide::Runtime::Internal::device_copy"* %6, i64 0, i32 4, i64 4
  %55 = getelementptr inbounds %"struct.Halide::Runtime::Internal::device_copy", %"struct.Halide::Runtime::Internal::device_copy"* %6, i64 0, i32 5, i64 4
  %56 = getelementptr inbounds %"struct.Halide::Runtime::Internal::device_copy", %"struct.Halide::Runtime::Internal::device_copy"* %6, i64 0, i32 3, i64 5
  %57 = bitcast i64* %53 to <2 x i64>*
  store <2 x i64> <i64 1, i64 1>, <2 x i64>* %57, align 8, !tbaa !6
  %58 = getelementptr inbounds %"struct.Halide::Runtime::Internal::device_copy", %"struct.Halide::Runtime::Internal::device_copy"* %6, i64 0, i32 4, i64 5
  %59 = bitcast i64* %54 to <2 x i64>*
  store <2 x i64> zeroinitializer, <2 x i64>* %59, align 8, !tbaa !6
  %60 = getelementptr inbounds %"struct.Halide::Runtime::Internal::device_copy", %"struct.Halide::Runtime::Internal::device_copy"* %6, i64 0, i32 5, i64 5
  %61 = bitcast i64* %55 to <2 x i64>*
  store <2 x i64> zeroinitializer, <2 x i64>* %61, align 8, !tbaa !6
  %62 = getelementptr inbounds %"struct.Halide::Runtime::Internal::device_copy", %"struct.Halide::Runtime::Internal::device_copy"* %6, i64 0, i32 3, i64 6
  %63 = getelementptr inbounds %"struct.Halide::Runtime::Internal::device_copy", %"struct.Halide::Runtime::Internal::device_copy"* %6, i64 0, i32 4, i64 6
  %64 = getelementptr inbounds %"struct.Halide::Runtime::Internal::device_copy", %"struct.Halide::Runtime::Internal::device_copy"* %6, i64 0, i32 5, i64 6
  %65 = getelementptr inbounds %"struct.Halide::Runtime::Internal::device_copy", %"struct.Halide::Runtime::Internal::device_copy"* %6, i64 0, i32 3, i64 7
  %66 = bitcast i64* %62 to <2 x i64>*
  store <2 x i64> <i64 1, i64 1>, <2 x i64>* %66, align 8, !tbaa !6
  %67 = getelementptr inbounds %"struct.Halide::Runtime::Internal::device_copy", %"struct.Halide::Runtime::Internal::device_copy"* %6, i64 0, i32 4, i64 7
  %68 = bitcast i64* %63 to <2 x i64>*
  store <2 x i64> zeroinitializer, <2 x i64>* %68, align 8, !tbaa !6
  %69 = getelementptr inbounds %"struct.Halide::Runtime::Internal::device_copy", %"struct.Halide::Runtime::Internal::device_copy"* %6, i64 0, i32 5, i64 7
  %70 = bitcast i64* %64 to <2 x i64>*
  store <2 x i64> zeroinitializer, <2 x i64>* %70, align 8, !tbaa !6
  %71 = getelementptr inbounds %"struct.Halide::Runtime::Internal::device_copy", %"struct.Halide::Runtime::Internal::device_copy"* %6, i64 0, i32 3, i64 8
  %72 = getelementptr inbounds %"struct.Halide::Runtime::Internal::device_copy", %"struct.Halide::Runtime::Internal::device_copy"* %6, i64 0, i32 4, i64 8
  %73 = getelementptr inbounds %"struct.Halide::Runtime::Internal::device_copy", %"struct.Halide::Runtime::Internal::device_copy"* %6, i64 0, i32 5, i64 8
  %74 = getelementptr inbounds %"struct.Halide::Runtime::Internal::device_copy", %"struct.Halide::Runtime::Internal::device_copy"* %6, i64 0, i32 3, i64 9
  %75 = bitcast i64* %71 to <2 x i64>*
  store <2 x i64> <i64 1, i64 1>, <2 x i64>* %75, align 8, !tbaa !6
  %76 = getelementptr inbounds %"struct.Halide::Runtime::Internal::device_copy", %"struct.Halide::Runtime::Internal::device_copy"* %6, i64 0, i32 4, i64 9
  %77 = bitcast i64* %72 to <2 x i64>*
  store <2 x i64> zeroinitializer, <2 x i64>* %77, align 8, !tbaa !6
  %78 = getelementptr inbounds %"struct.Halide::Runtime::Internal::device_copy", %"struct.Halide::Runtime::Internal::device_copy"* %6, i64 0, i32 5, i64 9
  %79 = bitcast i64* %73 to <2 x i64>*
  store <2 x i64> zeroinitializer, <2 x i64>* %79, align 8, !tbaa !6
  %80 = getelementptr inbounds %"struct.Halide::Runtime::Internal::device_copy", %"struct.Halide::Runtime::Internal::device_copy"* %6, i64 0, i32 3, i64 10
  %81 = getelementptr inbounds %"struct.Halide::Runtime::Internal::device_copy", %"struct.Halide::Runtime::Internal::device_copy"* %6, i64 0, i32 4, i64 10
  %82 = getelementptr inbounds %"struct.Halide::Runtime::Internal::device_copy", %"struct.Halide::Runtime::Internal::device_copy"* %6, i64 0, i32 5, i64 10
  %83 = getelementptr inbounds %"struct.Halide::Runtime::Internal::device_copy", %"struct.Halide::Runtime::Internal::device_copy"* %6, i64 0, i32 3, i64 11
  %84 = bitcast i64* %80 to <2 x i64>*
  store <2 x i64> <i64 1, i64 1>, <2 x i64>* %84, align 8, !tbaa !6
  %85 = getelementptr inbounds %"struct.Halide::Runtime::Internal::device_copy", %"struct.Halide::Runtime::Internal::device_copy"* %6, i64 0, i32 4, i64 11
  %86 = bitcast i64* %81 to <2 x i64>*
  store <2 x i64> zeroinitializer, <2 x i64>* %86, align 8, !tbaa !6
  %87 = getelementptr inbounds %"struct.Halide::Runtime::Internal::device_copy", %"struct.Halide::Runtime::Internal::device_copy"* %6, i64 0, i32 5, i64 11
  %88 = bitcast i64* %82 to <2 x i64>*
  store <2 x i64> zeroinitializer, <2 x i64>* %88, align 8, !tbaa !6
  %89 = getelementptr inbounds %"struct.Halide::Runtime::Internal::device_copy", %"struct.Halide::Runtime::Internal::device_copy"* %6, i64 0, i32 3, i64 12
  %90 = getelementptr inbounds %"struct.Halide::Runtime::Internal::device_copy", %"struct.Halide::Runtime::Internal::device_copy"* %6, i64 0, i32 4, i64 12
  %91 = getelementptr inbounds %"struct.Halide::Runtime::Internal::device_copy", %"struct.Halide::Runtime::Internal::device_copy"* %6, i64 0, i32 5, i64 12
  %92 = getelementptr inbounds %"struct.Halide::Runtime::Internal::device_copy", %"struct.Halide::Runtime::Internal::device_copy"* %6, i64 0, i32 3, i64 13
  %93 = bitcast i64* %89 to <2 x i64>*
  store <2 x i64> <i64 1, i64 1>, <2 x i64>* %93, align 8, !tbaa !6
  %94 = getelementptr inbounds %"struct.Halide::Runtime::Internal::device_copy", %"struct.Halide::Runtime::Internal::device_copy"* %6, i64 0, i32 4, i64 13
  %95 = bitcast i64* %90 to <2 x i64>*
  store <2 x i64> zeroinitializer, <2 x i64>* %95, align 8, !tbaa !6
  %96 = getelementptr inbounds %"struct.Halide::Runtime::Internal::device_copy", %"struct.Halide::Runtime::Internal::device_copy"* %6, i64 0, i32 5, i64 13
  %97 = bitcast i64* %91 to <2 x i64>*
  store <2 x i64> zeroinitializer, <2 x i64>* %97, align 8, !tbaa !6
  %98 = getelementptr inbounds %"struct.Halide::Runtime::Internal::device_copy", %"struct.Halide::Runtime::Internal::device_copy"* %6, i64 0, i32 3, i64 14
  %99 = getelementptr inbounds %"struct.Halide::Runtime::Internal::device_copy", %"struct.Halide::Runtime::Internal::device_copy"* %6, i64 0, i32 4, i64 14
  %100 = getelementptr inbounds %"struct.Halide::Runtime::Internal::device_copy", %"struct.Halide::Runtime::Internal::device_copy"* %6, i64 0, i32 5, i64 14
  %101 = getelementptr inbounds %"struct.Halide::Runtime::Internal::device_copy", %"struct.Halide::Runtime::Internal::device_copy"* %6, i64 0, i32 3, i64 15
  %102 = bitcast i64* %98 to <2 x i64>*
  store <2 x i64> <i64 1, i64 1>, <2 x i64>* %102, align 8, !tbaa !6
  %103 = getelementptr inbounds %"struct.Halide::Runtime::Internal::device_copy", %"struct.Halide::Runtime::Internal::device_copy"* %6, i64 0, i32 4, i64 15
  %104 = bitcast i64* %99 to <2 x i64>*
  store <2 x i64> zeroinitializer, <2 x i64>* %104, align 8, !tbaa !6
  %105 = getelementptr inbounds %"struct.Halide::Runtime::Internal::device_copy", %"struct.Halide::Runtime::Internal::device_copy"* %6, i64 0, i32 5, i64 15
  %106 = bitcast i64* %100 to <2 x i64>*
  store <2 x i64> zeroinitializer, <2 x i64>* %106, align 8, !tbaa !6
  %107 = getelementptr inbounds %"struct.Halide::Runtime::Internal::device_copy", %"struct.Halide::Runtime::Internal::device_copy"* %6, i64 0, i32 2
  %108 = getelementptr inbounds %struct.halide_buffer_t, %struct.halide_buffer_t* %1, i64 0, i32 5
  %109 = load i32, i32* %108, align 4, !tbaa !27
  %110 = icmp sgt i32 %109, 0
  br i1 %110, label %111, label %117

111:                                              ; preds = %25
  %112 = getelementptr inbounds %struct.halide_buffer_t, %struct.halide_buffer_t* %1, i64 0, i32 6
  %113 = load %struct.halide_dimension_t*, %struct.halide_dimension_t** %112, align 8, !tbaa !28
  %114 = getelementptr inbounds %struct.halide_buffer_t, %struct.halide_buffer_t* %3, i64 0, i32 6
  %115 = load %struct.halide_dimension_t*, %struct.halide_dimension_t** %114, align 8, !tbaa !28
  %116 = zext i32 %109 to i64
  br label %124

117:                                              ; preds = %124, %25
  %118 = phi i64 [ 0, %25 ], [ %137, %124 ]
  %119 = load i64, i64* %34, align 8, !tbaa !15
  %120 = mul i64 %118, %119
  store i64 %120, i64* %107, align 8, !tbaa !17
  %121 = getelementptr inbounds %struct.halide_buffer_t, %struct.halide_buffer_t* %3, i64 0, i32 5
  %122 = load i32, i32* %121, align 4, !tbaa !27
  %123 = icmp eq i32 %109, %122
  br i1 %123, label %140, label %149

124:                                              ; preds = %111, %124
  %125 = phi i64 [ 0, %111 ], [ %138, %124 ]
  %126 = phi i64 [ 0, %111 ], [ %137, %124 ]
  %127 = getelementptr inbounds %struct.halide_dimension_t, %struct.halide_dimension_t* %113, i64 %125, i32 2
  %128 = load i32, i32* %127, align 4, !tbaa !29
  %129 = sext i32 %128 to i64
  %130 = getelementptr inbounds %struct.halide_dimension_t, %struct.halide_dimension_t* %115, i64 %125, i32 0
  %131 = load i32, i32* %130, align 4, !tbaa !31
  %132 = getelementptr inbounds %struct.halide_dimension_t, %struct.halide_dimension_t* %113, i64 %125, i32 0
  %133 = load i32, i32* %132, align 4, !tbaa !31
  %134 = sub nsw i32 %131, %133
  %135 = sext i32 %134 to i64
  %136 = mul nsw i64 %135, %129
  %137 = add i64 %136, %126
  %138 = add nuw nsw i64 %125, 1
  %139 = icmp eq i64 %138, %116
  br i1 %139, label %117, label %124, !llvm.loop !32

140:                                              ; preds = %117
  %141 = getelementptr inbounds %struct.halide_buffer_t, %struct.halide_buffer_t* %3, i64 0, i32 4, i32 1
  %142 = load i8, i8* %141, align 1, !tbaa !26
  %143 = zext i8 %142 to i32
  %144 = add nuw nsw i32 %143, 7
  %145 = lshr i32 %144, 3
  %146 = icmp ne i32 %32, %145
  %147 = icmp sgt i32 %109, 16
  %148 = or i1 %147, %146
  br i1 %148, label %149, label %151

149:                                              ; preds = %140, %117
  %150 = bitcast %"struct.Halide::Runtime::Internal::device_copy"* %0 to i8*
  tail call void @llvm.memset.p0i8.i64(i8* nonnull align 8 dereferenceable(416) %150, i8 0, i64 416, i1 false)
  br label %384

151:                                              ; preds = %140
  %152 = icmp eq i64 %119, 0
  br i1 %152, label %160, label %153

153:                                              ; preds = %151
  br i1 %110, label %154, label %382

154:                                              ; preds = %153
  %155 = getelementptr inbounds %struct.halide_buffer_t, %struct.halide_buffer_t* %3, i64 0, i32 6
  %156 = load %struct.halide_dimension_t*, %struct.halide_dimension_t** %155, align 8, !tbaa !28
  %157 = getelementptr inbounds %struct.halide_buffer_t, %struct.halide_buffer_t* %1, i64 0, i32 6
  %158 = load %struct.halide_dimension_t*, %struct.halide_dimension_t** %157, align 8, !tbaa !28
  %159 = zext i32 %109 to i64
  br label %250

160:                                              ; preds = %151
  %161 = bitcast %"struct.Halide::Runtime::Internal::device_copy"* %0 to i8*
  tail call void @llvm.memset.p0i8.i64(i8* nonnull align 8 dereferenceable(416) %161, i8 0, i64 416, i1 false)
  br label %384

162:                                              ; preds = %282
  %163 = load i64, i64* %34, align 8, !tbaa !15
  %164 = load i64, i64* %36, align 8, !tbaa !6
  %165 = load i64, i64* %37, align 8
  %166 = icmp eq i64 %163, %164
  %167 = icmp eq i64 %163, %165
  %168 = and i1 %166, %167
  br i1 %168, label %169, label %382

169:                                              ; preds = %162
  %170 = load i64, i64* %67, align 8, !tbaa !6
  %171 = load i64, i64* %69, align 8, !tbaa !6
  %172 = load i64, i64* %71, align 8, !tbaa !6
  %173 = load i64, i64* %72, align 8, !tbaa !6
  %174 = load i64, i64* %73, align 8, !tbaa !6
  %175 = load i64, i64* %74, align 8, !tbaa !6
  %176 = load i64, i64* %76, align 8, !tbaa !6
  %177 = load i64, i64* %78, align 8, !tbaa !6
  %178 = load i64, i64* %80, align 8, !tbaa !6
  %179 = load i64, i64* %81, align 8, !tbaa !6
  %180 = load i64, i64* %82, align 8, !tbaa !6
  %181 = load i64, i64* %83, align 8, !tbaa !6
  %182 = load i64, i64* %85, align 8, !tbaa !6
  %183 = load i64, i64* %87, align 8, !tbaa !6
  %184 = load i64, i64* %89, align 8, !tbaa !6
  %185 = load i64, i64* %90, align 8, !tbaa !6
  %186 = load i64, i64* %91, align 8, !tbaa !6
  %187 = load i64, i64* %92, align 8, !tbaa !6
  %188 = load i64, i64* %94, align 8, !tbaa !6
  %189 = load i64, i64* %96, align 8, !tbaa !6
  %190 = load i64, i64* %98, align 8, !tbaa !6
  %191 = load i64, i64* %99, align 8, !tbaa !6
  %192 = load i64, i64* %100, align 8, !tbaa !6
  %193 = load i64, i64* %101, align 8, !tbaa !6
  %194 = load i64, i64* %103, align 8, !tbaa !6
  %195 = load i64, i64* %105, align 8, !tbaa !6
  %196 = load i64, i64* %35, align 8, !tbaa !6
  %197 = load i64, i64* %38, align 8, !tbaa !6
  %198 = load i64, i64* %40, align 8, !tbaa !6
  %199 = load i64, i64* %42, align 8
  %200 = load i64, i64* %44, align 8, !tbaa !6
  %201 = load i64, i64* %45, align 8, !tbaa !6
  %202 = load i64, i64* %46, align 8, !tbaa !6
  %203 = load i64, i64* %47, align 8, !tbaa !6
  %204 = load i64, i64* %49, align 8, !tbaa !6
  %205 = load i64, i64* %51, align 8, !tbaa !6
  %206 = load i64, i64* %53, align 8, !tbaa !6
  %207 = load i64, i64* %54, align 8, !tbaa !6
  %208 = load i64, i64* %55, align 8, !tbaa !6
  %209 = load i64, i64* %56, align 8, !tbaa !6
  %210 = load i64, i64* %58, align 8, !tbaa !6
  %211 = load i64, i64* %60, align 8, !tbaa !6
  %212 = load i64, i64* %62, align 8, !tbaa !6
  %213 = load i64, i64* %63, align 8, !tbaa !6
  %214 = load i64, i64* %64, align 8, !tbaa !6
  %215 = load i64, i64* %65, align 8, !tbaa !6
  store i64 1, i64* %101, align 8, !tbaa !6
  store i64 0, i64* %103, align 8, !tbaa !6
  store i64 0, i64* %105, align 8, !tbaa !6
  %216 = mul i64 %196, %165
  %217 = icmp eq i64 %216, %198
  %218 = icmp eq i64 %216, %199
  %219 = and i1 %217, %218
  br i1 %219, label %220, label %335

220:                                              ; preds = %169
  %221 = mul i64 %197, %199
  %222 = icmp eq i64 %221, %201
  %223 = icmp eq i64 %221, %202
  %224 = and i1 %222, %223
  br i1 %224, label %225, label %335

225:                                              ; preds = %220
  %226 = mul i64 %200, %202
  %227 = icmp eq i64 %226, %204
  %228 = icmp eq i64 %226, %205
  %229 = and i1 %227, %228
  br i1 %229, label %230, label %335

230:                                              ; preds = %225
  %231 = mul i64 %203, %205
  %232 = icmp eq i64 %231, %207
  %233 = icmp eq i64 %231, %208
  %234 = and i1 %232, %233
  br i1 %234, label %235, label %335

235:                                              ; preds = %230
  %236 = mul i64 %206, %208
  %237 = icmp eq i64 %236, %210
  %238 = icmp eq i64 %236, %211
  %239 = and i1 %237, %238
  br i1 %239, label %240, label %335

240:                                              ; preds = %235
  %241 = mul i64 %209, %211
  %242 = icmp eq i64 %241, %213
  %243 = icmp eq i64 %241, %214
  %244 = and i1 %242, %243
  br i1 %244, label %245, label %335

245:                                              ; preds = %240
  %246 = mul i64 %212, %214
  %247 = icmp eq i64 %246, %170
  %248 = icmp eq i64 %246, %171
  %249 = and i1 %247, %248
  br i1 %249, label %304, label %335

250:                                              ; preds = %154, %282
  %251 = phi i64 [ 0, %154 ], [ %289, %282 ]
  %252 = getelementptr inbounds %struct.halide_dimension_t, %struct.halide_dimension_t* %156, i64 %251, i32 2
  %253 = load i32, i32* %252, align 4, !tbaa !29
  %254 = sext i32 %253 to i64
  %255 = mul nsw i64 %254, %33
  %256 = getelementptr inbounds %struct.halide_dimension_t, %struct.halide_dimension_t* %158, i64 %251, i32 2
  %257 = load i32, i32* %256, align 4, !tbaa !29
  %258 = sext i32 %257 to i64
  %259 = mul nsw i64 %258, %33
  %260 = icmp eq i64 %251, 0
  br i1 %260, label %276, label %261

261:                                              ; preds = %250
  %262 = icmp eq i64 %255, 0
  br i1 %262, label %263, label %265

263:                                              ; preds = %261
  %264 = trunc i64 %251 to i32
  br label %276

265:                                              ; preds = %261, %270
  %266 = phi i64 [ %271, %270 ], [ 0, %261 ]
  %267 = getelementptr inbounds %"struct.Halide::Runtime::Internal::device_copy", %"struct.Halide::Runtime::Internal::device_copy"* %6, i64 0, i32 5, i64 %266
  %268 = load i64, i64* %267, align 8, !tbaa !6
  %269 = icmp ult i64 %255, %268
  br i1 %269, label %273, label %270

270:                                              ; preds = %265
  %271 = add nuw nsw i64 %266, 1
  %272 = icmp eq i64 %271, %251
  br i1 %272, label %273, label %265, !llvm.loop !33

273:                                              ; preds = %265, %270
  %274 = phi i64 [ %251, %270 ], [ %266, %265 ]
  %275 = trunc i64 %274 to i32
  br label %276

276:                                              ; preds = %263, %273, %250
  %277 = phi i32 [ 0, %250 ], [ %275, %273 ], [ %264, %263 ]
  %278 = zext i32 %277 to i64
  %279 = icmp ugt i64 %251, %278
  br i1 %279, label %280, label %282

280:                                              ; preds = %276
  %281 = sext i32 %277 to i64
  br label %291

282:                                              ; preds = %291, %276
  %283 = getelementptr inbounds %struct.halide_dimension_t, %struct.halide_dimension_t* %156, i64 %251, i32 1
  %284 = load i32, i32* %283, align 4, !tbaa !34
  %285 = sext i32 %284 to i64
  %286 = getelementptr inbounds %"struct.Halide::Runtime::Internal::device_copy", %"struct.Halide::Runtime::Internal::device_copy"* %6, i64 0, i32 3, i64 %278
  store i64 %285, i64* %286, align 8, !tbaa !6
  %287 = getelementptr inbounds %"struct.Halide::Runtime::Internal::device_copy", %"struct.Halide::Runtime::Internal::device_copy"* %6, i64 0, i32 5, i64 %278
  store i64 %255, i64* %287, align 8, !tbaa !6
  %288 = getelementptr inbounds %"struct.Halide::Runtime::Internal::device_copy", %"struct.Halide::Runtime::Internal::device_copy"* %6, i64 0, i32 4, i64 %278
  store i64 %259, i64* %288, align 8, !tbaa !6
  %289 = add nuw nsw i64 %251, 1
  %290 = icmp eq i64 %289, %159
  br i1 %290, label %162, label %250, !llvm.loop !35

291:                                              ; preds = %280, %291
  %292 = phi i64 [ %251, %280 ], [ %293, %291 ]
  %293 = add nsw i64 %292, -1
  %294 = getelementptr inbounds %"struct.Halide::Runtime::Internal::device_copy", %"struct.Halide::Runtime::Internal::device_copy"* %6, i64 0, i32 3, i64 %293
  %295 = load i64, i64* %294, align 8, !tbaa !6
  %296 = getelementptr inbounds %"struct.Halide::Runtime::Internal::device_copy", %"struct.Halide::Runtime::Internal::device_copy"* %6, i64 0, i32 3, i64 %292
  store i64 %295, i64* %296, align 8, !tbaa !6
  %297 = getelementptr inbounds %"struct.Halide::Runtime::Internal::device_copy", %"struct.Halide::Runtime::Internal::device_copy"* %6, i64 0, i32 5, i64 %293
  %298 = load i64, i64* %297, align 8, !tbaa !6
  %299 = getelementptr inbounds %"struct.Halide::Runtime::Internal::device_copy", %"struct.Halide::Runtime::Internal::device_copy"* %6, i64 0, i32 5, i64 %292
  store i64 %298, i64* %299, align 8, !tbaa !6
  %300 = getelementptr inbounds %"struct.Halide::Runtime::Internal::device_copy", %"struct.Halide::Runtime::Internal::device_copy"* %6, i64 0, i32 4, i64 %293
  %301 = load i64, i64* %300, align 8, !tbaa !6
  %302 = getelementptr inbounds %"struct.Halide::Runtime::Internal::device_copy", %"struct.Halide::Runtime::Internal::device_copy"* %6, i64 0, i32 4, i64 %292
  store i64 %301, i64* %302, align 8, !tbaa !6
  %303 = icmp sgt i64 %293, %281
  br i1 %303, label %291, label %282, !llvm.loop !36

304:                                              ; preds = %245, %304
  %305 = phi i64 [ %327, %304 ], [ %190, %245 ]
  %306 = phi i64 [ %328, %304 ], [ %189, %245 ]
  %307 = phi i64 [ %329, %304 ], [ %188, %245 ]
  %308 = phi i64 [ %305, %304 ], [ %187, %245 ]
  %309 = phi i64 [ %306, %304 ], [ %186, %245 ]
  %310 = phi i64 [ %307, %304 ], [ %185, %245 ]
  %311 = phi i64 [ %308, %304 ], [ %184, %245 ]
  %312 = phi i64 [ %309, %304 ], [ %183, %245 ]
  %313 = phi i64 [ %310, %304 ], [ %182, %245 ]
  %314 = phi i64 [ %311, %304 ], [ %181, %245 ]
  %315 = phi i64 [ %312, %304 ], [ %180, %245 ]
  %316 = phi i64 [ %313, %304 ], [ %179, %245 ]
  %317 = phi i64 [ %314, %304 ], [ %178, %245 ]
  %318 = phi i64 [ %315, %304 ], [ %177, %245 ]
  %319 = phi i64 [ %316, %304 ], [ %176, %245 ]
  %320 = phi i64 [ %317, %304 ], [ %175, %245 ]
  %321 = phi i64 [ %318, %304 ], [ %174, %245 ]
  %322 = phi i64 [ %319, %304 ], [ %173, %245 ]
  %323 = phi i64 [ %320, %304 ], [ %172, %245 ]
  %324 = phi i64 [ %323, %304 ], [ %215, %245 ]
  %325 = phi i64 [ 0, %304 ], [ %195, %245 ]
  %326 = phi i64 [ 0, %304 ], [ %194, %245 ]
  %327 = phi i64 [ 1, %304 ], [ %193, %245 ]
  %328 = phi i64 [ %325, %304 ], [ %192, %245 ]
  %329 = phi i64 [ %326, %304 ], [ %191, %245 ]
  %330 = phi i64 [ %321, %304 ], [ %171, %245 ]
  %331 = mul i64 %324, %330
  %332 = icmp eq i64 %331, %322
  %333 = icmp eq i64 %331, %321
  %334 = and i1 %332, %333
  br i1 %334, label %304, label %335, !llvm.loop !37

335:                                              ; preds = %304, %245, %240, %235, %230, %225, %220, %169
  %336 = phi i64 [ %215, %169 ], [ %172, %220 ], [ %175, %225 ], [ %178, %230 ], [ %181, %235 ], [ %184, %240 ], [ %187, %245 ], [ %305, %304 ]
  %337 = phi i64 [ %214, %169 ], [ %171, %220 ], [ %174, %225 ], [ %177, %230 ], [ %180, %235 ], [ %183, %240 ], [ %186, %245 ], [ %306, %304 ]
  %338 = phi i64 [ %213, %169 ], [ %170, %220 ], [ %173, %225 ], [ %176, %230 ], [ %179, %235 ], [ %182, %240 ], [ %185, %245 ], [ %307, %304 ]
  %339 = phi i64 [ %212, %169 ], [ %215, %220 ], [ %172, %225 ], [ %175, %230 ], [ %178, %235 ], [ %181, %240 ], [ %184, %245 ], [ %308, %304 ]
  %340 = phi i64 [ %211, %169 ], [ %214, %220 ], [ %171, %225 ], [ %174, %230 ], [ %177, %235 ], [ %180, %240 ], [ %183, %245 ], [ %309, %304 ]
  %341 = phi i64 [ %210, %169 ], [ %213, %220 ], [ %170, %225 ], [ %173, %230 ], [ %176, %235 ], [ %179, %240 ], [ %182, %245 ], [ %310, %304 ]
  %342 = phi i64 [ %209, %169 ], [ %212, %220 ], [ %215, %225 ], [ %172, %230 ], [ %175, %235 ], [ %178, %240 ], [ %181, %245 ], [ %311, %304 ]
  %343 = phi i64 [ %208, %169 ], [ %211, %220 ], [ %214, %225 ], [ %171, %230 ], [ %174, %235 ], [ %177, %240 ], [ %180, %245 ], [ %312, %304 ]
  %344 = phi i64 [ %207, %169 ], [ %210, %220 ], [ %213, %225 ], [ %170, %230 ], [ %173, %235 ], [ %176, %240 ], [ %179, %245 ], [ %313, %304 ]
  %345 = phi i64 [ %206, %169 ], [ %209, %220 ], [ %212, %225 ], [ %215, %230 ], [ %172, %235 ], [ %175, %240 ], [ %178, %245 ], [ %314, %304 ]
  %346 = phi i64 [ %205, %169 ], [ %208, %220 ], [ %211, %225 ], [ %214, %230 ], [ %171, %235 ], [ %174, %240 ], [ %177, %245 ], [ %315, %304 ]
  %347 = phi i64 [ %204, %169 ], [ %207, %220 ], [ %210, %225 ], [ %213, %230 ], [ %170, %235 ], [ %173, %240 ], [ %176, %245 ], [ %316, %304 ]
  %348 = phi i64 [ %203, %169 ], [ %206, %220 ], [ %209, %225 ], [ %212, %230 ], [ %215, %235 ], [ %172, %240 ], [ %175, %245 ], [ %317, %304 ]
  %349 = phi i64 [ %202, %169 ], [ %205, %220 ], [ %208, %225 ], [ %211, %230 ], [ %214, %235 ], [ %171, %240 ], [ %174, %245 ], [ %318, %304 ]
  %350 = phi i64 [ %201, %169 ], [ %204, %220 ], [ %207, %225 ], [ %210, %230 ], [ %213, %235 ], [ %170, %240 ], [ %173, %245 ], [ %319, %304 ]
  %351 = phi i64 [ %200, %169 ], [ %203, %220 ], [ %206, %225 ], [ %209, %230 ], [ %212, %235 ], [ %215, %240 ], [ %172, %245 ], [ %320, %304 ]
  %352 = phi i64 [ %199, %169 ], [ %202, %220 ], [ %205, %225 ], [ %208, %230 ], [ %211, %235 ], [ %214, %240 ], [ %171, %245 ], [ %321, %304 ]
  %353 = phi i64 [ %198, %169 ], [ %201, %220 ], [ %204, %225 ], [ %207, %230 ], [ %210, %235 ], [ %213, %240 ], [ %170, %245 ], [ %322, %304 ]
  %354 = phi i64 [ %197, %169 ], [ %200, %220 ], [ %203, %225 ], [ %206, %230 ], [ %209, %235 ], [ %212, %240 ], [ %215, %245 ], [ %323, %304 ]
  %355 = phi i64 [ %195, %169 ], [ 0, %220 ], [ 0, %225 ], [ 0, %230 ], [ 0, %235 ], [ 0, %240 ], [ 0, %245 ], [ 0, %304 ]
  %356 = phi i64 [ %194, %169 ], [ 0, %220 ], [ 0, %225 ], [ 0, %230 ], [ 0, %235 ], [ 0, %240 ], [ 0, %245 ], [ 0, %304 ]
  %357 = phi i64 [ %193, %169 ], [ 1, %220 ], [ 1, %225 ], [ 1, %230 ], [ 1, %235 ], [ 1, %240 ], [ 1, %245 ], [ 1, %304 ]
  %358 = phi i64 [ %192, %169 ], [ %195, %220 ], [ 0, %225 ], [ 0, %230 ], [ 0, %235 ], [ 0, %240 ], [ 0, %245 ], [ 0, %304 ]
  %359 = phi i64 [ %191, %169 ], [ %194, %220 ], [ 0, %225 ], [ 0, %230 ], [ 0, %235 ], [ 0, %240 ], [ 0, %245 ], [ 0, %304 ]
  %360 = phi i64 [ %190, %169 ], [ %193, %220 ], [ 1, %225 ], [ 1, %230 ], [ 1, %235 ], [ 1, %240 ], [ 1, %245 ], [ 1, %304 ]
  %361 = phi i64 [ %189, %169 ], [ %192, %220 ], [ %195, %225 ], [ 0, %230 ], [ 0, %235 ], [ 0, %240 ], [ 0, %245 ], [ 0, %304 ]
  %362 = phi i64 [ %188, %169 ], [ %191, %220 ], [ %194, %225 ], [ 0, %230 ], [ 0, %235 ], [ 0, %240 ], [ 0, %245 ], [ 0, %304 ]
  %363 = phi i64 [ %187, %169 ], [ %190, %220 ], [ %193, %225 ], [ 1, %230 ], [ 1, %235 ], [ 1, %240 ], [ 1, %245 ], [ 1, %304 ]
  %364 = phi i64 [ %186, %169 ], [ %189, %220 ], [ %192, %225 ], [ %195, %230 ], [ 0, %235 ], [ 0, %240 ], [ 0, %245 ], [ 0, %304 ]
  %365 = phi i64 [ %185, %169 ], [ %188, %220 ], [ %191, %225 ], [ %194, %230 ], [ 0, %235 ], [ 0, %240 ], [ 0, %245 ], [ 0, %304 ]
  %366 = phi i64 [ %184, %169 ], [ %187, %220 ], [ %190, %225 ], [ %193, %230 ], [ 1, %235 ], [ 1, %240 ], [ 1, %245 ], [ 1, %304 ]
  %367 = phi i64 [ %183, %169 ], [ %186, %220 ], [ %189, %225 ], [ %192, %230 ], [ %195, %235 ], [ 0, %240 ], [ 0, %245 ], [ 0, %304 ]
  %368 = phi i64 [ %182, %169 ], [ %185, %220 ], [ %188, %225 ], [ %191, %230 ], [ %194, %235 ], [ 0, %240 ], [ 0, %245 ], [ 0, %304 ]
  %369 = phi i64 [ %181, %169 ], [ %184, %220 ], [ %187, %225 ], [ %190, %230 ], [ %193, %235 ], [ 1, %240 ], [ 1, %245 ], [ 1, %304 ]
  %370 = phi i64 [ %180, %169 ], [ %183, %220 ], [ %186, %225 ], [ %189, %230 ], [ %192, %235 ], [ %195, %240 ], [ 0, %245 ], [ 0, %304 ]
  %371 = phi i64 [ %179, %169 ], [ %182, %220 ], [ %185, %225 ], [ %188, %230 ], [ %191, %235 ], [ %194, %240 ], [ 0, %245 ], [ 0, %304 ]
  %372 = phi i64 [ %178, %169 ], [ %181, %220 ], [ %184, %225 ], [ %187, %230 ], [ %190, %235 ], [ %193, %240 ], [ 1, %245 ], [ 1, %304 ]
  %373 = phi i64 [ %177, %169 ], [ %180, %220 ], [ %183, %225 ], [ %186, %230 ], [ %189, %235 ], [ %192, %240 ], [ %195, %245 ], [ 0, %304 ]
  %374 = phi i64 [ %176, %169 ], [ %179, %220 ], [ %182, %225 ], [ %185, %230 ], [ %188, %235 ], [ %191, %240 ], [ %194, %245 ], [ 0, %304 ]
  %375 = phi i64 [ %175, %169 ], [ %178, %220 ], [ %181, %225 ], [ %184, %230 ], [ %187, %235 ], [ %190, %240 ], [ %193, %245 ], [ 1, %304 ]
  %376 = phi i64 [ %174, %169 ], [ %177, %220 ], [ %180, %225 ], [ %183, %230 ], [ %186, %235 ], [ %189, %240 ], [ %192, %245 ], [ %325, %304 ]
  %377 = phi i64 [ %173, %169 ], [ %176, %220 ], [ %179, %225 ], [ %182, %230 ], [ %185, %235 ], [ %188, %240 ], [ %191, %245 ], [ %326, %304 ]
  %378 = phi i64 [ %172, %169 ], [ %175, %220 ], [ %178, %225 ], [ %181, %230 ], [ %184, %235 ], [ %187, %240 ], [ %190, %245 ], [ %327, %304 ]
  %379 = phi i64 [ %171, %169 ], [ %174, %220 ], [ %177, %225 ], [ %180, %230 ], [ %183, %235 ], [ %186, %240 ], [ %189, %245 ], [ %328, %304 ]
  %380 = phi i64 [ %170, %169 ], [ %173, %220 ], [ %176, %225 ], [ %179, %230 ], [ %182, %235 ], [ %185, %240 ], [ %188, %245 ], [ %329, %304 ]
  %381 = phi i64 [ %216, %169 ], [ %221, %220 ], [ %226, %225 ], [ %231, %230 ], [ %236, %235 ], [ %241, %240 ], [ %246, %245 ], [ %331, %304 ]
  store i64 %381, i64* %34, align 8, !tbaa !15
  store i64 %354, i64* %35, align 8, !tbaa !6
  store i64 %353, i64* %36, align 8, !tbaa !6
  store i64 %352, i64* %37, align 8, !tbaa !6
  store i64 %351, i64* %38, align 8, !tbaa !6
  store i64 %350, i64* %40, align 8, !tbaa !6
  store i64 %349, i64* %42, align 8, !tbaa !6
  store i64 %348, i64* %44, align 8, !tbaa !6
  store i64 %347, i64* %45, align 8, !tbaa !6
  store i64 %346, i64* %46, align 8, !tbaa !6
  store i64 %345, i64* %47, align 8, !tbaa !6
  store i64 %344, i64* %49, align 8, !tbaa !6
  store i64 %343, i64* %51, align 8, !tbaa !6
  store i64 %342, i64* %53, align 8, !tbaa !6
  store i64 %341, i64* %54, align 8, !tbaa !6
  store i64 %340, i64* %55, align 8, !tbaa !6
  store i64 %339, i64* %56, align 8, !tbaa !6
  store i64 %338, i64* %58, align 8, !tbaa !6
  store i64 %337, i64* %60, align 8, !tbaa !6
  store i64 %336, i64* %62, align 8, !tbaa !6
  store i64 %380, i64* %63, align 8, !tbaa !6
  store i64 %379, i64* %64, align 8, !tbaa !6
  store i64 %378, i64* %65, align 8, !tbaa !6
  store i64 %377, i64* %67, align 8, !tbaa !6
  store i64 %376, i64* %69, align 8, !tbaa !6
  store i64 %375, i64* %71, align 8, !tbaa !6
  store i64 %374, i64* %72, align 8, !tbaa !6
  store i64 %373, i64* %73, align 8, !tbaa !6
  store i64 %372, i64* %74, align 8, !tbaa !6
  store i64 %371, i64* %76, align 8, !tbaa !6
  store i64 %370, i64* %78, align 8, !tbaa !6
  store i64 %369, i64* %80, align 8, !tbaa !6
  store i64 %368, i64* %81, align 8, !tbaa !6
  store i64 %367, i64* %82, align 8, !tbaa !6
  store i64 %366, i64* %83, align 8, !tbaa !6
  store i64 %365, i64* %85, align 8, !tbaa !6
  store i64 %364, i64* %87, align 8, !tbaa !6
  store i64 %363, i64* %89, align 8, !tbaa !6
  store i64 %362, i64* %90, align 8, !tbaa !6
  store i64 %361, i64* %91, align 8, !tbaa !6
  store i64 %360, i64* %92, align 8, !tbaa !6
  store i64 %359, i64* %94, align 8, !tbaa !6
  store i64 %358, i64* %96, align 8, !tbaa !6
  store i64 %357, i64* %98, align 8, !tbaa !6
  store i64 %356, i64* %99, align 8, !tbaa !6
  store i64 %355, i64* %100, align 8, !tbaa !6
  br label %382

382:                                              ; preds = %335, %153, %162
  %383 = bitcast %"struct.Halide::Runtime::Internal::device_copy"* %0 to i8*
  call void @llvm.memcpy.p0i8.p0i8.i64(i8* nonnull align 8 dereferenceable(416) %383, i8* nonnull align 8 dereferenceable(416) %7, i64 416, i1 false), !tbaa.struct !39
  br label %384

384:                                              ; preds = %382, %160, %149
  call void @llvm.lifetime.end.p0i8(i64 416, i8* nonnull %7) #12
  ret void
}

; Function Attrs: argmemonly nofree nosync nounwind willreturn writeonly
declare void @llvm.memset.p0i8.i64(i8* nocapture writeonly, i8, i64, i1 immarg) #3

; Function Attrs: argmemonly nofree nosync nounwind willreturn
declare void @llvm.memcpy.p0i8.p0i8.i64(i8* noalias nocapture writeonly, i8* noalias nocapture readonly, i64, i1 immarg) #1

; Function Attrs: nounwind mustprogress
define weak dso_local void @"?make_host_to_device_copy@Internal@Runtime@Halide@@YA?AUdevice_copy@123@PEBUhalide_buffer_t@@@Z"(%"struct.Halide::Runtime::Internal::device_copy"* noalias sret(%"struct.Halide::Runtime::Internal::device_copy") align 8 %0, %struct.halide_buffer_t* %1) local_unnamed_addr #0 {
  tail call void @"?make_buffer_copy@Internal@Runtime@Halide@@YA?AUdevice_copy@123@PEBUhalide_buffer_t@@_N01@Z"(%"struct.Halide::Runtime::Internal::device_copy"* sret(%"struct.Halide::Runtime::Internal::device_copy") align 8 %0, %struct.halide_buffer_t* %1, i1 true, %struct.halide_buffer_t* %1, i1 false) #11
  ret void
}

; Function Attrs: nounwind mustprogress
define weak dso_local void @"?make_device_to_host_copy@Internal@Runtime@Halide@@YA?AUdevice_copy@123@PEBUhalide_buffer_t@@@Z"(%"struct.Halide::Runtime::Internal::device_copy"* noalias sret(%"struct.Halide::Runtime::Internal::device_copy") align 8 %0, %struct.halide_buffer_t* %1) local_unnamed_addr #0 {
  tail call void @"?make_buffer_copy@Internal@Runtime@Halide@@YA?AUdevice_copy@123@PEBUhalide_buffer_t@@_N01@Z"(%"struct.Halide::Runtime::Internal::device_copy"* sret(%"struct.Halide::Runtime::Internal::device_copy") align 8 %0, %struct.halide_buffer_t* %1, i1 false, %struct.halide_buffer_t* %1, i1 true) #11
  ret void
}

; Function Attrs: nounwind
define dso_local i8* @"?d3d12_load_library@@YAPEAXPEBD@Z"(i8* %0) local_unnamed_addr #4 {
  %2 = alloca %"class.Halide::Runtime::Internal::(anonymous namespace)::Printer", align 8
  %3 = tail call i8* @halide_load_library(i8* %0) #10
  %4 = icmp eq i8* %3, null
  br i1 %4, label %5, label %50

5:                                                ; preds = %1
  %6 = bitcast %"class.Halide::Runtime::Internal::(anonymous namespace)::Printer"* %2 to i8*
  call void @llvm.lifetime.start.p0i8(i64 40, i8* nonnull %6) #12
  %7 = getelementptr inbounds %"class.Halide::Runtime::Internal::(anonymous namespace)::Printer", %"class.Halide::Runtime::Internal::(anonymous namespace)::Printer"* %2, i64 0, i32 3
  store i8* null, i8** %7, align 8, !tbaa !41
  %8 = getelementptr inbounds %"class.Halide::Runtime::Internal::(anonymous namespace)::Printer", %"class.Halide::Runtime::Internal::(anonymous namespace)::Printer"* %2, i64 0, i32 4
  store i8 1, i8* %8, align 8, !tbaa !44
  %9 = tail call i8* @malloc(i64 1024) #10
  %10 = getelementptr inbounds %"class.Halide::Runtime::Internal::(anonymous namespace)::Printer", %"class.Halide::Runtime::Internal::(anonymous namespace)::Printer"* %2, i64 0, i32 0
  store i8* %9, i8** %10, align 8, !tbaa !45
  %11 = getelementptr inbounds %"class.Halide::Runtime::Internal::(anonymous namespace)::Printer", %"class.Halide::Runtime::Internal::(anonymous namespace)::Printer"* %2, i64 0, i32 1
  %12 = icmp eq i8* %9, null
  br i1 %12, label %15, label %13

13:                                               ; preds = %5
  %14 = getelementptr inbounds i8, i8* %9, i64 1023
  store i8 0, i8* %14, align 1, !tbaa !40
  br label %15

15:                                               ; preds = %5, %13
  %16 = phi i8* [ %14, %13 ], [ null, %5 ]
  %17 = getelementptr inbounds %"class.Halide::Runtime::Internal::(anonymous namespace)::Printer", %"class.Halide::Runtime::Internal::(anonymous namespace)::Printer"* %2, i64 0, i32 2
  store i8* %16, i8** %17, align 8
  %18 = tail call i8* @halide_string_to_string(i8* %9, i8* %16, i8* nonnull getelementptr inbounds ([33 x i8], [33 x i8]* @"??_C@_0CB@OJMCFILH@Unable?5to?5load?5runtime?5library?3?5@", i64 0, i64 0)) #10
  %19 = icmp eq i8* %0, null
  br i1 %19, label %20, label %22

20:                                               ; preds = %15
  %21 = tail call i8* @halide_string_to_string(i8* %18, i8* %16, i8* getelementptr inbounds ([10 x i8], [10 x i8]* @"??_C@_09CGLEKJAK@?$DMnullptr?$DO?$AA@", i64 0, i64 0)) #10
  br label %24

22:                                               ; preds = %15
  %23 = tail call i8* @halide_string_to_string(i8* %18, i8* %16, i8* nonnull %0) #10
  br label %24

24:                                               ; preds = %20, %22
  %25 = phi i8* [ %23, %22 ], [ %21, %20 ]
  %26 = tail call i8* @halide_string_to_string(i8* %25, i8* %16, i8* nonnull getelementptr inbounds ([2 x i8], [2 x i8]* @"??_C@_01EEMJAFIK@?6?$AA@", i64 0, i64 0)) #10
  %27 = tail call i8* @halide_string_to_string(i8* %26, i8* %16, i8* nonnull getelementptr inbounds ([36 x i8], [36 x i8]* @"??_C@_0CE@MGMMPJGA@vvvvv?5D3D12?5Begin?5Debug?5Dump?5vvv@", i64 0, i64 0)) #10
  store i8* %27, i8** %11, align 8, !tbaa !46
  call fastcc void @"?d3d12_debug_dump@@YAXAEAV?$Printer@$00$0EAA@@?A0x2B71E647@Internal@Runtime@Halide@@@Z"(%"class.Halide::Runtime::Internal::(anonymous namespace)::Printer"* nonnull align 8 dereferenceable(40) %2) #11
  %28 = load i8*, i8** %17, align 8, !tbaa !47
  %29 = load i8*, i8** %11, align 8, !tbaa !46
  %30 = tail call i8* @halide_string_to_string(i8* %29, i8* %28, i8* nonnull getelementptr inbounds ([36 x i8], [36 x i8]* @"??_C@_0CE@PCPJBLP@?$FO?$FO?$FO?$FO?$FO?5D3D12?5?5End?5?5Debug?5Dump?5?$FO?$FO?$FO@", i64 0, i64 0)) #10
  %31 = tail call i8* @halide_string_to_string(i8* %30, i8* %28, i8* nonnull getelementptr inbounds ([16 x i8], [16 x i8]* @"??_C@_0BA@FGKOLOB@D3D12?5HALT?5?$CB?$CB?$CB?6?$AA@", i64 0, i64 0)) #10
  store i8* %31, i8** %11, align 8, !tbaa !46
  %32 = load i8*, i8** %10, align 8, !tbaa !45
  %33 = icmp eq i8* %32, null
  %34 = load i8*, i8** %7, align 8, !tbaa !41
  br i1 %33, label %35, label %36

35:                                               ; preds = %24
  tail call void @halide_error(i8* %34, i8* getelementptr inbounds ([35 x i8], [35 x i8]* @"??_C@_0CD@IKIJNBLF@Printer?5buffer?5allocation?5failed@", i64 0, i64 0)) #10
  br label %42

36:                                               ; preds = %24
  %37 = ptrtoint i8* %31 to i64
  %38 = ptrtoint i8* %32 to i64
  %39 = add i64 %37, 1
  %40 = sub i64 %39, %38
  %41 = tail call i32 @halide_msan_annotate_memory_is_initialized(i8* %34, i8* nonnull %32, i64 %40) #10
  tail call void @halide_error(i8* %34, i8* nonnull %32) #10
  br label %42

42:                                               ; preds = %36, %35
  %43 = load i8, i8* %8, align 8, !tbaa !44, !range !48
  %44 = icmp eq i8 %43, 0
  %45 = getelementptr inbounds %"class.Halide::Runtime::Internal::(anonymous namespace)::Printer", %"class.Halide::Runtime::Internal::(anonymous namespace)::Printer"* %2, i64 0, i32 5, i64 0
  %46 = icmp eq i8* %32, %45
  %47 = or i1 %44, %46
  br i1 %47, label %49, label %48

48:                                               ; preds = %42
  call void @free(i8* %32) #10
  br label %49

49:                                               ; preds = %42, %48
  call void @llvm.lifetime.end.p0i8(i64 40, i8* nonnull %6) #12
  br label %50

50:                                               ; preds = %1, %49
  ret i8* %3
}

declare extern_weak i8* @halide_load_library(i8*) local_unnamed_addr #2

; Function Attrs: nounwind mustprogress
define internal fastcc void @"?d3d12_debug_dump@@YAXAEAV?$Printer@$00$0EAA@@?A0x2B71E647@Internal@Runtime@Halide@@@Z"(%"class.Halide::Runtime::Internal::(anonymous namespace)::Printer"* nocapture nonnull align 8 dereferenceable(40) %0) unnamed_addr #0 {
  %2 = alloca %struct.DXGI_ADAPTER_DESC1, align 8
  %3 = alloca [128 x i8], align 1
  %4 = load %struct.halide_d3d12compute_device*, %struct.halide_d3d12compute_device** @"?device@D3D12Compute@Internal@Runtime@Halide@@3PEAUhalide_d3d12compute_device@@EA", align 8, !tbaa !49
  %5 = icmp eq %struct.halide_d3d12compute_device* %4, null
  br i1 %5, label %6, label %12

6:                                                ; preds = %1
  %7 = getelementptr inbounds %"class.Halide::Runtime::Internal::(anonymous namespace)::Printer", %"class.Halide::Runtime::Internal::(anonymous namespace)::Printer"* %0, i64 0, i32 2
  %8 = load i8*, i8** %7, align 8, !tbaa !47
  %9 = getelementptr inbounds %"class.Halide::Runtime::Internal::(anonymous namespace)::Printer", %"class.Halide::Runtime::Internal::(anonymous namespace)::Printer"* %0, i64 0, i32 1
  %10 = load i8*, i8** %9, align 8, !tbaa !46
  %11 = tail call i8* @halide_string_to_string(i8* %10, i8* %8, i8* nonnull getelementptr inbounds ([38 x i8], [38 x i8]* @"??_C@_0CG@BDJKEANK@Debug?5info?5not?5available?3?5no?5dev@", i64 0, i64 0)) #10
  store i8* %11, i8** %9, align 8, !tbaa !46
  br label %63

12:                                               ; preds = %1
  %13 = load %struct.IDXGIAdapter1*, %struct.IDXGIAdapter1** @"?dxgiAdapter@D3D12Compute@Internal@Runtime@Halide@@3PEAUIDXGIAdapter1@@EA", align 8, !tbaa !49
  %14 = icmp eq %struct.IDXGIAdapter1* %13, null
  br i1 %14, label %15, label %17

15:                                               ; preds = %12
  tail call void @halide_print(i8* null, i8* getelementptr inbounds ([125 x i8], [125 x i8]* @"??_C@_0HN@LLGMPKNO@?1media?1maaz?1Data?1Repos?1rake?1Hali@", i64 0, i64 0)) #10
  tail call void @abort() #10
  %16 = load %struct.IDXGIAdapter1*, %struct.IDXGIAdapter1** @"?dxgiAdapter@D3D12Compute@Internal@Runtime@Halide@@3PEAUIDXGIAdapter1@@EA", align 8, !tbaa !49
  br label %17

17:                                               ; preds = %12, %15
  %18 = phi %struct.IDXGIAdapter1* [ %13, %12 ], [ %16, %15 ]
  %19 = bitcast %struct.DXGI_ADAPTER_DESC1* %2 to i8*
  call void @llvm.lifetime.start.p0i8(i64 312, i8* nonnull %19) #12
  call void @llvm.memset.p0i8.i64(i8* nonnull align 8 dereferenceable(312) %19, i8 0, i64 312, i1 false)
  %20 = bitcast %struct.IDXGIAdapter1* %18 to i32 (%struct.IDXGIAdapter1*, %struct.DXGI_ADAPTER_DESC1*)***
  %21 = load i32 (%struct.IDXGIAdapter1*, %struct.DXGI_ADAPTER_DESC1*)**, i32 (%struct.IDXGIAdapter1*, %struct.DXGI_ADAPTER_DESC1*)*** %20, align 8, !tbaa !50
  %22 = getelementptr inbounds i32 (%struct.IDXGIAdapter1*, %struct.DXGI_ADAPTER_DESC1*)*, i32 (%struct.IDXGIAdapter1*, %struct.DXGI_ADAPTER_DESC1*)** %21, i64 10
  %23 = load i32 (%struct.IDXGIAdapter1*, %struct.DXGI_ADAPTER_DESC1*)*, i32 (%struct.IDXGIAdapter1*, %struct.DXGI_ADAPTER_DESC1*)** %22, align 8
  %24 = call i32 %23(%struct.IDXGIAdapter1* nonnull dereferenceable(8) %18, %struct.DXGI_ADAPTER_DESC1* nonnull %2) #10
  %25 = icmp slt i32 %24, 0
  br i1 %25, label %26, label %32

26:                                               ; preds = %17
  %27 = getelementptr inbounds %"class.Halide::Runtime::Internal::(anonymous namespace)::Printer", %"class.Halide::Runtime::Internal::(anonymous namespace)::Printer"* %0, i64 0, i32 2
  %28 = load i8*, i8** %27, align 8, !tbaa !47
  %29 = getelementptr inbounds %"class.Halide::Runtime::Internal::(anonymous namespace)::Printer", %"class.Halide::Runtime::Internal::(anonymous namespace)::Printer"* %0, i64 0, i32 1
  %30 = load i8*, i8** %29, align 8, !tbaa !46
  %31 = call i8* @halide_string_to_string(i8* %30, i8* %28, i8* nonnull getelementptr inbounds ([58 x i8], [58 x i8]* @"??_C@_0DK@KDCNPKGG@Unable?5to?5retrieve?5information?5a@", i64 0, i64 0)) #10
  store i8* %31, i8** %29, align 8, !tbaa !46
  br label %62

32:                                               ; preds = %17
  %33 = call i8* @malloc(i64 65536) #10
  %34 = icmp eq i8* %33, null
  br i1 %34, label %35, label %41

35:                                               ; preds = %32
  %36 = getelementptr inbounds %"class.Halide::Runtime::Internal::(anonymous namespace)::Printer", %"class.Halide::Runtime::Internal::(anonymous namespace)::Printer"* %0, i64 0, i32 2
  %37 = load i8*, i8** %36, align 8, !tbaa !47
  %38 = getelementptr inbounds %"class.Halide::Runtime::Internal::(anonymous namespace)::Printer", %"class.Halide::Runtime::Internal::(anonymous namespace)::Printer"* %0, i64 0, i32 1
  %39 = load i8*, i8** %38, align 8, !tbaa !46
  %40 = call i8* @halide_string_to_string(i8* %39, i8* %37, i8* nonnull getelementptr inbounds ([47 x i8], [47 x i8]* @"??_C@_0CP@JMHIFPPF@Unable?5to?5allocate?5memory?5for?5th@", i64 0, i64 0)) #10
  store i8* %40, i8** %38, align 8, !tbaa !46
  br label %62

41:                                               ; preds = %32
  %42 = getelementptr inbounds [128 x i8], [128 x i8]* %3, i64 0, i64 0
  call void @llvm.lifetime.start.p0i8(i64 128, i8* nonnull %42) #12
  br label %54

43:                                               ; preds = %54
  %44 = getelementptr inbounds [128 x i8], [128 x i8]* %3, i64 0, i64 127
  store i8 0, i8* %44, align 1, !tbaa !40
  %45 = getelementptr inbounds %"class.Halide::Runtime::Internal::(anonymous namespace)::Printer", %"class.Halide::Runtime::Internal::(anonymous namespace)::Printer"* %0, i64 0, i32 2
  %46 = load i8*, i8** %45, align 8, !tbaa !47
  %47 = getelementptr inbounds %"class.Halide::Runtime::Internal::(anonymous namespace)::Printer", %"class.Halide::Runtime::Internal::(anonymous namespace)::Printer"* %0, i64 0, i32 1
  %48 = load i8*, i8** %47, align 8, !tbaa !46
  %49 = call i8* @halide_string_to_string(i8* %48, i8* %46, i8* nonnull getelementptr inbounds ([23 x i8], [23 x i8]* @"??_C@_0BH@CHHGHFME@D3D12?5Device?5Adapter?3?5?$AA@", i64 0, i64 0)) #10
  store i8* %49, i8** %47, align 8, !tbaa !46
  %50 = load i8*, i8** %45, align 8, !tbaa !47
  %51 = call i8* @halide_string_to_string(i8* %49, i8* %50, i8* nonnull %42) #10
  store i8* %51, i8** %47, align 8, !tbaa !46
  %52 = load i8*, i8** %45, align 8, !tbaa !47
  %53 = call i8* @halide_string_to_string(i8* %51, i8* %52, i8* nonnull getelementptr inbounds ([2 x i8], [2 x i8]* @"??_C@_01EEMJAFIK@?6?$AA@", i64 0, i64 0)) #10
  store i8* %53, i8** %47, align 8, !tbaa !46
  call void @llvm.lifetime.end.p0i8(i64 128, i8* nonnull %42) #12
  br label %62

54:                                               ; preds = %41, %54
  %55 = phi i64 [ 0, %41 ], [ %60, %54 ]
  %56 = getelementptr inbounds %struct.DXGI_ADAPTER_DESC1, %struct.DXGI_ADAPTER_DESC1* %2, i64 0, i32 0, i64 %55
  %57 = load i16, i16* %56, align 2, !tbaa !52
  %58 = trunc i16 %57 to i8
  %59 = getelementptr inbounds [128 x i8], [128 x i8]* %3, i64 0, i64 %55
  store i8 %58, i8* %59, align 1, !tbaa !40
  %60 = add nuw nsw i64 %55, 1
  %61 = icmp eq i64 %60, 128
  br i1 %61, label %43, label %54, !llvm.loop !53

62:                                               ; preds = %35, %43, %26
  call void @llvm.lifetime.end.p0i8(i64 312, i8* nonnull %19) #12
  br label %63

63:                                               ; preds = %62, %6
  ret void
}

; Function Attrs: nounwind
define dso_local i8* @"?d3d12_get_library_symbol@@YAPEAXPEAXPEBD@Z"(i8* %0, i8* %1) local_unnamed_addr #4 {
  %3 = alloca %"class.Halide::Runtime::Internal::(anonymous namespace)::Printer", align 8
  %4 = tail call i8* @halide_get_library_symbol(i8* %0, i8* %1) #10
  %5 = icmp eq i8* %4, null
  br i1 %5, label %6, label %51

6:                                                ; preds = %2
  %7 = bitcast %"class.Halide::Runtime::Internal::(anonymous namespace)::Printer"* %3 to i8*
  call void @llvm.lifetime.start.p0i8(i64 40, i8* nonnull %7) #12
  %8 = getelementptr inbounds %"class.Halide::Runtime::Internal::(anonymous namespace)::Printer", %"class.Halide::Runtime::Internal::(anonymous namespace)::Printer"* %3, i64 0, i32 3
  store i8* null, i8** %8, align 8, !tbaa !41
  %9 = getelementptr inbounds %"class.Halide::Runtime::Internal::(anonymous namespace)::Printer", %"class.Halide::Runtime::Internal::(anonymous namespace)::Printer"* %3, i64 0, i32 4
  store i8 1, i8* %9, align 8, !tbaa !44
  %10 = tail call i8* @malloc(i64 1024) #10
  %11 = getelementptr inbounds %"class.Halide::Runtime::Internal::(anonymous namespace)::Printer", %"class.Halide::Runtime::Internal::(anonymous namespace)::Printer"* %3, i64 0, i32 0
  store i8* %10, i8** %11, align 8, !tbaa !45
  %12 = getelementptr inbounds %"class.Halide::Runtime::Internal::(anonymous namespace)::Printer", %"class.Halide::Runtime::Internal::(anonymous namespace)::Printer"* %3, i64 0, i32 1
  %13 = icmp eq i8* %10, null
  br i1 %13, label %16, label %14

14:                                               ; preds = %6
  %15 = getelementptr inbounds i8, i8* %10, i64 1023
  store i8 0, i8* %15, align 1, !tbaa !40
  br label %16

16:                                               ; preds = %6, %14
  %17 = phi i8* [ %15, %14 ], [ null, %6 ]
  %18 = getelementptr inbounds %"class.Halide::Runtime::Internal::(anonymous namespace)::Printer", %"class.Halide::Runtime::Internal::(anonymous namespace)::Printer"* %3, i64 0, i32 2
  store i8* %17, i8** %18, align 8
  %19 = tail call i8* @halide_string_to_string(i8* %10, i8* %17, i8* nonnull getelementptr inbounds ([19 x i8], [19 x i8]* @"??_C@_0BD@FEGNPKLO@Symbol?5not?5found?3?5?$AA@", i64 0, i64 0)) #10
  %20 = icmp eq i8* %1, null
  br i1 %20, label %21, label %23

21:                                               ; preds = %16
  %22 = tail call i8* @halide_string_to_string(i8* %19, i8* %17, i8* getelementptr inbounds ([10 x i8], [10 x i8]* @"??_C@_09CGLEKJAK@?$DMnullptr?$DO?$AA@", i64 0, i64 0)) #10
  br label %25

23:                                               ; preds = %16
  %24 = tail call i8* @halide_string_to_string(i8* %19, i8* %17, i8* nonnull %1) #10
  br label %25

25:                                               ; preds = %21, %23
  %26 = phi i8* [ %24, %23 ], [ %22, %21 ]
  %27 = tail call i8* @halide_string_to_string(i8* %26, i8* %17, i8* nonnull getelementptr inbounds ([2 x i8], [2 x i8]* @"??_C@_01EEMJAFIK@?6?$AA@", i64 0, i64 0)) #10
  %28 = tail call i8* @halide_string_to_string(i8* %27, i8* %17, i8* nonnull getelementptr inbounds ([36 x i8], [36 x i8]* @"??_C@_0CE@MGMMPJGA@vvvvv?5D3D12?5Begin?5Debug?5Dump?5vvv@", i64 0, i64 0)) #10
  store i8* %28, i8** %12, align 8, !tbaa !46
  call fastcc void @"?d3d12_debug_dump@@YAXAEAV?$Printer@$00$0EAA@@?A0x2B71E647@Internal@Runtime@Halide@@@Z"(%"class.Halide::Runtime::Internal::(anonymous namespace)::Printer"* nonnull align 8 dereferenceable(40) %3) #11
  %29 = load i8*, i8** %18, align 8, !tbaa !47
  %30 = load i8*, i8** %12, align 8, !tbaa !46
  %31 = tail call i8* @halide_string_to_string(i8* %30, i8* %29, i8* nonnull getelementptr inbounds ([36 x i8], [36 x i8]* @"??_C@_0CE@PCPJBLP@?$FO?$FO?$FO?$FO?$FO?5D3D12?5?5End?5?5Debug?5Dump?5?$FO?$FO?$FO@", i64 0, i64 0)) #10
  %32 = tail call i8* @halide_string_to_string(i8* %31, i8* %29, i8* nonnull getelementptr inbounds ([16 x i8], [16 x i8]* @"??_C@_0BA@FGKOLOB@D3D12?5HALT?5?$CB?$CB?$CB?6?$AA@", i64 0, i64 0)) #10
  store i8* %32, i8** %12, align 8, !tbaa !46
  %33 = load i8*, i8** %11, align 8, !tbaa !45
  %34 = icmp eq i8* %33, null
  %35 = load i8*, i8** %8, align 8, !tbaa !41
  br i1 %34, label %36, label %37

36:                                               ; preds = %25
  tail call void @halide_error(i8* %35, i8* getelementptr inbounds ([35 x i8], [35 x i8]* @"??_C@_0CD@IKIJNBLF@Printer?5buffer?5allocation?5failed@", i64 0, i64 0)) #10
  br label %43

37:                                               ; preds = %25
  %38 = ptrtoint i8* %32 to i64
  %39 = ptrtoint i8* %33 to i64
  %40 = add i64 %38, 1
  %41 = sub i64 %40, %39
  %42 = tail call i32 @halide_msan_annotate_memory_is_initialized(i8* %35, i8* nonnull %33, i64 %41) #10
  tail call void @halide_error(i8* %35, i8* nonnull %33) #10
  br label %43

43:                                               ; preds = %37, %36
  %44 = load i8, i8* %9, align 8, !tbaa !44, !range !48
  %45 = icmp eq i8 %44, 0
  %46 = getelementptr inbounds %"class.Halide::Runtime::Internal::(anonymous namespace)::Printer", %"class.Halide::Runtime::Internal::(anonymous namespace)::Printer"* %3, i64 0, i32 5, i64 0
  %47 = icmp eq i8* %33, %46
  %48 = or i1 %45, %47
  br i1 %48, label %50, label %49

49:                                               ; preds = %43
  call void @free(i8* %33) #10
  br label %50

50:                                               ; preds = %43, %49
  call void @llvm.lifetime.end.p0i8(i64 40, i8* nonnull %7) #12
  br label %51

51:                                               ; preds = %2, %50
  ret i8* %4
}

declare extern_weak i8* @halide_get_library_symbol(i8*, i8*) local_unnamed_addr #2

; Function Attrs: nounwind
define weak dso_local i32 @"?wrap_buffer@D3D12Compute@Internal@Runtime@Halide@@YAHPEAXPEAUhalide_buffer_t@@PEAUd3d12_buffer@1234@@Z"(i8* %0, %struct.halide_buffer_t* %1, %"struct.Halide::Runtime::Internal::D3D12Compute::d3d12_buffer"* %2) local_unnamed_addr #4 {
  %4 = alloca %"class.Halide::Runtime::Internal::(anonymous namespace)::Printer", align 8
  %5 = getelementptr inbounds %struct.halide_buffer_t, %struct.halide_buffer_t* %1, i64 0, i32 0
  %6 = load i64, i64* %5, align 8, !tbaa !25
  %7 = icmp eq i64 %6, 0
  br i1 %7, label %11, label %8

8:                                                ; preds = %3
  tail call void @halide_print(i8* %0, i8* getelementptr inbounds ([122 x i8], [122 x i8]* @"??_C@_0HK@DOPNIAMO@?1media?1maaz?1Data?1Repos?1rake?1Hali@", i64 0, i64 0)) #10
  tail call void @abort() #10
  %9 = load i64, i64* %5, align 8, !tbaa !25
  %10 = icmp eq i64 %9, 0
  br i1 %10, label %11, label %244

11:                                               ; preds = %3, %8
  %12 = getelementptr inbounds %"struct.Halide::Runtime::Internal::D3D12Compute::d3d12_buffer", %"struct.Halide::Runtime::Internal::D3D12Compute::d3d12_buffer"* %2, i64 0, i32 0
  %13 = load %struct.ID3D12Resource*, %struct.ID3D12Resource** %12, align 8, !tbaa !54
  %14 = icmp eq %struct.ID3D12Resource* %13, null
  br i1 %14, label %15, label %16

15:                                               ; preds = %11
  tail call void @halide_print(i8* %0, i8* getelementptr inbounds ([130 x i8], [130 x i8]* @"??_C@_0IC@DAJENPLN@?1media?1maaz?1Data?1Repos?1rake?1Hali@", i64 0, i64 0)) #10
  tail call void @abort() #10
  br label %16

16:                                               ; preds = %11, %15
  %17 = getelementptr inbounds %"struct.Halide::Runtime::Internal::D3D12Compute::d3d12_buffer", %"struct.Halide::Runtime::Internal::D3D12Compute::d3d12_buffer"* %2, i64 0, i32 3
  store i32 0, i32* %17, align 8, !tbaa !59
  %18 = getelementptr inbounds %"struct.Halide::Runtime::Internal::D3D12Compute::d3d12_buffer", %"struct.Halide::Runtime::Internal::D3D12Compute::d3d12_buffer"* %2, i64 0, i32 5
  store i32 0, i32* %18, align 8, !tbaa !60
  %19 = getelementptr inbounds %struct.halide_buffer_t, %struct.halide_buffer_t* %1, i64 0, i32 5
  %20 = load i32, i32* %19, align 4, !tbaa !27
  %21 = icmp sgt i32 %20, 0
  br i1 %21, label %25, label %22

22:                                               ; preds = %16
  %23 = getelementptr inbounds %struct.halide_buffer_t, %struct.halide_buffer_t* %1, i64 0, i32 4, i32 1
  %24 = load i8, i8* %23, align 1, !tbaa !26
  br label %68

25:                                               ; preds = %16
  %26 = getelementptr inbounds %struct.halide_buffer_t, %struct.halide_buffer_t* %1, i64 0, i32 6
  %27 = load %struct.halide_dimension_t*, %struct.halide_dimension_t** %26, align 8, !tbaa !28
  %28 = zext i32 %20 to i64
  br label %29

29:                                               ; preds = %43, %25
  %30 = phi i64 [ 0, %25 ], [ %45, %43 ]
  %31 = phi i64 [ 0, %25 ], [ %44, %43 ]
  %32 = getelementptr inbounds %struct.halide_dimension_t, %struct.halide_dimension_t* %27, i64 %30, i32 2
  %33 = load i32, i32* %32, align 4, !tbaa !29
  %34 = icmp sgt i32 %33, 0
  br i1 %34, label %35, label %43

35:                                               ; preds = %29
  %36 = zext i32 %33 to i64
  %37 = getelementptr inbounds %struct.halide_dimension_t, %struct.halide_dimension_t* %27, i64 %30, i32 1
  %38 = load i32, i32* %37, align 4, !tbaa !34
  %39 = add nsw i32 %38, -1
  %40 = zext i32 %39 to i64
  %41 = mul nuw nsw i64 %40, %36
  %42 = add i64 %41, %31
  br label %43

43:                                               ; preds = %35, %29
  %44 = phi i64 [ %42, %35 ], [ %31, %29 ]
  %45 = add nuw nsw i64 %30, 1
  %46 = icmp eq i64 %45, %28
  br i1 %46, label %47, label %29, !llvm.loop !61

47:                                               ; preds = %43
  %48 = getelementptr inbounds %struct.halide_buffer_t, %struct.halide_buffer_t* %1, i64 0, i32 4, i32 1
  %49 = load i8, i8* %48, align 1, !tbaa !26
  br label %50

50:                                               ; preds = %64, %47
  %51 = phi i64 [ 0, %47 ], [ %66, %64 ]
  %52 = phi i64 [ 0, %47 ], [ %65, %64 ]
  %53 = getelementptr inbounds %struct.halide_dimension_t, %struct.halide_dimension_t* %27, i64 %51, i32 2
  %54 = load i32, i32* %53, align 4, !tbaa !29
  %55 = icmp slt i32 %54, 0
  br i1 %55, label %56, label %64

56:                                               ; preds = %50
  %57 = zext i32 %54 to i64
  %58 = getelementptr inbounds %struct.halide_dimension_t, %struct.halide_dimension_t* %27, i64 %51, i32 1
  %59 = load i32, i32* %58, align 4, !tbaa !34
  %60 = add nsw i32 %59, -1
  %61 = zext i32 %60 to i64
  %62 = mul nuw i64 %61, %57
  %63 = add i64 %62, %52
  br label %64

64:                                               ; preds = %56, %50
  %65 = phi i64 [ %63, %56 ], [ %52, %50 ]
  %66 = add nuw nsw i64 %51, 1
  %67 = icmp eq i64 %66, %28
  br i1 %67, label %68, label %50, !llvm.loop !62

68:                                               ; preds = %64, %22
  %69 = phi i8 [ %24, %22 ], [ %49, %64 ]
  %70 = phi i64 [ 0, %22 ], [ %44, %64 ]
  %71 = phi i64 [ 0, %22 ], [ %65, %64 ]
  %72 = zext i8 %69 to i64
  %73 = add nuw nsw i64 %72, 7
  %74 = lshr i64 %73, 3
  %75 = add i64 %70, 1
  %76 = sub i64 %75, %71
  %77 = mul i64 %76, %74
  %78 = trunc i64 %77 to i32
  %79 = getelementptr inbounds %"struct.Halide::Runtime::Internal::D3D12Compute::d3d12_buffer", %"struct.Halide::Runtime::Internal::D3D12Compute::d3d12_buffer"* %2, i64 0, i32 2
  store i32 %78, i32* %79, align 4, !tbaa !63
  br i1 %21, label %80, label %120

80:                                               ; preds = %68
  %81 = getelementptr inbounds %struct.halide_buffer_t, %struct.halide_buffer_t* %1, i64 0, i32 6
  %82 = load %struct.halide_dimension_t*, %struct.halide_dimension_t** %81, align 8, !tbaa !28
  %83 = zext i32 %20 to i64
  br label %84

84:                                               ; preds = %98, %80
  %85 = phi i64 [ 0, %80 ], [ %100, %98 ]
  %86 = phi i64 [ 0, %80 ], [ %99, %98 ]
  %87 = getelementptr inbounds %struct.halide_dimension_t, %struct.halide_dimension_t* %82, i64 %85, i32 2
  %88 = load i32, i32* %87, align 4, !tbaa !29
  %89 = icmp sgt i32 %88, 0
  br i1 %89, label %90, label %98

90:                                               ; preds = %84
  %91 = zext i32 %88 to i64
  %92 = getelementptr inbounds %struct.halide_dimension_t, %struct.halide_dimension_t* %82, i64 %85, i32 1
  %93 = load i32, i32* %92, align 4, !tbaa !34
  %94 = add nsw i32 %93, -1
  %95 = sext i32 %94 to i64
  %96 = mul nsw i64 %95, %91
  %97 = add nsw i64 %96, %86
  br label %98

98:                                               ; preds = %90, %84
  %99 = phi i64 [ %97, %90 ], [ %86, %84 ]
  %100 = add nuw nsw i64 %85, 1
  %101 = icmp eq i64 %100, %83
  br i1 %101, label %102, label %84, !llvm.loop !61

102:                                              ; preds = %98, %116
  %103 = phi i64 [ %118, %116 ], [ 0, %98 ]
  %104 = phi i64 [ %117, %116 ], [ 0, %98 ]
  %105 = getelementptr inbounds %struct.halide_dimension_t, %struct.halide_dimension_t* %82, i64 %103, i32 2
  %106 = load i32, i32* %105, align 4, !tbaa !29
  %107 = icmp slt i32 %106, 0
  br i1 %107, label %108, label %116

108:                                              ; preds = %102
  %109 = sext i32 %106 to i64
  %110 = getelementptr inbounds %struct.halide_dimension_t, %struct.halide_dimension_t* %82, i64 %103, i32 1
  %111 = load i32, i32* %110, align 4, !tbaa !34
  %112 = add nsw i32 %111, -1
  %113 = sext i32 %112 to i64
  %114 = mul nsw i64 %113, %109
  %115 = add nsw i64 %114, %104
  br label %116

116:                                              ; preds = %108, %102
  %117 = phi i64 [ %115, %108 ], [ %104, %102 ]
  %118 = add nuw nsw i64 %103, 1
  %119 = icmp eq i64 %118, %83
  br i1 %119, label %120, label %102, !llvm.loop !62

120:                                              ; preds = %116, %68
  %121 = phi i64 [ 0, %68 ], [ %99, %116 ]
  %122 = phi i64 [ 0, %68 ], [ %117, %116 ]
  %123 = add nsw i64 %121, 1
  %124 = sub i64 %123, %122
  %125 = mul i64 %124, %74
  %126 = icmp eq i64 %125, 0
  br i1 %126, label %127, label %133

127:                                              ; preds = %120
  tail call void @halide_print(i8* %0, i8* getelementptr inbounds ([119 x i8], [119 x i8]* @"??_C@_0HH@DCCLAMGD@?1media?1maaz?1Data?1Repos?1rake?1Hali@", i64 0, i64 0)) #10
  tail call void @abort() #10
  %128 = getelementptr inbounds %struct.halide_buffer_t, %struct.halide_buffer_t* %1, i64 0, i32 4, i32 1
  %129 = load i8, i8* %128, align 1, !tbaa !26
  %130 = zext i8 %129 to i64
  %131 = add nuw nsw i64 %130, 7
  %132 = lshr i64 %131, 3
  br label %133

133:                                              ; preds = %127, %120
  %134 = phi i64 [ %132, %127 ], [ %74, %120 ]
  %135 = getelementptr inbounds %struct.halide_buffer_t, %struct.halide_buffer_t* %1, i64 0, i32 4, i32 2
  %136 = load i16, i16* %135, align 2, !tbaa !64
  %137 = zext i16 %136 to i64
  %138 = mul nuw nsw i64 %134, %137
  %139 = icmp eq i64 %138, 0
  br i1 %139, label %140, label %141

140:                                              ; preds = %133
  tail call void @halide_print(i8* %0, i8* getelementptr inbounds ([118 x i8], [118 x i8]* @"??_C@_0HG@CAELBHFM@?1media?1maaz?1Data?1Repos?1rake?1Hali@", i64 0, i64 0)) #10
  tail call void @abort() #10
  br label %141

141:                                              ; preds = %140, %133
  %142 = freeze i64 %125
  %143 = freeze i64 %138
  %144 = udiv i64 %142, %143
  %145 = mul i64 %144, %143
  %146 = sub i64 %142, %145
  %147 = icmp eq i64 %146, 0
  br i1 %147, label %149, label %148

148:                                              ; preds = %141
  tail call void @halide_print(i8* %0, i8* getelementptr inbounds ([135 x i8], [135 x i8]* @"??_C@_0IH@ELBHFNGA@?1media?1maaz?1Data?1Repos?1rake?1Hali@", i64 0, i64 0)) #10
  tail call void @abort() #10
  br label %149

149:                                              ; preds = %141, %148
  %150 = trunc i64 %144 to i32
  %151 = getelementptr inbounds %"struct.Halide::Runtime::Internal::D3D12Compute::d3d12_buffer", %"struct.Halide::Runtime::Internal::D3D12Compute::d3d12_buffer"* %2, i64 0, i32 4
  store i32 %150, i32* %151, align 4, !tbaa !65
  %152 = getelementptr inbounds %struct.halide_buffer_t, %struct.halide_buffer_t* %1, i64 0, i32 4
  %153 = bitcast %struct.halide_type_t* %152 to i32*
  %154 = load i32, i32* %153, align 8, !tbaa.struct !66
  %155 = zext i32 %154 to i64
  %156 = trunc i32 %154 to i8
  %157 = lshr i32 %154, 8
  %158 = lshr i64 %155, 16
  %159 = trunc i64 %158 to i16
  %160 = icmp ult i8 %156, 3
  br i1 %160, label %162, label %161

161:                                              ; preds = %149
  tail call void @halide_print(i8* %0, i8* getelementptr inbounds ([136 x i8], [136 x i8]* @"??_C@_0II@HPNAIILO@?1media?1maaz?1Data?1Repos?1rake?1Hali@", i64 0, i64 0)) #10
  tail call void @abort() #10
  br label %162

162:                                              ; preds = %161, %149
  %163 = add i16 %159, -1
  %164 = icmp ult i16 %163, 4
  br i1 %164, label %166, label %165

165:                                              ; preds = %162
  tail call void @halide_print(i8* %0, i8* getelementptr inbounds ([137 x i8], [137 x i8]* @"??_C@_0IJ@IINKHGHG@?1media?1maaz?1Data?1Repos?1rake?1Hali@", i64 0, i64 0)) #10
  tail call void @abort() #10
  br label %166

166:                                              ; preds = %165, %162
  %167 = and i32 %157, 255
  %168 = add nuw nsw i32 %167, 7
  %169 = lshr i32 %168, 3
  %170 = add nsw i32 %169, -1
  %171 = icmp ult i32 %170, 8
  br i1 %171, label %173, label %172

172:                                              ; preds = %173, %166
  tail call void @halide_print(i8* %0, i8* getelementptr inbounds ([105 x i8], [105 x i8]* @"??_C@_0GJ@HCOGLMCJ@?1media?1maaz?1Data?1Repos?1rake?1Hali@", i64 0, i64 0)) #10
  tail call void @abort() #10
  br label %182

173:                                              ; preds = %166
  %174 = trunc i32 %170 to i8
  %175 = lshr i8 -117, %174
  %176 = and i8 %175, 1
  %177 = icmp eq i8 %176, 0
  br i1 %177, label %172, label %178

178:                                              ; preds = %173
  %179 = sext i32 %170 to i64
  %180 = getelementptr inbounds [8 x i64], [8 x i64]* @"switch.table.?wrap_buffer@D3D12Compute@Internal@Runtime@Halide@@YAHPEAXPEAUhalide_buffer_t@@PEAUd3d12_buffer@1234@@Z", i64 0, i64 %179
  %181 = load i64, i64* %180, align 8
  br label %182

182:                                              ; preds = %178, %172
  %183 = phi i64 [ 0, %172 ], [ %181, %178 ]
  %184 = and i64 %155, 255
  %185 = add nsw i64 %158, -1
  %186 = getelementptr inbounds [3 x [4 x [4 x i32]]], [3 x [4 x [4 x i32]]]* @"__const.?FindD3D12FormatForHalideType@@YA?AW4DXGI_FORMAT@@PEAXUhalide_type_t@@@Z.FORMATS", i64 0, i64 %184, i64 %185, i64 %183
  %187 = load i32, i32* %186, align 4, !tbaa !68
  %188 = getelementptr inbounds %"struct.Halide::Runtime::Internal::D3D12Compute::d3d12_buffer", %"struct.Halide::Runtime::Internal::D3D12Compute::d3d12_buffer"* %2, i64 0, i32 6
  store i32 %187, i32* %188, align 4, !tbaa !69
  %189 = icmp eq i32 %187, 0
  br i1 %189, label %190, label %229

190:                                              ; preds = %182
  %191 = bitcast %"class.Halide::Runtime::Internal::(anonymous namespace)::Printer"* %4 to i8*
  call void @llvm.lifetime.start.p0i8(i64 40, i8* nonnull %191) #12
  %192 = getelementptr inbounds %"class.Halide::Runtime::Internal::(anonymous namespace)::Printer", %"class.Halide::Runtime::Internal::(anonymous namespace)::Printer"* %4, i64 0, i32 3
  store i8* null, i8** %192, align 8, !tbaa !41
  %193 = getelementptr inbounds %"class.Halide::Runtime::Internal::(anonymous namespace)::Printer", %"class.Halide::Runtime::Internal::(anonymous namespace)::Printer"* %4, i64 0, i32 4
  store i8 1, i8* %193, align 8, !tbaa !44
  %194 = tail call i8* @malloc(i64 1024) #10
  %195 = getelementptr inbounds %"class.Halide::Runtime::Internal::(anonymous namespace)::Printer", %"class.Halide::Runtime::Internal::(anonymous namespace)::Printer"* %4, i64 0, i32 0
  store i8* %194, i8** %195, align 8, !tbaa !45
  %196 = getelementptr inbounds %"class.Halide::Runtime::Internal::(anonymous namespace)::Printer", %"class.Halide::Runtime::Internal::(anonymous namespace)::Printer"* %4, i64 0, i32 1
  %197 = icmp eq i8* %194, null
  br i1 %197, label %200, label %198

198:                                              ; preds = %190
  %199 = getelementptr inbounds i8, i8* %194, i64 1023
  store i8 0, i8* %199, align 1, !tbaa !40
  br label %200

200:                                              ; preds = %190, %198
  %201 = phi i8* [ %199, %198 ], [ null, %190 ]
  %202 = getelementptr inbounds %"class.Halide::Runtime::Internal::(anonymous namespace)::Printer", %"class.Halide::Runtime::Internal::(anonymous namespace)::Printer"* %4, i64 0, i32 2
  store i8* %201, i8** %202, align 8
  %203 = tail call i8* @halide_string_to_string(i8* %194, i8* %201, i8* nonnull getelementptr inbounds ([34 x i8], [34 x i8]* @"??_C@_0CC@BDDMCIOG@unsupported?5buffer?5element?5type?3@", i64 0, i64 0)) #10
  %204 = tail call i8* @halide_type_to_string(i8* %203, i8* %201, %struct.halide_type_t* nonnull %152) #10
  %205 = tail call i8* @halide_string_to_string(i8* %204, i8* %201, i8* nonnull getelementptr inbounds ([2 x i8], [2 x i8]* @"??_C@_01EEMJAFIK@?6?$AA@", i64 0, i64 0)) #10
  %206 = tail call i8* @halide_string_to_string(i8* %205, i8* %201, i8* nonnull getelementptr inbounds ([36 x i8], [36 x i8]* @"??_C@_0CE@MGMMPJGA@vvvvv?5D3D12?5Begin?5Debug?5Dump?5vvv@", i64 0, i64 0)) #10
  store i8* %206, i8** %196, align 8, !tbaa !46
  call fastcc void @"?d3d12_debug_dump@@YAXAEAV?$Printer@$00$0EAA@@?A0x2B71E647@Internal@Runtime@Halide@@@Z"(%"class.Halide::Runtime::Internal::(anonymous namespace)::Printer"* nonnull align 8 dereferenceable(40) %4) #11
  %207 = load i8*, i8** %202, align 8, !tbaa !47
  %208 = load i8*, i8** %196, align 8, !tbaa !46
  %209 = tail call i8* @halide_string_to_string(i8* %208, i8* %207, i8* nonnull getelementptr inbounds ([36 x i8], [36 x i8]* @"??_C@_0CE@PCPJBLP@?$FO?$FO?$FO?$FO?$FO?5D3D12?5?5End?5?5Debug?5Dump?5?$FO?$FO?$FO@", i64 0, i64 0)) #10
  %210 = tail call i8* @halide_string_to_string(i8* %209, i8* %207, i8* nonnull getelementptr inbounds ([16 x i8], [16 x i8]* @"??_C@_0BA@FGKOLOB@D3D12?5HALT?5?$CB?$CB?$CB?6?$AA@", i64 0, i64 0)) #10
  store i8* %210, i8** %196, align 8, !tbaa !46
  %211 = load i8*, i8** %195, align 8, !tbaa !45
  %212 = icmp eq i8* %211, null
  %213 = load i8*, i8** %192, align 8, !tbaa !41
  br i1 %212, label %214, label %215

214:                                              ; preds = %200
  tail call void @halide_error(i8* %213, i8* getelementptr inbounds ([35 x i8], [35 x i8]* @"??_C@_0CD@IKIJNBLF@Printer?5buffer?5allocation?5failed@", i64 0, i64 0)) #10
  br label %221

215:                                              ; preds = %200
  %216 = ptrtoint i8* %210 to i64
  %217 = ptrtoint i8* %211 to i64
  %218 = add i64 %216, 1
  %219 = sub i64 %218, %217
  %220 = tail call i32 @halide_msan_annotate_memory_is_initialized(i8* %213, i8* nonnull %211, i64 %219) #10
  tail call void @halide_error(i8* %213, i8* nonnull %211) #10
  br label %221

221:                                              ; preds = %215, %214
  %222 = load i8, i8* %193, align 8, !tbaa !44, !range !48
  %223 = icmp eq i8 %222, 0
  %224 = getelementptr inbounds %"class.Halide::Runtime::Internal::(anonymous namespace)::Printer", %"class.Halide::Runtime::Internal::(anonymous namespace)::Printer"* %4, i64 0, i32 5, i64 0
  %225 = icmp eq i8* %211, %224
  %226 = or i1 %223, %225
  br i1 %226, label %228, label %227

227:                                              ; preds = %221
  call void @free(i8* %211) #10
  br label %228

228:                                              ; preds = %221, %227
  call void @llvm.lifetime.end.p0i8(i64 40, i8* nonnull %191) #12
  br label %244

229:                                              ; preds = %182
  %230 = getelementptr inbounds %"struct.Halide::Runtime::Internal::D3D12Compute::d3d12_buffer", %"struct.Halide::Runtime::Internal::D3D12Compute::d3d12_buffer"* %2, i64 0, i32 9, i32 0
  %231 = getelementptr inbounds %struct.halide_buffer_t, %struct.halide_buffer_t* %1, i64 0, i32 4, i32 0
  %232 = bitcast i8* %231 to i32*
  %233 = bitcast i8* %230 to i32*
  %234 = load i32, i32* %232, align 8
  store i32 %234, i32* %233, align 8
  %235 = ptrtoint %"struct.Halide::Runtime::Internal::D3D12Compute::d3d12_buffer"* %2 to i64
  store i64 %235, i64* %5, align 8, !tbaa !25
  %236 = getelementptr inbounds %struct.halide_buffer_t, %struct.halide_buffer_t* %1, i64 0, i32 1
  %237 = load %struct.halide_device_interface_t*, %struct.halide_device_interface_t** %236, align 8, !tbaa !70
  %238 = icmp eq %struct.halide_device_interface_t* %237, null
  br i1 %238, label %240, label %239

239:                                              ; preds = %229
  tail call void @halide_print(i8* %0, i8* getelementptr inbounds ([138 x i8], [138 x i8]* @"??_C@_0IK@FFGIGOBH@?1media?1maaz?1Data?1Repos?1rake?1Hali@", i64 0, i64 0)) #10
  tail call void @abort() #10
  br label %240

240:                                              ; preds = %229, %239
  store %struct.halide_device_interface_t* @"?d3d12compute_device_interface@D3D12Compute@Internal@Runtime@Halide@@3Uhalide_device_interface_t@@A", %struct.halide_device_interface_t** %236, align 8, !tbaa !70
  %241 = load %struct.halide_device_interface_impl_t*, %struct.halide_device_interface_impl_t** getelementptr inbounds (%struct.halide_device_interface_t, %struct.halide_device_interface_t* @"?d3d12compute_device_interface@D3D12Compute@Internal@Runtime@Halide@@3Uhalide_device_interface_t@@A", i64 0, i32 15), align 8, !tbaa !71
  %242 = getelementptr inbounds %struct.halide_device_interface_impl_t, %struct.halide_device_interface_impl_t* %241, i64 0, i32 0
  %243 = load void ()*, void ()** %242, align 8, !tbaa !73
  tail call void %243() #10
  br label %244

244:                                              ; preds = %8, %240, %228
  %245 = phi i32 [ -32, %228 ], [ 0, %240 ], [ -32, %8 ]
  ret i32 %245
}

declare extern_weak void @halide_print(i8*, i8*) local_unnamed_addr #2

declare dso_local void @abort() local_unnamed_addr #2

; Function Attrs: nounwind
define weak dso_local i32 @"?unwrap_buffer@D3D12Compute@Internal@Runtime@Halide@@YAHPEAUhalide_buffer_t@@@Z"(%struct.halide_buffer_t* %0) local_unnamed_addr #4 {
  %2 = getelementptr inbounds %struct.halide_buffer_t, %struct.halide_buffer_t* %0, i64 0, i32 0
  %3 = load i64, i64* %2, align 8, !tbaa !25
  %4 = icmp eq i64 %3, 0
  br i1 %4, label %23, label %5

5:                                                ; preds = %1
  %6 = getelementptr inbounds %struct.halide_buffer_t, %struct.halide_buffer_t* %0, i64 0, i32 1
  %7 = load %struct.halide_device_interface_t*, %struct.halide_device_interface_t** %6, align 8, !tbaa !70
  %8 = icmp eq %struct.halide_device_interface_t* %7, @"?d3d12compute_device_interface@D3D12Compute@Internal@Runtime@Halide@@3Uhalide_device_interface_t@@A"
  br i1 %8, label %13, label %9

9:                                                ; preds = %5
  tail call void @halide_print(i8* null, i8* getelementptr inbounds ([161 x i8], [161 x i8]* @"??_C@_0KB@NININJGE@?1media?1maaz?1Data?1Repos?1rake?1Hali@", i64 0, i64 0)) #10
  tail call void @abort() #10
  %10 = load i64, i64* %2, align 8, !tbaa !25
  %11 = icmp eq i64 %10, 0
  br i1 %11, label %12, label %13

12:                                               ; preds = %9
  tail call void @halide_print(i8* null, i8* getelementptr inbounds ([120 x i8], [120 x i8]* @"??_C@_0HI@MFPPBOBE@?1media?1maaz?1Data?1Repos?1rake?1Hali@", i64 0, i64 0)) #10
  tail call void @abort() #10
  br label %13

13:                                               ; preds = %5, %9, %12
  %14 = phi i64 [ %10, %9 ], [ 0, %12 ], [ %3, %5 ]
  %15 = inttoptr i64 %14 to %"struct.Halide::Runtime::Internal::D3D12Compute::d3d12_buffer"*
  %16 = getelementptr inbounds %"struct.Halide::Runtime::Internal::D3D12Compute::d3d12_buffer", %"struct.Halide::Runtime::Internal::D3D12Compute::d3d12_buffer"* %15, i64 0, i32 9, i32 0
  %17 = bitcast i8* %16 to i32*
  store i32 0, i32* %17, align 8
  %18 = load %struct.halide_device_interface_t*, %struct.halide_device_interface_t** %6, align 8, !tbaa !70
  %19 = getelementptr inbounds %struct.halide_device_interface_t, %struct.halide_device_interface_t* %18, i64 0, i32 15
  %20 = load %struct.halide_device_interface_impl_t*, %struct.halide_device_interface_impl_t** %19, align 8, !tbaa !71
  %21 = getelementptr inbounds %struct.halide_device_interface_impl_t, %struct.halide_device_interface_impl_t* %20, i64 0, i32 1
  %22 = load void ()*, void ()** %21, align 8, !tbaa !75
  tail call void %22() #10
  store %struct.halide_device_interface_t* null, %struct.halide_device_interface_t** %6, align 8, !tbaa !70
  store i64 0, i64* %2, align 8, !tbaa !25
  br label %23

23:                                               ; preds = %1, %13
  ret i32 0
}

; Function Attrs: nounwind
define dso_local %struct.ID3D12RootSignature* @"?D3D12CreateMasterRootSignature@D3D12Compute@Internal@Runtime@Halide@@YAPEAUID3D12RootSignature@@PEAUID3D12Device@@@Z"(%struct.ID3D12Device* %0) local_unnamed_addr #4 {
  %2 = alloca %"class.Halide::Runtime::Internal::(anonymous namespace)::Printer", align 8
  %3 = alloca %"class.Halide::Runtime::Internal::(anonymous namespace)::Printer", align 8
  %4 = alloca [12 x i8], align 4
  %5 = alloca [3 x %struct.D3D12_ROOT_PARAMETER], align 8
  %6 = alloca [3 x %struct.D3D12_DESCRIPTOR_RANGE], align 16
  %7 = alloca %struct.D3D12_ROOT_SIGNATURE_DESC, align 8
  %8 = alloca %struct.ID3D10Blob*, align 8
  %9 = alloca %struct.ID3D10Blob*, align 8
  %10 = alloca %"class.Halide::Runtime::Internal::(anonymous namespace)::Printer", align 8
  %11 = alloca %struct.ID3D12RootSignature*, align 8
  %12 = getelementptr inbounds [12 x i8], [12 x i8]* %4, i64 0, i64 0
  call void @llvm.lifetime.start.p0i8(i64 12, i8* nonnull %12)
  call void @llvm.memset.p0i8.i64(i8* nonnull align 4 dereferenceable(12) %12, i8 0, i64 12, i1 false)
  %13 = bitcast [3 x %struct.D3D12_ROOT_PARAMETER]* %5 to i8*
  call void @llvm.lifetime.start.p0i8(i64 96, i8* nonnull %13) #12
  %14 = bitcast [3 x %struct.D3D12_DESCRIPTOR_RANGE]* %6 to i8*
  call void @llvm.lifetime.start.p0i8(i64 60, i8* nonnull %14) #12
  %15 = getelementptr inbounds [3 x %struct.D3D12_ROOT_PARAMETER], [3 x %struct.D3D12_ROOT_PARAMETER]* %5, i64 0, i64 0
  %16 = bitcast [3 x %struct.D3D12_ROOT_PARAMETER]* %5 to <2 x i32>*
  store <2 x i32> zeroinitializer, <2 x i32>* %16, align 8
  %17 = getelementptr inbounds [3 x %struct.D3D12_ROOT_PARAMETER], [3 x %struct.D3D12_ROOT_PARAMETER]* %5, i64 0, i64 0, i32 1, i32 0, i32 0
  store i32 1, i32* %17, align 8, !tbaa.struct !76
  %18 = getelementptr inbounds i8, i8* %13, i64 12
  %19 = bitcast [12 x i8]* %4 to i32*
  %20 = bitcast i8* %18 to i32*
  %21 = load i32, i32* %19, align 4
  store i32 %21, i32* %20, align 4
  %22 = getelementptr inbounds [3 x %struct.D3D12_ROOT_PARAMETER], [3 x %struct.D3D12_ROOT_PARAMETER]* %5, i64 0, i64 0, i32 2
  %23 = getelementptr inbounds [3 x %struct.D3D12_DESCRIPTOR_RANGE], [3 x %struct.D3D12_DESCRIPTOR_RANGE]* %6, i64 0, i64 0
  %24 = getelementptr inbounds [3 x %struct.D3D12_DESCRIPTOR_RANGE], [3 x %struct.D3D12_DESCRIPTOR_RANGE]* %6, i64 0, i64 0, i32 4
  %25 = bitcast [3 x %struct.D3D12_DESCRIPTOR_RANGE]* %6 to <4 x i32>*
  store <4 x i32> <i32 1, i32 16, i32 0, i32 0>, <4 x i32>* %25, align 16
  %26 = getelementptr inbounds [3 x %struct.D3D12_ROOT_PARAMETER], [3 x %struct.D3D12_ROOT_PARAMETER]* %5, i64 0, i64 0, i32 1, i32 0, i32 1
  store %struct.D3D12_DESCRIPTOR_RANGE* %23, %struct.D3D12_DESCRIPTOR_RANGE** %26, align 8, !tbaa !40
  %27 = getelementptr inbounds [3 x %struct.D3D12_ROOT_PARAMETER], [3 x %struct.D3D12_ROOT_PARAMETER]* %5, i64 0, i64 1
  %28 = bitcast %struct.D3D12_ROOT_PARAMETER* %27 to i8*
  %29 = bitcast i32* %22 to <4 x i32>*
  store <4 x i32> zeroinitializer, <4 x i32>* %29, align 8
  %30 = getelementptr inbounds [3 x %struct.D3D12_ROOT_PARAMETER], [3 x %struct.D3D12_ROOT_PARAMETER]* %5, i64 0, i64 1, i32 1, i32 0, i32 0
  store i32 1, i32* %30, align 8, !tbaa.struct !76
  %31 = getelementptr inbounds i8, i8* %28, i64 12
  %32 = bitcast [12 x i8]* %4 to i32*
  %33 = bitcast i8* %31 to i32*
  %34 = load i32, i32* %32, align 4
  store i32 %34, i32* %33, align 4
  %35 = getelementptr inbounds [3 x %struct.D3D12_ROOT_PARAMETER], [3 x %struct.D3D12_ROOT_PARAMETER]* %5, i64 0, i64 1, i32 2
  %36 = getelementptr inbounds [3 x %struct.D3D12_DESCRIPTOR_RANGE], [3 x %struct.D3D12_DESCRIPTOR_RANGE]* %6, i64 0, i64 1
  %37 = getelementptr inbounds [3 x %struct.D3D12_DESCRIPTOR_RANGE], [3 x %struct.D3D12_DESCRIPTOR_RANGE]* %6, i64 0, i64 1, i32 3
  %38 = bitcast i32* %24 to <4 x i32>*
  store <4 x i32> <i32 -1, i32 2, i32 14, i32 0>, <4 x i32>* %38, align 16
  %39 = getelementptr inbounds [3 x %struct.D3D12_ROOT_PARAMETER], [3 x %struct.D3D12_ROOT_PARAMETER]* %5, i64 0, i64 1, i32 1, i32 0, i32 1
  store %struct.D3D12_DESCRIPTOR_RANGE* %36, %struct.D3D12_DESCRIPTOR_RANGE** %39, align 8, !tbaa !40
  %40 = getelementptr inbounds [3 x %struct.D3D12_ROOT_PARAMETER], [3 x %struct.D3D12_ROOT_PARAMETER]* %5, i64 0, i64 2
  %41 = bitcast %struct.D3D12_ROOT_PARAMETER* %40 to i8*
  %42 = bitcast i32* %35 to <4 x i32>*
  store <4 x i32> zeroinitializer, <4 x i32>* %42, align 8
  %43 = getelementptr inbounds [3 x %struct.D3D12_ROOT_PARAMETER], [3 x %struct.D3D12_ROOT_PARAMETER]* %5, i64 0, i64 2, i32 1, i32 0, i32 0
  store i32 1, i32* %43, align 8, !tbaa.struct !76
  %44 = getelementptr inbounds i8, i8* %41, i64 12
  %45 = bitcast [12 x i8]* %4 to i32*
  %46 = bitcast i8* %44 to i32*
  %47 = load i32, i32* %45, align 4
  store i32 %47, i32* %46, align 4
  %48 = getelementptr inbounds [3 x %struct.D3D12_ROOT_PARAMETER], [3 x %struct.D3D12_ROOT_PARAMETER]* %5, i64 0, i64 2, i32 2
  %49 = bitcast i32* %48 to <2 x i32>*
  store <2 x i32> zeroinitializer, <2 x i32>* %49, align 8
  %50 = getelementptr inbounds [3 x %struct.D3D12_DESCRIPTOR_RANGE], [3 x %struct.D3D12_DESCRIPTOR_RANGE]* %6, i64 0, i64 2
  %51 = getelementptr inbounds [3 x %struct.D3D12_DESCRIPTOR_RANGE], [3 x %struct.D3D12_DESCRIPTOR_RANGE]* %6, i64 0, i64 2, i32 2
  %52 = bitcast i32* %51 to <2 x i32>*
  store <2 x i32> zeroinitializer, <2 x i32>* %52, align 16
  %53 = getelementptr inbounds [3 x %struct.D3D12_DESCRIPTOR_RANGE], [3 x %struct.D3D12_DESCRIPTOR_RANGE]* %6, i64 0, i64 2, i32 4
  store i32 -1, i32* %53, align 8, !tbaa.struct !80
  %54 = bitcast i32* %37 to <4 x i32>*
  store <4 x i32> <i32 0, i32 -1, i32 0, i32 25>, <4 x i32>* %54, align 16
  %55 = getelementptr inbounds [3 x %struct.D3D12_ROOT_PARAMETER], [3 x %struct.D3D12_ROOT_PARAMETER]* %5, i64 0, i64 2, i32 1, i32 0, i32 1
  store %struct.D3D12_DESCRIPTOR_RANGE* %50, %struct.D3D12_DESCRIPTOR_RANGE** %55, align 8, !tbaa !40
  %56 = bitcast %struct.D3D12_ROOT_SIGNATURE_DESC* %7 to i8*
  call void @llvm.lifetime.start.p0i8(i64 40, i8* nonnull %56) #12
  call void @llvm.memset.p0i8.i64(i8* nonnull align 8 dereferenceable(40) %56, i8 0, i64 40, i1 false)
  %57 = getelementptr inbounds %struct.D3D12_ROOT_SIGNATURE_DESC, %struct.D3D12_ROOT_SIGNATURE_DESC* %7, i64 0, i32 0
  store i32 3, i32* %57, align 8, !tbaa !81
  %58 = getelementptr inbounds %struct.D3D12_ROOT_SIGNATURE_DESC, %struct.D3D12_ROOT_SIGNATURE_DESC* %7, i64 0, i32 1
  store %struct.D3D12_ROOT_PARAMETER* %15, %struct.D3D12_ROOT_PARAMETER** %58, align 8, !tbaa !84
  %59 = getelementptr inbounds %struct.D3D12_ROOT_SIGNATURE_DESC, %struct.D3D12_ROOT_SIGNATURE_DESC* %7, i64 0, i32 2
  store i32 0, i32* %59, align 8, !tbaa !85
  %60 = getelementptr inbounds %struct.D3D12_ROOT_SIGNATURE_DESC, %struct.D3D12_ROOT_SIGNATURE_DESC* %7, i64 0, i32 3
  store %struct.D3D12_STATIC_SAMPLER_DESC* null, %struct.D3D12_STATIC_SAMPLER_DESC** %60, align 8, !tbaa !86
  %61 = getelementptr inbounds %struct.D3D12_ROOT_SIGNATURE_DESC, %struct.D3D12_ROOT_SIGNATURE_DESC* %7, i64 0, i32 4
  store i32 0, i32* %61, align 8, !tbaa !87
  %62 = bitcast %struct.ID3D10Blob** %8 to i8*
  call void @llvm.lifetime.start.p0i8(i64 8, i8* nonnull %62) #12
  store %struct.ID3D10Blob* null, %struct.ID3D10Blob** %8, align 8, !tbaa !49
  %63 = bitcast %struct.ID3D10Blob** %9 to i8*
  call void @llvm.lifetime.start.p0i8(i64 8, i8* nonnull %63) #12
  store %struct.ID3D10Blob* null, %struct.ID3D10Blob** %9, align 8, !tbaa !49
  %64 = load i32 (%struct.D3D12_ROOT_SIGNATURE_DESC*, i32, %struct.ID3D10Blob**, %struct.ID3D10Blob**)*, i32 (%struct.D3D12_ROOT_SIGNATURE_DESC*, i32, %struct.ID3D10Blob**, %struct.ID3D10Blob**)** @D3D12SerializeRootSignature, align 8, !tbaa !49
  %65 = call i32 %64(%struct.D3D12_ROOT_SIGNATURE_DESC* nonnull %7, i32 1, %struct.ID3D10Blob** nonnull %8, %struct.ID3D10Blob** nonnull %9) #10
  %66 = load %struct.ID3D10Blob*, %struct.ID3D10Blob** %8, align 8, !tbaa !49
  %67 = icmp sgt i32 %65, -1
  %68 = icmp ne %struct.ID3D10Blob* %66, null
  %69 = and i1 %67, %68
  br i1 %69, label %173, label %70

70:                                               ; preds = %1
  %71 = bitcast %"class.Halide::Runtime::Internal::(anonymous namespace)::Printer"* %3 to i8*
  call void @llvm.lifetime.start.p0i8(i64 40, i8* nonnull %71) #12
  %72 = getelementptr inbounds %"class.Halide::Runtime::Internal::(anonymous namespace)::Printer", %"class.Halide::Runtime::Internal::(anonymous namespace)::Printer"* %3, i64 0, i32 3
  store i8* null, i8** %72, align 8, !tbaa !41
  %73 = getelementptr inbounds %"class.Halide::Runtime::Internal::(anonymous namespace)::Printer", %"class.Halide::Runtime::Internal::(anonymous namespace)::Printer"* %3, i64 0, i32 4
  store i8 1, i8* %73, align 8, !tbaa !44
  %74 = call i8* @malloc(i64 1024) #10
  %75 = getelementptr inbounds %"class.Halide::Runtime::Internal::(anonymous namespace)::Printer", %"class.Halide::Runtime::Internal::(anonymous namespace)::Printer"* %3, i64 0, i32 0
  store i8* %74, i8** %75, align 8, !tbaa !45
  %76 = getelementptr inbounds %"class.Halide::Runtime::Internal::(anonymous namespace)::Printer", %"class.Halide::Runtime::Internal::(anonymous namespace)::Printer"* %3, i64 0, i32 1
  %77 = icmp eq i8* %74, null
  br i1 %77, label %80, label %78

78:                                               ; preds = %70
  %79 = getelementptr inbounds i8, i8* %74, i64 1023
  store i8 0, i8* %79, align 1, !tbaa !40
  br label %80

80:                                               ; preds = %78, %70
  %81 = phi i8* [ %79, %78 ], [ null, %70 ]
  %82 = getelementptr inbounds %"class.Halide::Runtime::Internal::(anonymous namespace)::Printer", %"class.Halide::Runtime::Internal::(anonymous namespace)::Printer"* %3, i64 0, i32 2
  store i8* %81, i8** %82, align 8
  %83 = call i8* @halide_string_to_string(i8* %74, i8* %81, i8* nonnull getelementptr inbounds ([51 x i8], [51 x i8]* @"??_C@_0DD@JMFCFLOG@Unable?5to?5serialize?5the?5Direct3D@", i64 0, i64 0)) #10
  %84 = call i8* @halide_string_to_string(i8* %83, i8* %81, i8* nonnull getelementptr inbounds ([11 x i8], [11 x i8]* @"??_C@_0L@IAGCJOCP@?5?$CIHRESULT?$DN?$AA@", i64 0, i64 0)) #10
  %85 = sext i32 %65 to i64
  %86 = inttoptr i64 %85 to i8*
  %87 = call i8* @halide_pointer_to_string(i8* %84, i8* %81, i8* %86) #10
  %88 = call i8* @halide_string_to_string(i8* %87, i8* %81, i8* nonnull getelementptr inbounds ([11 x i8], [11 x i8]* @"??_C@_0L@FELFIFPM@?0?5object?$CK?$DN?$AA@", i64 0, i64 0)) #10
  %89 = bitcast %struct.ID3D10Blob* %66 to i8*
  %90 = call i8* @halide_pointer_to_string(i8* %88, i8* %81, i8* %89) #10
  %91 = call i8* @halide_string_to_string(i8* %90, i8* %81, i8* nonnull getelementptr inbounds ([2 x i8], [2 x i8]* @"??_C@_01PKGAHCOL@?$CJ?$AA@", i64 0, i64 0)) #10
  %92 = call i8* @halide_string_to_string(i8* %91, i8* %81, i8* nonnull getelementptr inbounds ([2 x i8], [2 x i8]* @"??_C@_01EEMJAFIK@?6?$AA@", i64 0, i64 0)) #10
  %93 = call i8* @halide_string_to_string(i8* %92, i8* %81, i8* nonnull getelementptr inbounds ([36 x i8], [36 x i8]* @"??_C@_0CE@MGMMPJGA@vvvvv?5D3D12?5Begin?5Debug?5Dump?5vvv@", i64 0, i64 0)) #10
  store i8* %93, i8** %76, align 8, !tbaa !46
  call fastcc void @"?d3d12_debug_dump@@YAXAEAV?$Printer@$00$0EAA@@?A0x2B71E647@Internal@Runtime@Halide@@@Z"(%"class.Halide::Runtime::Internal::(anonymous namespace)::Printer"* nonnull align 8 dereferenceable(40) %3) #10
  %94 = load i8*, i8** %82, align 8, !tbaa !47
  %95 = load i8*, i8** %76, align 8, !tbaa !46
  %96 = call i8* @halide_string_to_string(i8* %95, i8* %94, i8* nonnull getelementptr inbounds ([36 x i8], [36 x i8]* @"??_C@_0CE@PCPJBLP@?$FO?$FO?$FO?$FO?$FO?5D3D12?5?5End?5?5Debug?5Dump?5?$FO?$FO?$FO@", i64 0, i64 0)) #10
  %97 = call i8* @halide_string_to_string(i8* %96, i8* %94, i8* nonnull getelementptr inbounds ([16 x i8], [16 x i8]* @"??_C@_0BA@FGKOLOB@D3D12?5HALT?5?$CB?$CB?$CB?6?$AA@", i64 0, i64 0)) #10
  store i8* %97, i8** %76, align 8, !tbaa !46
  %98 = load i8*, i8** %75, align 8, !tbaa !45
  %99 = icmp eq i8* %98, null
  %100 = load i8*, i8** %72, align 8, !tbaa !41
  br i1 %99, label %101, label %102

101:                                              ; preds = %80
  call void @halide_error(i8* %100, i8* getelementptr inbounds ([35 x i8], [35 x i8]* @"??_C@_0CD@IKIJNBLF@Printer?5buffer?5allocation?5failed@", i64 0, i64 0)) #10
  br label %108

102:                                              ; preds = %80
  %103 = ptrtoint i8* %97 to i64
  %104 = ptrtoint i8* %98 to i64
  %105 = add i64 %103, 1
  %106 = sub i64 %105, %104
  %107 = call i32 @halide_msan_annotate_memory_is_initialized(i8* %100, i8* nonnull %98, i64 %106) #10
  call void @halide_error(i8* %100, i8* nonnull %98) #10
  br label %108

108:                                              ; preds = %102, %101
  %109 = load i8, i8* %73, align 8, !tbaa !44, !range !48
  %110 = icmp eq i8 %109, 0
  %111 = getelementptr inbounds %"class.Halide::Runtime::Internal::(anonymous namespace)::Printer", %"class.Halide::Runtime::Internal::(anonymous namespace)::Printer"* %3, i64 0, i32 5, i64 0
  %112 = icmp eq i8* %98, %111
  %113 = or i1 %112, %110
  br i1 %113, label %115, label %114

114:                                              ; preds = %108
  call void @free(i8* %98) #10
  br label %115

115:                                              ; preds = %108, %114
  call void @llvm.lifetime.end.p0i8(i64 40, i8* nonnull %71) #12
  %116 = load %struct.ID3D10Blob*, %struct.ID3D10Blob** %9, align 8, !tbaa !49
  %117 = icmp eq %struct.ID3D10Blob* %116, null
  br i1 %117, label %118, label %119

118:                                              ; preds = %115
  call void @halide_print(i8* null, i8* getelementptr inbounds ([111 x i8], [111 x i8]* @"??_C@_0GP@PMNGDIHN@?1media?1maaz?1Data?1Repos?1rake?1Hali@", i64 0, i64 0)) #10
  call void @abort() #10
  br label %119

119:                                              ; preds = %115, %118
  %120 = bitcast %"class.Halide::Runtime::Internal::(anonymous namespace)::Printer"* %10 to i8*
  call void @llvm.lifetime.start.p0i8(i64 40, i8* nonnull %120) #12
  %121 = getelementptr inbounds %"class.Halide::Runtime::Internal::(anonymous namespace)::Printer", %"class.Halide::Runtime::Internal::(anonymous namespace)::Printer"* %10, i64 0, i32 3
  store i8* null, i8** %121, align 8, !tbaa !41
  %122 = getelementptr inbounds %"class.Halide::Runtime::Internal::(anonymous namespace)::Printer", %"class.Halide::Runtime::Internal::(anonymous namespace)::Printer"* %10, i64 0, i32 4
  store i8 1, i8* %122, align 8, !tbaa !44
  %123 = call i8* @malloc(i64 1024) #10
  %124 = getelementptr inbounds %"class.Halide::Runtime::Internal::(anonymous namespace)::Printer", %"class.Halide::Runtime::Internal::(anonymous namespace)::Printer"* %10, i64 0, i32 0
  store i8* %123, i8** %124, align 8, !tbaa !45
  %125 = getelementptr inbounds %"class.Halide::Runtime::Internal::(anonymous namespace)::Printer", %"class.Halide::Runtime::Internal::(anonymous namespace)::Printer"* %10, i64 0, i32 1
  store i8* %123, i8** %125, align 8, !tbaa !46
  %126 = icmp eq i8* %123, null
  br i1 %126, label %129, label %127

127:                                              ; preds = %119
  %128 = getelementptr inbounds i8, i8* %123, i64 1023
  store i8 0, i8* %128, align 1, !tbaa !40
  br label %129

129:                                              ; preds = %119, %127
  %130 = phi i8* [ %128, %127 ], [ null, %119 ]
  %131 = getelementptr inbounds %"class.Halide::Runtime::Internal::(anonymous namespace)::Printer", %"class.Halide::Runtime::Internal::(anonymous namespace)::Printer"* %10, i64 0, i32 2
  store i8* %130, i8** %131, align 8
  %132 = load %struct.ID3D10Blob*, %struct.ID3D10Blob** %9, align 8, !tbaa !49
  %133 = bitcast %struct.ID3D10Blob* %132 to i8* (%struct.ID3D10Blob*)***
  %134 = load i8* (%struct.ID3D10Blob*)**, i8* (%struct.ID3D10Blob*)*** %133, align 8, !tbaa !50
  %135 = getelementptr inbounds i8* (%struct.ID3D10Blob*)*, i8* (%struct.ID3D10Blob*)** %134, i64 3
  %136 = load i8* (%struct.ID3D10Blob*)*, i8* (%struct.ID3D10Blob*)** %135, align 8
  %137 = call i8* %136(%struct.ID3D10Blob* nonnull dereferenceable(8) %132) #10
  %138 = icmp eq i8* %137, null
  br i1 %138, label %139, label %141

139:                                              ; preds = %129
  %140 = call i8* @halide_string_to_string(i8* %123, i8* %130, i8* getelementptr inbounds ([10 x i8], [10 x i8]* @"??_C@_09CGLEKJAK@?$DMnullptr?$DO?$AA@", i64 0, i64 0)) #10
  br label %143

141:                                              ; preds = %129
  %142 = call i8* @halide_string_to_string(i8* %123, i8* %130, i8* nonnull %137) #10
  br label %143

143:                                              ; preds = %139, %141
  %144 = phi i8* [ %142, %141 ], [ %140, %139 ]
  store i8* %144, i8** %125, align 8, !tbaa !46
  %145 = load i8*, i8** %131, align 8, !tbaa !47
  %146 = call i8* @halide_string_to_string(i8* %144, i8* %145, i8* nonnull getelementptr inbounds ([2 x i8], [2 x i8]* @"??_C@_01EEMJAFIK@?6?$AA@", i64 0, i64 0)) #10
  store i8* %146, i8** %125, align 8, !tbaa !46
  %147 = call i8* @halide_string_to_string(i8* %146, i8* %145, i8* nonnull getelementptr inbounds ([36 x i8], [36 x i8]* @"??_C@_0CE@MGMMPJGA@vvvvv?5D3D12?5Begin?5Debug?5Dump?5vvv@", i64 0, i64 0)) #10
  store i8* %147, i8** %125, align 8, !tbaa !46
  call fastcc void @"?d3d12_debug_dump@@YAXAEAV?$Printer@$00$0EAA@@?A0x2B71E647@Internal@Runtime@Halide@@@Z"(%"class.Halide::Runtime::Internal::(anonymous namespace)::Printer"* nonnull align 8 dereferenceable(40) %10) #11
  %148 = load i8*, i8** %131, align 8, !tbaa !47
  %149 = load i8*, i8** %125, align 8, !tbaa !46
  %150 = call i8* @halide_string_to_string(i8* %149, i8* %148, i8* nonnull getelementptr inbounds ([36 x i8], [36 x i8]* @"??_C@_0CE@PCPJBLP@?$FO?$FO?$FO?$FO?$FO?5D3D12?5?5End?5?5Debug?5Dump?5?$FO?$FO?$FO@", i64 0, i64 0)) #10
  store i8* %150, i8** %125, align 8, !tbaa !46
  %151 = call i8* @halide_string_to_string(i8* %150, i8* %148, i8* nonnull getelementptr inbounds ([16 x i8], [16 x i8]* @"??_C@_0BA@FGKOLOB@D3D12?5HALT?5?$CB?$CB?$CB?6?$AA@", i64 0, i64 0)) #10
  store i8* %151, i8** %125, align 8, !tbaa !46
  %152 = load i8*, i8** %124, align 8, !tbaa !45
  %153 = icmp eq i8* %152, null
  %154 = load i8*, i8** %121, align 8, !tbaa !41
  br i1 %153, label %155, label %156

155:                                              ; preds = %143
  call void @halide_error(i8* %154, i8* getelementptr inbounds ([35 x i8], [35 x i8]* @"??_C@_0CD@IKIJNBLF@Printer?5buffer?5allocation?5failed@", i64 0, i64 0)) #10
  br label %164

156:                                              ; preds = %143
  %157 = ptrtoint i8* %151 to i64
  %158 = ptrtoint i8* %152 to i64
  %159 = add i64 %157, 1
  %160 = sub i64 %159, %158
  %161 = call i32 @halide_msan_annotate_memory_is_initialized(i8* %154, i8* nonnull %152, i64 %160) #10
  %162 = load i8*, i8** %124, align 8, !tbaa !45
  %163 = load i8*, i8** %121, align 8, !tbaa !41
  call void @halide_error(i8* %163, i8* %162) #10
  br label %164

164:                                              ; preds = %156, %155
  %165 = load i8, i8* %122, align 8, !tbaa !44, !range !48
  %166 = icmp eq i8 %165, 0
  br i1 %166, label %172, label %167

167:                                              ; preds = %164
  %168 = load i8*, i8** %124, align 8, !tbaa !45
  %169 = getelementptr inbounds %"class.Halide::Runtime::Internal::(anonymous namespace)::Printer", %"class.Halide::Runtime::Internal::(anonymous namespace)::Printer"* %10, i64 0, i32 5, i64 0
  %170 = icmp eq i8* %168, %169
  br i1 %170, label %172, label %171

171:                                              ; preds = %167
  call void @free(i8* %168) #10
  br label %172

172:                                              ; preds = %164, %167, %171
  call void @llvm.lifetime.end.p0i8(i64 40, i8* nonnull %120) #12
  br label %244

173:                                              ; preds = %1
  %174 = bitcast %struct.ID3D12RootSignature** %11 to i8*
  call void @llvm.lifetime.start.p0i8(i64 8, i8* nonnull %174) #12
  store %struct.ID3D12RootSignature* null, %struct.ID3D12RootSignature** %11, align 8, !tbaa !49
  %175 = bitcast %struct.ID3D10Blob* %66 to i8* (%struct.ID3D10Blob*)***
  %176 = load i8* (%struct.ID3D10Blob*)**, i8* (%struct.ID3D10Blob*)*** %175, align 8, !tbaa !50
  %177 = getelementptr inbounds i8* (%struct.ID3D10Blob*)*, i8* (%struct.ID3D10Blob*)** %176, i64 3
  %178 = load i8* (%struct.ID3D10Blob*)*, i8* (%struct.ID3D10Blob*)** %177, align 8
  %179 = call i8* %178(%struct.ID3D10Blob* nonnull dereferenceable(8) %66) #10
  %180 = load %struct.ID3D10Blob*, %struct.ID3D10Blob** %8, align 8, !tbaa !49
  %181 = bitcast %struct.ID3D10Blob* %180 to i64 (%struct.ID3D10Blob*)***
  %182 = load i64 (%struct.ID3D10Blob*)**, i64 (%struct.ID3D10Blob*)*** %181, align 8, !tbaa !50
  %183 = getelementptr inbounds i64 (%struct.ID3D10Blob*)*, i64 (%struct.ID3D10Blob*)** %182, i64 4
  %184 = load i64 (%struct.ID3D10Blob*)*, i64 (%struct.ID3D10Blob*)** %183, align 8
  %185 = call i64 %184(%struct.ID3D10Blob* nonnull dereferenceable(8) %180) #10
  %186 = bitcast %struct.ID3D12RootSignature** %11 to i8**
  %187 = bitcast %struct.ID3D12Device* %0 to i32 (%struct.ID3D12Device*, i32, i8*, i64, %struct._GUID*, i8**)***
  %188 = load i32 (%struct.ID3D12Device*, i32, i8*, i64, %struct._GUID*, i8**)**, i32 (%struct.ID3D12Device*, i32, i8*, i64, %struct._GUID*, i8**)*** %187, align 8, !tbaa !50
  %189 = getelementptr inbounds i32 (%struct.ID3D12Device*, i32, i8*, i64, %struct._GUID*, i8**)*, i32 (%struct.ID3D12Device*, i32, i8*, i64, %struct._GUID*, i8**)** %188, i64 16
  %190 = load i32 (%struct.ID3D12Device*, i32, i8*, i64, %struct._GUID*, i8**)*, i32 (%struct.ID3D12Device*, i32, i8*, i64, %struct._GUID*, i8**)** %189, align 8
  %191 = call i32 %190(%struct.ID3D12Device* nonnull dereferenceable(8) %0, i32 0, i8* %179, i64 %185, %struct._GUID* nonnull align 4 dereferenceable(16) @_GUID_c54a6b66_72df_4ee8_8be5_a946a1429214, i8** nonnull %186) #10
  %192 = load %struct.ID3D12RootSignature*, %struct.ID3D12RootSignature** %11, align 8, !tbaa !49
  %193 = icmp sgt i32 %191, -1
  %194 = icmp ne %struct.ID3D12RootSignature* %192, null
  %195 = and i1 %193, %194
  br i1 %195, label %242, label %196

196:                                              ; preds = %173
  %197 = bitcast %"class.Halide::Runtime::Internal::(anonymous namespace)::Printer"* %2 to i8*
  call void @llvm.lifetime.start.p0i8(i64 40, i8* nonnull %197) #12
  %198 = getelementptr inbounds %"class.Halide::Runtime::Internal::(anonymous namespace)::Printer", %"class.Halide::Runtime::Internal::(anonymous namespace)::Printer"* %2, i64 0, i32 3
  store i8* null, i8** %198, align 8, !tbaa !41
  %199 = getelementptr inbounds %"class.Halide::Runtime::Internal::(anonymous namespace)::Printer", %"class.Halide::Runtime::Internal::(anonymous namespace)::Printer"* %2, i64 0, i32 4
  store i8 1, i8* %199, align 8, !tbaa !44
  %200 = call i8* @malloc(i64 1024) #10
  %201 = getelementptr inbounds %"class.Halide::Runtime::Internal::(anonymous namespace)::Printer", %"class.Halide::Runtime::Internal::(anonymous namespace)::Printer"* %2, i64 0, i32 0
  store i8* %200, i8** %201, align 8, !tbaa !45
  %202 = getelementptr inbounds %"class.Halide::Runtime::Internal::(anonymous namespace)::Printer", %"class.Halide::Runtime::Internal::(anonymous namespace)::Printer"* %2, i64 0, i32 1
  %203 = icmp eq i8* %200, null
  br i1 %203, label %206, label %204

204:                                              ; preds = %196
  %205 = getelementptr inbounds i8, i8* %200, i64 1023
  store i8 0, i8* %205, align 1, !tbaa !40
  br label %206

206:                                              ; preds = %204, %196
  %207 = phi i8* [ %205, %204 ], [ null, %196 ]
  %208 = getelementptr inbounds %"class.Halide::Runtime::Internal::(anonymous namespace)::Printer", %"class.Halide::Runtime::Internal::(anonymous namespace)::Printer"* %2, i64 0, i32 2
  store i8* %207, i8** %208, align 8
  %209 = call i8* @halide_string_to_string(i8* %200, i8* %207, i8* nonnull getelementptr inbounds ([48 x i8], [48 x i8]* @"??_C@_0DA@LBIGKBEG@Unable?5to?5create?5the?5Direct3D?512@", i64 0, i64 0)) #10
  %210 = call i8* @halide_string_to_string(i8* %209, i8* %207, i8* nonnull getelementptr inbounds ([11 x i8], [11 x i8]* @"??_C@_0L@IAGCJOCP@?5?$CIHRESULT?$DN?$AA@", i64 0, i64 0)) #10
  %211 = sext i32 %191 to i64
  %212 = inttoptr i64 %211 to i8*
  %213 = call i8* @halide_pointer_to_string(i8* %210, i8* %207, i8* %212) #10
  %214 = call i8* @halide_string_to_string(i8* %213, i8* %207, i8* nonnull getelementptr inbounds ([11 x i8], [11 x i8]* @"??_C@_0L@FELFIFPM@?0?5object?$CK?$DN?$AA@", i64 0, i64 0)) #10
  %215 = bitcast %struct.ID3D12RootSignature* %192 to i8*
  %216 = call i8* @halide_pointer_to_string(i8* %214, i8* %207, i8* %215) #10
  %217 = call i8* @halide_string_to_string(i8* %216, i8* %207, i8* nonnull getelementptr inbounds ([2 x i8], [2 x i8]* @"??_C@_01PKGAHCOL@?$CJ?$AA@", i64 0, i64 0)) #10
  %218 = call i8* @halide_string_to_string(i8* %217, i8* %207, i8* nonnull getelementptr inbounds ([2 x i8], [2 x i8]* @"??_C@_01EEMJAFIK@?6?$AA@", i64 0, i64 0)) #10
  %219 = call i8* @halide_string_to_string(i8* %218, i8* %207, i8* nonnull getelementptr inbounds ([36 x i8], [36 x i8]* @"??_C@_0CE@MGMMPJGA@vvvvv?5D3D12?5Begin?5Debug?5Dump?5vvv@", i64 0, i64 0)) #10
  store i8* %219, i8** %202, align 8, !tbaa !46
  call fastcc void @"?d3d12_debug_dump@@YAXAEAV?$Printer@$00$0EAA@@?A0x2B71E647@Internal@Runtime@Halide@@@Z"(%"class.Halide::Runtime::Internal::(anonymous namespace)::Printer"* nonnull align 8 dereferenceable(40) %2) #10
  %220 = load i8*, i8** %208, align 8, !tbaa !47
  %221 = load i8*, i8** %202, align 8, !tbaa !46
  %222 = call i8* @halide_string_to_string(i8* %221, i8* %220, i8* nonnull getelementptr inbounds ([36 x i8], [36 x i8]* @"??_C@_0CE@PCPJBLP@?$FO?$FO?$FO?$FO?$FO?5D3D12?5?5End?5?5Debug?5Dump?5?$FO?$FO?$FO@", i64 0, i64 0)) #10
  %223 = call i8* @halide_string_to_string(i8* %222, i8* %220, i8* nonnull getelementptr inbounds ([16 x i8], [16 x i8]* @"??_C@_0BA@FGKOLOB@D3D12?5HALT?5?$CB?$CB?$CB?6?$AA@", i64 0, i64 0)) #10
  store i8* %223, i8** %202, align 8, !tbaa !46
  %224 = load i8*, i8** %201, align 8, !tbaa !45
  %225 = icmp eq i8* %224, null
  %226 = load i8*, i8** %198, align 8, !tbaa !41
  br i1 %225, label %227, label %228

227:                                              ; preds = %206
  call void @halide_error(i8* %226, i8* getelementptr inbounds ([35 x i8], [35 x i8]* @"??_C@_0CD@IKIJNBLF@Printer?5buffer?5allocation?5failed@", i64 0, i64 0)) #10
  br label %234

228:                                              ; preds = %206
  %229 = ptrtoint i8* %223 to i64
  %230 = ptrtoint i8* %224 to i64
  %231 = add i64 %229, 1
  %232 = sub i64 %231, %230
  %233 = call i32 @halide_msan_annotate_memory_is_initialized(i8* %226, i8* nonnull %224, i64 %232) #10
  call void @halide_error(i8* %226, i8* nonnull %224) #10
  br label %234

234:                                              ; preds = %228, %227
  %235 = load i8, i8* %199, align 8, !tbaa !44, !range !48
  %236 = icmp eq i8 %235, 0
  %237 = getelementptr inbounds %"class.Halide::Runtime::Internal::(anonymous namespace)::Printer", %"class.Halide::Runtime::Internal::(anonymous namespace)::Printer"* %2, i64 0, i32 5, i64 0
  %238 = icmp eq i8* %224, %237
  %239 = or i1 %238, %236
  br i1 %239, label %241, label %240

240:                                              ; preds = %234
  call void @free(i8* %224) #10
  br label %241

241:                                              ; preds = %240, %234
  call void @llvm.lifetime.end.p0i8(i64 40, i8* nonnull %197) #12
  br label %242

242:                                              ; preds = %173, %241
  %243 = phi %struct.ID3D12RootSignature* [ %192, %173 ], [ null, %241 ]
  call void @llvm.lifetime.end.p0i8(i64 8, i8* nonnull %174) #12
  br label %244

244:                                              ; preds = %242, %172
  %245 = phi %struct.ID3D12RootSignature* [ null, %172 ], [ %243, %242 ]
  call void @llvm.lifetime.end.p0i8(i64 8, i8* nonnull %63) #12
  call void @llvm.lifetime.end.p0i8(i64 8, i8* nonnull %62) #12
  call void @llvm.lifetime.end.p0i8(i64 40, i8* nonnull %56) #12
  call void @llvm.lifetime.end.p0i8(i64 60, i8* nonnull %14) #12
  call void @llvm.lifetime.end.p0i8(i64 96, i8* nonnull %13) #12
  call void @llvm.lifetime.end.p0i8(i64 12, i8* nonnull %12)
  ret %struct.ID3D12RootSignature* %245
}

; Function Attrs: nounwind mustprogress
define weak dso_local void @"?dispatch_threadgroups@D3D12Compute@Internal@Runtime@Halide@@YAXPEAUd3d12_graphics_command_list@1234@HHHHHH@Z"(%"struct.Halide::Runtime::Internal::D3D12Compute::d3d12_graphics_command_list"* %0, i32 %1, i32 %2, i32 %3, i32 %4, i32 %5, i32 %6) local_unnamed_addr #0 {
  %8 = getelementptr inbounds %"struct.Halide::Runtime::Internal::D3D12Compute::d3d12_graphics_command_list", %"struct.Halide::Runtime::Internal::D3D12Compute::d3d12_graphics_command_list"* %0, i64 0, i32 0, i32 0
  %9 = load %struct.ID3D12GraphicsCommandList*, %struct.ID3D12GraphicsCommandList** %8, align 8, !tbaa !88
  %10 = bitcast %struct.ID3D12GraphicsCommandList* %9 to void (%struct.ID3D12GraphicsCommandList*, i32, i32, i32)***
  %11 = load void (%struct.ID3D12GraphicsCommandList*, i32, i32, i32)**, void (%struct.ID3D12GraphicsCommandList*, i32, i32, i32)*** %10, align 8, !tbaa !50
  %12 = getelementptr inbounds void (%struct.ID3D12GraphicsCommandList*, i32, i32, i32)*, void (%struct.ID3D12GraphicsCommandList*, i32, i32, i32)** %11, i64 14
  %13 = load void (%struct.ID3D12GraphicsCommandList*, i32, i32, i32)*, void (%struct.ID3D12GraphicsCommandList*, i32, i32, i32)** %12, align 8
  tail call void %13(%struct.ID3D12GraphicsCommandList* nonnull dereferenceable(8) %9, i32 %1, i32 %2, i32 %3) #10
  ret void
}

; Function Attrs: nounwind
define weak dso_local void @"?new_buffer_resource@D3D12Compute@Internal@Runtime@Halide@@YA?AUd3d12_buffer@1234@PEAUhalide_d3d12compute_device@@_KW4D3D12_HEAP_TYPE@@@Z"(%"struct.Halide::Runtime::Internal::D3D12Compute::d3d12_buffer"* noalias sret(%"struct.Halide::Runtime::Internal::D3D12Compute::d3d12_buffer") align 8 %0, %struct.halide_d3d12compute_device* %1, i64 %2, i32 %3) local_unnamed_addr #4 {
  %5 = alloca %"class.Halide::Runtime::Internal::(anonymous namespace)::Printer", align 8
  %6 = alloca %struct.D3D12_RESOURCE_DESC, align 8
  %7 = alloca %struct.D3D12_HEAP_PROPERTIES, align 4
  %8 = alloca %struct.ID3D12Resource*, align 8
  %9 = bitcast %struct.D3D12_RESOURCE_DESC* %6 to i8*
  call void @llvm.lifetime.start.p0i8(i64 56, i8* nonnull %9) #12
  call void @llvm.memset.p0i8.i64(i8* nonnull align 8 dereferenceable(56) %9, i8 0, i64 56, i1 false)
  %10 = getelementptr inbounds %struct.D3D12_RESOURCE_DESC, %struct.D3D12_RESOURCE_DESC* %6, i64 0, i32 0
  store i32 1, i32* %10, align 8, !tbaa !90
  %11 = getelementptr inbounds %struct.D3D12_RESOURCE_DESC, %struct.D3D12_RESOURCE_DESC* %6, i64 0, i32 1
  store i64 0, i64* %11, align 8, !tbaa !96
  %12 = getelementptr inbounds %struct.D3D12_RESOURCE_DESC, %struct.D3D12_RESOURCE_DESC* %6, i64 0, i32 2
  store i64 %2, i64* %12, align 8, !tbaa !97
  %13 = getelementptr inbounds %struct.D3D12_RESOURCE_DESC, %struct.D3D12_RESOURCE_DESC* %6, i64 0, i32 3
  store i32 1, i32* %13, align 8, !tbaa !98
  %14 = getelementptr inbounds %struct.D3D12_RESOURCE_DESC, %struct.D3D12_RESOURCE_DESC* %6, i64 0, i32 4
  store i16 1, i16* %14, align 4, !tbaa !99
  %15 = getelementptr inbounds %struct.D3D12_RESOURCE_DESC, %struct.D3D12_RESOURCE_DESC* %6, i64 0, i32 5
  store i16 1, i16* %15, align 2, !tbaa !100
  %16 = getelementptr inbounds %struct.D3D12_RESOURCE_DESC, %struct.D3D12_RESOURCE_DESC* %6, i64 0, i32 6
  %17 = bitcast i32* %16 to <4 x i32>*
  store <4 x i32> <i32 0, i32 1, i32 0, i32 1>, <4 x i32>* %17, align 8, !tbaa !40
  %18 = getelementptr inbounds %struct.D3D12_RESOURCE_DESC, %struct.D3D12_RESOURCE_DESC* %6, i64 0, i32 9
  store i32 0, i32* %18, align 8, !tbaa !101
  %19 = bitcast %struct.D3D12_HEAP_PROPERTIES* %7 to i8*
  call void @llvm.lifetime.start.p0i8(i64 20, i8* nonnull %19) #12
  %20 = getelementptr inbounds %struct.D3D12_HEAP_PROPERTIES, %struct.D3D12_HEAP_PROPERTIES* %7, i64 0, i32 0
  store i32 %3, i32* %20, align 4, !tbaa !102
  %21 = getelementptr inbounds %struct.D3D12_HEAP_PROPERTIES, %struct.D3D12_HEAP_PROPERTIES* %7, i64 0, i32 1
  %22 = bitcast i32* %21 to <4 x i32>*
  store <4 x i32> zeroinitializer, <4 x i32>* %22, align 4, !tbaa !40
  switch i32 %3, label %25 [
    i32 2, label %26
    i32 3, label %23
    i32 1, label %24
  ]

23:                                               ; preds = %4
  br label %26

24:                                               ; preds = %4
  store i32 4, i32* %18, align 8, !tbaa !101
  br label %26

25:                                               ; preds = %4
  tail call void @halide_print(i8* null, i8* getelementptr inbounds ([106 x i8], [106 x i8]* @"??_C@_0GK@DILKJBBI@?1media?1maaz?1Data?1Repos?1rake?1Hali@", i64 0, i64 0)) #10
  tail call void @abort() #10
  br label %26

26:                                               ; preds = %4, %25, %24, %23
  %27 = phi i32 [ 0, %25 ], [ 8, %24 ], [ 1024, %23 ], [ 2755, %4 ]
  %28 = bitcast %"struct.Halide::Runtime::Internal::D3D12Compute::d3d12_buffer"* %0 to i8*
  tail call void @llvm.memset.p0i8.i64(i8* nonnull align 8 dereferenceable(96) %28, i8 0, i64 96, i1 false)
  %29 = getelementptr inbounds %"struct.Halide::Runtime::Internal::D3D12Compute::d3d12_buffer", %"struct.Halide::Runtime::Internal::D3D12Compute::d3d12_buffer"* %0, i64 0, i32 9, i32 0
  store i8 0, i8* %29, align 8, !tbaa !107
  %30 = getelementptr inbounds %"struct.Halide::Runtime::Internal::D3D12Compute::d3d12_buffer", %"struct.Halide::Runtime::Internal::D3D12Compute::d3d12_buffer"* %0, i64 0, i32 9, i32 1
  store i8 0, i8* %30, align 1, !tbaa !26
  %31 = getelementptr inbounds %"struct.Halide::Runtime::Internal::D3D12Compute::d3d12_buffer", %"struct.Halide::Runtime::Internal::D3D12Compute::d3d12_buffer"* %0, i64 0, i32 9, i32 2
  store i16 0, i16* %31, align 2, !tbaa !108
  %32 = bitcast %struct.ID3D12Resource** %8 to i8*
  call void @llvm.lifetime.start.p0i8(i64 8, i8* nonnull %32) #12
  store %struct.ID3D12Resource* null, %struct.ID3D12Resource** %8, align 8, !tbaa !49
  %33 = bitcast %struct.halide_d3d12compute_device* %1 to %struct.ID3D12Device*
  %34 = bitcast %struct.ID3D12Resource** %8 to i8**
  %35 = bitcast %struct.halide_d3d12compute_device* %1 to i32 (%struct.ID3D12Device*, %struct.D3D12_HEAP_PROPERTIES*, i32, %struct.D3D12_RESOURCE_DESC*, i32, %struct.D3D12_CLEAR_VALUE*, %struct._GUID*, i8**)***
  %36 = load i32 (%struct.ID3D12Device*, %struct.D3D12_HEAP_PROPERTIES*, i32, %struct.D3D12_RESOURCE_DESC*, i32, %struct.D3D12_CLEAR_VALUE*, %struct._GUID*, i8**)**, i32 (%struct.ID3D12Device*, %struct.D3D12_HEAP_PROPERTIES*, i32, %struct.D3D12_RESOURCE_DESC*, i32, %struct.D3D12_CLEAR_VALUE*, %struct._GUID*, i8**)*** %35, align 8, !tbaa !50
  %37 = getelementptr inbounds i32 (%struct.ID3D12Device*, %struct.D3D12_HEAP_PROPERTIES*, i32, %struct.D3D12_RESOURCE_DESC*, i32, %struct.D3D12_CLEAR_VALUE*, %struct._GUID*, i8**)*, i32 (%struct.ID3D12Device*, %struct.D3D12_HEAP_PROPERTIES*, i32, %struct.D3D12_RESOURCE_DESC*, i32, %struct.D3D12_CLEAR_VALUE*, %struct._GUID*, i8**)** %36, i64 27
  %38 = load i32 (%struct.ID3D12Device*, %struct.D3D12_HEAP_PROPERTIES*, i32, %struct.D3D12_RESOURCE_DESC*, i32, %struct.D3D12_CLEAR_VALUE*, %struct._GUID*, i8**)*, i32 (%struct.ID3D12Device*, %struct.D3D12_HEAP_PROPERTIES*, i32, %struct.D3D12_RESOURCE_DESC*, i32, %struct.D3D12_CLEAR_VALUE*, %struct._GUID*, i8**)** %37, align 8
  %39 = call i32 %38(%struct.ID3D12Device* nonnull dereferenceable(8) %33, %struct.D3D12_HEAP_PROPERTIES* nonnull %7, i32 0, %struct.D3D12_RESOURCE_DESC* nonnull %6, i32 %27, %struct.D3D12_CLEAR_VALUE* null, %struct._GUID* nonnull align 4 dereferenceable(16) @_GUID_696442be_a72e_4059_bc79_5b5c98040fad, i8** nonnull %34) #10
  %40 = load %struct.ID3D12Resource*, %struct.ID3D12Resource** %8, align 8, !tbaa !49
  %41 = icmp sgt i32 %39, -1
  %42 = icmp ne %struct.ID3D12Resource* %40, null
  %43 = and i1 %41, %42
  br i1 %43, label %90, label %44

44:                                               ; preds = %26
  %45 = bitcast %"class.Halide::Runtime::Internal::(anonymous namespace)::Printer"* %5 to i8*
  call void @llvm.lifetime.start.p0i8(i64 40, i8* nonnull %45) #12
  %46 = getelementptr inbounds %"class.Halide::Runtime::Internal::(anonymous namespace)::Printer", %"class.Halide::Runtime::Internal::(anonymous namespace)::Printer"* %5, i64 0, i32 3
  store i8* null, i8** %46, align 8, !tbaa !41
  %47 = getelementptr inbounds %"class.Halide::Runtime::Internal::(anonymous namespace)::Printer", %"class.Halide::Runtime::Internal::(anonymous namespace)::Printer"* %5, i64 0, i32 4
  store i8 1, i8* %47, align 8, !tbaa !44
  %48 = call i8* @malloc(i64 1024) #10
  %49 = getelementptr inbounds %"class.Halide::Runtime::Internal::(anonymous namespace)::Printer", %"class.Halide::Runtime::Internal::(anonymous namespace)::Printer"* %5, i64 0, i32 0
  store i8* %48, i8** %49, align 8, !tbaa !45
  %50 = getelementptr inbounds %"class.Halide::Runtime::Internal::(anonymous namespace)::Printer", %"class.Halide::Runtime::Internal::(anonymous namespace)::Printer"* %5, i64 0, i32 1
  %51 = icmp eq i8* %48, null
  br i1 %51, label %54, label %52

52:                                               ; preds = %44
  %53 = getelementptr inbounds i8, i8* %48, i64 1023
  store i8 0, i8* %53, align 1, !tbaa !40
  br label %54

54:                                               ; preds = %52, %44
  %55 = phi i8* [ %53, %52 ], [ null, %44 ]
  %56 = getelementptr inbounds %"class.Halide::Runtime::Internal::(anonymous namespace)::Printer", %"class.Halide::Runtime::Internal::(anonymous namespace)::Printer"* %5, i64 0, i32 2
  store i8* %55, i8** %56, align 8
  %57 = call i8* @halide_string_to_string(i8* %48, i8* %55, i8* nonnull getelementptr inbounds ([40 x i8], [40 x i8]* @"??_C@_0CI@NPEAIHAH@Unable?5to?5create?5the?5Direct3D?512@", i64 0, i64 0)) #10
  %58 = call i8* @halide_string_to_string(i8* %57, i8* %55, i8* nonnull getelementptr inbounds ([11 x i8], [11 x i8]* @"??_C@_0L@IAGCJOCP@?5?$CIHRESULT?$DN?$AA@", i64 0, i64 0)) #10
  %59 = sext i32 %39 to i64
  %60 = inttoptr i64 %59 to i8*
  %61 = call i8* @halide_pointer_to_string(i8* %58, i8* %55, i8* %60) #10
  %62 = call i8* @halide_string_to_string(i8* %61, i8* %55, i8* nonnull getelementptr inbounds ([11 x i8], [11 x i8]* @"??_C@_0L@FELFIFPM@?0?5object?$CK?$DN?$AA@", i64 0, i64 0)) #10
  %63 = bitcast %struct.ID3D12Resource* %40 to i8*
  %64 = call i8* @halide_pointer_to_string(i8* %62, i8* %55, i8* %63) #10
  %65 = call i8* @halide_string_to_string(i8* %64, i8* %55, i8* nonnull getelementptr inbounds ([2 x i8], [2 x i8]* @"??_C@_01PKGAHCOL@?$CJ?$AA@", i64 0, i64 0)) #10
  %66 = call i8* @halide_string_to_string(i8* %65, i8* %55, i8* nonnull getelementptr inbounds ([2 x i8], [2 x i8]* @"??_C@_01EEMJAFIK@?6?$AA@", i64 0, i64 0)) #10
  %67 = call i8* @halide_string_to_string(i8* %66, i8* %55, i8* nonnull getelementptr inbounds ([36 x i8], [36 x i8]* @"??_C@_0CE@MGMMPJGA@vvvvv?5D3D12?5Begin?5Debug?5Dump?5vvv@", i64 0, i64 0)) #10
  store i8* %67, i8** %50, align 8, !tbaa !46
  call fastcc void @"?d3d12_debug_dump@@YAXAEAV?$Printer@$00$0EAA@@?A0x2B71E647@Internal@Runtime@Halide@@@Z"(%"class.Halide::Runtime::Internal::(anonymous namespace)::Printer"* nonnull align 8 dereferenceable(40) %5) #10
  %68 = load i8*, i8** %56, align 8, !tbaa !47
  %69 = load i8*, i8** %50, align 8, !tbaa !46
  %70 = call i8* @halide_string_to_string(i8* %69, i8* %68, i8* nonnull getelementptr inbounds ([36 x i8], [36 x i8]* @"??_C@_0CE@PCPJBLP@?$FO?$FO?$FO?$FO?$FO?5D3D12?5?5End?5?5Debug?5Dump?5?$FO?$FO?$FO@", i64 0, i64 0)) #10
  %71 = call i8* @halide_string_to_string(i8* %70, i8* %68, i8* nonnull getelementptr inbounds ([16 x i8], [16 x i8]* @"??_C@_0BA@FGKOLOB@D3D12?5HALT?5?$CB?$CB?$CB?6?$AA@", i64 0, i64 0)) #10
  store i8* %71, i8** %50, align 8, !tbaa !46
  %72 = load i8*, i8** %49, align 8, !tbaa !45
  %73 = icmp eq i8* %72, null
  %74 = load i8*, i8** %46, align 8, !tbaa !41
  br i1 %73, label %75, label %76

75:                                               ; preds = %54
  call void @halide_error(i8* %74, i8* getelementptr inbounds ([35 x i8], [35 x i8]* @"??_C@_0CD@IKIJNBLF@Printer?5buffer?5allocation?5failed@", i64 0, i64 0)) #10
  br label %82

76:                                               ; preds = %54
  %77 = ptrtoint i8* %71 to i64
  %78 = ptrtoint i8* %72 to i64
  %79 = add i64 %77, 1
  %80 = sub i64 %79, %78
  %81 = call i32 @halide_msan_annotate_memory_is_initialized(i8* %74, i8* nonnull %72, i64 %80) #10
  call void @halide_error(i8* %74, i8* nonnull %72) #10
  br label %82

82:                                               ; preds = %76, %75
  %83 = load i8, i8* %47, align 8, !tbaa !44, !range !48
  %84 = icmp eq i8 %83, 0
  %85 = getelementptr inbounds %"class.Halide::Runtime::Internal::(anonymous namespace)::Printer", %"class.Halide::Runtime::Internal::(anonymous namespace)::Printer"* %5, i64 0, i32 5, i64 0
  %86 = icmp eq i8* %72, %85
  %87 = or i1 %86, %84
  br i1 %87, label %89, label %88

88:                                               ; preds = %82
  call void @free(i8* %72) #10
  br label %89

89:                                               ; preds = %82, %88
  call void @llvm.lifetime.end.p0i8(i64 40, i8* nonnull %45) #12
  br label %102

90:                                               ; preds = %26
  %91 = getelementptr inbounds %"struct.Halide::Runtime::Internal::D3D12Compute::d3d12_buffer", %"struct.Halide::Runtime::Internal::D3D12Compute::d3d12_buffer"* %0, i64 0, i32 0
  store %struct.ID3D12Resource* %40, %struct.ID3D12Resource** %91, align 8, !tbaa !54
  %92 = trunc i64 %2 to i32
  %93 = getelementptr inbounds %"struct.Halide::Runtime::Internal::D3D12Compute::d3d12_buffer", %"struct.Halide::Runtime::Internal::D3D12Compute::d3d12_buffer"* %0, i64 0, i32 1
  store i32 %92, i32* %93, align 8, !tbaa !109
  %94 = getelementptr inbounds %"struct.Halide::Runtime::Internal::D3D12Compute::d3d12_buffer", %"struct.Halide::Runtime::Internal::D3D12Compute::d3d12_buffer"* %0, i64 0, i32 2
  store i32 %92, i32* %94, align 4, !tbaa !63
  %95 = getelementptr inbounds %"struct.Halide::Runtime::Internal::D3D12Compute::d3d12_buffer", %"struct.Halide::Runtime::Internal::D3D12Compute::d3d12_buffer"* %0, i64 0, i32 7
  store i32 %27, i32* %95, align 8, !tbaa !110
  %96 = getelementptr inbounds %"struct.Halide::Runtime::Internal::D3D12Compute::d3d12_buffer", %"struct.Halide::Runtime::Internal::D3D12Compute::d3d12_buffer"* %0, i64 0, i32 8
  store i32 0, i32* %96, align 4, !tbaa !111
  %97 = getelementptr inbounds %"struct.Halide::Runtime::Internal::D3D12Compute::d3d12_buffer", %"struct.Halide::Runtime::Internal::D3D12Compute::d3d12_buffer"* %0, i64 0, i32 6
  store i32 0, i32* %97, align 4, !tbaa !69
  %98 = getelementptr inbounds %"struct.Halide::Runtime::Internal::D3D12Compute::d3d12_buffer", %"struct.Halide::Runtime::Internal::D3D12Compute::d3d12_buffer"* %0, i64 0, i32 11
  store i8 0, i8* %98, align 8, !tbaa !112
  %99 = getelementptr inbounds %"struct.Halide::Runtime::Internal::D3D12Compute::d3d12_buffer", %"struct.Halide::Runtime::Internal::D3D12Compute::d3d12_buffer"* %0, i64 0, i32 12
  store i8* null, i8** %99, align 8, !tbaa !113
  %100 = getelementptr inbounds %"struct.Halide::Runtime::Internal::D3D12Compute::d3d12_buffer", %"struct.Halide::Runtime::Internal::D3D12Compute::d3d12_buffer"* %0, i64 0, i32 15
  store i64 0, i64* %100, align 8, !tbaa !114
  %101 = getelementptr inbounds %"struct.Halide::Runtime::Internal::D3D12Compute::d3d12_buffer", %"struct.Halide::Runtime::Internal::D3D12Compute::d3d12_buffer"* %0, i64 0, i32 14
  store atomic volatile i64 0, i64* %101 seq_cst, align 8
  br label %102

102:                                              ; preds = %89, %90
  call void @llvm.lifetime.end.p0i8(i64 8, i8* nonnull %32) #12
  call void @llvm.lifetime.end.p0i8(i64 20, i8* nonnull %19) #12
  call void @llvm.lifetime.end.p0i8(i64 56, i8* nonnull %9) #12
  ret void
}

; Function Attrs: nounwind mustprogress
define weak dso_local void @"?new_device_buffer@D3D12Compute@Internal@Runtime@Halide@@YA?AUd3d12_buffer@1234@PEAUhalide_d3d12compute_device@@_K@Z"(%"struct.Halide::Runtime::Internal::D3D12Compute::d3d12_buffer"* noalias sret(%"struct.Halide::Runtime::Internal::D3D12Compute::d3d12_buffer") align 8 %0, %struct.halide_d3d12compute_device* %1, i64 %2) local_unnamed_addr #0 {
  tail call void @"?new_buffer_resource@D3D12Compute@Internal@Runtime@Halide@@YA?AUd3d12_buffer@1234@PEAUhalide_d3d12compute_device@@_KW4D3D12_HEAP_TYPE@@@Z"(%"struct.Halide::Runtime::Internal::D3D12Compute::d3d12_buffer"* sret(%"struct.Halide::Runtime::Internal::D3D12Compute::d3d12_buffer") align 8 %0, %struct.halide_d3d12compute_device* %1, i64 %2, i32 1) #11
  %4 = getelementptr inbounds %"struct.Halide::Runtime::Internal::D3D12Compute::d3d12_buffer", %"struct.Halide::Runtime::Internal::D3D12Compute::d3d12_buffer"* %0, i64 0, i32 8
  store i32 2, i32* %4, align 4, !tbaa !111
  ret void
}

; Function Attrs: nounwind mustprogress
define weak dso_local i8* @"?map_buffer@D3D12Compute@Internal@Runtime@Halide@@YAPEAXPEAUd3d12_buffer@1234@@Z"(%"struct.Halide::Runtime::Internal::D3D12Compute::d3d12_buffer"* %0) local_unnamed_addr #0 {
  %2 = alloca <2 x i64>, align 16
  %3 = bitcast <2 x i64>* %2 to %struct.D3D12_RANGE*
  %4 = alloca i8*, align 8
  %5 = getelementptr inbounds %"struct.Halide::Runtime::Internal::D3D12Compute::d3d12_buffer", %"struct.Halide::Runtime::Internal::D3D12Compute::d3d12_buffer"* %0, i64 0, i32 13
  %6 = load i8*, i8** %5, align 8, !tbaa !115
  %7 = icmp eq i8* %6, null
  br i1 %7, label %8, label %41

8:                                                ; preds = %1
  %9 = bitcast <2 x i64>* %2 to i8*
  call void @llvm.lifetime.start.p0i8(i64 16, i8* nonnull %9) #12
  call void @llvm.memset.p0i8.i64(i8* nonnull align 16 dereferenceable(16) %9, i8 0, i64 16, i1 false)
  %10 = getelementptr inbounds %"struct.Halide::Runtime::Internal::D3D12Compute::d3d12_buffer", %"struct.Halide::Runtime::Internal::D3D12Compute::d3d12_buffer"* %0, i64 0, i32 8
  %11 = load i32, i32* %10, align 4, !tbaa !111
  switch i32 %11, label %19 [
    i32 1, label %12
    i32 5, label %12
    i32 6, label %13
  ]

12:                                               ; preds = %8, %8
  store <2 x i64> zeroinitializer, <2 x i64>* %2, align 16, !tbaa !6
  br label %20

13:                                               ; preds = %8
  %14 = getelementptr inbounds <2 x i64>, <2 x i64>* %2, i64 0, i64 0
  store i64 0, i64* %14, align 16, !tbaa !116
  %15 = getelementptr inbounds %"struct.Halide::Runtime::Internal::D3D12Compute::d3d12_buffer", %"struct.Halide::Runtime::Internal::D3D12Compute::d3d12_buffer"* %0, i64 0, i32 2
  %16 = load i32, i32* %15, align 4, !tbaa !63
  %17 = zext i32 %16 to i64
  %18 = getelementptr inbounds %struct.D3D12_RANGE, %struct.D3D12_RANGE* %3, i64 0, i32 1
  store i64 %17, i64* %18, align 8, !tbaa !118
  br label %20

19:                                               ; preds = %8
  tail call void @halide_print(i8* null, i8* getelementptr inbounds ([106 x i8], [106 x i8]* @"??_C@_0GK@NMMJINNK@?1media?1maaz?1Data?1Repos?1rake?1Hali@", i64 0, i64 0)) #10
  tail call void @abort() #10
  br label %20

20:                                               ; preds = %19, %13, %12
  %21 = getelementptr inbounds %"struct.Halide::Runtime::Internal::D3D12Compute::d3d12_buffer", %"struct.Halide::Runtime::Internal::D3D12Compute::d3d12_buffer"* %0, i64 0, i32 0
  %22 = load %struct.ID3D12Resource*, %struct.ID3D12Resource** %21, align 8, !tbaa !54
  %23 = bitcast i8** %4 to i8*
  call void @llvm.lifetime.start.p0i8(i64 8, i8* nonnull %23) #12
  store i8* null, i8** %4, align 8, !tbaa !49
  %24 = bitcast %struct.ID3D12Resource* %22 to i32 (%struct.ID3D12Resource*, i32, %struct.D3D12_RANGE*, i8**)***
  %25 = load i32 (%struct.ID3D12Resource*, i32, %struct.D3D12_RANGE*, i8**)**, i32 (%struct.ID3D12Resource*, i32, %struct.D3D12_RANGE*, i8**)*** %24, align 8, !tbaa !50
  %26 = getelementptr inbounds i32 (%struct.ID3D12Resource*, i32, %struct.D3D12_RANGE*, i8**)*, i32 (%struct.ID3D12Resource*, i32, %struct.D3D12_RANGE*, i8**)** %25, i64 8
  %27 = load i32 (%struct.ID3D12Resource*, i32, %struct.D3D12_RANGE*, i8**)*, i32 (%struct.ID3D12Resource*, i32, %struct.D3D12_RANGE*, i8**)** %26, align 8
  %28 = call i32 %27(%struct.ID3D12Resource* nonnull dereferenceable(8) %22, i32 0, %struct.D3D12_RANGE* nonnull %3, i8** nonnull %4) #10
  %29 = bitcast i8** %4 to %"struct.Halide::Runtime::Internal::D3D12Compute::ID3D12MemoryMappedResourceFAUX"**
  %30 = load %"struct.Halide::Runtime::Internal::D3D12Compute::ID3D12MemoryMappedResourceFAUX"*, %"struct.Halide::Runtime::Internal::D3D12Compute::ID3D12MemoryMappedResourceFAUX"** %29, align 8, !tbaa !49
  %31 = call fastcc i1 @"??$D3DErrorCheck@UID3D12MemoryMappedResourceFAUX@D3D12Compute@Internal@Runtime@Halide@@@@YA_NHPEAUID3D12MemoryMappedResourceFAUX@D3D12Compute@Internal@Runtime@Halide@@PEAXPEBD@Z"(i32 %28, %"struct.Halide::Runtime::Internal::D3D12Compute::ID3D12MemoryMappedResourceFAUX"* %30, i8* getelementptr inbounds ([48 x i8], [48 x i8]* @"??_C@_0DA@HBIDIHJB@Unable?5to?5map?5Direct3D?512?5stagin@", i64 0, i64 0)) #11
  br i1 %31, label %39, label %32

32:                                               ; preds = %20
  %33 = load i8*, i8** %4, align 8, !tbaa !49
  %34 = icmp eq i8* %33, null
  br i1 %34, label %35, label %37

35:                                               ; preds = %32
  call void @halide_print(i8* null, i8* getelementptr inbounds ([106 x i8], [106 x i8]* @"??_C@_0GK@HACGJCLB@?1media?1maaz?1Data?1Repos?1rake?1Hali@", i64 0, i64 0)) #10
  call void @abort() #10
  %36 = load i8*, i8** %4, align 8, !tbaa !49
  br label %37

37:                                               ; preds = %35, %32
  %38 = phi i8* [ %36, %35 ], [ %33, %32 ]
  store i8* %38, i8** %5, align 8, !tbaa !115
  br label %39

39:                                               ; preds = %20, %37
  %40 = phi i8* [ %38, %37 ], [ null, %20 ]
  call void @llvm.lifetime.end.p0i8(i64 8, i8* nonnull %23) #12
  call void @llvm.lifetime.end.p0i8(i64 16, i8* nonnull %9) #12
  br label %41

41:                                               ; preds = %1, %39
  %42 = phi i8* [ %40, %39 ], [ %6, %1 ]
  ret i8* %42
}

; Function Attrs: nounwind
define internal fastcc i1 @"??$D3DErrorCheck@UID3D12MemoryMappedResourceFAUX@D3D12Compute@Internal@Runtime@Halide@@@@YA_NHPEAUID3D12MemoryMappedResourceFAUX@D3D12Compute@Internal@Runtime@Halide@@PEAXPEBD@Z"(i32 %0, %"struct.Halide::Runtime::Internal::D3D12Compute::ID3D12MemoryMappedResourceFAUX"* %1, i8* %2) unnamed_addr #4 {
  %4 = alloca %"class.Halide::Runtime::Internal::(anonymous namespace)::Printer", align 8
  %5 = icmp sgt i32 %0, -1
  %6 = icmp ne %"struct.Halide::Runtime::Internal::D3D12Compute::ID3D12MemoryMappedResourceFAUX"* %1, null
  %7 = and i1 %5, %6
  br i1 %7, label %60, label %8

8:                                                ; preds = %3
  %9 = bitcast %"class.Halide::Runtime::Internal::(anonymous namespace)::Printer"* %4 to i8*
  call void @llvm.lifetime.start.p0i8(i64 40, i8* nonnull %9) #12
  %10 = getelementptr inbounds %"class.Halide::Runtime::Internal::(anonymous namespace)::Printer", %"class.Halide::Runtime::Internal::(anonymous namespace)::Printer"* %4, i64 0, i32 3
  store i8* null, i8** %10, align 8, !tbaa !41
  %11 = getelementptr inbounds %"class.Halide::Runtime::Internal::(anonymous namespace)::Printer", %"class.Halide::Runtime::Internal::(anonymous namespace)::Printer"* %4, i64 0, i32 4
  store i8 1, i8* %11, align 8, !tbaa !44
  %12 = tail call i8* @malloc(i64 1024) #10
  %13 = getelementptr inbounds %"class.Halide::Runtime::Internal::(anonymous namespace)::Printer", %"class.Halide::Runtime::Internal::(anonymous namespace)::Printer"* %4, i64 0, i32 0
  store i8* %12, i8** %13, align 8, !tbaa !45
  %14 = getelementptr inbounds %"class.Halide::Runtime::Internal::(anonymous namespace)::Printer", %"class.Halide::Runtime::Internal::(anonymous namespace)::Printer"* %4, i64 0, i32 1
  %15 = icmp eq i8* %12, null
  br i1 %15, label %18, label %16

16:                                               ; preds = %8
  %17 = getelementptr inbounds i8, i8* %12, i64 1023
  store i8 0, i8* %17, align 1, !tbaa !40
  br label %18

18:                                               ; preds = %8, %16
  %19 = phi i8* [ %17, %16 ], [ null, %8 ]
  %20 = getelementptr inbounds %"class.Halide::Runtime::Internal::(anonymous namespace)::Printer", %"class.Halide::Runtime::Internal::(anonymous namespace)::Printer"* %4, i64 0, i32 2
  store i8* %19, i8** %20, align 8
  %21 = icmp eq i8* %2, null
  br i1 %21, label %22, label %24

22:                                               ; preds = %18
  %23 = tail call i8* @halide_string_to_string(i8* %12, i8* %19, i8* getelementptr inbounds ([10 x i8], [10 x i8]* @"??_C@_09CGLEKJAK@?$DMnullptr?$DO?$AA@", i64 0, i64 0)) #10
  br label %26

24:                                               ; preds = %18
  %25 = tail call i8* @halide_string_to_string(i8* %12, i8* %19, i8* nonnull %2) #10
  br label %26

26:                                               ; preds = %22, %24
  %27 = phi i8* [ %25, %24 ], [ %23, %22 ]
  %28 = tail call i8* @halide_string_to_string(i8* %27, i8* %19, i8* nonnull getelementptr inbounds ([11 x i8], [11 x i8]* @"??_C@_0L@IAGCJOCP@?5?$CIHRESULT?$DN?$AA@", i64 0, i64 0)) #10
  %29 = sext i32 %0 to i64
  %30 = inttoptr i64 %29 to i8*
  %31 = tail call i8* @halide_pointer_to_string(i8* %28, i8* %19, i8* %30) #10
  %32 = tail call i8* @halide_string_to_string(i8* %31, i8* %19, i8* nonnull getelementptr inbounds ([11 x i8], [11 x i8]* @"??_C@_0L@FELFIFPM@?0?5object?$CK?$DN?$AA@", i64 0, i64 0)) #10
  %33 = bitcast %"struct.Halide::Runtime::Internal::D3D12Compute::ID3D12MemoryMappedResourceFAUX"* %1 to i8*
  %34 = tail call i8* @halide_pointer_to_string(i8* %32, i8* %19, i8* %33) #10
  %35 = tail call i8* @halide_string_to_string(i8* %34, i8* %19, i8* nonnull getelementptr inbounds ([2 x i8], [2 x i8]* @"??_C@_01PKGAHCOL@?$CJ?$AA@", i64 0, i64 0)) #10
  %36 = tail call i8* @halide_string_to_string(i8* %35, i8* %19, i8* nonnull getelementptr inbounds ([2 x i8], [2 x i8]* @"??_C@_01EEMJAFIK@?6?$AA@", i64 0, i64 0)) #10
  %37 = tail call i8* @halide_string_to_string(i8* %36, i8* %19, i8* nonnull getelementptr inbounds ([36 x i8], [36 x i8]* @"??_C@_0CE@MGMMPJGA@vvvvv?5D3D12?5Begin?5Debug?5Dump?5vvv@", i64 0, i64 0)) #10
  store i8* %37, i8** %14, align 8, !tbaa !46
  call fastcc void @"?d3d12_debug_dump@@YAXAEAV?$Printer@$00$0EAA@@?A0x2B71E647@Internal@Runtime@Halide@@@Z"(%"class.Halide::Runtime::Internal::(anonymous namespace)::Printer"* nonnull align 8 dereferenceable(40) %4) #11
  %38 = load i8*, i8** %20, align 8, !tbaa !47
  %39 = load i8*, i8** %14, align 8, !tbaa !46
  %40 = tail call i8* @halide_string_to_string(i8* %39, i8* %38, i8* nonnull getelementptr inbounds ([36 x i8], [36 x i8]* @"??_C@_0CE@PCPJBLP@?$FO?$FO?$FO?$FO?$FO?5D3D12?5?5End?5?5Debug?5Dump?5?$FO?$FO?$FO@", i64 0, i64 0)) #10
  %41 = tail call i8* @halide_string_to_string(i8* %40, i8* %38, i8* nonnull getelementptr inbounds ([16 x i8], [16 x i8]* @"??_C@_0BA@FGKOLOB@D3D12?5HALT?5?$CB?$CB?$CB?6?$AA@", i64 0, i64 0)) #10
  store i8* %41, i8** %14, align 8, !tbaa !46
  %42 = load i8*, i8** %13, align 8, !tbaa !45
  %43 = icmp eq i8* %42, null
  %44 = load i8*, i8** %10, align 8, !tbaa !41
  br i1 %43, label %45, label %46

45:                                               ; preds = %26
  tail call void @halide_error(i8* %44, i8* getelementptr inbounds ([35 x i8], [35 x i8]* @"??_C@_0CD@IKIJNBLF@Printer?5buffer?5allocation?5failed@", i64 0, i64 0)) #10
  br label %52

46:                                               ; preds = %26
  %47 = ptrtoint i8* %41 to i64
  %48 = ptrtoint i8* %42 to i64
  %49 = add i64 %47, 1
  %50 = sub i64 %49, %48
  %51 = tail call i32 @halide_msan_annotate_memory_is_initialized(i8* %44, i8* nonnull %42, i64 %50) #10
  tail call void @halide_error(i8* %44, i8* nonnull %42) #10
  br label %52

52:                                               ; preds = %46, %45
  %53 = load i8, i8* %11, align 8, !tbaa !44, !range !48
  %54 = icmp eq i8 %53, 0
  %55 = getelementptr inbounds %"class.Halide::Runtime::Internal::(anonymous namespace)::Printer", %"class.Halide::Runtime::Internal::(anonymous namespace)::Printer"* %4, i64 0, i32 5, i64 0
  %56 = icmp eq i8* %42, %55
  %57 = or i1 %54, %56
  br i1 %57, label %59, label %58

58:                                               ; preds = %52
  call void @free(i8* %42) #10
  br label %59

59:                                               ; preds = %52, %58
  call void @llvm.lifetime.end.p0i8(i64 40, i8* nonnull %9) #12
  br label %60

60:                                               ; preds = %3, %59
  %61 = and i1 %5, %6
  %62 = xor i1 %61, true
  ret i1 %62
}

; Function Attrs: nounwind
define weak dso_local void @"?unmap_buffer@D3D12Compute@Internal@Runtime@Halide@@YAXPEAUd3d12_buffer@1234@@Z"(%"struct.Halide::Runtime::Internal::D3D12Compute::d3d12_buffer"* %0) local_unnamed_addr #4 {
  %2 = alloca <2 x i64>, align 16
  %3 = bitcast <2 x i64>* %2 to %struct.D3D12_RANGE*
  %4 = getelementptr inbounds %"struct.Halide::Runtime::Internal::D3D12Compute::d3d12_buffer", %"struct.Halide::Runtime::Internal::D3D12Compute::d3d12_buffer"* %0, i64 0, i32 13
  %5 = load i8*, i8** %4, align 8, !tbaa !115
  %6 = icmp eq i8* %5, null
  br i1 %6, label %26, label %7

7:                                                ; preds = %1
  %8 = bitcast <2 x i64>* %2 to i8*
  call void @llvm.lifetime.start.p0i8(i64 16, i8* nonnull %8) #12
  call void @llvm.memset.p0i8.i64(i8* nonnull align 16 dereferenceable(16) %8, i8 0, i64 16, i1 false)
  %9 = getelementptr inbounds %"struct.Halide::Runtime::Internal::D3D12Compute::d3d12_buffer", %"struct.Halide::Runtime::Internal::D3D12Compute::d3d12_buffer"* %0, i64 0, i32 8
  %10 = load i32, i32* %9, align 4, !tbaa !111
  switch i32 %10, label %18 [
    i32 1, label %11
    i32 5, label %11
    i32 6, label %17
  ]

11:                                               ; preds = %7, %7
  %12 = getelementptr inbounds <2 x i64>, <2 x i64>* %2, i64 0, i64 0
  store i64 0, i64* %12, align 16, !tbaa !116
  %13 = getelementptr inbounds %"struct.Halide::Runtime::Internal::D3D12Compute::d3d12_buffer", %"struct.Halide::Runtime::Internal::D3D12Compute::d3d12_buffer"* %0, i64 0, i32 2
  %14 = load i32, i32* %13, align 4, !tbaa !63
  %15 = zext i32 %14 to i64
  %16 = getelementptr inbounds %struct.D3D12_RANGE, %struct.D3D12_RANGE* %3, i64 0, i32 1
  store i64 %15, i64* %16, align 8, !tbaa !118
  br label %19

17:                                               ; preds = %7
  store <2 x i64> zeroinitializer, <2 x i64>* %2, align 16, !tbaa !6
  br label %19

18:                                               ; preds = %7
  tail call void @halide_print(i8* null, i8* getelementptr inbounds ([106 x i8], [106 x i8]* @"??_C@_0GK@MGAKONOO@?1media?1maaz?1Data?1Repos?1rake?1Hali@", i64 0, i64 0)) #10
  tail call void @abort() #10
  br label %19

19:                                               ; preds = %11, %17, %18
  %20 = getelementptr inbounds %"struct.Halide::Runtime::Internal::D3D12Compute::d3d12_buffer", %"struct.Halide::Runtime::Internal::D3D12Compute::d3d12_buffer"* %0, i64 0, i32 0
  %21 = load %struct.ID3D12Resource*, %struct.ID3D12Resource** %20, align 8, !tbaa !54
  %22 = bitcast %struct.ID3D12Resource* %21 to void (%struct.ID3D12Resource*, i32, %struct.D3D12_RANGE*)***
  %23 = load void (%struct.ID3D12Resource*, i32, %struct.D3D12_RANGE*)**, void (%struct.ID3D12Resource*, i32, %struct.D3D12_RANGE*)*** %22, align 8, !tbaa !50
  %24 = getelementptr inbounds void (%struct.ID3D12Resource*, i32, %struct.D3D12_RANGE*)*, void (%struct.ID3D12Resource*, i32, %struct.D3D12_RANGE*)** %23, i64 9
  %25 = load void (%struct.ID3D12Resource*, i32, %struct.D3D12_RANGE*)*, void (%struct.ID3D12Resource*, i32, %struct.D3D12_RANGE*)** %24, align 8
  call void %25(%struct.ID3D12Resource* nonnull dereferenceable(8) %21, i32 0, %struct.D3D12_RANGE* nonnull %3) #10
  store i8* null, i8** %4, align 8, !tbaa !115
  call void @llvm.lifetime.end.p0i8(i64 16, i8* nonnull %8) #12
  br label %26

26:                                               ; preds = %1, %19
  ret void
}

; Function Attrs: nounwind mustprogress
define weak dso_local void @"?new_upload_buffer@D3D12Compute@Internal@Runtime@Halide@@YA?AUd3d12_buffer@1234@PEAUhalide_d3d12compute_device@@_K@Z"(%"struct.Halide::Runtime::Internal::D3D12Compute::d3d12_buffer"* noalias sret(%"struct.Halide::Runtime::Internal::D3D12Compute::d3d12_buffer") align 8 %0, %struct.halide_d3d12compute_device* %1, i64 %2) local_unnamed_addr #0 {
  tail call void @"?new_buffer_resource@D3D12Compute@Internal@Runtime@Halide@@YA?AUd3d12_buffer@1234@PEAUhalide_d3d12compute_device@@_KW4D3D12_HEAP_TYPE@@@Z"(%"struct.Halide::Runtime::Internal::D3D12Compute::d3d12_buffer"* sret(%"struct.Halide::Runtime::Internal::D3D12Compute::d3d12_buffer") align 8 %0, %struct.halide_d3d12compute_device* %1, i64 %2, i32 2) #11
  %4 = getelementptr inbounds %"struct.Halide::Runtime::Internal::D3D12Compute::d3d12_buffer", %"struct.Halide::Runtime::Internal::D3D12Compute::d3d12_buffer"* %0, i64 0, i32 8
  store i32 5, i32* %4, align 4, !tbaa !111
  %5 = tail call i8* @"?map_buffer@D3D12Compute@Internal@Runtime@Halide@@YAPEAXPEAUd3d12_buffer@1234@@Z"(%"struct.Halide::Runtime::Internal::D3D12Compute::d3d12_buffer"* %0) #11
  ret void
}

; Function Attrs: nounwind mustprogress
define weak dso_local void @"?new_readback_buffer@D3D12Compute@Internal@Runtime@Halide@@YA?AUd3d12_buffer@1234@PEAUhalide_d3d12compute_device@@_K@Z"(%"struct.Halide::Runtime::Internal::D3D12Compute::d3d12_buffer"* noalias sret(%"struct.Halide::Runtime::Internal::D3D12Compute::d3d12_buffer") align 8 %0, %struct.halide_d3d12compute_device* %1, i64 %2) local_unnamed_addr #0 {
  tail call void @"?new_buffer_resource@D3D12Compute@Internal@Runtime@Halide@@YA?AUd3d12_buffer@1234@PEAUhalide_d3d12compute_device@@_KW4D3D12_HEAP_TYPE@@@Z"(%"struct.Halide::Runtime::Internal::D3D12Compute::d3d12_buffer"* sret(%"struct.Halide::Runtime::Internal::D3D12Compute::d3d12_buffer") align 8 %0, %struct.halide_d3d12compute_device* %1, i64 %2, i32 3) #11
  %4 = getelementptr inbounds %"struct.Halide::Runtime::Internal::D3D12Compute::d3d12_buffer", %"struct.Halide::Runtime::Internal::D3D12Compute::d3d12_buffer"* %0, i64 0, i32 8
  store i32 6, i32* %4, align 4, !tbaa !111
  ret void
}

; Function Attrs: nounwind mustprogress
define weak dso_local void @"?new_constant_buffer@D3D12Compute@Internal@Runtime@Halide@@YA?AUd3d12_buffer@1234@PEAUhalide_d3d12compute_device@@_K@Z"(%"struct.Halide::Runtime::Internal::D3D12Compute::d3d12_buffer"* noalias sret(%"struct.Halide::Runtime::Internal::D3D12Compute::d3d12_buffer") align 8 %0, %struct.halide_d3d12compute_device* %1, i64 %2) local_unnamed_addr #0 {
  tail call void @"?new_upload_buffer@D3D12Compute@Internal@Runtime@Halide@@YA?AUd3d12_buffer@1234@PEAUhalide_d3d12compute_device@@_K@Z"(%"struct.Halide::Runtime::Internal::D3D12Compute::d3d12_buffer"* sret(%"struct.Halide::Runtime::Internal::D3D12Compute::d3d12_buffer") align 8 %0, %struct.halide_d3d12compute_device* %1, i64 %2) #11
  %4 = getelementptr inbounds %"struct.Halide::Runtime::Internal::D3D12Compute::d3d12_buffer", %"struct.Halide::Runtime::Internal::D3D12Compute::d3d12_buffer"* %0, i64 0, i32 8
  store i32 1, i32* %4, align 4, !tbaa !111
  ret void
}

; Function Attrs: nounwind mustprogress
define weak dso_local %"struct.Halide::Runtime::Internal::D3D12Compute::d3d12_buffer"* @"?new_buffer@D3D12Compute@Internal@Runtime@Halide@@YAPEAUd3d12_buffer@1234@PEAUhalide_d3d12compute_device@@_K@Z"(%struct.halide_d3d12compute_device* %0, i64 %1) local_unnamed_addr #0 {
  %3 = alloca %"struct.Halide::Runtime::Internal::D3D12Compute::d3d12_buffer", align 8
  %4 = bitcast %"struct.Halide::Runtime::Internal::D3D12Compute::d3d12_buffer"* %3 to i8*
  call void @llvm.lifetime.start.p0i8(i64 96, i8* nonnull %4) #12
  call void @"?new_device_buffer@D3D12Compute@Internal@Runtime@Halide@@YA?AUd3d12_buffer@1234@PEAUhalide_d3d12compute_device@@_K@Z"(%"struct.Halide::Runtime::Internal::D3D12Compute::d3d12_buffer"* nonnull sret(%"struct.Halide::Runtime::Internal::D3D12Compute::d3d12_buffer") align 8 %3, %struct.halide_d3d12compute_device* %0, i64 %1) #11
  %5 = call i8* @malloc(i64 96) #10
  %6 = bitcast i8* %5 to %"struct.Halide::Runtime::Internal::D3D12Compute::d3d12_buffer"*
  call void @llvm.memcpy.p0i8.p0i8.i64(i8* align 8 %5, i8* nonnull align 8 %4, i64 96, i1 true), !tbaa.struct !119
  %7 = getelementptr inbounds i8, i8* %5, i64 56
  store i8 1, i8* %7, align 8, !tbaa !112
  call void @llvm.lifetime.end.p0i8(i64 96, i8* nonnull %4) #12
  ret %"struct.Halide::Runtime::Internal::D3D12Compute::d3d12_buffer"* %6
}

; Function Attrs: nounwind mustprogress
define weak dso_local i64 @"?suballocate@D3D12Compute@Internal@Runtime@Halide@@YA_KPEAUhalide_d3d12compute_device@@PEAUd3d12_buffer@1234@_K@Z"(%struct.halide_d3d12compute_device* %0, %"struct.Halide::Runtime::Internal::D3D12Compute::d3d12_buffer"* %1, i64 %2) local_unnamed_addr #0 {
  %4 = alloca %"struct.Halide::Runtime::Internal::D3D12Compute::d3d12_buffer", align 8
  %5 = alloca %"struct.Halide::Runtime::Internal::D3D12Compute::d3d12_buffer", align 8
  %6 = getelementptr inbounds %"struct.Halide::Runtime::Internal::D3D12Compute::d3d12_buffer", %"struct.Halide::Runtime::Internal::D3D12Compute::d3d12_buffer"* %1, i64 0, i32 2
  %7 = load i32, i32* %6, align 4, !tbaa !63
  %8 = zext i32 %7 to i64
  %9 = icmp ult i64 %8, %2
  br i1 %9, label %10, label %61

10:                                               ; preds = %3
  %11 = getelementptr inbounds %"struct.Halide::Runtime::Internal::D3D12Compute::d3d12_buffer", %"struct.Halide::Runtime::Internal::D3D12Compute::d3d12_buffer"* %1, i64 0, i32 14
  %12 = atomicrmw volatile add i64* %11, i64 1 seq_cst
  %13 = icmp eq i64 %12, 0
  br i1 %13, label %15, label %14

14:                                               ; preds = %10
  tail call void @halide_print(i8* null, i8* getelementptr inbounds ([117 x i8], [117 x i8]* @"??_C@_0HF@GEOCDJFN@?1media?1maaz?1Data?1Repos?1rake?1Hali@", i64 0, i64 0)) #10
  tail call void @abort() #10
  br label %15

15:                                               ; preds = %14, %10
  %16 = load i32, i32* %6, align 4, !tbaa !63
  %17 = zext i32 %16 to i64
  %18 = add i64 %17, %2
  %19 = shl i64 %18, 1
  %20 = atomicrmw volatile sub i64* %11, i64 1 seq_cst
  %21 = icmp eq i64 %20, 1
  br i1 %21, label %23, label %22

22:                                               ; preds = %15
  tail call void @halide_print(i8* null, i8* getelementptr inbounds ([117 x i8], [117 x i8]* @"??_C@_0HF@NJIFOIPF@?1media?1maaz?1Data?1Repos?1rake?1Hali@", i64 0, i64 0)) #10
  tail call void @abort() #10
  br label %23

23:                                               ; preds = %22, %15
  %24 = getelementptr inbounds %"struct.Halide::Runtime::Internal::D3D12Compute::d3d12_buffer", %"struct.Halide::Runtime::Internal::D3D12Compute::d3d12_buffer"* %1, i64 0, i32 0
  %25 = load %struct.ID3D12Resource*, %struct.ID3D12Resource** %24, align 8, !tbaa !54
  %26 = icmp eq %struct.ID3D12Resource* %25, null
  br i1 %26, label %34, label %27

27:                                               ; preds = %23
  %28 = getelementptr %struct.ID3D12Resource, %struct.ID3D12Resource* %25, i64 0, i32 0, i32 0, i32 0, i32 0
  %29 = bitcast %struct.ID3D12Resource* %25 to i32 (%struct.IUnknown*)***
  %30 = load i32 (%struct.IUnknown*)**, i32 (%struct.IUnknown*)*** %29, align 8, !tbaa !50
  %31 = getelementptr inbounds i32 (%struct.IUnknown*)*, i32 (%struct.IUnknown*)** %30, i64 2
  %32 = load i32 (%struct.IUnknown*)*, i32 (%struct.IUnknown*)** %31, align 8
  %33 = tail call i32 %32(%struct.IUnknown* nonnull dereferenceable(8) %28) #10
  br label %34

34:                                               ; preds = %27, %23
  %35 = getelementptr inbounds %"struct.Halide::Runtime::Internal::D3D12Compute::d3d12_buffer", %"struct.Halide::Runtime::Internal::D3D12Compute::d3d12_buffer"* %1, i64 0, i32 12
  %36 = load i8*, i8** %35, align 8, !tbaa !113
  %37 = icmp eq i8* %36, null
  br i1 %37, label %39, label %38

38:                                               ; preds = %34
  tail call void @free(i8* nonnull %36) #10
  br label %39

39:                                               ; preds = %38, %34
  %40 = getelementptr inbounds %"struct.Halide::Runtime::Internal::D3D12Compute::d3d12_buffer", %"struct.Halide::Runtime::Internal::D3D12Compute::d3d12_buffer"* %1, i64 0, i32 11
  %41 = load i8, i8* %40, align 8, !tbaa !112, !range !48
  %42 = icmp eq i8 %41, 0
  br i1 %42, label %45, label %43

43:                                               ; preds = %39
  %44 = bitcast %"struct.Halide::Runtime::Internal::D3D12Compute::d3d12_buffer"* %1 to i8*
  tail call void @free(i8* %44) #10
  br label %45

45:                                               ; preds = %39, %43
  %46 = getelementptr inbounds %"struct.Halide::Runtime::Internal::D3D12Compute::d3d12_buffer", %"struct.Halide::Runtime::Internal::D3D12Compute::d3d12_buffer"* %1, i64 0, i32 8
  %47 = load i32, i32* %46, align 4, !tbaa !111
  switch i32 %47, label %60 [
    i32 5, label %48
    i32 6, label %54
  ]

48:                                               ; preds = %45
  %49 = icmp eq %"struct.Halide::Runtime::Internal::D3D12Compute::d3d12_buffer"* %1, @"?upload@D3D12Compute@Internal@Runtime@Halide@@3Ud3d12_buffer@1234@A"
  br i1 %49, label %51, label %50

50:                                               ; preds = %48
  tail call void @halide_print(i8* null, i8* getelementptr inbounds ([121 x i8], [121 x i8]* @"??_C@_0HJ@DKCFLDBN@?1media?1maaz?1Data?1Repos?1rake?1Hali@", i64 0, i64 0)) #10
  tail call void @abort() #10
  br label %51

51:                                               ; preds = %50, %48
  %52 = bitcast %"struct.Halide::Runtime::Internal::D3D12Compute::d3d12_buffer"* %4 to i8*
  call void @llvm.lifetime.start.p0i8(i64 96, i8* nonnull %52) #12
  call void @"?new_upload_buffer@D3D12Compute@Internal@Runtime@Halide@@YA?AUd3d12_buffer@1234@PEAUhalide_d3d12compute_device@@_K@Z"(%"struct.Halide::Runtime::Internal::D3D12Compute::d3d12_buffer"* nonnull sret(%"struct.Halide::Runtime::Internal::D3D12Compute::d3d12_buffer") align 8 %4, %struct.halide_d3d12compute_device* %0, i64 %19) #11
  %53 = bitcast %"struct.Halide::Runtime::Internal::D3D12Compute::d3d12_buffer"* %1 to i8*
  call void @llvm.memcpy.p0i8.p0i8.i64(i8* align 8 %53, i8* nonnull align 8 %52, i64 96, i1 true), !tbaa.struct !119
  call void @llvm.lifetime.end.p0i8(i64 96, i8* nonnull %52) #12
  br label %61

54:                                               ; preds = %45
  %55 = icmp eq %"struct.Halide::Runtime::Internal::D3D12Compute::d3d12_buffer"* %1, @"?readback@D3D12Compute@Internal@Runtime@Halide@@3Ud3d12_buffer@1234@A"
  br i1 %55, label %57, label %56

56:                                               ; preds = %54
  tail call void @halide_print(i8* null, i8* getelementptr inbounds ([123 x i8], [123 x i8]* @"??_C@_0HL@MCKOJAGC@?1media?1maaz?1Data?1Repos?1rake?1Hali@", i64 0, i64 0)) #10
  tail call void @abort() #10
  br label %57

57:                                               ; preds = %56, %54
  %58 = bitcast %"struct.Halide::Runtime::Internal::D3D12Compute::d3d12_buffer"* %5 to i8*
  call void @llvm.lifetime.start.p0i8(i64 96, i8* nonnull %58) #12
  call void @"?new_readback_buffer@D3D12Compute@Internal@Runtime@Halide@@YA?AUd3d12_buffer@1234@PEAUhalide_d3d12compute_device@@_K@Z"(%"struct.Halide::Runtime::Internal::D3D12Compute::d3d12_buffer"* nonnull sret(%"struct.Halide::Runtime::Internal::D3D12Compute::d3d12_buffer") align 8 %5, %struct.halide_d3d12compute_device* %0, i64 %19) #11
  %59 = bitcast %"struct.Halide::Runtime::Internal::D3D12Compute::d3d12_buffer"* %1 to i8*
  call void @llvm.memcpy.p0i8.p0i8.i64(i8* align 8 %59, i8* nonnull align 8 %58, i64 96, i1 true), !tbaa.struct !119
  call void @llvm.lifetime.end.p0i8(i64 96, i8* nonnull %58) #12
  br label %61

60:                                               ; preds = %45
  tail call void @halide_print(i8* null, i8* getelementptr inbounds ([106 x i8], [106 x i8]* @"??_C@_0GK@BCNCIOPH@?1media?1maaz?1Data?1Repos?1rake?1Hali@", i64 0, i64 0)) #10
  tail call void @abort() #10
  br label %61

61:                                               ; preds = %51, %57, %60, %3
  %62 = load i32, i32* %6, align 4, !tbaa !63
  %63 = zext i32 %62 to i64
  %64 = icmp ult i64 %63, %2
  br i1 %64, label %65, label %66

65:                                               ; preds = %61
  call void @halide_print(i8* null, i8* getelementptr inbounds ([136 x i8], [136 x i8]* @"??_C@_0II@CBKJDPFH@?1media?1maaz?1Data?1Repos?1rake?1Hali@", i64 0, i64 0)) #10
  call void @abort() #10
  br label %66

66:                                               ; preds = %61, %65
  %67 = getelementptr inbounds %"struct.Halide::Runtime::Internal::D3D12Compute::d3d12_buffer", %"struct.Halide::Runtime::Internal::D3D12Compute::d3d12_buffer"* %1, i64 0, i32 14
  %68 = atomicrmw volatile add i64* %67, i64 1 seq_cst
  %69 = icmp eq i64 %68, 0
  br i1 %69, label %71, label %70

70:                                               ; preds = %66
  call void @halide_print(i8* null, i8* getelementptr inbounds ([117 x i8], [117 x i8]* @"??_C@_0HF@CECKD@?1media?1maaz?1Data?1Repos?1rake?1Hali@", i64 0, i64 0)) #10
  call void @abort() #10
  br label %71

71:                                               ; preds = %70, %66
  ret i64 0
}

; Function Attrs: nounwind
define dso_local %"struct.Halide::Runtime::Internal::D3D12Compute::d3d12_profiler"* @"?new_profiler@D3D12Compute@Internal@Runtime@Halide@@YAPEAUd3d12_profiler@1234@PEAUhalide_d3d12compute_device@@_K@Z"(%struct.halide_d3d12compute_device* %0, i64 %1) local_unnamed_addr #4 {
  %3 = alloca %"class.Halide::Runtime::Internal::(anonymous namespace)::Printer", align 8
  %4 = alloca %"class.Halide::Runtime::Internal::(anonymous namespace)::Printer", align 8
  %5 = alloca i64, align 8
  %6 = alloca %struct.ID3D12QueryHeap*, align 8
  %7 = alloca %struct.D3D12_QUERY_HEAP_DESC, align 4
  %8 = alloca %"struct.Halide::Runtime::Internal::D3D12Compute::d3d12_buffer", align 8
  %9 = bitcast i64* %5 to i8*
  call void @llvm.lifetime.start.p0i8(i64 8, i8* nonnull %9) #12
  store i64 0, i64* %5, align 8, !tbaa !6
  %10 = load %struct.ID3D12CommandQueue*, %struct.ID3D12CommandQueue** bitcast (%struct.halide_d3d12compute_command_queue** @"?queue@D3D12Compute@Internal@Runtime@Halide@@3PEAUhalide_d3d12compute_command_queue@@EA" to %struct.ID3D12CommandQueue**), align 8, !tbaa !49
  %11 = bitcast %struct.ID3D12CommandQueue* %10 to i32 (%struct.ID3D12CommandQueue*, i64*)***
  %12 = load i32 (%struct.ID3D12CommandQueue*, i64*)**, i32 (%struct.ID3D12CommandQueue*, i64*)*** %11, align 8, !tbaa !50
  %13 = getelementptr inbounds i32 (%struct.ID3D12CommandQueue*, i64*)*, i32 (%struct.ID3D12CommandQueue*, i64*)** %12, i64 16
  %14 = load i32 (%struct.ID3D12CommandQueue*, i64*)*, i32 (%struct.ID3D12CommandQueue*, i64*)** %13, align 8
  %15 = call i32 %14(%struct.ID3D12CommandQueue* nonnull dereferenceable(8) %10, i64* nonnull %5) #10
  %16 = load i64, i64* %5, align 8, !tbaa !6
  %17 = inttoptr i64 %16 to %"struct.Halide::Runtime::Internal::D3D12Compute::ID3D12CommandQueueTimestampFrequencyFAUX"*
  %18 = icmp sgt i32 %15, -1
  %19 = icmp ne i64 %16, 0
  %20 = and i1 %18, %19
  br i1 %20, label %67, label %21

21:                                               ; preds = %2
  %22 = bitcast %"class.Halide::Runtime::Internal::(anonymous namespace)::Printer"* %4 to i8*
  call void @llvm.lifetime.start.p0i8(i64 40, i8* nonnull %22) #12
  %23 = getelementptr inbounds %"class.Halide::Runtime::Internal::(anonymous namespace)::Printer", %"class.Halide::Runtime::Internal::(anonymous namespace)::Printer"* %4, i64 0, i32 3
  store i8* null, i8** %23, align 8, !tbaa !41
  %24 = getelementptr inbounds %"class.Halide::Runtime::Internal::(anonymous namespace)::Printer", %"class.Halide::Runtime::Internal::(anonymous namespace)::Printer"* %4, i64 0, i32 4
  store i8 1, i8* %24, align 8, !tbaa !44
  %25 = call i8* @malloc(i64 1024) #10
  %26 = getelementptr inbounds %"class.Halide::Runtime::Internal::(anonymous namespace)::Printer", %"class.Halide::Runtime::Internal::(anonymous namespace)::Printer"* %4, i64 0, i32 0
  store i8* %25, i8** %26, align 8, !tbaa !45
