; ModuleID = '/media/maaz/Data/Repos/rake/Halide-master-d48fbde/src/runtime/openglcompute.cpp'
source_filename = "/media/maaz/Data/Repos/rake/Halide-master-d48fbde/src/runtime/openglcompute.cpp"
target datalayout = "e-p:32:32-i64:64"
target triple = "le32-unknown-nacl-unknown"

%"struct.Halide::Runtime::Internal::OpenGLCompute::GlobalState" = type { i8, void (i32, i32)*, void (i32, i32)*, void (i32, i32, i32)*, void (i32, i32, i8*, i32)*, i32 ()*, void (i32)*, i32 (i32)*, void (i32, i32*)*, void (i32)*, void (i32)*, void (i32, i32, i32)*, void ()*, void (i32, i32*)*, i32 ()*, void (i32, i32, i32*, i8*)*, void (i32, i32, i32*)*, void (i32, i32, i32*, i8*)*, void (i32, i32, i32*)*, i8* (i32)*, void (i32)*, i8* (i32, i32, i32, i32)*, void (i32)*, void (i32, i32, i8**, i32*)*, void (i32, i32)*, void (i32, i32)*, void (i32, float)*, void (i32)*, void (i32)*, void (i32, i32, i32, i32*, i32*, i32*, i8*)*, i32 (i32, i8*)* }
%"struct.Halide::Runtime::Internal::OpenGLCompute::ModuleState" = type { %"struct.Halide::Runtime::Internal::OpenGLCompute::KernelInfo"*, %"struct.Halide::Runtime::Internal::OpenGLCompute::ModuleState"* }
%"struct.Halide::Runtime::Internal::OpenGLCompute::KernelInfo" = type { i8*, i32, %"struct.Halide::Runtime::Internal::OpenGLCompute::KernelInfo"* }
%struct.halide_device_interface_t = type { i32 (i8*, %struct.halide_buffer_t*, %struct.halide_device_interface_t*)*, i32 (i8*, %struct.halide_buffer_t*)*, i32 (i8*, %struct.halide_buffer_t*)*, void (i8*, %struct.halide_device_interface_t*)*, i32 (i8*, %struct.halide_buffer_t*)*, i32 (i8*, %struct.halide_buffer_t*, %struct.halide_device_interface_t*)*, i32 (i8*, %struct.halide_buffer_t*, %struct.halide_device_interface_t*)*, i32 (i8*, %struct.halide_buffer_t*)*, i32 (i8*, %struct.halide_buffer_t*, %struct.halide_device_interface_t*, %struct.halide_buffer_t*)*, i32 (i8*, %struct.halide_buffer_t*, %struct.halide_buffer_t*)*, i32 (i8*, %struct.halide_buffer_t*, i32, i32, %struct.halide_buffer_t*)*, i32 (i8*, %struct.halide_buffer_t*)*, i32 (i8*, %struct.halide_buffer_t*, i64, %struct.halide_device_interface_t*)*, i32 (i8*, %struct.halide_buffer_t*)*, i32 (i8*, i32*, i32*)*, %struct.halide_device_interface_impl_t* }
%struct.halide_buffer_t = type { i64, %struct.halide_device_interface_t*, i8*, i64, %struct.halide_type_t, i32, %struct.halide_dimension_t*, i8* }
%struct.halide_type_t = type { i8, i8, i16 }
%struct.halide_dimension_t = type { i32, i32, i32, i32 }
%struct.halide_device_interface_impl_t = type { void ()*, void ()*, i32 (i8*, %struct.halide_buffer_t*)*, i32 (i8*, %struct.halide_buffer_t*)*, i32 (i8*, %struct.halide_buffer_t*)*, i32 (i8*)*, i32 (i8*, %struct.halide_buffer_t*)*, i32 (i8*, %struct.halide_buffer_t*)*, i32 (i8*, %struct.halide_buffer_t*)*, i32 (i8*, %struct.halide_buffer_t*)*, i32 (i8*, %struct.halide_buffer_t*, %struct.halide_device_interface_t*, %struct.halide_buffer_t*)*, i32 (i8*, %struct.halide_buffer_t*, %struct.halide_buffer_t*)*, i32 (i8*, %struct.halide_buffer_t*, i32, i32, %struct.halide_buffer_t*)*, i32 (i8*, %struct.halide_buffer_t*)*, i32 (i8*, %struct.halide_buffer_t*, i64)*, i32 (i8*, %struct.halide_buffer_t*)* }
%"struct.Halide::Runtime::Internal::device_copy" = type { i64, i64, i64, [16 x i64], [16 x i64], [16 x i64], i64 }
%"class.Halide::Runtime::Internal::(anonymous namespace)::Printer" = type <{ i8*, i8*, i8*, i8*, i8, [1 x i8], [2 x i8] }>
%"class.Halide::Runtime::Internal::(anonymous namespace)::Printer.0" = type <{ i8*, i8*, i8*, i8*, i8, [1 x i8], [2 x i8] }>
%"struct.Halide::Runtime::Internal::OpenGLCompute::HalideMalloc" = type { i8*, i8* }

@.str = private unnamed_addr constant [55 x i8] c"copy_memory: no copy needed as pointers are the same.\0A\00", align 1
@.str.1 = private unnamed_addr constant [16 x i8] c"GL_INVALID_ENUM\00", align 1
@.str.2 = private unnamed_addr constant [17 x i8] c"GL_INVALID_VALUE\00", align 1
@.str.3 = private unnamed_addr constant [21 x i8] c"GL_INVALID_OPERATION\00", align 1
@.str.4 = private unnamed_addr constant [18 x i8] c"GL_STACK_OVERFLOW\00", align 1
@.str.5 = private unnamed_addr constant [19 x i8] c"GL_STACK_UNDERFLOW\00", align 1
@.str.6 = private unnamed_addr constant [17 x i8] c"GL_OUT_OF_MEMORY\00", align 1
@.str.7 = private unnamed_addr constant [33 x i8] c"GL_INVALID_FRAMEBUFFER_OPERATION\00", align 1
@.str.8 = private unnamed_addr constant [16 x i8] c"GL_CONTEXT_LOST\00", align 1
@.str.9 = private unnamed_addr constant [19 x i8] c"GL_TABLE_TOO_LARGE\00", align 1
@.str.10 = private unnamed_addr constant [19 x i8] c"<unknown GL error>\00", align 1
@.str.11 = private unnamed_addr constant [14 x i8] c"OpenGL error \00", align 1
@.str.12 = private unnamed_addr constant [2 x i8] c"(\00", align 1
@.str.13 = private unnamed_addr constant [2 x i8] c")\00", align 1
@.str.14 = private unnamed_addr constant [5 x i8] c" at \00", align 1
@.str.15 = private unnamed_addr constant [3 x i8] c".\0A\00", align 1
@_ZN6Halide7Runtime8Internal13OpenGLCompute12global_stateE = weak dso_local global %"struct.Halide::Runtime::Internal::OpenGLCompute::GlobalState" zeroinitializer, align 4, !dbg !0
@_ZN6Halide7Runtime8Internal13OpenGLCompute10state_listE = weak dso_local local_unnamed_addr global %"struct.Halide::Runtime::Internal::OpenGLCompute::ModuleState"* null, align 4, !dbg !184
@.str.16 = private unnamed_addr constant [11 x i8] c"  device: \00", align 1
@.str.17 = private unnamed_addr constant [2 x i8] c"\0A\00", align 1
@.str.18 = private unnamed_addr constant [15 x i8] c"  texture_id: \00", align 1
@.str.19 = private unnamed_addr constant [9 x i8] c"  host: \00", align 1
@.str.20 = private unnamed_addr constant [11 x i8] c"  extent: \00", align 1
@.str.21 = private unnamed_addr constant [2 x i8] c" \00", align 1
@.str.22 = private unnamed_addr constant [11 x i8] c"  stride: \00", align 1
@.str.23 = private unnamed_addr constant [8 x i8] c"  min: \00", align 1
@.str.24 = private unnamed_addr constant [9 x i8] c"  type: \00", align 1
@.str.25 = private unnamed_addr constant [15 x i8] c"  host_dirty: \00", align 1
@.str.26 = private unnamed_addr constant [17 x i8] c"  device_dirty: \00", align 1
@.str.27 = private unnamed_addr constant [37 x i8] c"Could not load function pointer for \00", align 1
@.str.28 = private unnamed_addr constant [30 x i8] c"Failed to make OpenGL context\00", align 1
@.str.29 = private unnamed_addr constant [15 x i8] c"glAttachShader\00", align 1
@.str.30 = private unnamed_addr constant [13 x i8] c"glBindBuffer\00", align 1
@.str.31 = private unnamed_addr constant [17 x i8] c"glBindBufferBase\00", align 1
@.str.32 = private unnamed_addr constant [13 x i8] c"glBufferData\00", align 1
@.str.33 = private unnamed_addr constant [16 x i8] c"glCreateProgram\00", align 1
@.str.34 = private unnamed_addr constant [16 x i8] c"glCompileShader\00", align 1
@.str.35 = private unnamed_addr constant [15 x i8] c"glCreateShader\00", align 1
@.str.36 = private unnamed_addr constant [16 x i8] c"glDeleteBuffers\00", align 1
@.str.37 = private unnamed_addr constant [16 x i8] c"glDeleteProgram\00", align 1
@.str.38 = private unnamed_addr constant [15 x i8] c"glDeleteShader\00", align 1
@.str.39 = private unnamed_addr constant [18 x i8] c"glDispatchCompute\00", align 1
@.str.40 = private unnamed_addr constant [9 x i8] c"glFinish\00", align 1
@.str.41 = private unnamed_addr constant [13 x i8] c"glGenBuffers\00", align 1
@.str.42 = private unnamed_addr constant [11 x i8] c"glGetError\00", align 1
@.str.43 = private unnamed_addr constant [20 x i8] c"glGetProgramInfoLog\00", align 1
@.str.44 = private unnamed_addr constant [15 x i8] c"glGetProgramiv\00", align 1
@.str.45 = private unnamed_addr constant [19 x i8] c"glGetShaderInfoLog\00", align 1
@.str.46 = private unnamed_addr constant [14 x i8] c"glGetShaderiv\00", align 1
@.str.47 = private unnamed_addr constant [12 x i8] c"glGetString\00", align 1
@.str.48 = private unnamed_addr constant [14 x i8] c"glLinkProgram\00", align 1
@.str.49 = private unnamed_addr constant [17 x i8] c"glMapBufferRange\00", align 1
@.str.50 = private unnamed_addr constant [16 x i8] c"glMemoryBarrier\00", align 1
@.str.51 = private unnamed_addr constant [15 x i8] c"glShaderSource\00", align 1
@.str.52 = private unnamed_addr constant [12 x i8] c"glUniform1i\00", align 1
@.str.53 = private unnamed_addr constant [13 x i8] c"glUniform1ui\00", align 1
@.str.54 = private unnamed_addr constant [12 x i8] c"glUniform1f\00", align 1
@.str.55 = private unnamed_addr constant [14 x i8] c"glUnmapBuffer\00", align 1
@.str.56 = private unnamed_addr constant [13 x i8] c"glUseProgram\00", align 1
@.str.57 = private unnamed_addr constant [19 x i8] c"glGetActiveUniform\00", align 1
@.str.58 = private unnamed_addr constant [21 x i8] c"glGetUniformLocation\00", align 1
@.str.59 = private unnamed_addr constant [19 x i8] c"Halide running on \00", align 1
@.str.60 = private unnamed_addr constant [66 x i8] c"OpenGLCompute: halide_openglcompute_device_release(user_context: \00", align 1
@.str.61 = private unnamed_addr constant [3 x i8] c")\0A\00", align 1
@.str.62 = private unnamed_addr constant [11 x i8] c"    Time: \00", align 1
@.str.63 = private unnamed_addr constant [5 x i8] c" ms\0A\00", align 1
@.str.64 = private unnamed_addr constant [66 x i8] c"OpenGLCompute: halide_openglcompute_device_malloc (user_context: \00", align 1
@.str.65 = private unnamed_addr constant [8 x i8] c", buf: \00", align 1
@.str.66 = private unnamed_addr constant [110 x i8] c"/media/maaz/Data/Repos/rake/Halide-master-d48fbde/src/runtime/openglcompute.cpp:271 Assert failed: size != 0\0A\00", align 1
@.str.67 = private unnamed_addr constant [74 x i8] c"openglcompute_device_malloc: This buffer already has a device allocation\0A\00", align 1
@.str.68 = private unnamed_addr constant [124 x i8] c"/media/maaz/Data/Repos/rake/Halide-master-d48fbde/src/runtime/openglcompute.cpp:281 Assert failed: buf->dim[i].stride >= 0\0A\00", align 1
@.str.69 = private unnamed_addr constant [24 x i8] c"    allocating buffer, \00", align 1
@.str.70 = private unnamed_addr constant [10 x i8] c"extents: \00", align 1
@.str.71 = private unnamed_addr constant [2 x i8] c"x\00", align 1
@.str.72 = private unnamed_addr constant [10 x i8] c"strides: \00", align 1
@.str.73 = private unnamed_addr constant [8 x i8] c"(type: \00", align 1
@.str.74 = private unnamed_addr constant [56 x i8] c"openglcompute_device_malloc: initialization completed.\0A\00", align 1
@.str.76 = private unnamed_addr constant [17 x i8] c"oglc: GenBuffers\00", align 1
@.str.77 = private unnamed_addr constant [17 x i8] c"oglc: BindBuffer\00", align 1
@.str.78 = private unnamed_addr constant [110 x i8] c"/media/maaz/Data/Repos/rake/Halide-master-d48fbde/src/runtime/openglcompute.cpp:317 Assert failed: size != 0\0A\00", align 1
@.str.79 = private unnamed_addr constant [17 x i8] c"oglc: BufferData\00", align 1
@_ZN6Halide7Runtime8Internal13OpenGLCompute30openglcompute_device_interfaceE = weak dso_local global %struct.halide_device_interface_t { i32 (i8*, %struct.halide_buffer_t*, %struct.halide_device_interface_t*)* @halide_device_malloc, i32 (i8*, %struct.halide_buffer_t*)* @halide_device_free, i32 (i8*, %struct.halide_buffer_t*)* @halide_device_sync, void (i8*, %struct.halide_device_interface_t*)* @halide_device_release, i32 (i8*, %struct.halide_buffer_t*)* @halide_copy_to_host, i32 (i8*, %struct.halide_buffer_t*, %struct.halide_device_interface_t*)* @halide_copy_to_device, i32 (i8*, %struct.halide_buffer_t*, %struct.halide_device_interface_t*)* @halide_device_and_host_malloc, i32 (i8*, %struct.halide_buffer_t*)* @halide_device_and_host_free, i32 (i8*, %struct.halide_buffer_t*, %struct.halide_device_interface_t*, %struct.halide_buffer_t*)* @halide_buffer_copy, i32 (i8*, %struct.halide_buffer_t*, %struct.halide_buffer_t*)* @halide_device_crop, i32 (i8*, %struct.halide_buffer_t*, i32, i32, %struct.halide_buffer_t*)* @halide_device_slice, i32 (i8*, %struct.halide_buffer_t*)* @halide_device_release_crop, i32 (i8*, %struct.halide_buffer_t*, i64, %struct.halide_device_interface_t*)* @halide_device_wrap_native, i32 (i8*, %struct.halide_buffer_t*)* @halide_device_detach_native, i32 (i8*, i32*, i32*)* null, %struct.halide_device_interface_impl_t* @_ZN6Halide7Runtime8Internal13OpenGLCompute35openglcompute_device_interface_implE }, align 4, !dbg !198
@.str.80 = private unnamed_addr constant [32 x i8] c"Allocated dev_buffer(i.e. vbo) \00", align 1
@.str.81 = private unnamed_addr constant [16 x i8] c" ms for malloc\0A\00", align 1
@.str.82 = private unnamed_addr constant [76 x i8] c"OpenGL runtime not initialized in call to halide_openglcompute_device_free.\00", align 1
@.str.83 = private unnamed_addr constant [41 x i8] c"OGLC: halide_openglcompute_device_free (\00", align 1
@.str.84 = private unnamed_addr constant [15 x i8] c"user_context: \00", align 1
@.str.85 = private unnamed_addr constant [14 x i8] c", the_buffer:\00", align 1
@.str.86 = private unnamed_addr constant [14 x i8] c" ms for free\0A\00", align 1
@.str.87 = private unnamed_addr constant [70 x i8] c"OpenGL runtime not initialized (halide_openglcompute_copy_to_device).\00", align 1
@.str.88 = private unnamed_addr constant [44 x i8] c"OGLC: halide_openglcompute_copy_to_device (\00", align 1
@.str.89 = private unnamed_addr constant [57 x i8] c"Calling global_state.MapBufferRange(GL_ARRAY_BUFFER, 0, \00", align 1
@.str.90 = private unnamed_addr constant [37 x i8] c", GL_MAP_READ_BIT|GL_MAP_WRITE_BIT)\0A\00", align 1
@.str.91 = private unnamed_addr constant [21 x i8] c"oglc: MapBufferRange\00", align 1
@.str.92 = private unnamed_addr constant [49 x i8] c"OpenGLCompute does not support 64-bit integers.\0A\00", align 1
@.str.93 = private unnamed_addr constant [55 x i8] c"OpenGLCompute does not support 64-bit floating-point.\0A\00", align 1
@.str.94 = private unnamed_addr constant [10 x i8] c"  copied \00", align 1
@.str.95 = private unnamed_addr constant [13 x i8] c" bytes from \00", align 1
@.str.96 = private unnamed_addr constant [17 x i8] c" to the device.\0A\00", align 1
@.str.97 = private unnamed_addr constant [21 x i8] c" ms for copy to dev\0A\00", align 1
@.str.98 = private unnamed_addr constant [68 x i8] c"OpenGL runtime not initialized (halide_openglcompute_copy_to_host).\00", align 1
@.str.99 = private unnamed_addr constant [110 x i8] c"/media/maaz/Data/Repos/rake/Halide-master-d48fbde/src/runtime/openglcompute.cpp:502 Assert failed: size != 0\0A\00", align 1
@.str.100 = private unnamed_addr constant [42 x i8] c"OGLC: halide_openglcompute_copy_to_host (\00", align 1
@.str.101 = private unnamed_addr constant [8 x i8] c", size=\00", align 1
@.str.102 = private unnamed_addr constant [21 x i8] c" bytes to the host.\0A\00", align 1
@.str.103 = private unnamed_addr constant [22 x i8] c" ms for copy to host\0A\00", align 1
@.str.104 = private unnamed_addr constant [56 x i8] c"OpenGLCompute: halide_openglcompute_run (user_context: \00", align 1
@.str.105 = private unnamed_addr constant [3 x i8] c", \00", align 1
@.str.106 = private unnamed_addr constant [8 x i8] c"entry: \00", align 1
@.str.107 = private unnamed_addr constant [9 x i8] c"blocks: \00", align 1
@.str.108 = private unnamed_addr constant [10 x i8] c"threads: \00", align 1
@.str.109 = private unnamed_addr constant [8 x i8] c"shmem: \00", align 1
@.str.110 = private unnamed_addr constant [17 x i8] c"num_attributes: \00", align 1
@.str.111 = private unnamed_addr constant [18 x i8] c"num_coords_dim0: \00", align 1
@.str.112 = private unnamed_addr constant [18 x i8] c"num_coords_dim1: \00", align 1
@.str.113 = private unnamed_addr constant [59 x i8] c"OpenGL runtime not initialized (halide_openglcompute_run).\00", align 1
@.str.114 = private unnamed_addr constant [40 x i8] c"Internal error: module state is nullptr\00", align 1
@.str.115 = private unnamed_addr constant [39 x i8] c"Internal error: unknown kernel named '\00", align 1
@.str.116 = private unnamed_addr constant [2 x i8] c"'\00", align 1
@.str.117 = private unnamed_addr constant [36 x i8] c"halide_openglcompute_run UseProgram\00", align 1
@.str.118 = private unnamed_addr constant [10 x i8] c"    args \00", align 1
@.str.119 = private unnamed_addr constant [3 x i8] c" [\00", align 1
@.str.120 = private unnamed_addr constant [7 x i8] c" ...] \00", align 1
@.str.121 = private unnamed_addr constant [30 x i8] c"Cannot pass argument of type \00", align 1
@.str.122 = private unnamed_addr constant [15 x i8] c" to GL shader\0A\00", align 1
@.str.123 = private unnamed_addr constant [35 x i8] c"halide_openglcompute_run Uniform1i\00", align 1
@.str.124 = private unnamed_addr constant [36 x i8] c"halide_openglcompute_run Uniform1ui\00", align 1
@.str.125 = private unnamed_addr constant [35 x i8] c"halide_openglcompute_run Uniform1f\00", align 1
@.str.126 = private unnamed_addr constant [40 x i8] c"halide_openglcompute_run BindBufferBase\00", align 1
@.str.127 = private unnamed_addr constant [41 x i8] c"halide_openglcompute_run DispatchCompute\00", align 1
@.str.128 = private unnamed_addr constant [39 x i8] c"halide_openglcompute_run MemoryBarrier\00", align 1
@.str.129 = private unnamed_addr constant [13 x i8] c" ms for run\0A\00", align 1
@.str.130 = private unnamed_addr constant [75 x i8] c"OpenGL Compute runtime not initialized (halide_openglcompute_device_sync).\00", align 1
@.str.131 = private unnamed_addr constant [14 x i8] c" ms for sync\0A\00", align 1
@.str.132 = private unnamed_addr constant [19 x i8] c"\0A// end of kernel \00", align 1
@.str.133 = private unnamed_addr constant [29 x i8] c"Failed to find kernel name.\0A\00", align 1
@.str.134 = private unnamed_addr constant [14 x i8] c"create shader\00", align 1
@.str.135 = private unnamed_addr constant [28 x i8] c"Compute shader source for: \00", align 1
@.str.136 = private unnamed_addr constant [14 x i8] c"shader source\00", align 1
@.str.137 = private unnamed_addr constant [15 x i8] c"compile shader\00", align 1
@.str.138 = private unnamed_addr constant [27 x i8] c"Could not compile shader:\0A\00", align 1
@.str.139 = private unnamed_addr constant [14 x i8] c"attach shader\00", align 1
@.str.140 = private unnamed_addr constant [13 x i8] c"link program\00", align 1
@.str.141 = private unnamed_addr constant [30 x i8] c"Could not link GLSL program:\0A\00", align 1
@.str.142 = private unnamed_addr constant [18 x i8] c"Active Uniforms: \00", align 1
@.str.143 = private unnamed_addr constant [9 x i8] c"Uniform \00", align 1
@.str.144 = private unnamed_addr constant [8 x i8] c" Type: \00", align 1
@.str.145 = private unnamed_addr constant [8 x i8] c" Name: \00", align 1
@.str.146 = private unnamed_addr constant [12 x i8] c" location: \00", align 1
@_ZN6Halide7Runtime8Internal13OpenGLCompute35openglcompute_device_interface_implE = weak dso_local global %struct.halide_device_interface_impl_t { void ()* @halide_use_jit_module, void ()* @halide_release_jit_module, i32 (i8*, %struct.halide_buffer_t*)* @_ZN6Halide7Runtime8Internal13OpenGLCompute34halide_openglcompute_device_mallocEPvP15halide_buffer_t, i32 (i8*, %struct.halide_buffer_t*)* @_ZN6Halide7Runtime8Internal13OpenGLCompute32halide_openglcompute_device_freeEPvP15halide_buffer_t, i32 (i8*, %struct.halide_buffer_t*)* @halide_openglcompute_device_sync, i32 (i8*)* @_ZN6Halide7Runtime8Internal13OpenGLCompute35halide_openglcompute_device_releaseEPv, i32 (i8*, %struct.halide_buffer_t*)* @_ZN6Halide7Runtime8Internal13OpenGLCompute33halide_openglcompute_copy_to_hostEPvP15halide_buffer_t, i32 (i8*, %struct.halide_buffer_t*)* @_ZN6Halide7Runtime8Internal13OpenGLCompute35halide_openglcompute_copy_to_deviceEPvP15halide_buffer_t, i32 (i8*, %struct.halide_buffer_t*)* @halide_openglcompute_device_and_host_malloc, i32 (i8*, %struct.halide_buffer_t*)* @halide_openglcompute_device_and_host_free, i32 (i8*, %struct.halide_buffer_t*, %struct.halide_device_interface_t*, %struct.halide_buffer_t*)* @halide_default_buffer_copy, i32 (i8*, %struct.halide_buffer_t*, %struct.halide_buffer_t*)* @halide_default_device_crop, i32 (i8*, %struct.halide_buffer_t*, i32, i32, %struct.halide_buffer_t*)* @halide_default_device_slice, i32 (i8*, %struct.halide_buffer_t*)* @halide_default_device_release_crop, i32 (i8*, %struct.halide_buffer_t*, i64)* @halide_default_device_wrap_native, i32 (i8*, %struct.halide_buffer_t*)* @halide_default_device_detach_native }, align 4, !dbg !392
@.str.147 = private unnamed_addr constant [35 x i8] c"Printer buffer allocation failed.\0A\00", align 1
@.str.148 = private unnamed_addr constant [10 x i8] c"<nullptr>\00", align 1

; Function Attrs: nounwind mustprogress
define weak dso_local void @_ZN6Halide7Runtime8Internal18copy_memory_helperERKNS1_11device_copyEixx(%"struct.Halide::Runtime::Internal::device_copy"* nonnull align 8 dereferenceable(416) %0, i32 %1, i64 %2, i64 %3) local_unnamed_addr #0 !dbg !575 {
  call void @llvm.dbg.value(metadata %"struct.Halide::Runtime::Internal::device_copy"* %0, metadata !594, metadata !DIExpression()), !dbg !605
  call void @llvm.dbg.value(metadata i32 %1, metadata !595, metadata !DIExpression()), !dbg !605
  call void @llvm.dbg.value(metadata i64 %2, metadata !596, metadata !DIExpression()), !dbg !605
  call void @llvm.dbg.value(metadata i64 %3, metadata !597, metadata !DIExpression()), !dbg !605
  %5 = icmp sgt i32 %1, -1, !dbg !606
  br i1 %5, label %6, label %14, !dbg !607

6:                                                ; preds = %4, %11
  %7 = phi i32 [ %12, %11 ], [ %1, %4 ]
  call void @llvm.dbg.value(metadata i32 %7, metadata !595, metadata !DIExpression()), !dbg !605
  %8 = getelementptr inbounds %"struct.Halide::Runtime::Internal::device_copy", %"struct.Halide::Runtime::Internal::device_copy"* %0, i32 0, i32 3, i32 %7, !dbg !608
  %9 = load i64, i64* %8, align 8, !dbg !608, !tbaa !609
  %10 = icmp eq i64 %9, 1, !dbg !613
  br i1 %10, label %11, label %14, !dbg !614

11:                                               ; preds = %6
  %12 = add nsw i32 %7, -1, !dbg !615
  call void @llvm.dbg.value(metadata i32 %12, metadata !595, metadata !DIExpression()), !dbg !605
  %13 = icmp sgt i32 %7, 0, !dbg !606
  br i1 %13, label %6, label %25, !dbg !607, !llvm.loop !617

14:                                               ; preds = %6, %4
  %15 = phi i32 [ %1, %4 ], [ %7, %6 ]
  %16 = icmp eq i32 %15, -1, !dbg !620
  br i1 %16, label %25, label %17, !dbg !621

17:                                               ; preds = %14
  call void @llvm.dbg.value(metadata i64 0, metadata !602, metadata !DIExpression()), !dbg !622
  call void @llvm.dbg.value(metadata i64 %2, metadata !596, metadata !DIExpression()), !dbg !605
  call void @llvm.dbg.value(metadata i64 %3, metadata !597, metadata !DIExpression()), !dbg !605
  %18 = getelementptr inbounds %"struct.Halide::Runtime::Internal::device_copy", %"struct.Halide::Runtime::Internal::device_copy"* %0, i32 0, i32 3, i32 %15, !dbg !623
  %19 = load i64, i64* %18, align 8, !dbg !623, !tbaa !609
  %20 = icmp eq i64 %19, 0, !dbg !625
  br i1 %20, label %51, label %21, !dbg !626

21:                                               ; preds = %17
  %22 = add nsw i32 %15, -1
  %23 = getelementptr inbounds %"struct.Halide::Runtime::Internal::device_copy", %"struct.Halide::Runtime::Internal::device_copy"* %0, i32 0, i32 4, i32 %15
  %24 = getelementptr inbounds %"struct.Halide::Runtime::Internal::device_copy", %"struct.Halide::Runtime::Internal::device_copy"* %0, i32 0, i32 5, i32 %15
  br label %40, !dbg !626

25:                                               ; preds = %11, %14
  %26 = getelementptr inbounds %"struct.Halide::Runtime::Internal::device_copy", %"struct.Halide::Runtime::Internal::device_copy"* %0, i32 0, i32 0, !dbg !627
  %27 = load i64, i64* %26, align 8, !dbg !627, !tbaa !628
  %28 = add i64 %27, %2, !dbg !630
  %29 = trunc i64 %28 to i32, !dbg !631
  %30 = inttoptr i32 %29 to i8*, !dbg !631
  call void @llvm.dbg.value(metadata i8* %30, metadata !598, metadata !DIExpression()), !dbg !632
  %31 = getelementptr inbounds %"struct.Halide::Runtime::Internal::device_copy", %"struct.Halide::Runtime::Internal::device_copy"* %0, i32 0, i32 1, !dbg !633
  %32 = load i64, i64* %31, align 8, !dbg !633, !tbaa !634
  %33 = add i64 %32, %3, !dbg !635
  %34 = trunc i64 %33 to i32, !dbg !636
  %35 = inttoptr i32 %34 to i8*, !dbg !636
  call void @llvm.dbg.value(metadata i8* %35, metadata !601, metadata !DIExpression()), !dbg !632
  %36 = getelementptr inbounds %"struct.Halide::Runtime::Internal::device_copy", %"struct.Halide::Runtime::Internal::device_copy"* %0, i32 0, i32 6, !dbg !637
  %37 = load i64, i64* %36, align 8, !dbg !637, !tbaa !638
  %38 = trunc i64 %37 to i32, !dbg !639
  %39 = tail call i8* @memcpy(i8* %35, i8* %30, i32 %38) #8, !dbg !640
  br label %51, !dbg !641

40:                                               ; preds = %21, %40
  %41 = phi i64 [ 0, %21 ], [ %48, %40 ]
  %42 = phi i64 [ %2, %21 ], [ %45, %40 ]
  %43 = phi i64 [ %3, %21 ], [ %47, %40 ]
  call void @llvm.dbg.value(metadata i64 %41, metadata !602, metadata !DIExpression()), !dbg !622
  call void @llvm.dbg.value(metadata i64 %42, metadata !596, metadata !DIExpression()), !dbg !605
  call void @llvm.dbg.value(metadata i64 %43, metadata !597, metadata !DIExpression()), !dbg !605
  tail call void @_ZN6Halide7Runtime8Internal18copy_memory_helperERKNS1_11device_copyEixx(%"struct.Halide::Runtime::Internal::device_copy"* nonnull align 8 dereferenceable(416) %0, i32 %22, i64 %42, i64 %43) #9, !dbg !642
  %44 = load i64, i64* %23, align 8, !dbg !644, !tbaa !609
  %45 = add i64 %44, %42, !dbg !645
  call void @llvm.dbg.value(metadata i64 %45, metadata !596, metadata !DIExpression()), !dbg !605
  %46 = load i64, i64* %24, align 8, !dbg !646, !tbaa !609
  %47 = add i64 %46, %43, !dbg !647
  call void @llvm.dbg.value(metadata i64 %47, metadata !597, metadata !DIExpression()), !dbg !605
  %48 = add nuw i64 %41, 1, !dbg !648
  call void @llvm.dbg.value(metadata i64 %48, metadata !602, metadata !DIExpression()), !dbg !622
  %49 = load i64, i64* %18, align 8, !dbg !623, !tbaa !609
  %50 = icmp ult i64 %48, %49, !dbg !625
  br i1 %50, label %40, label %51, !dbg !626, !llvm.loop !649

51:                                               ; preds = %40, %17, %25
  ret void, !dbg !651
}

; Function Attrs: nofree nosync nounwind readnone speculatable willreturn
declare void @llvm.dbg.declare(metadata, metadata, metadata) #1

; Function Attrs: argmemonly nofree nosync nounwind willreturn
declare void @llvm.lifetime.start.p0i8(i64 immarg, i8* nocapture) #2

declare !dbg !652 dso_local i8* @memcpy(i8*, i8*, i32) local_unnamed_addr #3

; Function Attrs: argmemonly nofree nosync nounwind willreturn
declare void @llvm.lifetime.end.p0i8(i64 immarg, i8* nocapture) #2

; Function Attrs: nounwind
define weak dso_local void @_ZN6Halide7Runtime8Internal11copy_memoryERKNS1_11device_copyEPv(%"struct.Halide::Runtime::Internal::device_copy"* nonnull align 8 dereferenceable(416) %0, i8* %1) local_unnamed_addr #4 !dbg !656 {
  call void @llvm.dbg.value(metadata %"struct.Halide::Runtime::Internal::device_copy"* %0, metadata !660, metadata !DIExpression()), !dbg !662
  call void @llvm.dbg.value(metadata i8* %1, metadata !661, metadata !DIExpression()), !dbg !662
  %3 = getelementptr inbounds %"struct.Halide::Runtime::Internal::device_copy", %"struct.Halide::Runtime::Internal::device_copy"* %0, i32 0, i32 0, !dbg !663
  %4 = load i64, i64* %3, align 8, !dbg !663, !tbaa !628
  %5 = getelementptr inbounds %"struct.Halide::Runtime::Internal::device_copy", %"struct.Halide::Runtime::Internal::device_copy"* %0, i32 0, i32 1, !dbg !665
  %6 = load i64, i64* %5, align 8, !dbg !665, !tbaa !634
  %7 = icmp eq i64 %4, %6, !dbg !666
  br i1 %7, label %11, label %8, !dbg !667

8:                                                ; preds = %2
  %9 = getelementptr inbounds %"struct.Halide::Runtime::Internal::device_copy", %"struct.Halide::Runtime::Internal::device_copy"* %0, i32 0, i32 2, !dbg !668
  %10 = load i64, i64* %9, align 8, !dbg !668, !tbaa !670
  tail call void @_ZN6Halide7Runtime8Internal18copy_memory_helperERKNS1_11device_copyEixx(%"struct.Halide::Runtime::Internal::device_copy"* nonnull align 8 dereferenceable(416) %0, i32 15, i64 %10, i64 0) #9, !dbg !671
  br label %26, !dbg !672

11:                                               ; preds = %2
  call void @llvm.dbg.value(metadata %"class.Halide::Runtime::Internal::(anonymous namespace)::Printer"* undef, metadata !673, metadata !DIExpression()) #10, !dbg !679
  call void @llvm.dbg.value(metadata i8* %1, metadata !676, metadata !DIExpression()) #10, !dbg !679
  call void @llvm.dbg.value(metadata i8* null, metadata !677, metadata !DIExpression()) #10, !dbg !679
  %12 = tail call i8* @malloc(i32 1024) #8, !dbg !682
  %13 = icmp eq i8* %12, null, !dbg !687
  br i1 %13, label %14, label %16, !dbg !689

14:                                               ; preds = %11
  call void @llvm.dbg.value(metadata %"class.Halide::Runtime::Internal::(anonymous namespace)::Printer"* undef, metadata !690, metadata !DIExpression()) #10, !dbg !694
  call void @llvm.dbg.value(metadata i8* getelementptr inbounds ([55 x i8], [55 x i8]* @.str, i32 0, i32 0), metadata !693, metadata !DIExpression()) #10, !dbg !694
  %15 = tail call i8* @halide_string_to_string(i8* %12, i8* null, i8* nonnull getelementptr inbounds ([55 x i8], [55 x i8]* @.str, i32 0, i32 0)) #8, !dbg !696
  call void @llvm.dbg.value(metadata %"class.Halide::Runtime::Internal::(anonymous namespace)::Printer"* undef, metadata !699, metadata !DIExpression()) #10, !dbg !702
  tail call void @halide_error(i8* %1, i8* getelementptr inbounds ([35 x i8], [35 x i8]* @.str.147, i32 0, i32 0)) #8, !dbg !704
  br label %25, !dbg !708

16:                                               ; preds = %11
  %17 = getelementptr inbounds i8, i8* %12, i32 1023, !dbg !709
  store i8 0, i8* %17, align 1, !dbg !711, !tbaa !712
  call void @llvm.dbg.value(metadata %"class.Halide::Runtime::Internal::(anonymous namespace)::Printer"* undef, metadata !690, metadata !DIExpression()) #10, !dbg !694
  call void @llvm.dbg.value(metadata i8* getelementptr inbounds ([55 x i8], [55 x i8]* @.str, i32 0, i32 0), metadata !693, metadata !DIExpression()) #10, !dbg !694
  %18 = tail call i8* @halide_string_to_string(i8* nonnull %12, i8* nonnull %17, i8* nonnull getelementptr inbounds ([55 x i8], [55 x i8]* @.str, i32 0, i32 0)) #8, !dbg !696
  call void @llvm.dbg.value(metadata %"class.Halide::Runtime::Internal::(anonymous namespace)::Printer"* undef, metadata !699, metadata !DIExpression()) #10, !dbg !702
  call void @llvm.dbg.value(metadata %"class.Halide::Runtime::Internal::(anonymous namespace)::Printer"* undef, metadata !713, metadata !DIExpression()) #10, !dbg !716
  %19 = ptrtoint i8* %18 to i32, !dbg !719
  %20 = ptrtoint i8* %12 to i32, !dbg !719
  %21 = add i32 %19, 1, !dbg !719
  %22 = sub i32 %21, %20, !dbg !720
  %23 = sext i32 %22 to i64, !dbg !721
  %24 = tail call i32 @halide_msan_annotate_memory_is_initialized(i8* %1, i8* nonnull %12, i64 %23) #8, !dbg !722
  tail call void @halide_print(i8* %1, i8* nonnull %12) #8, !dbg !723
  br label %25

25:                                               ; preds = %16, %14
  tail call void @free(i8* %12) #8, !dbg !727
  br label %26

26:                                               ; preds = %25, %8
  ret void, !dbg !730
}

; Function Attrs: nounwind mustprogress
define weak dso_local void @_ZN6Halide7Runtime8Internal16make_buffer_copyEPK15halide_buffer_tbS4_b(%"struct.Halide::Runtime::Internal::device_copy"* noalias sret(%"struct.Halide::Runtime::Internal::device_copy") align 8 %0, %struct.halide_buffer_t* %1, i1 zeroext %2, %struct.halide_buffer_t* %3, i1 zeroext %4) local_unnamed_addr #0 !dbg !731 {
  %6 = alloca %"struct.Halide::Runtime::Internal::device_copy", align 8
  call void @llvm.dbg.value(metadata %struct.halide_buffer_t* %1, metadata !736, metadata !DIExpression()), !dbg !763
  call void @llvm.dbg.value(metadata i1 %2, metadata !737, metadata !DIExpression(DW_OP_LLVM_convert, 1, DW_ATE_unsigned, DW_OP_LLVM_convert, 8, DW_ATE_unsigned, DW_OP_stack_value)), !dbg !763
  call void @llvm.dbg.value(metadata %struct.halide_buffer_t* %3, metadata !738, metadata !DIExpression()), !dbg !763
  call void @llvm.dbg.value(metadata i1 %4, metadata !739, metadata !DIExpression(DW_OP_LLVM_convert, 1, DW_ATE_unsigned, DW_OP_LLVM_convert, 8, DW_ATE_unsigned, DW_OP_stack_value)), !dbg !763
  %7 = bitcast %"struct.Halide::Runtime::Internal::device_copy"* %6 to i8*, !dbg !764
  call void @llvm.lifetime.start.p0i8(i64 416, i8* nonnull %7) #10, !dbg !764
  call void @llvm.dbg.declare(metadata %"struct.Halide::Runtime::Internal::device_copy"* %6, metadata !740, metadata !DIExpression()), !dbg !765
  br i1 %2, label %8, label %13, !dbg !766

8:                                                ; preds = %5
  %9 = getelementptr inbounds %struct.halide_buffer_t, %struct.halide_buffer_t* %1, i32 0, i32 2, !dbg !767
  %10 = load i8*, i8** %9, align 4, !dbg !767, !tbaa !768
  %11 = ptrtoint i8* %10 to i32, !dbg !775
  %12 = zext i32 %11 to i64, !dbg !775
  br label %16, !dbg !766

13:                                               ; preds = %5
  %14 = getelementptr inbounds %struct.halide_buffer_t, %struct.halide_buffer_t* %1, i32 0, i32 0, !dbg !776
  %15 = load i64, i64* %14, align 8, !dbg !776, !tbaa !777
  br label %16, !dbg !766

16:                                               ; preds = %13, %8
  %17 = phi i64 [ %12, %8 ], [ %15, %13 ], !dbg !766
  %18 = getelementptr inbounds %"struct.Halide::Runtime::Internal::device_copy", %"struct.Halide::Runtime::Internal::device_copy"* %6, i32 0, i32 0, !dbg !778
  store i64 %17, i64* %18, align 8, !dbg !779, !tbaa !628
  br i1 %4, label %19, label %24, !dbg !780

19:                                               ; preds = %16
  %20 = getelementptr inbounds %struct.halide_buffer_t, %struct.halide_buffer_t* %3, i32 0, i32 2, !dbg !781
  %21 = load i8*, i8** %20, align 4, !dbg !781, !tbaa !768
  %22 = ptrtoint i8* %21 to i32, !dbg !782
  %23 = zext i32 %22 to i64, !dbg !782
  br label %27, !dbg !780

24:                                               ; preds = %16
  %25 = getelementptr inbounds %struct.halide_buffer_t, %struct.halide_buffer_t* %3, i32 0, i32 0, !dbg !783
  %26 = load i64, i64* %25, align 8, !dbg !783, !tbaa !777
  br label %27, !dbg !780

27:                                               ; preds = %24, %19
  %28 = phi i64 [ %23, %19 ], [ %26, %24 ], !dbg !780
  %29 = getelementptr inbounds %"struct.Halide::Runtime::Internal::device_copy", %"struct.Halide::Runtime::Internal::device_copy"* %6, i32 0, i32 1, !dbg !784
  store i64 %28, i64* %29, align 8, !dbg !785, !tbaa !634
  call void @llvm.dbg.value(metadata %struct.halide_buffer_t* %1, metadata !786, metadata !DIExpression(DW_OP_plus_uconst, 24, DW_OP_stack_value)), !dbg !790
  %30 = getelementptr inbounds %struct.halide_buffer_t, %struct.halide_buffer_t* %1, i32 0, i32 4, i32 1, !dbg !792
  %31 = load i8, i8* %30, align 1, !dbg !792, !tbaa !793
  %32 = zext i8 %31 to i32, !dbg !792
  %33 = add nuw nsw i32 %32, 7, !dbg !794
  %34 = lshr i32 %33, 3, !dbg !795
  %35 = zext i32 %34 to i64, !dbg !796
  %36 = getelementptr inbounds %"struct.Halide::Runtime::Internal::device_copy", %"struct.Halide::Runtime::Internal::device_copy"* %6, i32 0, i32 6, !dbg !797
  store i64 %35, i64* %36, align 8, !dbg !798, !tbaa !638
  call void @llvm.dbg.value(metadata i32 0, metadata !741, metadata !DIExpression()), !dbg !799
  call void @llvm.dbg.value(metadata i32 0, metadata !741, metadata !DIExpression()), !dbg !799
  %37 = getelementptr inbounds %"struct.Halide::Runtime::Internal::device_copy", %"struct.Halide::Runtime::Internal::device_copy"* %6, i32 0, i32 3, i32 0, !dbg !800
  store i64 1, i64* %37, align 8, !dbg !803, !tbaa !609
  %38 = getelementptr inbounds %"struct.Halide::Runtime::Internal::device_copy", %"struct.Halide::Runtime::Internal::device_copy"* %6, i32 0, i32 4, i32 0, !dbg !804
  store i64 0, i64* %38, align 8, !dbg !805, !tbaa !609
  %39 = getelementptr inbounds %"struct.Halide::Runtime::Internal::device_copy", %"struct.Halide::Runtime::Internal::device_copy"* %6, i32 0, i32 5, i32 0, !dbg !806
  store i64 0, i64* %39, align 8, !dbg !807, !tbaa !609
  call void @llvm.dbg.value(metadata i32 1, metadata !741, metadata !DIExpression()), !dbg !799
  call void @llvm.dbg.value(metadata i32 1, metadata !741, metadata !DIExpression()), !dbg !799
  %40 = getelementptr inbounds %"struct.Halide::Runtime::Internal::device_copy", %"struct.Halide::Runtime::Internal::device_copy"* %6, i32 0, i32 3, i32 1, !dbg !800
  store i64 1, i64* %40, align 8, !dbg !803, !tbaa !609
  %41 = getelementptr inbounds %"struct.Halide::Runtime::Internal::device_copy", %"struct.Halide::Runtime::Internal::device_copy"* %6, i32 0, i32 4, i32 1, !dbg !804
  store i64 0, i64* %41, align 8, !dbg !805, !tbaa !609
  %42 = getelementptr inbounds %"struct.Halide::Runtime::Internal::device_copy", %"struct.Halide::Runtime::Internal::device_copy"* %6, i32 0, i32 5, i32 1, !dbg !806
  store i64 0, i64* %42, align 8, !dbg !807, !tbaa !609
  call void @llvm.dbg.value(metadata i32 2, metadata !741, metadata !DIExpression()), !dbg !799
  call void @llvm.dbg.value(metadata i32 2, metadata !741, metadata !DIExpression()), !dbg !799
  %43 = getelementptr inbounds %"struct.Halide::Runtime::Internal::device_copy", %"struct.Halide::Runtime::Internal::device_copy"* %6, i32 0, i32 3, i32 2, !dbg !800
  store i64 1, i64* %43, align 8, !dbg !803, !tbaa !609
  %44 = getelementptr inbounds %"struct.Halide::Runtime::Internal::device_copy", %"struct.Halide::Runtime::Internal::device_copy"* %6, i32 0, i32 4, i32 2, !dbg !804
  store i64 0, i64* %44, align 8, !dbg !805, !tbaa !609
  %45 = getelementptr inbounds %"struct.Halide::Runtime::Internal::device_copy", %"struct.Halide::Runtime::Internal::device_copy"* %6, i32 0, i32 5, i32 2, !dbg !806
  store i64 0, i64* %45, align 8, !dbg !807, !tbaa !609
  call void @llvm.dbg.value(metadata i32 3, metadata !741, metadata !DIExpression()), !dbg !799
  call void @llvm.dbg.value(metadata i32 3, metadata !741, metadata !DIExpression()), !dbg !799
  %46 = getelementptr inbounds %"struct.Halide::Runtime::Internal::device_copy", %"struct.Halide::Runtime::Internal::device_copy"* %6, i32 0, i32 3, i32 3, !dbg !800
  store i64 1, i64* %46, align 8, !dbg !803, !tbaa !609
  %47 = getelementptr inbounds %"struct.Halide::Runtime::Internal::device_copy", %"struct.Halide::Runtime::Internal::device_copy"* %6, i32 0, i32 4, i32 3, !dbg !804
  store i64 0, i64* %47, align 8, !dbg !805, !tbaa !609
  %48 = getelementptr inbounds %"struct.Halide::Runtime::Internal::device_copy", %"struct.Halide::Runtime::Internal::device_copy"* %6, i32 0, i32 5, i32 3, !dbg !806
  store i64 0, i64* %48, align 8, !dbg !807, !tbaa !609
  call void @llvm.dbg.value(metadata i32 4, metadata !741, metadata !DIExpression()), !dbg !799
  call void @llvm.dbg.value(metadata i32 4, metadata !741, metadata !DIExpression()), !dbg !799
  %49 = getelementptr inbounds %"struct.Halide::Runtime::Internal::device_copy", %"struct.Halide::Runtime::Internal::device_copy"* %6, i32 0, i32 3, i32 4, !dbg !800
  store i64 1, i64* %49, align 8, !dbg !803, !tbaa !609
  %50 = getelementptr inbounds %"struct.Halide::Runtime::Internal::device_copy", %"struct.Halide::Runtime::Internal::device_copy"* %6, i32 0, i32 4, i32 4, !dbg !804
  store i64 0, i64* %50, align 8, !dbg !805, !tbaa !609
  %51 = getelementptr inbounds %"struct.Halide::Runtime::Internal::device_copy", %"struct.Halide::Runtime::Internal::device_copy"* %6, i32 0, i32 5, i32 4, !dbg !806
  store i64 0, i64* %51, align 8, !dbg !807, !tbaa !609
  call void @llvm.dbg.value(metadata i32 5, metadata !741, metadata !DIExpression()), !dbg !799
  call void @llvm.dbg.value(metadata i32 5, metadata !741, metadata !DIExpression()), !dbg !799
  %52 = getelementptr inbounds %"struct.Halide::Runtime::Internal::device_copy", %"struct.Halide::Runtime::Internal::device_copy"* %6, i32 0, i32 3, i32 5, !dbg !800
  store i64 1, i64* %52, align 8, !dbg !803, !tbaa !609
  %53 = getelementptr inbounds %"struct.Halide::Runtime::Internal::device_copy", %"struct.Halide::Runtime::Internal::device_copy"* %6, i32 0, i32 4, i32 5, !dbg !804
  store i64 0, i64* %53, align 8, !dbg !805, !tbaa !609
  %54 = getelementptr inbounds %"struct.Halide::Runtime::Internal::device_copy", %"struct.Halide::Runtime::Internal::device_copy"* %6, i32 0, i32 5, i32 5, !dbg !806
  store i64 0, i64* %54, align 8, !dbg !807, !tbaa !609
  call void @llvm.dbg.value(metadata i32 6, metadata !741, metadata !DIExpression()), !dbg !799
  call void @llvm.dbg.value(metadata i32 6, metadata !741, metadata !DIExpression()), !dbg !799
  %55 = getelementptr inbounds %"struct.Halide::Runtime::Internal::device_copy", %"struct.Halide::Runtime::Internal::device_copy"* %6, i32 0, i32 3, i32 6, !dbg !800
  store i64 1, i64* %55, align 8, !dbg !803, !tbaa !609
  %56 = getelementptr inbounds %"struct.Halide::Runtime::Internal::device_copy", %"struct.Halide::Runtime::Internal::device_copy"* %6, i32 0, i32 4, i32 6, !dbg !804
  store i64 0, i64* %56, align 8, !dbg !805, !tbaa !609
  %57 = getelementptr inbounds %"struct.Halide::Runtime::Internal::device_copy", %"struct.Halide::Runtime::Internal::device_copy"* %6, i32 0, i32 5, i32 6, !dbg !806
  store i64 0, i64* %57, align 8, !dbg !807, !tbaa !609
  call void @llvm.dbg.value(metadata i32 7, metadata !741, metadata !DIExpression()), !dbg !799
  call void @llvm.dbg.value(metadata i32 7, metadata !741, metadata !DIExpression()), !dbg !799
  %58 = getelementptr inbounds %"struct.Halide::Runtime::Internal::device_copy", %"struct.Halide::Runtime::Internal::device_copy"* %6, i32 0, i32 3, i32 7, !dbg !800
  store i64 1, i64* %58, align 8, !dbg !803, !tbaa !609
  %59 = getelementptr inbounds %"struct.Halide::Runtime::Internal::device_copy", %"struct.Halide::Runtime::Internal::device_copy"* %6, i32 0, i32 4, i32 7, !dbg !804
  store i64 0, i64* %59, align 8, !dbg !805, !tbaa !609
  %60 = getelementptr inbounds %"struct.Halide::Runtime::Internal::device_copy", %"struct.Halide::Runtime::Internal::device_copy"* %6, i32 0, i32 5, i32 7, !dbg !806
  store i64 0, i64* %60, align 8, !dbg !807, !tbaa !609
  call void @llvm.dbg.value(metadata i32 8, metadata !741, metadata !DIExpression()), !dbg !799
  call void @llvm.dbg.value(metadata i32 8, metadata !741, metadata !DIExpression()), !dbg !799
  %61 = getelementptr inbounds %"struct.Halide::Runtime::Internal::device_copy", %"struct.Halide::Runtime::Internal::device_copy"* %6, i32 0, i32 3, i32 8, !dbg !800
  store i64 1, i64* %61, align 8, !dbg !803, !tbaa !609
  %62 = getelementptr inbounds %"struct.Halide::Runtime::Internal::device_copy", %"struct.Halide::Runtime::Internal::device_copy"* %6, i32 0, i32 4, i32 8, !dbg !804
  store i64 0, i64* %62, align 8, !dbg !805, !tbaa !609
  %63 = getelementptr inbounds %"struct.Halide::Runtime::Internal::device_copy", %"struct.Halide::Runtime::Internal::device_copy"* %6, i32 0, i32 5, i32 8, !dbg !806
  store i64 0, i64* %63, align 8, !dbg !807, !tbaa !609
  call void @llvm.dbg.value(metadata i32 9, metadata !741, metadata !DIExpression()), !dbg !799
  call void @llvm.dbg.value(metadata i32 9, metadata !741, metadata !DIExpression()), !dbg !799
  %64 = getelementptr inbounds %"struct.Halide::Runtime::Internal::device_copy", %"struct.Halide::Runtime::Internal::device_copy"* %6, i32 0, i32 3, i32 9, !dbg !800
  store i64 1, i64* %64, align 8, !dbg !803, !tbaa !609
  %65 = getelementptr inbounds %"struct.Halide::Runtime::Internal::device_copy", %"struct.Halide::Runtime::Internal::device_copy"* %6, i32 0, i32 4, i32 9, !dbg !804
  store i64 0, i64* %65, align 8, !dbg !805, !tbaa !609
  %66 = getelementptr inbounds %"struct.Halide::Runtime::Internal::device_copy", %"struct.Halide::Runtime::Internal::device_copy"* %6, i32 0, i32 5, i32 9, !dbg !806
  store i64 0, i64* %66, align 8, !dbg !807, !tbaa !609
  call void @llvm.dbg.value(metadata i32 10, metadata !741, metadata !DIExpression()), !dbg !799
  call void @llvm.dbg.value(metadata i32 10, metadata !741, metadata !DIExpression()), !dbg !799
  %67 = getelementptr inbounds %"struct.Halide::Runtime::Internal::device_copy", %"struct.Halide::Runtime::Internal::device_copy"* %6, i32 0, i32 3, i32 10, !dbg !800
  store i64 1, i64* %67, align 8, !dbg !803, !tbaa !609
  %68 = getelementptr inbounds %"struct.Halide::Runtime::Internal::device_copy", %"struct.Halide::Runtime::Internal::device_copy"* %6, i32 0, i32 4, i32 10, !dbg !804
  store i64 0, i64* %68, align 8, !dbg !805, !tbaa !609
  %69 = getelementptr inbounds %"struct.Halide::Runtime::Internal::device_copy", %"struct.Halide::Runtime::Internal::device_copy"* %6, i32 0, i32 5, i32 10, !dbg !806
  store i64 0, i64* %69, align 8, !dbg !807, !tbaa !609
  call void @llvm.dbg.value(metadata i32 11, metadata !741, metadata !DIExpression()), !dbg !799
  call void @llvm.dbg.value(metadata i32 11, metadata !741, metadata !DIExpression()), !dbg !799
  %70 = getelementptr inbounds %"struct.Halide::Runtime::Internal::device_copy", %"struct.Halide::Runtime::Internal::device_copy"* %6, i32 0, i32 3, i32 11, !dbg !800
  store i64 1, i64* %70, align 8, !dbg !803, !tbaa !609
  %71 = getelementptr inbounds %"struct.Halide::Runtime::Internal::device_copy", %"struct.Halide::Runtime::Internal::device_copy"* %6, i32 0, i32 4, i32 11, !dbg !804
  store i64 0, i64* %71, align 8, !dbg !805, !tbaa !609
  %72 = getelementptr inbounds %"struct.Halide::Runtime::Internal::device_copy", %"struct.Halide::Runtime::Internal::device_copy"* %6, i32 0, i32 5, i32 11, !dbg !806
  store i64 0, i64* %72, align 8, !dbg !807, !tbaa !609
  call void @llvm.dbg.value(metadata i32 12, metadata !741, metadata !DIExpression()), !dbg !799
  call void @llvm.dbg.value(metadata i32 12, metadata !741, metadata !DIExpression()), !dbg !799
  %73 = getelementptr inbounds %"struct.Halide::Runtime::Internal::device_copy", %"struct.Halide::Runtime::Internal::device_copy"* %6, i32 0, i32 3, i32 12, !dbg !800
  store i64 1, i64* %73, align 8, !dbg !803, !tbaa !609
  %74 = getelementptr inbounds %"struct.Halide::Runtime::Internal::device_copy", %"struct.Halide::Runtime::Internal::device_copy"* %6, i32 0, i32 4, i32 12, !dbg !804
  store i64 0, i64* %74, align 8, !dbg !805, !tbaa !609
  %75 = getelementptr inbounds %"struct.Halide::Runtime::Internal::device_copy", %"struct.Halide::Runtime::Internal::device_copy"* %6, i32 0, i32 5, i32 12, !dbg !806
  store i64 0, i64* %75, align 8, !dbg !807, !tbaa !609
  call void @llvm.dbg.value(metadata i32 13, metadata !741, metadata !DIExpression()), !dbg !799
  call void @llvm.dbg.value(metadata i32 13, metadata !741, metadata !DIExpression()), !dbg !799
  %76 = getelementptr inbounds %"struct.Halide::Runtime::Internal::device_copy", %"struct.Halide::Runtime::Internal::device_copy"* %6, i32 0, i32 3, i32 13, !dbg !800
  store i64 1, i64* %76, align 8, !dbg !803, !tbaa !609
  %77 = getelementptr inbounds %"struct.Halide::Runtime::Internal::device_copy", %"struct.Halide::Runtime::Internal::device_copy"* %6, i32 0, i32 4, i32 13, !dbg !804
  store i64 0, i64* %77, align 8, !dbg !805, !tbaa !609
  %78 = getelementptr inbounds %"struct.Halide::Runtime::Internal::device_copy", %"struct.Halide::Runtime::Internal::device_copy"* %6, i32 0, i32 5, i32 13, !dbg !806
  store i64 0, i64* %78, align 8, !dbg !807, !tbaa !609
  call void @llvm.dbg.value(metadata i32 14, metadata !741, metadata !DIExpression()), !dbg !799
  call void @llvm.dbg.value(metadata i32 14, metadata !741, metadata !DIExpression()), !dbg !799
  %79 = getelementptr inbounds %"struct.Halide::Runtime::Internal::device_copy", %"struct.Halide::Runtime::Internal::device_copy"* %6, i32 0, i32 3, i32 14, !dbg !800
  store i64 1, i64* %79, align 8, !dbg !803, !tbaa !609
  %80 = getelementptr inbounds %"struct.Halide::Runtime::Internal::device_copy", %"struct.Halide::Runtime::Internal::device_copy"* %6, i32 0, i32 4, i32 14, !dbg !804
  store i64 0, i64* %80, align 8, !dbg !805, !tbaa !609
  %81 = getelementptr inbounds %"struct.Halide::Runtime::Internal::device_copy", %"struct.Halide::Runtime::Internal::device_copy"* %6, i32 0, i32 5, i32 14, !dbg !806
  store i64 0, i64* %81, align 8, !dbg !807, !tbaa !609
  call void @llvm.dbg.value(metadata i32 15, metadata !741, metadata !DIExpression()), !dbg !799
  call void @llvm.dbg.value(metadata i32 15, metadata !741, metadata !DIExpression()), !dbg !799
  %82 = getelementptr inbounds %"struct.Halide::Runtime::Internal::device_copy", %"struct.Halide::Runtime::Internal::device_copy"* %6, i32 0, i32 3, i32 15, !dbg !800
  store i64 1, i64* %82, align 8, !dbg !803, !tbaa !609
  %83 = getelementptr inbounds %"struct.Halide::Runtime::Internal::device_copy", %"struct.Halide::Runtime::Internal::device_copy"* %6, i32 0, i32 4, i32 15, !dbg !804
  store i64 0, i64* %83, align 8, !dbg !805, !tbaa !609
  %84 = getelementptr inbounds %"struct.Halide::Runtime::Internal::device_copy", %"struct.Halide::Runtime::Internal::device_copy"* %6, i32 0, i32 5, i32 15, !dbg !806
  store i64 0, i64* %84, align 8, !dbg !807, !tbaa !609
  call void @llvm.dbg.value(metadata i32 16, metadata !741, metadata !DIExpression()), !dbg !799
  %85 = getelementptr inbounds %"struct.Halide::Runtime::Internal::device_copy", %"struct.Halide::Runtime::Internal::device_copy"* %6, i32 0, i32 2, !dbg !808
  call void @llvm.dbg.value(metadata i32 0, metadata !743, metadata !DIExpression()), !dbg !809
  %86 = getelementptr inbounds %struct.halide_buffer_t, %struct.halide_buffer_t* %1, i32 0, i32 5, !dbg !810
  %87 = load i32, i32* %86, align 4, !dbg !810, !tbaa !812
  %88 = icmp sgt i32 %87, 0, !dbg !813
  br i1 %88, label %89, label %94, !dbg !814

89:                                               ; preds = %27
  %90 = getelementptr inbounds %struct.halide_buffer_t, %struct.halide_buffer_t* %1, i32 0, i32 6
  %91 = load %struct.halide_dimension_t*, %struct.halide_dimension_t** %90, align 8, !tbaa !815
  %92 = getelementptr inbounds %struct.halide_buffer_t, %struct.halide_buffer_t* %3, i32 0, i32 6
  %93 = load %struct.halide_dimension_t*, %struct.halide_dimension_t** %92, align 8, !tbaa !815
  br label %101, !dbg !814

94:                                               ; preds = %101, %27
  %95 = phi i64 [ 0, %27 ], [ %114, %101 ], !dbg !816
  %96 = load i64, i64* %36, align 8, !dbg !817, !tbaa !638
  %97 = mul i64 %95, %96, !dbg !816
  store i64 %97, i64* %85, align 8, !dbg !816, !tbaa !670
  %98 = getelementptr inbounds %struct.halide_buffer_t, %struct.halide_buffer_t* %3, i32 0, i32 5, !dbg !818
  %99 = load i32, i32* %98, align 4, !dbg !818, !tbaa !812
  %100 = icmp eq i32 %87, %99, !dbg !819
  br i1 %100, label %117, label %126, !dbg !820

101:                                              ; preds = %89, %101
  %102 = phi i64 [ 0, %89 ], [ %114, %101 ], !dbg !809
  %103 = phi i32 [ 0, %89 ], [ %115, %101 ]
  call void @llvm.dbg.value(metadata i32 %103, metadata !743, metadata !DIExpression()), !dbg !809
  %104 = getelementptr inbounds %struct.halide_dimension_t, %struct.halide_dimension_t* %91, i32 %103, i32 2, !dbg !821
  %105 = load i32, i32* %104, align 4, !dbg !821, !tbaa !823
  %106 = sext i32 %105 to i64, !dbg !825
  %107 = getelementptr inbounds %struct.halide_dimension_t, %struct.halide_dimension_t* %93, i32 %103, i32 0, !dbg !826
  %108 = load i32, i32* %107, align 4, !dbg !826, !tbaa !827
  %109 = getelementptr inbounds %struct.halide_dimension_t, %struct.halide_dimension_t* %91, i32 %103, i32 0, !dbg !828
  %110 = load i32, i32* %109, align 4, !dbg !828, !tbaa !827
  %111 = sub nsw i32 %108, %110, !dbg !829
  %112 = sext i32 %111 to i64, !dbg !830
  %113 = mul nsw i64 %112, %106, !dbg !831
  %114 = add i64 %113, %102, !dbg !832
  %115 = add nuw nsw i32 %103, 1, !dbg !833
  call void @llvm.dbg.value(metadata i32 %115, metadata !743, metadata !DIExpression()), !dbg !809
  %116 = icmp slt i32 %115, %87, !dbg !813
  br i1 %116, label %101, label %94, !dbg !814, !llvm.loop !834

117:                                              ; preds = %94
  call void @llvm.dbg.value(metadata %struct.halide_buffer_t* %1, metadata !786, metadata !DIExpression(DW_OP_plus_uconst, 24, DW_OP_stack_value)), !dbg !836
  call void @llvm.dbg.value(metadata %struct.halide_buffer_t* %3, metadata !786, metadata !DIExpression(DW_OP_plus_uconst, 24, DW_OP_stack_value)), !dbg !838
  %118 = getelementptr inbounds %struct.halide_buffer_t, %struct.halide_buffer_t* %3, i32 0, i32 4, i32 1, !dbg !840
  %119 = load i8, i8* %118, align 1, !dbg !840, !tbaa !793
  %120 = zext i8 %119 to i32, !dbg !840
  %121 = add nuw nsw i32 %120, 7, !dbg !841
  %122 = lshr i32 %121, 3, !dbg !842
  %123 = icmp ne i32 %34, %122, !dbg !843
  %124 = icmp sgt i32 %87, 16
  %125 = or i1 %124, %123, !dbg !844
  br i1 %125, label %126, label %128, !dbg !844

126:                                              ; preds = %117, %94
  call void @llvm.dbg.declare(metadata %"struct.Halide::Runtime::Internal::device_copy"* %0, metadata !745, metadata !DIExpression()), !dbg !845
  %127 = bitcast %"struct.Halide::Runtime::Internal::device_copy"* %0 to i8*, !dbg !845
  tail call void @llvm.memset.p0i8.i32(i8* nonnull align 8 dereferenceable(416) %127, i8 0, i32 416, i1 false), !dbg !845
  br label %245, !dbg !846

128:                                              ; preds = %117
  %129 = icmp eq i64 %96, 0, !dbg !847
  br i1 %129, label %136, label %130, !dbg !848

130:                                              ; preds = %128
  call void @llvm.dbg.value(metadata i32 0, metadata !751, metadata !DIExpression()), !dbg !849
  br i1 %88, label %131, label %243, !dbg !850

131:                                              ; preds = %130
  %132 = getelementptr inbounds %struct.halide_buffer_t, %struct.halide_buffer_t* %3, i32 0, i32 6
  %133 = load %struct.halide_dimension_t*, %struct.halide_dimension_t** %132, align 8, !tbaa !815
  %134 = getelementptr inbounds %struct.halide_buffer_t, %struct.halide_buffer_t* %1, i32 0, i32 6
  %135 = load %struct.halide_dimension_t*, %struct.halide_dimension_t** %134, align 8, !tbaa !815
  br label %144, !dbg !850

136:                                              ; preds = %128
  call void @llvm.dbg.declare(metadata %"struct.Halide::Runtime::Internal::device_copy"* %0, metadata !748, metadata !DIExpression()), !dbg !851
  %137 = bitcast %"struct.Halide::Runtime::Internal::device_copy"* %0 to i8*, !dbg !851
  tail call void @llvm.memset.p0i8.i32(i8* nonnull align 8 dereferenceable(416) %137, i8 0, i32 416, i1 false), !dbg !851
  br label %245, !dbg !852

138:                                              ; preds = %168
  %139 = load i64, i64* %36, align 8, !dbg !853, !tbaa !638
  %140 = load i64, i64* %38, align 8, !dbg !854, !tbaa !609
  %141 = icmp eq i64 %139, %140, !dbg !855
  br i1 %141, label %142, label %243, !dbg !856

142:                                              ; preds = %138
  %143 = load i64, i64* %39, align 8, !dbg !857, !tbaa !609
  br label %190, !dbg !856

144:                                              ; preds = %131, %168
  %145 = phi i32 [ 0, %131 ], [ %175, %168 ]
  call void @llvm.dbg.value(metadata i32 %145, metadata !751, metadata !DIExpression()), !dbg !849
  %146 = getelementptr inbounds %struct.halide_dimension_t, %struct.halide_dimension_t* %133, i32 %145, i32 2, !dbg !858
  %147 = load i32, i32* %146, align 4, !dbg !858, !tbaa !823
  %148 = sext i32 %147 to i64, !dbg !859
  call void @llvm.dbg.value(metadata %struct.halide_buffer_t* %3, metadata !786, metadata !DIExpression(DW_OP_plus_uconst, 24, DW_OP_stack_value)), !dbg !860
  %149 = mul nsw i64 %148, %35, !dbg !862
  call void @llvm.dbg.value(metadata i64 %149, metadata !753, metadata !DIExpression()), !dbg !863
  %150 = getelementptr inbounds %struct.halide_dimension_t, %struct.halide_dimension_t* %135, i32 %145, i32 2, !dbg !864
  %151 = load i32, i32* %150, align 4, !dbg !864, !tbaa !823
  %152 = sext i32 %151 to i64, !dbg !865
  call void @llvm.dbg.value(metadata %struct.halide_buffer_t* %1, metadata !786, metadata !DIExpression(DW_OP_plus_uconst, 24, DW_OP_stack_value)), !dbg !866
  %153 = mul nsw i64 %152, %35, !dbg !868
  call void @llvm.dbg.value(metadata i64 %153, metadata !756, metadata !DIExpression()), !dbg !863
  call void @llvm.dbg.value(metadata i32 0, metadata !757, metadata !DIExpression()), !dbg !863
  %154 = icmp eq i32 %145, 0, !dbg !869
  br i1 %154, label %165, label %155, !dbg !872

155:                                              ; preds = %144
  %156 = icmp eq i64 %149, 0
  br i1 %156, label %165, label %157, !dbg !872

157:                                              ; preds = %155, %162
  %158 = phi i32 [ %163, %162 ], [ 0, %155 ]
  call void @llvm.dbg.value(metadata i32 %158, metadata !757, metadata !DIExpression()), !dbg !863
  %159 = getelementptr inbounds %"struct.Halide::Runtime::Internal::device_copy", %"struct.Halide::Runtime::Internal::device_copy"* %6, i32 0, i32 5, i32 %158, !dbg !873
  %160 = load i64, i64* %159, align 8, !dbg !873, !tbaa !609
  %161 = icmp ult i64 %149, %160, !dbg !876
  br i1 %161, label %165, label %162, !dbg !877

162:                                              ; preds = %157
  %163 = add nuw nsw i32 %158, 1, !dbg !878
  call void @llvm.dbg.value(metadata i32 %163, metadata !757, metadata !DIExpression()), !dbg !863
  %164 = icmp ult i32 %163, %145, !dbg !869
  br i1 %164, label %157, label %165, !dbg !872, !llvm.loop !879

165:                                              ; preds = %162, %157, %155, %144
  %166 = phi i32 [ 0, %144 ], [ %145, %155 ], [ %158, %157 ], [ %145, %162 ], !dbg !881
  call void @llvm.dbg.value(metadata i32 %145, metadata !758, metadata !DIExpression()), !dbg !882
  %167 = icmp ugt i32 %145, %166, !dbg !883
  br i1 %167, label %177, label %168, !dbg !885

168:                                              ; preds = %177, %165
  %169 = getelementptr inbounds %struct.halide_dimension_t, %struct.halide_dimension_t* %133, i32 %145, i32 1, !dbg !886
  %170 = load i32, i32* %169, align 4, !dbg !886, !tbaa !887
  %171 = sext i32 %170 to i64, !dbg !888
  %172 = getelementptr inbounds %"struct.Halide::Runtime::Internal::device_copy", %"struct.Halide::Runtime::Internal::device_copy"* %6, i32 0, i32 3, i32 %166, !dbg !889
  store i64 %171, i64* %172, align 8, !dbg !890, !tbaa !609
  %173 = getelementptr inbounds %"struct.Halide::Runtime::Internal::device_copy", %"struct.Halide::Runtime::Internal::device_copy"* %6, i32 0, i32 5, i32 %166, !dbg !891
  store i64 %149, i64* %173, align 8, !dbg !892, !tbaa !609
  %174 = getelementptr inbounds %"struct.Halide::Runtime::Internal::device_copy", %"struct.Halide::Runtime::Internal::device_copy"* %6, i32 0, i32 4, i32 %166, !dbg !893
  store i64 %153, i64* %174, align 8, !dbg !894, !tbaa !609
  %175 = add nuw nsw i32 %145, 1, !dbg !895
  call void @llvm.dbg.value(metadata i32 %175, metadata !751, metadata !DIExpression()), !dbg !849
  %176 = icmp slt i32 %175, %87, !dbg !896
  br i1 %176, label %144, label %138, !dbg !850, !llvm.loop !897

177:                                              ; preds = %165, %177
  %178 = phi i32 [ %179, %177 ], [ %145, %165 ]
  call void @llvm.dbg.value(metadata i32 %178, metadata !758, metadata !DIExpression()), !dbg !882
  %179 = add nsw i32 %178, -1, !dbg !899
  %180 = getelementptr inbounds %"struct.Halide::Runtime::Internal::device_copy", %"struct.Halide::Runtime::Internal::device_copy"* %6, i32 0, i32 3, i32 %179, !dbg !901
  %181 = load i64, i64* %180, align 8, !dbg !901, !tbaa !609
  %182 = getelementptr inbounds %"struct.Halide::Runtime::Internal::device_copy", %"struct.Halide::Runtime::Internal::device_copy"* %6, i32 0, i32 3, i32 %178, !dbg !902
  store i64 %181, i64* %182, align 8, !dbg !903, !tbaa !609
  %183 = getelementptr inbounds %"struct.Halide::Runtime::Internal::device_copy", %"struct.Halide::Runtime::Internal::device_copy"* %6, i32 0, i32 5, i32 %179, !dbg !904
  %184 = load i64, i64* %183, align 8, !dbg !904, !tbaa !609
  %185 = getelementptr inbounds %"struct.Halide::Runtime::Internal::device_copy", %"struct.Halide::Runtime::Internal::device_copy"* %6, i32 0, i32 5, i32 %178, !dbg !905
  store i64 %184, i64* %185, align 8, !dbg !906, !tbaa !609
  %186 = getelementptr inbounds %"struct.Halide::Runtime::Internal::device_copy", %"struct.Halide::Runtime::Internal::device_copy"* %6, i32 0, i32 4, i32 %179, !dbg !907
  %187 = load i64, i64* %186, align 8, !dbg !907, !tbaa !609
  %188 = getelementptr inbounds %"struct.Halide::Runtime::Internal::device_copy", %"struct.Halide::Runtime::Internal::device_copy"* %6, i32 0, i32 4, i32 %178, !dbg !908
  store i64 %187, i64* %188, align 8, !dbg !909, !tbaa !609
  call void @llvm.dbg.value(metadata i32 %179, metadata !758, metadata !DIExpression()), !dbg !882
  %189 = icmp sgt i32 %179, %166, !dbg !883
  br i1 %189, label %177, label %168, !dbg !885, !llvm.loop !910

190:                                              ; preds = %142, %194
  %191 = phi i64 [ %143, %142 ], [ %199, %194 ], !dbg !857
  %192 = phi i64 [ %140, %142 ], [ %196, %194 ]
  %193 = icmp eq i64 %192, %191, !dbg !912
  br i1 %193, label %194, label %243, !dbg !913

194:                                              ; preds = %190
  %195 = load i64, i64* %37, align 8, !dbg !914, !tbaa !609
  %196 = mul i64 %195, %191, !dbg !915
  store i64 %196, i64* %36, align 8, !dbg !915, !tbaa !638
  call void @llvm.dbg.value(metadata i32 1, metadata !760, metadata !DIExpression()), !dbg !916
  %197 = load i64, i64* %40, align 8, !dbg !917, !tbaa !609
  store i64 %197, i64* %37, align 8, !dbg !920, !tbaa !609
  %198 = load i64, i64* %41, align 8, !dbg !921, !tbaa !609
  store i64 %198, i64* %38, align 8, !dbg !922, !tbaa !609
  %199 = load i64, i64* %42, align 8, !dbg !923, !tbaa !609
  store i64 %199, i64* %39, align 8, !dbg !924, !tbaa !609
  call void @llvm.dbg.value(metadata i32 2, metadata !760, metadata !DIExpression()), !dbg !916
  %200 = load i64, i64* %43, align 8, !dbg !917, !tbaa !609
  store i64 %200, i64* %40, align 8, !dbg !920, !tbaa !609
  %201 = load i64, i64* %44, align 8, !dbg !921, !tbaa !609
  store i64 %201, i64* %41, align 8, !dbg !922, !tbaa !609
  %202 = load i64, i64* %45, align 8, !dbg !923, !tbaa !609
  store i64 %202, i64* %42, align 8, !dbg !924, !tbaa !609
  call void @llvm.dbg.value(metadata i32 3, metadata !760, metadata !DIExpression()), !dbg !916
  %203 = load i64, i64* %46, align 8, !dbg !917, !tbaa !609
  store i64 %203, i64* %43, align 8, !dbg !920, !tbaa !609
  %204 = load i64, i64* %47, align 8, !dbg !921, !tbaa !609
  store i64 %204, i64* %44, align 8, !dbg !922, !tbaa !609
  %205 = load i64, i64* %48, align 8, !dbg !923, !tbaa !609
  store i64 %205, i64* %45, align 8, !dbg !924, !tbaa !609
  call void @llvm.dbg.value(metadata i32 4, metadata !760, metadata !DIExpression()), !dbg !916
  %206 = load i64, i64* %49, align 8, !dbg !917, !tbaa !609
  store i64 %206, i64* %46, align 8, !dbg !920, !tbaa !609
  %207 = load i64, i64* %50, align 8, !dbg !921, !tbaa !609
  store i64 %207, i64* %47, align 8, !dbg !922, !tbaa !609
  %208 = load i64, i64* %51, align 8, !dbg !923, !tbaa !609
  store i64 %208, i64* %48, align 8, !dbg !924, !tbaa !609
  call void @llvm.dbg.value(metadata i32 5, metadata !760, metadata !DIExpression()), !dbg !916
  %209 = load i64, i64* %52, align 8, !dbg !917, !tbaa !609
  store i64 %209, i64* %49, align 8, !dbg !920, !tbaa !609
  %210 = load i64, i64* %53, align 8, !dbg !921, !tbaa !609
  store i64 %210, i64* %50, align 8, !dbg !922, !tbaa !609
  %211 = load i64, i64* %54, align 8, !dbg !923, !tbaa !609
  store i64 %211, i64* %51, align 8, !dbg !924, !tbaa !609
  call void @llvm.dbg.value(metadata i32 6, metadata !760, metadata !DIExpression()), !dbg !916
  %212 = load i64, i64* %55, align 8, !dbg !917, !tbaa !609
  store i64 %212, i64* %52, align 8, !dbg !920, !tbaa !609
  %213 = load i64, i64* %56, align 8, !dbg !921, !tbaa !609
  store i64 %213, i64* %53, align 8, !dbg !922, !tbaa !609
  %214 = load i64, i64* %57, align 8, !dbg !923, !tbaa !609
  store i64 %214, i64* %54, align 8, !dbg !924, !tbaa !609
  call void @llvm.dbg.value(metadata i32 7, metadata !760, metadata !DIExpression()), !dbg !916
  %215 = load i64, i64* %58, align 8, !dbg !917, !tbaa !609
  store i64 %215, i64* %55, align 8, !dbg !920, !tbaa !609
  %216 = load i64, i64* %59, align 8, !dbg !921, !tbaa !609
  store i64 %216, i64* %56, align 8, !dbg !922, !tbaa !609
  %217 = load i64, i64* %60, align 8, !dbg !923, !tbaa !609
  store i64 %217, i64* %57, align 8, !dbg !924, !tbaa !609
  call void @llvm.dbg.value(metadata i32 8, metadata !760, metadata !DIExpression()), !dbg !916
  %218 = load i64, i64* %61, align 8, !dbg !917, !tbaa !609
  store i64 %218, i64* %58, align 8, !dbg !920, !tbaa !609
  %219 = load i64, i64* %62, align 8, !dbg !921, !tbaa !609
  store i64 %219, i64* %59, align 8, !dbg !922, !tbaa !609
  %220 = load i64, i64* %63, align 8, !dbg !923, !tbaa !609
  store i64 %220, i64* %60, align 8, !dbg !924, !tbaa !609
  call void @llvm.dbg.value(metadata i32 9, metadata !760, metadata !DIExpression()), !dbg !916
  %221 = load i64, i64* %64, align 8, !dbg !917, !tbaa !609
  store i64 %221, i64* %61, align 8, !dbg !920, !tbaa !609
  %222 = load i64, i64* %65, align 8, !dbg !921, !tbaa !609
  store i64 %222, i64* %62, align 8, !dbg !922, !tbaa !609
  %223 = load i64, i64* %66, align 8, !dbg !923, !tbaa !609
  store i64 %223, i64* %63, align 8, !dbg !924, !tbaa !609
  call void @llvm.dbg.value(metadata i32 10, metadata !760, metadata !DIExpression()), !dbg !916
  %224 = load i64, i64* %67, align 8, !dbg !917, !tbaa !609
  store i64 %224, i64* %64, align 8, !dbg !920, !tbaa !609
  %225 = load i64, i64* %68, align 8, !dbg !921, !tbaa !609
  store i64 %225, i64* %65, align 8, !dbg !922, !tbaa !609
  %226 = load i64, i64* %69, align 8, !dbg !923, !tbaa !609
  store i64 %226, i64* %66, align 8, !dbg !924, !tbaa !609
  call void @llvm.dbg.value(metadata i32 11, metadata !760, metadata !DIExpression()), !dbg !916
  %227 = load i64, i64* %70, align 8, !dbg !917, !tbaa !609
  store i64 %227, i64* %67, align 8, !dbg !920, !tbaa !609
  %228 = load i64, i64* %71, align 8, !dbg !921, !tbaa !609
  store i64 %228, i64* %68, align 8, !dbg !922, !tbaa !609
  %229 = load i64, i64* %72, align 8, !dbg !923, !tbaa !609
  store i64 %229, i64* %69, align 8, !dbg !924, !tbaa !609
  call void @llvm.dbg.value(metadata i32 12, metadata !760, metadata !DIExpression()), !dbg !916
  %230 = load i64, i64* %73, align 8, !dbg !917, !tbaa !609
  store i64 %230, i64* %70, align 8, !dbg !920, !tbaa !609
  %231 = load i64, i64* %74, align 8, !dbg !921, !tbaa !609
  store i64 %231, i64* %71, align 8, !dbg !922, !tbaa !609
  %232 = load i64, i64* %75, align 8, !dbg !923, !tbaa !609
  store i64 %232, i64* %72, align 8, !dbg !924, !tbaa !609
  call void @llvm.dbg.value(metadata i32 13, metadata !760, metadata !DIExpression()), !dbg !916
  %233 = load i64, i64* %76, align 8, !dbg !917, !tbaa !609
  store i64 %233, i64* %73, align 8, !dbg !920, !tbaa !609
  %234 = load i64, i64* %77, align 8, !dbg !921, !tbaa !609
  store i64 %234, i64* %74, align 8, !dbg !922, !tbaa !609
  %235 = load i64, i64* %78, align 8, !dbg !923, !tbaa !609
  store i64 %235, i64* %75, align 8, !dbg !924, !tbaa !609
  call void @llvm.dbg.value(metadata i32 14, metadata !760, metadata !DIExpression()), !dbg !916
  %236 = load i64, i64* %79, align 8, !dbg !917, !tbaa !609
  store i64 %236, i64* %76, align 8, !dbg !920, !tbaa !609
  %237 = load i64, i64* %80, align 8, !dbg !921, !tbaa !609
  store i64 %237, i64* %77, align 8, !dbg !922, !tbaa !609
  %238 = load i64, i64* %81, align 8, !dbg !923, !tbaa !609
  store i64 %238, i64* %78, align 8, !dbg !924, !tbaa !609
  call void @llvm.dbg.value(metadata i32 15, metadata !760, metadata !DIExpression()), !dbg !916
  %239 = load i64, i64* %82, align 8, !dbg !917, !tbaa !609
  store i64 %239, i64* %79, align 8, !dbg !920, !tbaa !609
  %240 = load i64, i64* %83, align 8, !dbg !921, !tbaa !609
  store i64 %240, i64* %80, align 8, !dbg !922, !tbaa !609
  %241 = load i64, i64* %84, align 8, !dbg !923, !tbaa !609
  store i64 %241, i64* %81, align 8, !dbg !924, !tbaa !609
  call void @llvm.dbg.value(metadata i32 16, metadata !760, metadata !DIExpression()), !dbg !916
  store i64 1, i64* %82, align 8, !dbg !925, !tbaa !609
  store i64 0, i64* %83, align 8, !dbg !926, !tbaa !609
  store i64 0, i64* %84, align 8, !dbg !927, !tbaa !609
  %242 = icmp eq i64 %196, %198, !dbg !855
  br i1 %242, label %190, label %243, !dbg !856, !llvm.loop !928

243:                                              ; preds = %190, %194, %130, %138
  %244 = bitcast %"struct.Halide::Runtime::Internal::device_copy"* %0 to i8*, !dbg !930
  call void @llvm.memcpy.p0i8.p0i8.i32(i8* nonnull align 8 dereferenceable(416) %244, i8* nonnull align 8 dereferenceable(416) %7, i32 416, i1 false), !dbg !930, !tbaa.struct !931
  br label %245, !dbg !932

245:                                              ; preds = %243, %136, %126
  call void @llvm.lifetime.end.p0i8(i64 416, i8* nonnull %7) #10, !dbg !933
  ret void, !dbg !933
}

; Function Attrs: argmemonly nofree nosync nounwind willreturn writeonly
declare void @llvm.memset.p0i8.i32(i8* nocapture writeonly, i8, i32, i1 immarg) #5

; Function Attrs: argmemonly nofree nosync nounwind willreturn
declare void @llvm.memcpy.p0i8.p0i8.i32(i8* noalias nocapture writeonly, i8* noalias nocapture readonly, i32, i1 immarg) #2

; Function Attrs: nounwind mustprogress
define weak dso_local void @_ZN6Halide7Runtime8Internal24make_host_to_device_copyEPK15halide_buffer_t(%"struct.Halide::Runtime::Internal::device_copy"* noalias sret(%"struct.Halide::Runtime::Internal::device_copy") align 8 %0, %struct.halide_buffer_t* %1) local_unnamed_addr #0 !dbg !934 {
  call void @llvm.dbg.value(metadata %struct.halide_buffer_t* %1, metadata !938, metadata !DIExpression()), !dbg !939
  tail call void @_ZN6Halide7Runtime8Internal16make_buffer_copyEPK15halide_buffer_tbS4_b(%"struct.Halide::Runtime::Internal::device_copy"* sret(%"struct.Halide::Runtime::Internal::device_copy") align 8 %0, %struct.halide_buffer_t* %1, i1 zeroext true, %struct.halide_buffer_t* %1, i1 zeroext false) #9, !dbg !940
  ret void, !dbg !941
}

; Function Attrs: nounwind mustprogress
define weak dso_local void @_ZN6Halide7Runtime8Internal24make_device_to_host_copyEPK15halide_buffer_t(%"struct.Halide::Runtime::Internal::device_copy"* noalias sret(%"struct.Halide::Runtime::Internal::device_copy") align 8 %0, %struct.halide_buffer_t* %1) local_unnamed_addr #0 !dbg !942 {
  call void @llvm.dbg.value(metadata %struct.halide_buffer_t* %1, metadata !944, metadata !DIExpression()), !dbg !945
  tail call void @_ZN6Halide7Runtime8Internal16make_buffer_copyEPK15halide_buffer_tbS4_b(%"struct.Halide::Runtime::Internal::device_copy"* sret(%"struct.Halide::Runtime::Internal::device_copy") align 8 %0, %struct.halide_buffer_t* %1, i1 zeroext false, %struct.halide_buffer_t* %1, i1 zeroext true) #9, !dbg !946
  ret void, !dbg !947
}

; Function Attrs: nounwind willreturn mustprogress
define weak dso_local i8* @_ZN6Halide7Runtime8Internal13OpenGLCompute13gl_error_nameEi(i32 %0) local_unnamed_addr #6 !dbg !948 {
  call void @llvm.dbg.value(metadata i32 %0, metadata !952, metadata !DIExpression()), !dbg !953
  switch i32 %0, label %10 [
    i32 1280, label %11
    i32 1281, label %2
    i32 1282, label %3
    i32 1283, label %4
    i32 1284, label %5
    i32 1285, label %6
    i32 1286, label %7
    i32 1287, label %8
    i32 32817, label %9
  ], !dbg !954

2:                                                ; preds = %1
  br label %11, !dbg !955

3:                                                ; preds = %1
  br label %11, !dbg !957

4:                                                ; preds = %1
  br label %11, !dbg !958

5:                                                ; preds = %1
  br label %11, !dbg !959

6:                                                ; preds = %1
  br label %11, !dbg !960

7:                                                ; preds = %1
  br label %11, !dbg !961

8:                                                ; preds = %1
  br label %11, !dbg !962

9:                                                ; preds = %1
  br label %11, !dbg !963

10:                                               ; preds = %1
  br label %11, !dbg !964

11:                                               ; preds = %1, %10, %9, %8, %7, %6, %5, %4, %3, %2
  %12 = phi i8* [ getelementptr inbounds ([19 x i8], [19 x i8]* @.str.10, i32 0, i32 0), %10 ], [ getelementptr inbounds ([19 x i8], [19 x i8]* @.str.9, i32 0, i32 0), %9 ], [ getelementptr inbounds ([16 x i8], [16 x i8]* @.str.8, i32 0, i32 0), %8 ], [ getelementptr inbounds ([33 x i8], [33 x i8]* @.str.7, i32 0, i32 0), %7 ], [ getelementptr inbounds ([17 x i8], [17 x i8]* @.str.6, i32 0, i32 0), %6 ], [ getelementptr inbounds ([19 x i8], [19 x i8]* @.str.5, i32 0, i32 0), %5 ], [ getelementptr inbounds ([18 x i8], [18 x i8]* @.str.4, i32 0, i32 0), %4 ], [ getelementptr inbounds ([21 x i8], [21 x i8]* @.str.3, i32 0, i32 0), %3 ], [ getelementptr inbounds ([17 x i8], [17 x i8]* @.str.2, i32 0, i32 0), %2 ], [ getelementptr inbounds ([16 x i8], [16 x i8]* @.str.1, i32 0, i32 0), %1 ], !dbg !953
  ret i8* %12, !dbg !965
}

; Function Attrs: nounwind mustprogress
define weak dso_local %"struct.Halide::Runtime::Internal::OpenGLCompute::KernelInfo"* @_ZN6Halide7Runtime8Internal13OpenGLCompute19find_kernel_by_nameEPKcPKNS2_11ModuleStateE(i8* %0, %"struct.Halide::Runtime::Internal::OpenGLCompute::ModuleState"* %1) local_unnamed_addr #0 !dbg !966 {
  call void @llvm.dbg.value(metadata i8* %0, metadata !972, metadata !DIExpression()), !dbg !975
  call void @llvm.dbg.value(metadata %"struct.Halide::Runtime::Internal::OpenGLCompute::ModuleState"* %1, metadata !973, metadata !DIExpression()), !dbg !975
  %3 = getelementptr inbounds %"struct.Halide::Runtime::Internal::OpenGLCompute::ModuleState", %"struct.Halide::Runtime::Internal::OpenGLCompute::ModuleState"* %1, i32 0, i32 0, !dbg !976
  call void @llvm.dbg.value(metadata %"struct.Halide::Runtime::Internal::OpenGLCompute::KernelInfo"* undef, metadata !974, metadata !DIExpression()), !dbg !975
  %4 = load %"struct.Halide::Runtime::Internal::OpenGLCompute::KernelInfo"*, %"struct.Halide::Runtime::Internal::OpenGLCompute::KernelInfo"** %3, align 4, !dbg !975, !tbaa !977
  call void @llvm.dbg.value(metadata %"struct.Halide::Runtime::Internal::OpenGLCompute::KernelInfo"* %4, metadata !974, metadata !DIExpression()), !dbg !975
  %5 = icmp eq %"struct.Halide::Runtime::Internal::OpenGLCompute::KernelInfo"* %4, null, !dbg !978
  br i1 %5, label %16, label %6, !dbg !979

6:                                                ; preds = %2, %12
  %7 = phi %"struct.Halide::Runtime::Internal::OpenGLCompute::KernelInfo"* [ %14, %12 ], [ %4, %2 ]
  %8 = getelementptr inbounds %"struct.Halide::Runtime::Internal::OpenGLCompute::KernelInfo", %"struct.Halide::Runtime::Internal::OpenGLCompute::KernelInfo"* %7, i32 0, i32 0, !dbg !980
  %9 = load i8*, i8** %8, align 4, !dbg !980, !tbaa !981
  %10 = tail call i32 @strcmp(i8* %0, i8* %9) #8, !dbg !983
  %11 = icmp eq i32 %10, 0, !dbg !984
  br i1 %11, label %16, label %12, !dbg !985

12:                                               ; preds = %6
  %13 = getelementptr inbounds %"struct.Halide::Runtime::Internal::OpenGLCompute::KernelInfo", %"struct.Halide::Runtime::Internal::OpenGLCompute::KernelInfo"* %7, i32 0, i32 2, !dbg !986
  call void @llvm.dbg.value(metadata %"struct.Halide::Runtime::Internal::OpenGLCompute::KernelInfo"* undef, metadata !974, metadata !DIExpression()), !dbg !975
  %14 = load %"struct.Halide::Runtime::Internal::OpenGLCompute::KernelInfo"*, %"struct.Halide::Runtime::Internal::OpenGLCompute::KernelInfo"** %13, align 4, !dbg !975, !tbaa !977
  call void @llvm.dbg.value(metadata %"struct.Halide::Runtime::Internal::OpenGLCompute::KernelInfo"* %14, metadata !974, metadata !DIExpression()), !dbg !975
  %15 = icmp eq %"struct.Halide::Runtime::Internal::OpenGLCompute::KernelInfo"* %14, null, !dbg !978
  br i1 %15, label %16, label %6, !dbg !979, !llvm.loop !988

16:                                               ; preds = %6, %12, %2
  %17 = phi %"struct.Halide::Runtime::Internal::OpenGLCompute::KernelInfo"* [ null, %2 ], [ null, %12 ], [ %7, %6 ], !dbg !975
  ret %"struct.Halide::Runtime::Internal::OpenGLCompute::KernelInfo"* %17, !dbg !990
}

declare !dbg !991 dso_local i32 @strcmp(i8*, i8*) local_unnamed_addr #3

; Function Attrs: nounwind
define weak dso_local zeroext i1 @_ZN6Halide7Runtime8Internal13OpenGLCompute11GlobalState19CheckAndReportErrorEPvPKc(%"struct.Halide::Runtime::Internal::OpenGLCompute::GlobalState"* nonnull dereferenceable(124) %0, i8* %1, i8* %2) local_unnamed_addr #4 align 2 !dbg !994 {
  call void @llvm.dbg.value(metadata %"struct.Halide::Runtime::Internal::OpenGLCompute::GlobalState"* %0, metadata !996, metadata !DIExpression()), !dbg !1001
  call void @llvm.dbg.value(metadata i8* %1, metadata !998, metadata !DIExpression()), !dbg !1001
  call void @llvm.dbg.value(metadata i8* %2, metadata !999, metadata !DIExpression()), !dbg !1001
  %4 = getelementptr inbounds %"struct.Halide::Runtime::Internal::OpenGLCompute::GlobalState", %"struct.Halide::Runtime::Internal::OpenGLCompute::GlobalState"* %0, i32 0, i32 14, !dbg !1002
  %5 = load i32 ()*, i32 ()** %4, align 4, !dbg !1002, !tbaa !1003
  %6 = tail call i32 %5() #8, !dbg !1002
  call void @llvm.dbg.value(metadata i32 %6, metadata !1000, metadata !DIExpression()), !dbg !1001
  %7 = icmp eq i32 %6, 0, !dbg !1006
  br i1 %7, label %46, label %8, !dbg !1008

8:                                                ; preds = %3
  call void @llvm.dbg.value(metadata %"class.Halide::Runtime::Internal::(anonymous namespace)::Printer.0"* undef, metadata !1009, metadata !DIExpression()) #10, !dbg !1015
  call void @llvm.dbg.value(metadata i8* %1, metadata !1012, metadata !DIExpression()) #10, !dbg !1015
  call void @llvm.dbg.value(metadata i8* null, metadata !1013, metadata !DIExpression()) #10, !dbg !1015
  %9 = tail call i8* @malloc(i32 1024) #8, !dbg !1018
  %10 = icmp eq i8* %9, null, !dbg !1023
  br i1 %10, label %13, label %11, !dbg !1025

11:                                               ; preds = %8
  %12 = getelementptr inbounds i8, i8* %9, i32 1023, !dbg !1026
  store i8 0, i8* %12, align 1, !dbg !1028, !tbaa !712
  br label %13, !dbg !1029

13:                                               ; preds = %8, %11
  %14 = phi i8* [ %12, %11 ], [ null, %8 ], !dbg !1030
  call void @llvm.dbg.value(metadata %"class.Halide::Runtime::Internal::(anonymous namespace)::Printer.0"* undef, metadata !1031, metadata !DIExpression()) #10, !dbg !1035
  call void @llvm.dbg.value(metadata i8* getelementptr inbounds ([14 x i8], [14 x i8]* @.str.11, i32 0, i32 0), metadata !1034, metadata !DIExpression()) #10, !dbg !1035
  %15 = tail call i8* @halide_string_to_string(i8* %9, i8* %14, i8* nonnull getelementptr inbounds ([14 x i8], [14 x i8]* @.str.11, i32 0, i32 0)) #8, !dbg !1037
  %16 = tail call i8* @_ZN6Halide7Runtime8Internal13OpenGLCompute13gl_error_nameEi(i32 %6) #9, !dbg !1040
  call void @llvm.dbg.value(metadata %"class.Halide::Runtime::Internal::(anonymous namespace)::Printer.0"* undef, metadata !1031, metadata !DIExpression()) #10, !dbg !1041
  call void @llvm.dbg.value(metadata i8* %16, metadata !1034, metadata !DIExpression()) #10, !dbg !1041
  %17 = icmp eq i8* %16, null, !dbg !1043
  br i1 %17, label %18, label %20, !dbg !1044

18:                                               ; preds = %13
  %19 = tail call i8* @halide_string_to_string(i8* %15, i8* %14, i8* getelementptr inbounds ([10 x i8], [10 x i8]* @.str.148, i32 0, i32 0)) #8, !dbg !1045
  br label %22, !dbg !1047

20:                                               ; preds = %13
  %21 = tail call i8* @halide_string_to_string(i8* %15, i8* %14, i8* nonnull %16) #8, !dbg !1048
  br label %22

22:                                               ; preds = %18, %20
  %23 = phi i8* [ %21, %20 ], [ %19, %18 ], !dbg !1049
  call void @llvm.dbg.value(metadata %"class.Halide::Runtime::Internal::(anonymous namespace)::Printer.0"* undef, metadata !1031, metadata !DIExpression()) #10, !dbg !1050
  call void @llvm.dbg.value(metadata i8* getelementptr inbounds ([2 x i8], [2 x i8]* @.str.12, i32 0, i32 0), metadata !1034, metadata !DIExpression()) #10, !dbg !1050
  %24 = tail call i8* @halide_string_to_string(i8* %23, i8* %14, i8* nonnull getelementptr inbounds ([2 x i8], [2 x i8]* @.str.12, i32 0, i32 0)) #8, !dbg !1052
  call void @llvm.dbg.value(metadata %"class.Halide::Runtime::Internal::(anonymous namespace)::Printer.0"* undef, metadata !1053, metadata !DIExpression()) #10, !dbg !1057
  call void @llvm.dbg.value(metadata i32 %6, metadata !1056, metadata !DIExpression()) #10, !dbg !1057
  %25 = sext i32 %6 to i64, !dbg !1059
  %26 = tail call i8* @halide_int64_to_string(i8* %24, i8* %14, i64 %25, i32 1) #8, !dbg !1060
  call void @llvm.dbg.value(metadata %"class.Halide::Runtime::Internal::(anonymous namespace)::Printer.0"* undef, metadata !1031, metadata !DIExpression()) #10, !dbg !1061
  call void @llvm.dbg.value(metadata i8* getelementptr inbounds ([2 x i8], [2 x i8]* @.str.13, i32 0, i32 0), metadata !1034, metadata !DIExpression()) #10, !dbg !1061
  %27 = tail call i8* @halide_string_to_string(i8* %26, i8* %14, i8* nonnull getelementptr inbounds ([2 x i8], [2 x i8]* @.str.13, i32 0, i32 0)) #8, !dbg !1063
  call void @llvm.dbg.value(metadata %"class.Halide::Runtime::Internal::(anonymous namespace)::Printer.0"* undef, metadata !1031, metadata !DIExpression()) #10, !dbg !1064
  call void @llvm.dbg.value(metadata i8* getelementptr inbounds ([5 x i8], [5 x i8]* @.str.14, i32 0, i32 0), metadata !1034, metadata !DIExpression()) #10, !dbg !1064
  %28 = tail call i8* @halide_string_to_string(i8* %27, i8* %14, i8* nonnull getelementptr inbounds ([5 x i8], [5 x i8]* @.str.14, i32 0, i32 0)) #8, !dbg !1066
  call void @llvm.dbg.value(metadata %"class.Halide::Runtime::Internal::(anonymous namespace)::Printer.0"* undef, metadata !1031, metadata !DIExpression()) #10, !dbg !1067
  call void @llvm.dbg.value(metadata i8* %2, metadata !1034, metadata !DIExpression()) #10, !dbg !1067
  %29 = icmp eq i8* %2, null, !dbg !1069
  br i1 %29, label %30, label %32, !dbg !1070

30:                                               ; preds = %22
  %31 = tail call i8* @halide_string_to_string(i8* %28, i8* %14, i8* getelementptr inbounds ([10 x i8], [10 x i8]* @.str.148, i32 0, i32 0)) #8, !dbg !1071
  br label %34, !dbg !1072

32:                                               ; preds = %22
  %33 = tail call i8* @halide_string_to_string(i8* %28, i8* %14, i8* nonnull %2) #8, !dbg !1073
  br label %34

34:                                               ; preds = %30, %32
  %35 = phi i8* [ %33, %32 ], [ %31, %30 ], !dbg !1074
  call void @llvm.dbg.value(metadata %"class.Halide::Runtime::Internal::(anonymous namespace)::Printer.0"* undef, metadata !1031, metadata !DIExpression()) #10, !dbg !1075
  call void @llvm.dbg.value(metadata i8* getelementptr inbounds ([3 x i8], [3 x i8]* @.str.15, i32 0, i32 0), metadata !1034, metadata !DIExpression()) #10, !dbg !1075
  %36 = tail call i8* @halide_string_to_string(i8* %35, i8* %14, i8* nonnull getelementptr inbounds ([3 x i8], [3 x i8]* @.str.15, i32 0, i32 0)) #8, !dbg !1077
  call void @llvm.dbg.value(metadata %"class.Halide::Runtime::Internal::(anonymous namespace)::Printer.0"* undef, metadata !1078, metadata !DIExpression()) #10, !dbg !1081
  br i1 %10, label %37, label %38, !dbg !1083

37:                                               ; preds = %34
  tail call void @halide_error(i8* %1, i8* getelementptr inbounds ([35 x i8], [35 x i8]* @.str.147, i32 0, i32 0)) #8, !dbg !1085
  br label %45, !dbg !1088

38:                                               ; preds = %34
  call void @llvm.dbg.value(metadata %"class.Halide::Runtime::Internal::(anonymous namespace)::Printer.0"* undef, metadata !1089, metadata !DIExpression()) #10, !dbg !1092
  %39 = ptrtoint i8* %36 to i32, !dbg !1095
  %40 = ptrtoint i8* %9 to i32, !dbg !1095
  %41 = add i32 %39, 1, !dbg !1095
  %42 = sub i32 %41, %40, !dbg !1096
  %43 = sext i32 %42 to i64, !dbg !1097
  %44 = tail call i32 @halide_msan_annotate_memory_is_initialized(i8* %1, i8* nonnull %9, i64 %43) #8, !dbg !1098
  tail call void @halide_error(i8* %1, i8* nonnull %9) #8, !dbg !1099
  br label %45

45:                                               ; preds = %37, %38
  call void @free(i8* %9) #8, !dbg !1102
  br label %46, !dbg !1105

46:                                               ; preds = %3, %45
  %47 = xor i1 %7, true, !dbg !1106
  ret i1 %47, !dbg !1106
}

; Function Attrs: nounwind
define weak dso_local void @_ZN6Halide7Runtime8Internal13OpenGLCompute12debug_bufferEPvP15halide_buffer_t(i8* %0, %struct.halide_buffer_t* %1) local_unnamed_addr #4 !dbg !1107 {
  %3 = alloca %"class.Halide::Runtime::Internal::(anonymous namespace)::Printer", align 4
  call void @llvm.dbg.value(metadata i8* %0, metadata !1111, metadata !DIExpression()), !dbg !1113
  call void @llvm.dbg.value(metadata %struct.halide_buffer_t* %1, metadata !1112, metadata !DIExpression()), !dbg !1113
  %4 = bitcast %"class.Halide::Runtime::Internal::(anonymous namespace)::Printer"* %3 to i8*, !dbg !1114
  call void @llvm.lifetime.start.p0i8(i64 20, i8* nonnull %4) #10, !dbg !1114
  call void @llvm.dbg.value(metadata %"class.Halide::Runtime::Internal::(anonymous namespace)::Printer"* %3, metadata !673, metadata !DIExpression()) #10, !dbg !1115
  call void @llvm.dbg.value(metadata i8* %0, metadata !676, metadata !DIExpression()) #10, !dbg !1115
  call void @llvm.dbg.value(metadata i8* null, metadata !677, metadata !DIExpression()) #10, !dbg !1115
  %5 = getelementptr inbounds %"class.Halide::Runtime::Internal::(anonymous namespace)::Printer", %"class.Halide::Runtime::Internal::(anonymous namespace)::Printer"* %3, i32 0, i32 3, !dbg !1117
  store i8* %0, i8** %5, align 4, !dbg !1117, !tbaa !1118
  %6 = getelementptr inbounds %"class.Halide::Runtime::Internal::(anonymous namespace)::Printer", %"class.Halide::Runtime::Internal::(anonymous namespace)::Printer"* %3, i32 0, i32 4, !dbg !1120
  store i8 1, i8* %6, align 4, !dbg !1120, !tbaa !1121
  %7 = tail call i8* @malloc(i32 1024) #8, !dbg !1122
  %8 = getelementptr inbounds %"class.Halide::Runtime::Internal::(anonymous namespace)::Printer", %"class.Halide::Runtime::Internal::(anonymous namespace)::Printer"* %3, i32 0, i32 0, !dbg !1123
  store i8* %7, i8** %8, align 4, !dbg !1124, !tbaa !1125
  %9 = getelementptr inbounds %"class.Halide::Runtime::Internal::(anonymous namespace)::Printer", %"class.Halide::Runtime::Internal::(anonymous namespace)::Printer"* %3, i32 0, i32 1, !dbg !1126
  %10 = icmp eq i8* %7, null, !dbg !1127
  br i1 %10, label %13, label %11, !dbg !1128

11:                                               ; preds = %2
  %12 = getelementptr inbounds i8, i8* %7, i32 1023, !dbg !1129
  store i8 0, i8* %12, align 1, !dbg !1130, !tbaa !712
  br label %13, !dbg !1131

13:                                               ; preds = %2, %11
  %14 = phi i8* [ %12, %11 ], [ null, %2 ], !dbg !1132
  %15 = getelementptr inbounds %"class.Halide::Runtime::Internal::(anonymous namespace)::Printer", %"class.Halide::Runtime::Internal::(anonymous namespace)::Printer"* %3, i32 0, i32 2, !dbg !1133
  store i8* %14, i8** %15, align 4, !dbg !1135
  call void @llvm.dbg.value(metadata %"class.Halide::Runtime::Internal::(anonymous namespace)::Printer"* %3, metadata !690, metadata !DIExpression()) #10, !dbg !1136
  call void @llvm.dbg.value(metadata i8* getelementptr inbounds ([11 x i8], [11 x i8]* @.str.16, i32 0, i32 0), metadata !693, metadata !DIExpression()) #10, !dbg !1136
  %16 = tail call i8* @halide_string_to_string(i8* %7, i8* %14, i8* nonnull getelementptr inbounds ([11 x i8], [11 x i8]* @.str.16, i32 0, i32 0)) #8, !dbg !1138
  %17 = getelementptr inbounds %struct.halide_buffer_t, %struct.halide_buffer_t* %1, i32 0, i32 0, !dbg !1139
  %18 = load i64, i64* %17, align 8, !dbg !1139, !tbaa !777
  call void @llvm.dbg.value(metadata %"class.Halide::Runtime::Internal::(anonymous namespace)::Printer"* %3, metadata !1140, metadata !DIExpression()) #10, !dbg !1144
  call void @llvm.dbg.value(metadata i64 %18, metadata !1143, metadata !DIExpression()) #10, !dbg !1144
  %19 = tail call i8* @halide_uint64_to_string(i8* %16, i8* %14, i64 %18, i32 1) #8, !dbg !1146
  call void @llvm.dbg.value(metadata %"class.Halide::Runtime::Internal::(anonymous namespace)::Printer"* %3, metadata !690, metadata !DIExpression()) #10, !dbg !1147
  call void @llvm.dbg.value(metadata i8* getelementptr inbounds ([2 x i8], [2 x i8]* @.str.17, i32 0, i32 0), metadata !693, metadata !DIExpression()) #10, !dbg !1147
  %20 = tail call i8* @halide_string_to_string(i8* %19, i8* %14, i8* nonnull getelementptr inbounds ([2 x i8], [2 x i8]* @.str.17, i32 0, i32 0)) #8, !dbg !1149
  call void @llvm.dbg.value(metadata %"class.Halide::Runtime::Internal::(anonymous namespace)::Printer"* %3, metadata !690, metadata !DIExpression()) #10, !dbg !1150
  call void @llvm.dbg.value(metadata i8* getelementptr inbounds ([15 x i8], [15 x i8]* @.str.18, i32 0, i32 0), metadata !693, metadata !DIExpression()) #10, !dbg !1150
  %21 = tail call i8* @halide_string_to_string(i8* %20, i8* %14, i8* nonnull getelementptr inbounds ([15 x i8], [15 x i8]* @.str.18, i32 0, i32 0)) #8, !dbg !1152
  %22 = load i64, i64* %17, align 8, !dbg !1153, !tbaa !777
  call void @llvm.dbg.value(metadata %"class.Halide::Runtime::Internal::(anonymous namespace)::Printer"* %3, metadata !1154, metadata !DIExpression()) #10, !dbg !1158
  call void @llvm.dbg.value(metadata i64 %22, metadata !1157, metadata !DIExpression(DW_OP_LLVM_convert, 64, DW_ATE_unsigned, DW_OP_LLVM_convert, 32, DW_ATE_unsigned, DW_OP_stack_value)) #10, !dbg !1158
  %23 = and i64 %22, 4294967295, !dbg !1160
  %24 = tail call i8* @halide_uint64_to_string(i8* %21, i8* %14, i64 %23, i32 1) #8, !dbg !1161
  call void @llvm.dbg.value(metadata %"class.Halide::Runtime::Internal::(anonymous namespace)::Printer"* %3, metadata !690, metadata !DIExpression()) #10, !dbg !1162
  call void @llvm.dbg.value(metadata i8* getelementptr inbounds ([2 x i8], [2 x i8]* @.str.17, i32 0, i32 0), metadata !693, metadata !DIExpression()) #10, !dbg !1162
  %25 = tail call i8* @halide_string_to_string(i8* %24, i8* %14, i8* nonnull getelementptr inbounds ([2 x i8], [2 x i8]* @.str.17, i32 0, i32 0)) #8, !dbg !1164
  call void @llvm.dbg.value(metadata %"class.Halide::Runtime::Internal::(anonymous namespace)::Printer"* %3, metadata !690, metadata !DIExpression()) #10, !dbg !1165
  call void @llvm.dbg.value(metadata i8* getelementptr inbounds ([9 x i8], [9 x i8]* @.str.19, i32 0, i32 0), metadata !693, metadata !DIExpression()) #10, !dbg !1165
  %26 = tail call i8* @halide_string_to_string(i8* %25, i8* %14, i8* nonnull getelementptr inbounds ([9 x i8], [9 x i8]* @.str.19, i32 0, i32 0)) #8, !dbg !1167
  %27 = getelementptr inbounds %struct.halide_buffer_t, %struct.halide_buffer_t* %1, i32 0, i32 2, !dbg !1168
  %28 = load i8*, i8** %27, align 4, !dbg !1168, !tbaa !768
  call void @llvm.dbg.value(metadata %"class.Halide::Runtime::Internal::(anonymous namespace)::Printer"* %3, metadata !1169, metadata !DIExpression()) #10, !dbg !1173
  call void @llvm.dbg.value(metadata i8* %28, metadata !1172, metadata !DIExpression()) #10, !dbg !1173
  %29 = tail call i8* @halide_pointer_to_string(i8* %26, i8* %14, i8* %28) #8, !dbg !1175
  call void @llvm.dbg.value(metadata %"class.Halide::Runtime::Internal::(anonymous namespace)::Printer"* %3, metadata !690, metadata !DIExpression()) #10, !dbg !1176
  call void @llvm.dbg.value(metadata i8* getelementptr inbounds ([2 x i8], [2 x i8]* @.str.17, i32 0, i32 0), metadata !693, metadata !DIExpression()) #10, !dbg !1176
  %30 = tail call i8* @halide_string_to_string(i8* %29, i8* %14, i8* nonnull getelementptr inbounds ([2 x i8], [2 x i8]* @.str.17, i32 0, i32 0)) #8, !dbg !1178
  call void @llvm.dbg.value(metadata %"class.Halide::Runtime::Internal::(anonymous namespace)::Printer"* %3, metadata !690, metadata !DIExpression()) #10, !dbg !1179
  call void @llvm.dbg.value(metadata i8* getelementptr inbounds ([11 x i8], [11 x i8]* @.str.20, i32 0, i32 0), metadata !693, metadata !DIExpression()) #10, !dbg !1179
  %31 = tail call i8* @halide_string_to_string(i8* %30, i8* %14, i8* nonnull getelementptr inbounds ([11 x i8], [11 x i8]* @.str.20, i32 0, i32 0)) #8, !dbg !1181
  %32 = getelementptr inbounds %struct.halide_buffer_t, %struct.halide_buffer_t* %1, i32 0, i32 6, !dbg !1182
  %33 = load %struct.halide_dimension_t*, %struct.halide_dimension_t** %32, align 8, !dbg !1182, !tbaa !815
  %34 = getelementptr inbounds %struct.halide_dimension_t, %struct.halide_dimension_t* %33, i32 0, i32 1, !dbg !1183
  %35 = load i32, i32* %34, align 4, !dbg !1183, !tbaa !887
  call void @llvm.dbg.value(metadata %"class.Halide::Runtime::Internal::(anonymous namespace)::Printer"* %3, metadata !1184, metadata !DIExpression()) #10, !dbg !1188
  call void @llvm.dbg.value(metadata i32 %35, metadata !1187, metadata !DIExpression()) #10, !dbg !1188
  %36 = sext i32 %35 to i64, !dbg !1190
  %37 = tail call i8* @halide_int64_to_string(i8* %31, i8* %14, i64 %36, i32 1) #8, !dbg !1191
  call void @llvm.dbg.value(metadata %"class.Halide::Runtime::Internal::(anonymous namespace)::Printer"* %3, metadata !690, metadata !DIExpression()) #10, !dbg !1192
  call void @llvm.dbg.value(metadata i8* getelementptr inbounds ([2 x i8], [2 x i8]* @.str.21, i32 0, i32 0), metadata !693, metadata !DIExpression()) #10, !dbg !1192
  %38 = tail call i8* @halide_string_to_string(i8* %37, i8* %14, i8* nonnull getelementptr inbounds ([2 x i8], [2 x i8]* @.str.21, i32 0, i32 0)) #8, !dbg !1194
  %39 = load %struct.halide_dimension_t*, %struct.halide_dimension_t** %32, align 8, !dbg !1195, !tbaa !815
  %40 = getelementptr inbounds %struct.halide_dimension_t, %struct.halide_dimension_t* %39, i32 1, i32 1, !dbg !1196
  %41 = load i32, i32* %40, align 4, !dbg !1196, !tbaa !887
  call void @llvm.dbg.value(metadata %"class.Halide::Runtime::Internal::(anonymous namespace)::Printer"* %3, metadata !1184, metadata !DIExpression()) #10, !dbg !1197
  call void @llvm.dbg.value(metadata i32 %41, metadata !1187, metadata !DIExpression()) #10, !dbg !1197
  %42 = sext i32 %41 to i64, !dbg !1199
  %43 = tail call i8* @halide_int64_to_string(i8* %38, i8* %14, i64 %42, i32 1) #8, !dbg !1200
  call void @llvm.dbg.value(metadata %"class.Halide::Runtime::Internal::(anonymous namespace)::Printer"* %3, metadata !690, metadata !DIExpression()) #10, !dbg !1201
  call void @llvm.dbg.value(metadata i8* getelementptr inbounds ([2 x i8], [2 x i8]* @.str.21, i32 0, i32 0), metadata !693, metadata !DIExpression()) #10, !dbg !1201
  %44 = tail call i8* @halide_string_to_string(i8* %43, i8* %14, i8* nonnull getelementptr inbounds ([2 x i8], [2 x i8]* @.str.21, i32 0, i32 0)) #8, !dbg !1203
  %45 = load %struct.halide_dimension_t*, %struct.halide_dimension_t** %32, align 8, !dbg !1204, !tbaa !815
  %46 = getelementptr inbounds %struct.halide_dimension_t, %struct.halide_dimension_t* %45, i32 2, i32 1, !dbg !1205
  %47 = load i32, i32* %46, align 4, !dbg !1205, !tbaa !887
  call void @llvm.dbg.value(metadata %"class.Halide::Runtime::Internal::(anonymous namespace)::Printer"* %3, metadata !1184, metadata !DIExpression()) #10, !dbg !1206
  call void @llvm.dbg.value(metadata i32 %47, metadata !1187, metadata !DIExpression()) #10, !dbg !1206
  %48 = sext i32 %47 to i64, !dbg !1208
  %49 = tail call i8* @halide_int64_to_string(i8* %44, i8* %14, i64 %48, i32 1) #8, !dbg !1209
  call void @llvm.dbg.value(metadata %"class.Halide::Runtime::Internal::(anonymous namespace)::Printer"* %3, metadata !690, metadata !DIExpression()) #10, !dbg !1210
  call void @llvm.dbg.value(metadata i8* getelementptr inbounds ([2 x i8], [2 x i8]* @.str.21, i32 0, i32 0), metadata !693, metadata !DIExpression()) #10, !dbg !1210
  %50 = tail call i8* @halide_string_to_string(i8* %49, i8* %14, i8* nonnull getelementptr inbounds ([2 x i8], [2 x i8]* @.str.21, i32 0, i32 0)) #8, !dbg !1212
  %51 = load %struct.halide_dimension_t*, %struct.halide_dimension_t** %32, align 8, !dbg !1213, !tbaa !815
  %52 = getelementptr inbounds %struct.halide_dimension_t, %struct.halide_dimension_t* %51, i32 3, i32 1, !dbg !1214
  %53 = load i32, i32* %52, align 4, !dbg !1214, !tbaa !887
  call void @llvm.dbg.value(metadata %"class.Halide::Runtime::Internal::(anonymous namespace)::Printer"* %3, metadata !1184, metadata !DIExpression()) #10, !dbg !1215
  call void @llvm.dbg.value(metadata i32 %53, metadata !1187, metadata !DIExpression()) #10, !dbg !1215
  %54 = sext i32 %53 to i64, !dbg !1217
  %55 = tail call i8* @halide_int64_to_string(i8* %50, i8* %14, i64 %54, i32 1) #8, !dbg !1218
  call void @llvm.dbg.value(metadata %"class.Halide::Runtime::Internal::(anonymous namespace)::Printer"* %3, metadata !690, metadata !DIExpression()) #10, !dbg !1219
  call void @llvm.dbg.value(metadata i8* getelementptr inbounds ([2 x i8], [2 x i8]* @.str.17, i32 0, i32 0), metadata !693, metadata !DIExpression()) #10, !dbg !1219
  %56 = tail call i8* @halide_string_to_string(i8* %55, i8* %14, i8* nonnull getelementptr inbounds ([2 x i8], [2 x i8]* @.str.17, i32 0, i32 0)) #8, !dbg !1221
  call void @llvm.dbg.value(metadata %"class.Halide::Runtime::Internal::(anonymous namespace)::Printer"* %3, metadata !690, metadata !DIExpression()) #10, !dbg !1222
  call void @llvm.dbg.value(metadata i8* getelementptr inbounds ([11 x i8], [11 x i8]* @.str.22, i32 0, i32 0), metadata !693, metadata !DIExpression()) #10, !dbg !1222
  %57 = tail call i8* @halide_string_to_string(i8* %56, i8* %14, i8* nonnull getelementptr inbounds ([11 x i8], [11 x i8]* @.str.22, i32 0, i32 0)) #8, !dbg !1224
  %58 = load %struct.halide_dimension_t*, %struct.halide_dimension_t** %32, align 8, !dbg !1225, !tbaa !815
  %59 = getelementptr inbounds %struct.halide_dimension_t, %struct.halide_dimension_t* %58, i32 0, i32 2, !dbg !1226
  %60 = load i32, i32* %59, align 4, !dbg !1226, !tbaa !823
  call void @llvm.dbg.value(metadata %"class.Halide::Runtime::Internal::(anonymous namespace)::Printer"* %3, metadata !1184, metadata !DIExpression()) #10, !dbg !1227
  call void @llvm.dbg.value(metadata i32 %60, metadata !1187, metadata !DIExpression()) #10, !dbg !1227
  %61 = sext i32 %60 to i64, !dbg !1229
  %62 = tail call i8* @halide_int64_to_string(i8* %57, i8* %14, i64 %61, i32 1) #8, !dbg !1230
  call void @llvm.dbg.value(metadata %"class.Halide::Runtime::Internal::(anonymous namespace)::Printer"* %3, metadata !690, metadata !DIExpression()) #10, !dbg !1231
  call void @llvm.dbg.value(metadata i8* getelementptr inbounds ([2 x i8], [2 x i8]* @.str.21, i32 0, i32 0), metadata !693, metadata !DIExpression()) #10, !dbg !1231
  %63 = tail call i8* @halide_string_to_string(i8* %62, i8* %14, i8* nonnull getelementptr inbounds ([2 x i8], [2 x i8]* @.str.21, i32 0, i32 0)) #8, !dbg !1233
  %64 = load %struct.halide_dimension_t*, %struct.halide_dimension_t** %32, align 8, !dbg !1234, !tbaa !815
  %65 = getelementptr inbounds %struct.halide_dimension_t, %struct.halide_dimension_t* %64, i32 1, i32 2, !dbg !1235
  %66 = load i32, i32* %65, align 4, !dbg !1235, !tbaa !823
  call void @llvm.dbg.value(metadata %"class.Halide::Runtime::Internal::(anonymous namespace)::Printer"* %3, metadata !1184, metadata !DIExpression()) #10, !dbg !1236
  call void @llvm.dbg.value(metadata i32 %66, metadata !1187, metadata !DIExpression()) #10, !dbg !1236
  %67 = sext i32 %66 to i64, !dbg !1238
  %68 = tail call i8* @halide_int64_to_string(i8* %63, i8* %14, i64 %67, i32 1) #8, !dbg !1239
  call void @llvm.dbg.value(metadata %"class.Halide::Runtime::Internal::(anonymous namespace)::Printer"* %3, metadata !690, metadata !DIExpression()) #10, !dbg !1240
  call void @llvm.dbg.value(metadata i8* getelementptr inbounds ([2 x i8], [2 x i8]* @.str.21, i32 0, i32 0), metadata !693, metadata !DIExpression()) #10, !dbg !1240
  %69 = tail call i8* @halide_string_to_string(i8* %68, i8* %14, i8* nonnull getelementptr inbounds ([2 x i8], [2 x i8]* @.str.21, i32 0, i32 0)) #8, !dbg !1242
  %70 = load %struct.halide_dimension_t*, %struct.halide_dimension_t** %32, align 8, !dbg !1243, !tbaa !815
  %71 = getelementptr inbounds %struct.halide_dimension_t, %struct.halide_dimension_t* %70, i32 2, i32 2, !dbg !1244
  %72 = load i32, i32* %71, align 4, !dbg !1244, !tbaa !823
  call void @llvm.dbg.value(metadata %"class.Halide::Runtime::Internal::(anonymous namespace)::Printer"* %3, metadata !1184, metadata !DIExpression()) #10, !dbg !1245
  call void @llvm.dbg.value(metadata i32 %72, metadata !1187, metadata !DIExpression()) #10, !dbg !1245
  %73 = sext i32 %72 to i64, !dbg !1247
  %74 = tail call i8* @halide_int64_to_string(i8* %69, i8* %14, i64 %73, i32 1) #8, !dbg !1248
  call void @llvm.dbg.value(metadata %"class.Halide::Runtime::Internal::(anonymous namespace)::Printer"* %3, metadata !690, metadata !DIExpression()) #10, !dbg !1249
  call void @llvm.dbg.value(metadata i8* getelementptr inbounds ([2 x i8], [2 x i8]* @.str.21, i32 0, i32 0), metadata !693, metadata !DIExpression()) #10, !dbg !1249
  %75 = tail call i8* @halide_string_to_string(i8* %74, i8* %14, i8* nonnull getelementptr inbounds ([2 x i8], [2 x i8]* @.str.21, i32 0, i32 0)) #8, !dbg !1251
  %76 = load %struct.halide_dimension_t*, %struct.halide_dimension_t** %32, align 8, !dbg !1252, !tbaa !815
  %77 = getelementptr inbounds %struct.halide_dimension_t, %struct.halide_dimension_t* %76, i32 3, i32 2, !dbg !1253
  %78 = load i32, i32* %77, align 4, !dbg !1253, !tbaa !823
  call void @llvm.dbg.value(metadata %"class.Halide::Runtime::Internal::(anonymous namespace)::Printer"* %3, metadata !1184, metadata !DIExpression()) #10, !dbg !1254
  call void @llvm.dbg.value(metadata i32 %78, metadata !1187, metadata !DIExpression()) #10, !dbg !1254
  %79 = sext i32 %78 to i64, !dbg !1256
  %80 = tail call i8* @halide_int64_to_string(i8* %75, i8* %14, i64 %79, i32 1) #8, !dbg !1257
  call void @llvm.dbg.value(metadata %"class.Halide::Runtime::Internal::(anonymous namespace)::Printer"* %3, metadata !690, metadata !DIExpression()) #10, !dbg !1258
  call void @llvm.dbg.value(metadata i8* getelementptr inbounds ([2 x i8], [2 x i8]* @.str.17, i32 0, i32 0), metadata !693, metadata !DIExpression()) #10, !dbg !1258
  %81 = tail call i8* @halide_string_to_string(i8* %80, i8* %14, i8* nonnull getelementptr inbounds ([2 x i8], [2 x i8]* @.str.17, i32 0, i32 0)) #8, !dbg !1260
  call void @llvm.dbg.value(metadata %"class.Halide::Runtime::Internal::(anonymous namespace)::Printer"* %3, metadata !690, metadata !DIExpression()) #10, !dbg !1261
  call void @llvm.dbg.value(metadata i8* getelementptr inbounds ([8 x i8], [8 x i8]* @.str.23, i32 0, i32 0), metadata !693, metadata !DIExpression()) #10, !dbg !1261
  %82 = tail call i8* @halide_string_to_string(i8* %81, i8* %14, i8* nonnull getelementptr inbounds ([8 x i8], [8 x i8]* @.str.23, i32 0, i32 0)) #8, !dbg !1263
  %83 = load %struct.halide_dimension_t*, %struct.halide_dimension_t** %32, align 8, !dbg !1264, !tbaa !815
  %84 = getelementptr inbounds %struct.halide_dimension_t, %struct.halide_dimension_t* %83, i32 0, i32 0, !dbg !1265
  %85 = load i32, i32* %84, align 4, !dbg !1265, !tbaa !827
  call void @llvm.dbg.value(metadata %"class.Halide::Runtime::Internal::(anonymous namespace)::Printer"* %3, metadata !1184, metadata !DIExpression()) #10, !dbg !1266
  call void @llvm.dbg.value(metadata i32 %85, metadata !1187, metadata !DIExpression()) #10, !dbg !1266
  %86 = sext i32 %85 to i64, !dbg !1268
  %87 = tail call i8* @halide_int64_to_string(i8* %82, i8* %14, i64 %86, i32 1) #8, !dbg !1269
  call void @llvm.dbg.value(metadata %"class.Halide::Runtime::Internal::(anonymous namespace)::Printer"* %3, metadata !690, metadata !DIExpression()) #10, !dbg !1270
  call void @llvm.dbg.value(metadata i8* getelementptr inbounds ([2 x i8], [2 x i8]* @.str.21, i32 0, i32 0), metadata !693, metadata !DIExpression()) #10, !dbg !1270
  %88 = tail call i8* @halide_string_to_string(i8* %87, i8* %14, i8* nonnull getelementptr inbounds ([2 x i8], [2 x i8]* @.str.21, i32 0, i32 0)) #8, !dbg !1272
  %89 = load %struct.halide_dimension_t*, %struct.halide_dimension_t** %32, align 8, !dbg !1273, !tbaa !815
  %90 = getelementptr inbounds %struct.halide_dimension_t, %struct.halide_dimension_t* %89, i32 1, i32 0, !dbg !1274
  %91 = load i32, i32* %90, align 4, !dbg !1274, !tbaa !827
  call void @llvm.dbg.value(metadata %"class.Halide::Runtime::Internal::(anonymous namespace)::Printer"* %3, metadata !1184, metadata !DIExpression()) #10, !dbg !1275
  call void @llvm.dbg.value(metadata i32 %91, metadata !1187, metadata !DIExpression()) #10, !dbg !1275
  %92 = load i8*, i8** %15, align 4, !dbg !1277, !tbaa !1278
  %93 = sext i32 %91 to i64, !dbg !1279
  %94 = tail call i8* @halide_int64_to_string(i8* %88, i8* %92, i64 %93, i32 1) #8, !dbg !1280
  call void @llvm.dbg.value(metadata %"class.Halide::Runtime::Internal::(anonymous namespace)::Printer"* %3, metadata !690, metadata !DIExpression()) #10, !dbg !1281
  call void @llvm.dbg.value(metadata i8* getelementptr inbounds ([2 x i8], [2 x i8]* @.str.21, i32 0, i32 0), metadata !693, metadata !DIExpression()) #10, !dbg !1281
  %95 = tail call i8* @halide_string_to_string(i8* %94, i8* %92, i8* nonnull getelementptr inbounds ([2 x i8], [2 x i8]* @.str.21, i32 0, i32 0)) #8, !dbg !1283
  %96 = load %struct.halide_dimension_t*, %struct.halide_dimension_t** %32, align 8, !dbg !1284, !tbaa !815
  %97 = getelementptr inbounds %struct.halide_dimension_t, %struct.halide_dimension_t* %96, i32 2, i32 0, !dbg !1285
  %98 = load i32, i32* %97, align 4, !dbg !1285, !tbaa !827
  call void @llvm.dbg.value(metadata %"class.Halide::Runtime::Internal::(anonymous namespace)::Printer"* %3, metadata !1184, metadata !DIExpression()) #10, !dbg !1286
  call void @llvm.dbg.value(metadata i32 %98, metadata !1187, metadata !DIExpression()) #10, !dbg !1286
  %99 = sext i32 %98 to i64, !dbg !1288
  %100 = tail call i8* @halide_int64_to_string(i8* %95, i8* %92, i64 %99, i32 1) #8, !dbg !1289
  call void @llvm.dbg.value(metadata %"class.Halide::Runtime::Internal::(anonymous namespace)::Printer"* %3, metadata !690, metadata !DIExpression()) #10, !dbg !1290
  call void @llvm.dbg.value(metadata i8* getelementptr inbounds ([2 x i8], [2 x i8]* @.str.21, i32 0, i32 0), metadata !693, metadata !DIExpression()) #10, !dbg !1290
  %101 = tail call i8* @halide_string_to_string(i8* %100, i8* %92, i8* nonnull getelementptr inbounds ([2 x i8], [2 x i8]* @.str.21, i32 0, i32 0)) #8, !dbg !1292
  %102 = load %struct.halide_dimension_t*, %struct.halide_dimension_t** %32, align 8, !dbg !1293, !tbaa !815
  %103 = getelementptr inbounds %struct.halide_dimension_t, %struct.halide_dimension_t* %102, i32 3, i32 0, !dbg !1294
  %104 = load i32, i32* %103, align 4, !dbg !1294, !tbaa !827
  call void @llvm.dbg.value(metadata %"class.Halide::Runtime::Internal::(anonymous namespace)::Printer"* %3, metadata !1184, metadata !DIExpression()) #10, !dbg !1295
  call void @llvm.dbg.value(metadata i32 %104, metadata !1187, metadata !DIExpression()) #10, !dbg !1295
  %105 = sext i32 %104 to i64, !dbg !1297
  %106 = tail call i8* @halide_int64_to_string(i8* %101, i8* %92, i64 %105, i32 1) #8, !dbg !1298
  call void @llvm.dbg.value(metadata %"class.Halide::Runtime::Internal::(anonymous namespace)::Printer"* %3, metadata !690, metadata !DIExpression()) #10, !dbg !1299
  call void @llvm.dbg.value(metadata i8* getelementptr inbounds ([2 x i8], [2 x i8]* @.str.17, i32 0, i32 0), metadata !693, metadata !DIExpression()) #10, !dbg !1299
  %107 = tail call i8* @halide_string_to_string(i8* %106, i8* %92, i8* nonnull getelementptr inbounds ([2 x i8], [2 x i8]* @.str.17, i32 0, i32 0)) #8, !dbg !1301
  call void @llvm.dbg.value(metadata %"class.Halide::Runtime::Internal::(anonymous namespace)::Printer"* %3, metadata !690, metadata !DIExpression()) #10, !dbg !1302
  call void @llvm.dbg.value(metadata i8* getelementptr inbounds ([9 x i8], [9 x i8]* @.str.24, i32 0, i32 0), metadata !693, metadata !DIExpression()) #10, !dbg !1302
  %108 = tail call i8* @halide_string_to_string(i8* %107, i8* %92, i8* nonnull getelementptr inbounds ([9 x i8], [9 x i8]* @.str.24, i32 0, i32 0)) #8, !dbg !1304
  %109 = getelementptr inbounds %struct.halide_buffer_t, %struct.halide_buffer_t* %1, i32 0, i32 4, !dbg !1305
  call void @llvm.dbg.value(metadata %"class.Halide::Runtime::Internal::(anonymous namespace)::Printer"* %3, metadata !1306, metadata !DIExpression()) #10, !dbg !1310
  call void @llvm.dbg.value(metadata %struct.halide_type_t* %109, metadata !1309, metadata !DIExpression()) #10, !dbg !1310
  %110 = tail call i8* @halide_type_to_string(i8* %108, i8* %92, %struct.halide_type_t* nonnull %109) #8, !dbg !1312
  call void @llvm.dbg.value(metadata %"class.Halide::Runtime::Internal::(anonymous namespace)::Printer"* %3, metadata !690, metadata !DIExpression()) #10, !dbg !1313
  call void @llvm.dbg.value(metadata i8* getelementptr inbounds ([2 x i8], [2 x i8]* @.str.17, i32 0, i32 0), metadata !693, metadata !DIExpression()) #10, !dbg !1313
  %111 = tail call i8* @halide_string_to_string(i8* %110, i8* %92, i8* nonnull getelementptr inbounds ([2 x i8], [2 x i8]* @.str.17, i32 0, i32 0)) #8, !dbg !1315
  call void @llvm.dbg.value(metadata %"class.Halide::Runtime::Internal::(anonymous namespace)::Printer"* %3, metadata !690, metadata !DIExpression()) #10, !dbg !1316
  call void @llvm.dbg.value(metadata i8* getelementptr inbounds ([15 x i8], [15 x i8]* @.str.25, i32 0, i32 0), metadata !693, metadata !DIExpression()) #10, !dbg !1316
  %112 = tail call i8* @halide_string_to_string(i8* %111, i8* %92, i8* nonnull getelementptr inbounds ([15 x i8], [15 x i8]* @.str.25, i32 0, i32 0)) #8, !dbg !1318
  call void @llvm.dbg.value(metadata %struct.halide_buffer_t* %1, metadata !1319, metadata !DIExpression()), !dbg !1322
  call void @llvm.dbg.value(metadata %struct.halide_buffer_t* %1, metadata !1324, metadata !DIExpression()), !dbg !1328
  call void @llvm.dbg.value(metadata i32 1, metadata !1327, metadata !DIExpression()), !dbg !1328
  %113 = getelementptr inbounds %struct.halide_buffer_t, %struct.halide_buffer_t* %1, i32 0, i32 3, !dbg !1330
  %114 = load i64, i64* %113, align 8, !dbg !1330, !tbaa !1331
  call void @llvm.dbg.value(metadata %"class.Halide::Runtime::Internal::(anonymous namespace)::Printer"* %3, metadata !1184, metadata !DIExpression()) #10, !dbg !1332
  call void @llvm.dbg.value(metadata i64 %114, metadata !1187, metadata !DIExpression(DW_OP_LLVM_convert, 64, DW_ATE_unsigned, DW_OP_LLVM_convert, 32, DW_ATE_unsigned, DW_OP_constu, 1, DW_OP_and, DW_OP_stack_value)) #10, !dbg !1332
  %115 = and i64 %114, 1, !dbg !1334
  %116 = tail call i8* @halide_int64_to_string(i8* %112, i8* %92, i64 %115, i32 1) #8, !dbg !1335
  call void @llvm.dbg.value(metadata %"class.Halide::Runtime::Internal::(anonymous namespace)::Printer"* %3, metadata !690, metadata !DIExpression()) #10, !dbg !1336
  call void @llvm.dbg.value(metadata i8* getelementptr inbounds ([2 x i8], [2 x i8]* @.str.17, i32 0, i32 0), metadata !693, metadata !DIExpression()) #10, !dbg !1336
  %117 = tail call i8* @halide_string_to_string(i8* %116, i8* %92, i8* nonnull getelementptr inbounds ([2 x i8], [2 x i8]* @.str.17, i32 0, i32 0)) #8, !dbg !1338
  call void @llvm.dbg.value(metadata %"class.Halide::Runtime::Internal::(anonymous namespace)::Printer"* %3, metadata !690, metadata !DIExpression()) #10, !dbg !1339
  call void @llvm.dbg.value(metadata i8* getelementptr inbounds ([17 x i8], [17 x i8]* @.str.26, i32 0, i32 0), metadata !693, metadata !DIExpression()) #10, !dbg !1339
  %118 = tail call i8* @halide_string_to_string(i8* %117, i8* %92, i8* nonnull getelementptr inbounds ([17 x i8], [17 x i8]* @.str.26, i32 0, i32 0)) #8, !dbg !1341
  call void @llvm.dbg.value(metadata %struct.halide_buffer_t* %1, metadata !1342, metadata !DIExpression()), !dbg !1345
  call void @llvm.dbg.value(metadata %struct.halide_buffer_t* %1, metadata !1324, metadata !DIExpression()), !dbg !1347
  call void @llvm.dbg.value(metadata i32 2, metadata !1327, metadata !DIExpression()), !dbg !1347
  %119 = load i64, i64* %113, align 8, !dbg !1349, !tbaa !1331
  %120 = lshr i64 %119, 1, !dbg !1350
  call void @llvm.dbg.value(metadata %"class.Halide::Runtime::Internal::(anonymous namespace)::Printer"* %3, metadata !1184, metadata !DIExpression()) #10, !dbg !1351
  call void @llvm.dbg.value(metadata i64 %120, metadata !1187, metadata !DIExpression(DW_OP_LLVM_convert, 64, DW_ATE_unsigned, DW_OP_LLVM_convert, 32, DW_ATE_unsigned, DW_OP_constu, 1, DW_OP_and, DW_OP_stack_value)) #10, !dbg !1351
  %121 = and i64 %120, 1, !dbg !1353
  %122 = tail call i8* @halide_int64_to_string(i8* %118, i8* %92, i64 %121, i32 1) #8, !dbg !1354
  call void @llvm.dbg.value(metadata %"class.Halide::Runtime::Internal::(anonymous namespace)::Printer"* %3, metadata !690, metadata !DIExpression()) #10, !dbg !1355
  call void @llvm.dbg.value(metadata i8* getelementptr inbounds ([2 x i8], [2 x i8]* @.str.17, i32 0, i32 0), metadata !693, metadata !DIExpression()) #10, !dbg !1355
  %123 = tail call i8* @halide_string_to_string(i8* %122, i8* %92, i8* nonnull getelementptr inbounds ([2 x i8], [2 x i8]* @.str.17, i32 0, i32 0)) #8, !dbg !1357
  store i8* %123, i8** %9, align 4, !dbg !1358, !tbaa !1359
  call void @llvm.dbg.value(metadata %"class.Halide::Runtime::Internal::(anonymous namespace)::Printer"* %3, metadata !699, metadata !DIExpression()) #10, !dbg !1360
  %124 = load i8*, i8** %8, align 4, !dbg !1362, !tbaa !1125
  %125 = icmp eq i8* %124, null, !dbg !1362
  %126 = load i8*, i8** %5, align 4, !dbg !1363, !tbaa !1118
  br i1 %125, label %127, label %128, !dbg !1364

127:                                              ; preds = %13
  tail call void @halide_error(i8* %126, i8* getelementptr inbounds ([35 x i8], [35 x i8]* @.str.147, i32 0, i32 0)) #8, !dbg !1365
  br label %135, !dbg !1366

128:                                              ; preds = %13
  call void @llvm.dbg.value(metadata %"class.Halide::Runtime::Internal::(anonymous namespace)::Printer"* undef, metadata !713, metadata !DIExpression()) #10, !dbg !1367
  %129 = ptrtoint i8* %123 to i32, !dbg !1369
  %130 = ptrtoint i8* %124 to i32, !dbg !1369
  %131 = add i32 %129, 1, !dbg !1369
  %132 = sub i32 %131, %130, !dbg !1370
  %133 = sext i32 %132 to i64, !dbg !1371
  %134 = tail call i32 @halide_msan_annotate_memory_is_initialized(i8* %126, i8* nonnull %124, i64 %133) #8, !dbg !1372
  tail call void @halide_print(i8* %126, i8* nonnull %124) #8, !dbg !1373
  br label %135

135:                                              ; preds = %128, %127
  %136 = load i8, i8* %6, align 4, !dbg !1374, !tbaa !1121, !range !1375
  %137 = icmp eq i8 %136, 0, !dbg !1374
  br i1 %137, label %139, label %138, !dbg !1376

138:                                              ; preds = %135
  call void @free(i8* %124) #8, !dbg !1377
  br label %139, !dbg !1378

139:                                              ; preds = %135, %138
  call void @llvm.lifetime.end.p0i8(i64 20, i8* nonnull %4) #10, !dbg !1114
  ret void, !dbg !1379
}

; Function Attrs: nounwind willreturn mustprogress
define weak dso_local void @_ZN6Halide7Runtime8Internal13OpenGLCompute11GlobalState4initEv(%"struct.Halide::Runtime::Internal::OpenGLCompute::GlobalState"* nonnull dereferenceable(124) %0) local_unnamed_addr #6 align 2 !dbg !1380 {
  call void @llvm.dbg.value(metadata %"struct.Halide::Runtime::Internal::OpenGLCompute::GlobalState"* %0, metadata !1382, metadata !DIExpression()), !dbg !1383
  %2 = getelementptr inbounds %"struct.Halide::Runtime::Internal::OpenGLCompute::GlobalState", %"struct.Halide::Runtime::Internal::OpenGLCompute::GlobalState"* %0, i32 0, i32 0, !dbg !1384
  store i8 0, i8* %2, align 4, !dbg !1385, !tbaa !1386
  %3 = getelementptr inbounds %"struct.Halide::Runtime::Internal::OpenGLCompute::GlobalState", %"struct.Halide::Runtime::Internal::OpenGLCompute::GlobalState"* %0, i32 0, i32 1, !dbg !1387
  store void (i32, i32)* null, void (i32, i32)** %3, align 4, !dbg !1387, !tbaa !1388
  %4 = getelementptr inbounds %"struct.Halide::Runtime::Internal::OpenGLCompute::GlobalState", %"struct.Halide::Runtime::Internal::OpenGLCompute::GlobalState"* %0, i32 0, i32 2, !dbg !1387
  store void (i32, i32)* null, void (i32, i32)** %4, align 4, !dbg !1387, !tbaa !1389
  %5 = getelementptr inbounds %"struct.Halide::Runtime::Internal::OpenGLCompute::GlobalState", %"struct.Halide::Runtime::Internal::OpenGLCompute::GlobalState"* %0, i32 0, i32 3, !dbg !1387
  store void (i32, i32, i32)* null, void (i32, i32, i32)** %5, align 4, !dbg !1387, !tbaa !1390
  %6 = getelementptr inbounds %"struct.Halide::Runtime::Internal::OpenGLCompute::GlobalState", %"struct.Halide::Runtime::Internal::OpenGLCompute::GlobalState"* %0, i32 0, i32 4, !dbg !1387
  store void (i32, i32, i8*, i32)* null, void (i32, i32, i8*, i32)** %6, align 4, !dbg !1387, !tbaa !1391
  %7 = getelementptr inbounds %"struct.Halide::Runtime::Internal::OpenGLCompute::GlobalState", %"struct.Halide::Runtime::Internal::OpenGLCompute::GlobalState"* %0, i32 0, i32 5, !dbg !1387
  store i32 ()* null, i32 ()** %7, align 4, !dbg !1387, !tbaa !1392
  %8 = getelementptr inbounds %"struct.Halide::Runtime::Internal::OpenGLCompute::GlobalState", %"struct.Halide::Runtime::Internal::OpenGLCompute::GlobalState"* %0, i32 0, i32 6, !dbg !1387
  store void (i32)* null, void (i32)** %8, align 4, !dbg !1387, !tbaa !1393
  %9 = getelementptr inbounds %"struct.Halide::Runtime::Internal::OpenGLCompute::GlobalState", %"struct.Halide::Runtime::Internal::OpenGLCompute::GlobalState"* %0, i32 0, i32 7, !dbg !1387
  store i32 (i32)* null, i32 (i32)** %9, align 4, !dbg !1387, !tbaa !1394
  %10 = getelementptr inbounds %"struct.Halide::Runtime::Internal::OpenGLCompute::GlobalState", %"struct.Halide::Runtime::Internal::OpenGLCompute::GlobalState"* %0, i32 0, i32 8, !dbg !1387
  store void (i32, i32*)* null, void (i32, i32*)** %10, align 4, !dbg !1387, !tbaa !1395
  %11 = getelementptr inbounds %"struct.Halide::Runtime::Internal::OpenGLCompute::GlobalState", %"struct.Halide::Runtime::Internal::OpenGLCompute::GlobalState"* %0, i32 0, i32 9, !dbg !1387
  store void (i32)* null, void (i32)** %11, align 4, !dbg !1387, !tbaa !1396
  %12 = getelementptr inbounds %"struct.Halide::Runtime::Internal::OpenGLCompute::GlobalState", %"struct.Halide::Runtime::Internal::OpenGLCompute::GlobalState"* %0, i32 0, i32 10, !dbg !1387
  store void (i32)* null, void (i32)** %12, align 4, !dbg !1387, !tbaa !1397
  %13 = getelementptr inbounds %"struct.Halide::Runtime::Internal::OpenGLCompute::GlobalState", %"struct.Halide::Runtime::Internal::OpenGLCompute::GlobalState"* %0, i32 0, i32 11, !dbg !1387
  store void (i32, i32, i32)* null, void (i32, i32, i32)** %13, align 4, !dbg !1387, !tbaa !1398
  %14 = getelementptr inbounds %"struct.Halide::Runtime::Internal::OpenGLCompute::GlobalState", %"struct.Halide::Runtime::Internal::OpenGLCompute::GlobalState"* %0, i32 0, i32 12, !dbg !1387
  store void ()* null, void ()** %14, align 4, !dbg !1387, !tbaa !1399
  %15 = getelementptr inbounds %"struct.Halide::Runtime::Internal::OpenGLCompute::GlobalState", %"struct.Halide::Runtime::Internal::OpenGLCompute::GlobalState"* %0, i32 0, i32 13, !dbg !1387
  store void (i32, i32*)* null, void (i32, i32*)** %15, align 4, !dbg !1387, !tbaa !1400
  %16 = getelementptr inbounds %"struct.Halide::Runtime::Internal::OpenGLCompute::GlobalState", %"struct.Halide::Runtime::Internal::OpenGLCompute::GlobalState"* %0, i32 0, i32 14, !dbg !1387
  store i32 ()* null, i32 ()** %16, align 4, !dbg !1387, !tbaa !1003
  %17 = getelementptr inbounds %"struct.Halide::Runtime::Internal::OpenGLCompute::GlobalState", %"struct.Halide::Runtime::Internal::OpenGLCompute::GlobalState"* %0, i32 0, i32 15, !dbg !1387
  store void (i32, i32, i32*, i8*)* null, void (i32, i32, i32*, i8*)** %17, align 4, !dbg !1387, !tbaa !1401
  %18 = getelementptr inbounds %"struct.Halide::Runtime::Internal::OpenGLCompute::GlobalState", %"struct.Halide::Runtime::Internal::OpenGLCompute::GlobalState"* %0, i32 0, i32 16, !dbg !1387
  store void (i32, i32, i32*)* null, void (i32, i32, i32*)** %18, align 4, !dbg !1387, !tbaa !1402
  %19 = getelementptr inbounds %"struct.Halide::Runtime::Internal::OpenGLCompute::GlobalState", %"struct.Halide::Runtime::Internal::OpenGLCompute::GlobalState"* %0, i32 0, i32 17, !dbg !1387
  store void (i32, i32, i32*, i8*)* null, void (i32, i32, i32*, i8*)** %19, align 4, !dbg !1387, !tbaa !1403
  %20 = getelementptr inbounds %"struct.Halide::Runtime::Internal::OpenGLCompute::GlobalState", %"struct.Halide::Runtime::Internal::OpenGLCompute::GlobalState"* %0, i32 0, i32 18, !dbg !1387
  store void (i32, i32, i32*)* null, void (i32, i32, i32*)** %20, align 4, !dbg !1387, !tbaa !1404
  %21 = getelementptr inbounds %"struct.Halide::Runtime::Internal::OpenGLCompute::GlobalState", %"struct.Halide::Runtime::Internal::OpenGLCompute::GlobalState"* %0, i32 0, i32 19, !dbg !1387
  store i8* (i32)* null, i8* (i32)** %21, align 4, !dbg !1387, !tbaa !1405
  %22 = getelementptr inbounds %"struct.Halide::Runtime::Internal::OpenGLCompute::GlobalState", %"struct.Halide::Runtime::Internal::OpenGLCompute::GlobalState"* %0, i32 0, i32 20, !dbg !1387
  store void (i32)* null, void (i32)** %22, align 4, !dbg !1387, !tbaa !1406
  %23 = getelementptr inbounds %"struct.Halide::Runtime::Internal::OpenGLCompute::GlobalState", %"struct.Halide::Runtime::Internal::OpenGLCompute::GlobalState"* %0, i32 0, i32 21, !dbg !1387
  store i8* (i32, i32, i32, i32)* null, i8* (i32, i32, i32, i32)** %23, align 4, !dbg !1387, !tbaa !1407
  %24 = getelementptr inbounds %"struct.Halide::Runtime::Internal::OpenGLCompute::GlobalState", %"struct.Halide::Runtime::Internal::OpenGLCompute::GlobalState"* %0, i32 0, i32 22, !dbg !1387
  store void (i32)* null, void (i32)** %24, align 4, !dbg !1387, !tbaa !1408
  %25 = getelementptr inbounds %"struct.Halide::Runtime::Internal::OpenGLCompute::GlobalState", %"struct.Halide::Runtime::Internal::OpenGLCompute::GlobalState"* %0, i32 0, i32 23, !dbg !1387
  store void (i32, i32, i8**, i32*)* null, void (i32, i32, i8**, i32*)** %25, align 4, !dbg !1387, !tbaa !1409
  %26 = getelementptr inbounds %"struct.Halide::Runtime::Internal::OpenGLCompute::GlobalState", %"struct.Halide::Runtime::Internal::OpenGLCompute::GlobalState"* %0, i32 0, i32 24, !dbg !1387
  store void (i32, i32)* null, void (i32, i32)** %26, align 4, !dbg !1387, !tbaa !1410
  %27 = getelementptr inbounds %"struct.Halide::Runtime::Internal::OpenGLCompute::GlobalState", %"struct.Halide::Runtime::Internal::OpenGLCompute::GlobalState"* %0, i32 0, i32 25, !dbg !1387
  store void (i32, i32)* null, void (i32, i32)** %27, align 4, !dbg !1387, !tbaa !1411
  %28 = getelementptr inbounds %"struct.Halide::Runtime::Internal::OpenGLCompute::GlobalState", %"struct.Halide::Runtime::Internal::OpenGLCompute::GlobalState"* %0, i32 0, i32 26, !dbg !1387
  store void (i32, float)* null, void (i32, float)** %28, align 4, !dbg !1387, !tbaa !1412
  %29 = getelementptr inbounds %"struct.Halide::Runtime::Internal::OpenGLCompute::GlobalState", %"struct.Halide::Runtime::Internal::OpenGLCompute::GlobalState"* %0, i32 0, i32 27, !dbg !1387
  store void (i32)* null, void (i32)** %29, align 4, !dbg !1387, !tbaa !1413
  %30 = getelementptr inbounds %"struct.Halide::Runtime::Internal::OpenGLCompute::GlobalState", %"struct.Halide::Runtime::Internal::OpenGLCompute::GlobalState"* %0, i32 0, i32 28, !dbg !1387
  store void (i32)* null, void (i32)** %30, align 4, !dbg !1387, !tbaa !1414
  %31 = getelementptr inbounds %"struct.Halide::Runtime::Internal::OpenGLCompute::GlobalState", %"struct.Halide::Runtime::Internal::OpenGLCompute::GlobalState"* %0, i32 0, i32 29, !dbg !1387
  store void (i32, i32, i32, i32*, i32*, i32*, i8*)* null, void (i32, i32, i32, i32*, i32*, i32*, i8*)** %31, align 4, !dbg !1387, !tbaa !1415
  %32 = getelementptr inbounds %"struct.Halide::Runtime::Internal::OpenGLCompute::GlobalState", %"struct.Halide::Runtime::Internal::OpenGLCompute::GlobalState"* %0, i32 0, i32 30, !dbg !1387
  store i32 (i32, i8*)* null, i32 (i32, i8*)** %32, align 4, !dbg !1387, !tbaa !1416
  ret void, !dbg !1417
}

; Function Attrs: nounwind
define weak dso_local i32 @_ZN6Halide7Runtime8Internal13OpenGLCompute12load_gl_funcEPvPKcPS3_b(i8* %0, i8* %1, i8** %2, i1 zeroext %3) local_unnamed_addr #4 !dbg !1418 {
  call void @llvm.dbg.value(metadata i8* %0, metadata !1422, metadata !DIExpression()), !dbg !1427
  call void @llvm.dbg.value(metadata i8* %1, metadata !1423, metadata !DIExpression()), !dbg !1427
  call void @llvm.dbg.value(metadata i8** %2, metadata !1424, metadata !DIExpression()), !dbg !1427
  call void @llvm.dbg.value(metadata i1 %3, metadata !1425, metadata !DIExpression(DW_OP_LLVM_convert, 1, DW_ATE_unsigned, DW_OP_LLVM_convert, 8, DW_ATE_unsigned, DW_OP_stack_value)), !dbg !1427
  %5 = tail call i8* @halide_opengl_get_proc_address(i8* %0, i8* %1) #8, !dbg !1428
  call void @llvm.dbg.value(metadata i8* %5, metadata !1426, metadata !DIExpression()), !dbg !1427
  %6 = icmp eq i8* %5, null, !dbg !1429
  %7 = and i1 %6, %3, !dbg !1431
  br i1 %7, label %8, label %32, !dbg !1431

8:                                                ; preds = %4
  call void @llvm.dbg.value(metadata %"class.Halide::Runtime::Internal::(anonymous namespace)::Printer.0"* undef, metadata !1009, metadata !DIExpression()) #10, !dbg !1432
  call void @llvm.dbg.value(metadata i8* %0, metadata !1012, metadata !DIExpression()) #10, !dbg !1432
  call void @llvm.dbg.value(metadata i8* null, metadata !1013, metadata !DIExpression()) #10, !dbg !1432
  %9 = tail call i8* @malloc(i32 1024) #8, !dbg !1435
  %10 = icmp eq i8* %9, null, !dbg !1436
  br i1 %10, label %13, label %11, !dbg !1437

11:                                               ; preds = %8
  %12 = getelementptr inbounds i8, i8* %9, i32 1023, !dbg !1438
  store i8 0, i8* %12, align 1, !dbg !1439, !tbaa !712
  br label %13, !dbg !1440

13:                                               ; preds = %8, %11
  %14 = phi i8* [ %12, %11 ], [ null, %8 ], !dbg !1441
  call void @llvm.dbg.value(metadata %"class.Halide::Runtime::Internal::(anonymous namespace)::Printer.0"* undef, metadata !1031, metadata !DIExpression()) #10, !dbg !1442
  call void @llvm.dbg.value(metadata i8* getelementptr inbounds ([37 x i8], [37 x i8]* @.str.27, i32 0, i32 0), metadata !1034, metadata !DIExpression()) #10, !dbg !1442
  %15 = tail call i8* @halide_string_to_string(i8* %9, i8* %14, i8* nonnull getelementptr inbounds ([37 x i8], [37 x i8]* @.str.27, i32 0, i32 0)) #8, !dbg !1444
  call void @llvm.dbg.value(metadata %"class.Halide::Runtime::Internal::(anonymous namespace)::Printer.0"* undef, metadata !1031, metadata !DIExpression()) #10, !dbg !1445
  call void @llvm.dbg.value(metadata i8* %1, metadata !1034, metadata !DIExpression()) #10, !dbg !1445
  %16 = icmp eq i8* %1, null, !dbg !1447
  br i1 %16, label %17, label %19, !dbg !1448

17:                                               ; preds = %13
  %18 = tail call i8* @halide_string_to_string(i8* %15, i8* %14, i8* getelementptr inbounds ([10 x i8], [10 x i8]* @.str.148, i32 0, i32 0)) #8, !dbg !1449
  br label %21, !dbg !1450

19:                                               ; preds = %13
  %20 = tail call i8* @halide_string_to_string(i8* %15, i8* %14, i8* nonnull %1) #8, !dbg !1451
  br label %21

21:                                               ; preds = %17, %19
  %22 = phi i8* [ %20, %19 ], [ %18, %17 ], !dbg !1452
  call void @llvm.dbg.value(metadata %"class.Halide::Runtime::Internal::(anonymous namespace)::Printer.0"* undef, metadata !1078, metadata !DIExpression()) #10, !dbg !1453
  br i1 %10, label %23, label %24, !dbg !1455

23:                                               ; preds = %21
  tail call void @halide_error(i8* %0, i8* getelementptr inbounds ([35 x i8], [35 x i8]* @.str.147, i32 0, i32 0)) #8, !dbg !1456
  br label %31, !dbg !1457

24:                                               ; preds = %21
  call void @llvm.dbg.value(metadata %"class.Halide::Runtime::Internal::(anonymous namespace)::Printer.0"* undef, metadata !1089, metadata !DIExpression()) #10, !dbg !1458
  %25 = ptrtoint i8* %22 to i32, !dbg !1460
  %26 = ptrtoint i8* %9 to i32, !dbg !1460
  %27 = sub i32 1, %26, !dbg !1460
  %28 = add i32 %27, %25, !dbg !1461
  %29 = sext i32 %28 to i64, !dbg !1462
  %30 = tail call i32 @halide_msan_annotate_memory_is_initialized(i8* %0, i8* nonnull %9, i64 %29) #8, !dbg !1463
  tail call void @halide_error(i8* %0, i8* nonnull %9) #8, !dbg !1464
  br label %31

31:                                               ; preds = %24, %23
  tail call void @free(i8* %9) #8, !dbg !1465
  br label %33, !dbg !1466

32:                                               ; preds = %4
  store i8* %5, i8** %2, align 4, !dbg !1467, !tbaa !977
  br label %33, !dbg !1468

33:                                               ; preds = %32, %31
  %34 = phi i32 [ 0, %32 ], [ -1, %31 ], !dbg !1427
  ret i32 %34, !dbg !1469
}

declare !dbg !1470 dso_local i8* @halide_opengl_get_proc_address(i8*, i8*) local_unnamed_addr #3

; Function Attrs: nounwind
define weak dso_local i32 @_ZN6Halide7Runtime8Internal13OpenGLCompute25halide_openglcompute_initEPv(i8* %0) local_unnamed_addr #4 !dbg !1474 {
  call void @llvm.dbg.value(metadata i8* %0, metadata !1476, metadata !DIExpression()), !dbg !1477
  %2 = load i8, i8* getelementptr inbounds (%"struct.Halide::Runtime::Internal::OpenGLCompute::GlobalState", %"struct.Halide::Runtime::Internal::OpenGLCompute::GlobalState"* @_ZN6Halide7Runtime8Internal13OpenGLCompute12global_stateE, i32 0, i32 0), align 4, !dbg !1478, !tbaa !1386, !range !1375
  %3 = icmp eq i8 %2, 0, !dbg !1478
  br i1 %3, label %4, label %133, !dbg !1480

4:                                                ; preds = %1
  tail call void @_ZN6Halide7Runtime8Internal13OpenGLCompute11GlobalState4initEv(%"struct.Halide::Runtime::Internal::OpenGLCompute::GlobalState"* nonnull dereferenceable(124) @_ZN6Halide7Runtime8Internal13OpenGLCompute12global_stateE) #9, !dbg !1481
  %5 = tail call i32 @halide_opengl_create_context(i8* %0) #8, !dbg !1482
  %6 = icmp eq i32 %5, 0, !dbg !1482
  br i1 %6, label %22, label %7, !dbg !1484

7:                                                ; preds = %4
  call void @llvm.dbg.value(metadata %"class.Halide::Runtime::Internal::(anonymous namespace)::Printer.0"* undef, metadata !1009, metadata !DIExpression()) #10, !dbg !1485
  call void @llvm.dbg.value(metadata i8* %0, metadata !1012, metadata !DIExpression()) #10, !dbg !1485
  call void @llvm.dbg.value(metadata i8* null, metadata !1013, metadata !DIExpression()) #10, !dbg !1485
  %8 = tail call i8* @malloc(i32 1024) #8, !dbg !1488
  %9 = icmp eq i8* %8, null, !dbg !1489
  br i1 %9, label %10, label %12, !dbg !1490

10:                                               ; preds = %7
  call void @llvm.dbg.value(metadata %"class.Halide::Runtime::Internal::(anonymous namespace)::Printer.0"* undef, metadata !1031, metadata !DIExpression()) #10, !dbg !1491
  call void @llvm.dbg.value(metadata i8* getelementptr inbounds ([30 x i8], [30 x i8]* @.str.28, i32 0, i32 0), metadata !1034, metadata !DIExpression()) #10, !dbg !1491
  %11 = tail call i8* @halide_string_to_string(i8* %8, i8* null, i8* nonnull getelementptr inbounds ([30 x i8], [30 x i8]* @.str.28, i32 0, i32 0)) #8, !dbg !1493
  call void @llvm.dbg.value(metadata %"class.Halide::Runtime::Internal::(anonymous namespace)::Printer.0"* undef, metadata !1078, metadata !DIExpression()) #10, !dbg !1494
  tail call void @halide_error(i8* %0, i8* getelementptr inbounds ([35 x i8], [35 x i8]* @.str.147, i32 0, i32 0)) #8, !dbg !1496
  br label %21, !dbg !1497

12:                                               ; preds = %7
  %13 = getelementptr inbounds i8, i8* %8, i32 1023, !dbg !1498
  store i8 0, i8* %13, align 1, !dbg !1499, !tbaa !712
  call void @llvm.dbg.value(metadata %"class.Halide::Runtime::Internal::(anonymous namespace)::Printer.0"* undef, metadata !1031, metadata !DIExpression()) #10, !dbg !1491
  call void @llvm.dbg.value(metadata i8* getelementptr inbounds ([30 x i8], [30 x i8]* @.str.28, i32 0, i32 0), metadata !1034, metadata !DIExpression()) #10, !dbg !1491
  %14 = tail call i8* @halide_string_to_string(i8* nonnull %8, i8* nonnull %13, i8* nonnull getelementptr inbounds ([30 x i8], [30 x i8]* @.str.28, i32 0, i32 0)) #8, !dbg !1493
  call void @llvm.dbg.value(metadata %"class.Halide::Runtime::Internal::(anonymous namespace)::Printer.0"* undef, metadata !1078, metadata !DIExpression()) #10, !dbg !1494
  call void @llvm.dbg.value(metadata %"class.Halide::Runtime::Internal::(anonymous namespace)::Printer.0"* undef, metadata !1089, metadata !DIExpression()) #10, !dbg !1500
  %15 = ptrtoint i8* %14 to i32, !dbg !1502
  %16 = ptrtoint i8* %8 to i32, !dbg !1502
  %17 = add i32 %15, 1, !dbg !1502
  %18 = sub i32 %17, %16, !dbg !1503
  %19 = sext i32 %18 to i64, !dbg !1504
  %20 = tail call i32 @halide_msan_annotate_memory_is_initialized(i8* %0, i8* nonnull %8, i64 %19) #8, !dbg !1505
  tail call void @halide_error(i8* %0, i8* nonnull %8) #8, !dbg !1506
  br label %21

21:                                               ; preds = %12, %10
  tail call void @free(i8* %8) #8, !dbg !1507
  br label %133, !dbg !1508

22:                                               ; preds = %4
  %23 = tail call i32 @_ZN6Halide7Runtime8Internal13OpenGLCompute12load_gl_funcEPvPKcPS3_b(i8* %0, i8* getelementptr inbounds ([15 x i8], [15 x i8]* @.str.29, i32 0, i32 0), i8** bitcast (void (i32, i32)** getelementptr inbounds (%"struct.Halide::Runtime::Internal::OpenGLCompute::GlobalState", %"struct.Halide::Runtime::Internal::OpenGLCompute::GlobalState"* @_ZN6Halide7Runtime8Internal13OpenGLCompute12global_stateE, i32 0, i32 1) to i8**), i1 zeroext true) #9, !dbg !1509
  %24 = icmp slt i32 %23, 0, !dbg !1509
  br i1 %24, label %133, label %25, !dbg !1511

25:                                               ; preds = %22
  %26 = tail call i32 @_ZN6Halide7Runtime8Internal13OpenGLCompute12load_gl_funcEPvPKcPS3_b(i8* %0, i8* getelementptr inbounds ([13 x i8], [13 x i8]* @.str.30, i32 0, i32 0), i8** bitcast (void (i32, i32)** getelementptr inbounds (%"struct.Halide::Runtime::Internal::OpenGLCompute::GlobalState", %"struct.Halide::Runtime::Internal::OpenGLCompute::GlobalState"* @_ZN6Halide7Runtime8Internal13OpenGLCompute12global_stateE, i32 0, i32 2) to i8**), i1 zeroext true) #9, !dbg !1512
  %27 = icmp slt i32 %26, 0, !dbg !1512
  br i1 %27, label %133, label %28, !dbg !1511

28:                                               ; preds = %25
  %29 = tail call i32 @_ZN6Halide7Runtime8Internal13OpenGLCompute12load_gl_funcEPvPKcPS3_b(i8* %0, i8* getelementptr inbounds ([17 x i8], [17 x i8]* @.str.31, i32 0, i32 0), i8** bitcast (void (i32, i32, i32)** getelementptr inbounds (%"struct.Halide::Runtime::Internal::OpenGLCompute::GlobalState", %"struct.Halide::Runtime::Internal::OpenGLCompute::GlobalState"* @_ZN6Halide7Runtime8Internal13OpenGLCompute12global_stateE, i32 0, i32 3) to i8**), i1 zeroext true) #9, !dbg !1514
  %30 = icmp slt i32 %29, 0, !dbg !1514
  br i1 %30, label %133, label %31, !dbg !1511

31:                                               ; preds = %28
  %32 = tail call i32 @_ZN6Halide7Runtime8Internal13OpenGLCompute12load_gl_funcEPvPKcPS3_b(i8* %0, i8* getelementptr inbounds ([13 x i8], [13 x i8]* @.str.32, i32 0, i32 0), i8** bitcast (void (i32, i32, i8*, i32)** getelementptr inbounds (%"struct.Halide::Runtime::Internal::OpenGLCompute::GlobalState", %"struct.Halide::Runtime::Internal::OpenGLCompute::GlobalState"* @_ZN6Halide7Runtime8Internal13OpenGLCompute12global_stateE, i32 0, i32 4) to i8**), i1 zeroext true) #9, !dbg !1516
  %33 = icmp slt i32 %32, 0, !dbg !1516
  br i1 %33, label %133, label %34, !dbg !1511

34:                                               ; preds = %31
  %35 = tail call i32 @_ZN6Halide7Runtime8Internal13OpenGLCompute12load_gl_funcEPvPKcPS3_b(i8* %0, i8* getelementptr inbounds ([16 x i8], [16 x i8]* @.str.33, i32 0, i32 0), i8** bitcast (i32 ()** getelementptr inbounds (%"struct.Halide::Runtime::Internal::OpenGLCompute::GlobalState", %"struct.Halide::Runtime::Internal::OpenGLCompute::GlobalState"* @_ZN6Halide7Runtime8Internal13OpenGLCompute12global_stateE, i32 0, i32 5) to i8**), i1 zeroext true) #9, !dbg !1518
  %36 = icmp slt i32 %35, 0, !dbg !1518
  br i1 %36, label %133, label %37, !dbg !1511

37:                                               ; preds = %34
  %38 = tail call i32 @_ZN6Halide7Runtime8Internal13OpenGLCompute12load_gl_funcEPvPKcPS3_b(i8* %0, i8* getelementptr inbounds ([16 x i8], [16 x i8]* @.str.34, i32 0, i32 0), i8** bitcast (void (i32)** getelementptr inbounds (%"struct.Halide::Runtime::Internal::OpenGLCompute::GlobalState", %"struct.Halide::Runtime::Internal::OpenGLCompute::GlobalState"* @_ZN6Halide7Runtime8Internal13OpenGLCompute12global_stateE, i32 0, i32 6) to i8**), i1 zeroext true) #9, !dbg !1520
  %39 = icmp slt i32 %38, 0, !dbg !1520
  br i1 %39, label %133, label %40, !dbg !1511

40:                                               ; preds = %37
  %41 = tail call i32 @_ZN6Halide7Runtime8Internal13OpenGLCompute12load_gl_funcEPvPKcPS3_b(i8* %0, i8* getelementptr inbounds ([15 x i8], [15 x i8]* @.str.35, i32 0, i32 0), i8** bitcast (i32 (i32)** getelementptr inbounds (%"struct.Halide::Runtime::Internal::OpenGLCompute::GlobalState", %"struct.Halide::Runtime::Internal::OpenGLCompute::GlobalState"* @_ZN6Halide7Runtime8Internal13OpenGLCompute12global_stateE, i32 0, i32 7) to i8**), i1 zeroext true) #9, !dbg !1522
  %42 = icmp slt i32 %41, 0, !dbg !1522
  br i1 %42, label %133, label %43, !dbg !1511

43:                                               ; preds = %40
  %44 = tail call i32 @_ZN6Halide7Runtime8Internal13OpenGLCompute12load_gl_funcEPvPKcPS3_b(i8* %0, i8* getelementptr inbounds ([16 x i8], [16 x i8]* @.str.36, i32 0, i32 0), i8** bitcast (void (i32, i32*)** getelementptr inbounds (%"struct.Halide::Runtime::Internal::OpenGLCompute::GlobalState", %"struct.Halide::Runtime::Internal::OpenGLCompute::GlobalState"* @_ZN6Halide7Runtime8Internal13OpenGLCompute12global_stateE, i32 0, i32 8) to i8**), i1 zeroext true) #9, !dbg !1524
  %45 = icmp slt i32 %44, 0, !dbg !1524
  br i1 %45, label %133, label %46, !dbg !1511

46:                                               ; preds = %43
  %47 = tail call i32 @_ZN6Halide7Runtime8Internal13OpenGLCompute12load_gl_funcEPvPKcPS3_b(i8* %0, i8* getelementptr inbounds ([16 x i8], [16 x i8]* @.str.37, i32 0, i32 0), i8** bitcast (void (i32)** getelementptr inbounds (%"struct.Halide::Runtime::Internal::OpenGLCompute::GlobalState", %"struct.Halide::Runtime::Internal::OpenGLCompute::GlobalState"* @_ZN6Halide7Runtime8Internal13OpenGLCompute12global_stateE, i32 0, i32 9) to i8**), i1 zeroext true) #9, !dbg !1526
  %48 = icmp slt i32 %47, 0, !dbg !1526
  br i1 %48, label %133, label %49, !dbg !1511

49:                                               ; preds = %46
  %50 = tail call i32 @_ZN6Halide7Runtime8Internal13OpenGLCompute12load_gl_funcEPvPKcPS3_b(i8* %0, i8* getelementptr inbounds ([15 x i8], [15 x i8]* @.str.38, i32 0, i32 0), i8** bitcast (void (i32)** getelementptr inbounds (%"struct.Halide::Runtime::Internal::OpenGLCompute::GlobalState", %"struct.Halide::Runtime::Internal::OpenGLCompute::GlobalState"* @_ZN6Halide7Runtime8Internal13OpenGLCompute12global_stateE, i32 0, i32 10) to i8**), i1 zeroext true) #9, !dbg !1528
  %51 = icmp slt i32 %50, 0, !dbg !1528
  br i1 %51, label %133, label %52, !dbg !1511

52:                                               ; preds = %49
  %53 = tail call i32 @_ZN6Halide7Runtime8Internal13OpenGLCompute12load_gl_funcEPvPKcPS3_b(i8* %0, i8* getelementptr inbounds ([18 x i8], [18 x i8]* @.str.39, i32 0, i32 0), i8** bitcast (void (i32, i32, i32)** getelementptr inbounds (%"struct.Halide::Runtime::Internal::OpenGLCompute::GlobalState", %"struct.Halide::Runtime::Internal::OpenGLCompute::GlobalState"* @_ZN6Halide7Runtime8Internal13OpenGLCompute12global_stateE, i32 0, i32 11) to i8**), i1 zeroext true) #9, !dbg !1530
  %54 = icmp slt i32 %53, 0, !dbg !1530
  br i1 %54, label %133, label %55, !dbg !1511

55:                                               ; preds = %52
  %56 = tail call i32 @_ZN6Halide7Runtime8Internal13OpenGLCompute12load_gl_funcEPvPKcPS3_b(i8* %0, i8* getelementptr inbounds ([9 x i8], [9 x i8]* @.str.40, i32 0, i32 0), i8** bitcast (void ()** getelementptr inbounds (%"struct.Halide::Runtime::Internal::OpenGLCompute::GlobalState", %"struct.Halide::Runtime::Internal::OpenGLCompute::GlobalState"* @_ZN6Halide7Runtime8Internal13OpenGLCompute12global_stateE, i32 0, i32 12) to i8**), i1 zeroext true) #9, !dbg !1532
  %57 = icmp slt i32 %56, 0, !dbg !1532
  br i1 %57, label %133, label %58, !dbg !1511

58:                                               ; preds = %55
  %59 = tail call i32 @_ZN6Halide7Runtime8Internal13OpenGLCompute12load_gl_funcEPvPKcPS3_b(i8* %0, i8* getelementptr inbounds ([13 x i8], [13 x i8]* @.str.41, i32 0, i32 0), i8** bitcast (void (i32, i32*)** getelementptr inbounds (%"struct.Halide::Runtime::Internal::OpenGLCompute::GlobalState", %"struct.Halide::Runtime::Internal::OpenGLCompute::GlobalState"* @_ZN6Halide7Runtime8Internal13OpenGLCompute12global_stateE, i32 0, i32 13) to i8**), i1 zeroext true) #9, !dbg !1534
  %60 = icmp slt i32 %59, 0, !dbg !1534
  br i1 %60, label %133, label %61, !dbg !1511

61:                                               ; preds = %58
  %62 = tail call i32 @_ZN6Halide7Runtime8Internal13OpenGLCompute12load_gl_funcEPvPKcPS3_b(i8* %0, i8* getelementptr inbounds ([11 x i8], [11 x i8]* @.str.42, i32 0, i32 0), i8** bitcast (i32 ()** getelementptr inbounds (%"struct.Halide::Runtime::Internal::OpenGLCompute::GlobalState", %"struct.Halide::Runtime::Internal::OpenGLCompute::GlobalState"* @_ZN6Halide7Runtime8Internal13OpenGLCompute12global_stateE, i32 0, i32 14) to i8**), i1 zeroext true) #9, !dbg !1536
  %63 = icmp slt i32 %62, 0, !dbg !1536
  br i1 %63, label %133, label %64, !dbg !1511

64:                                               ; preds = %61
  %65 = tail call i32 @_ZN6Halide7Runtime8Internal13OpenGLCompute12load_gl_funcEPvPKcPS3_b(i8* %0, i8* getelementptr inbounds ([20 x i8], [20 x i8]* @.str.43, i32 0, i32 0), i8** bitcast (void (i32, i32, i32*, i8*)** getelementptr inbounds (%"struct.Halide::Runtime::Internal::OpenGLCompute::GlobalState", %"struct.Halide::Runtime::Internal::OpenGLCompute::GlobalState"* @_ZN6Halide7Runtime8Internal13OpenGLCompute12global_stateE, i32 0, i32 15) to i8**), i1 zeroext true) #9, !dbg !1538
  %66 = icmp slt i32 %65, 0, !dbg !1538
  br i1 %66, label %133, label %67, !dbg !1511

67:                                               ; preds = %64
  %68 = tail call i32 @_ZN6Halide7Runtime8Internal13OpenGLCompute12load_gl_funcEPvPKcPS3_b(i8* %0, i8* getelementptr inbounds ([15 x i8], [15 x i8]* @.str.44, i32 0, i32 0), i8** bitcast (void (i32, i32, i32*)** getelementptr inbounds (%"struct.Halide::Runtime::Internal::OpenGLCompute::GlobalState", %"struct.Halide::Runtime::Internal::OpenGLCompute::GlobalState"* @_ZN6Halide7Runtime8Internal13OpenGLCompute12global_stateE, i32 0, i32 16) to i8**), i1 zeroext true) #9, !dbg !1540
  %69 = icmp slt i32 %68, 0, !dbg !1540
  br i1 %69, label %133, label %70, !dbg !1511

70:                                               ; preds = %67
  %71 = tail call i32 @_ZN6Halide7Runtime8Internal13OpenGLCompute12load_gl_funcEPvPKcPS3_b(i8* %0, i8* getelementptr inbounds ([19 x i8], [19 x i8]* @.str.45, i32 0, i32 0), i8** bitcast (void (i32, i32, i32*, i8*)** getelementptr inbounds (%"struct.Halide::Runtime::Internal::OpenGLCompute::GlobalState", %"struct.Halide::Runtime::Internal::OpenGLCompute::GlobalState"* @_ZN6Halide7Runtime8Internal13OpenGLCompute12global_stateE, i32 0, i32 17) to i8**), i1 zeroext true) #9, !dbg !1542
  %72 = icmp slt i32 %71, 0, !dbg !1542
  br i1 %72, label %133, label %73, !dbg !1511

73:                                               ; preds = %70
  %74 = tail call i32 @_ZN6Halide7Runtime8Internal13OpenGLCompute12load_gl_funcEPvPKcPS3_b(i8* %0, i8* getelementptr inbounds ([14 x i8], [14 x i8]* @.str.46, i32 0, i32 0), i8** bitcast (void (i32, i32, i32*)** getelementptr inbounds (%"struct.Halide::Runtime::Internal::OpenGLCompute::GlobalState", %"struct.Halide::Runtime::Internal::OpenGLCompute::GlobalState"* @_ZN6Halide7Runtime8Internal13OpenGLCompute12global_stateE, i32 0, i32 18) to i8**), i1 zeroext true) #9, !dbg !1544
  %75 = icmp slt i32 %74, 0, !dbg !1544
  br i1 %75, label %133, label %76, !dbg !1511

76:                                               ; preds = %73
  %77 = tail call i32 @_ZN6Halide7Runtime8Internal13OpenGLCompute12load_gl_funcEPvPKcPS3_b(i8* %0, i8* getelementptr inbounds ([12 x i8], [12 x i8]* @.str.47, i32 0, i32 0), i8** bitcast (i8* (i32)** getelementptr inbounds (%"struct.Halide::Runtime::Internal::OpenGLCompute::GlobalState", %"struct.Halide::Runtime::Internal::OpenGLCompute::GlobalState"* @_ZN6Halide7Runtime8Internal13OpenGLCompute12global_stateE, i32 0, i32 19) to i8**), i1 zeroext true) #9, !dbg !1546
  %78 = icmp slt i32 %77, 0, !dbg !1546
  br i1 %78, label %133, label %79, !dbg !1511

79:                                               ; preds = %76
  %80 = tail call i32 @_ZN6Halide7Runtime8Internal13OpenGLCompute12load_gl_funcEPvPKcPS3_b(i8* %0, i8* getelementptr inbounds ([14 x i8], [14 x i8]* @.str.48, i32 0, i32 0), i8** bitcast (void (i32)** getelementptr inbounds (%"struct.Halide::Runtime::Internal::OpenGLCompute::GlobalState", %"struct.Halide::Runtime::Internal::OpenGLCompute::GlobalState"* @_ZN6Halide7Runtime8Internal13OpenGLCompute12global_stateE, i32 0, i32 20) to i8**), i1 zeroext true) #9, !dbg !1548
  %81 = icmp slt i32 %80, 0, !dbg !1548
  br i1 %81, label %133, label %82, !dbg !1511

82:                                               ; preds = %79
  %83 = tail call i32 @_ZN6Halide7Runtime8Internal13OpenGLCompute12load_gl_funcEPvPKcPS3_b(i8* %0, i8* getelementptr inbounds ([17 x i8], [17 x i8]* @.str.49, i32 0, i32 0), i8** bitcast (i8* (i32, i32, i32, i32)** getelementptr inbounds (%"struct.Halide::Runtime::Internal::OpenGLCompute::GlobalState", %"struct.Halide::Runtime::Internal::OpenGLCompute::GlobalState"* @_ZN6Halide7Runtime8Internal13OpenGLCompute12global_stateE, i32 0, i32 21) to i8**), i1 zeroext true) #9, !dbg !1550
  %84 = icmp slt i32 %83, 0, !dbg !1550
  br i1 %84, label %133, label %85, !dbg !1511

85:                                               ; preds = %82
  %86 = tail call i32 @_ZN6Halide7Runtime8Internal13OpenGLCompute12load_gl_funcEPvPKcPS3_b(i8* %0, i8* getelementptr inbounds ([16 x i8], [16 x i8]* @.str.50, i32 0, i32 0), i8** bitcast (void (i32)** getelementptr inbounds (%"struct.Halide::Runtime::Internal::OpenGLCompute::GlobalState", %"struct.Halide::Runtime::Internal::OpenGLCompute::GlobalState"* @_ZN6Halide7Runtime8Internal13OpenGLCompute12global_stateE, i32 0, i32 22) to i8**), i1 zeroext true) #9, !dbg !1552
  %87 = icmp slt i32 %86, 0, !dbg !1552
  br i1 %87, label %133, label %88, !dbg !1511

88:                                               ; preds = %85
  %89 = tail call i32 @_ZN6Halide7Runtime8Internal13OpenGLCompute12load_gl_funcEPvPKcPS3_b(i8* %0, i8* getelementptr inbounds ([15 x i8], [15 x i8]* @.str.51, i32 0, i32 0), i8** bitcast (void (i32, i32, i8**, i32*)** getelementptr inbounds (%"struct.Halide::Runtime::Internal::OpenGLCompute::GlobalState", %"struct.Halide::Runtime::Internal::OpenGLCompute::GlobalState"* @_ZN6Halide7Runtime8Internal13OpenGLCompute12global_stateE, i32 0, i32 23) to i8**), i1 zeroext true) #9, !dbg !1554
  %90 = icmp slt i32 %89, 0, !dbg !1554
  br i1 %90, label %133, label %91, !dbg !1511

91:                                               ; preds = %88
  %92 = tail call i32 @_ZN6Halide7Runtime8Internal13OpenGLCompute12load_gl_funcEPvPKcPS3_b(i8* %0, i8* getelementptr inbounds ([12 x i8], [12 x i8]* @.str.52, i32 0, i32 0), i8** bitcast (void (i32, i32)** getelementptr inbounds (%"struct.Halide::Runtime::Internal::OpenGLCompute::GlobalState", %"struct.Halide::Runtime::Internal::OpenGLCompute::GlobalState"* @_ZN6Halide7Runtime8Internal13OpenGLCompute12global_stateE, i32 0, i32 24) to i8**), i1 zeroext true) #9, !dbg !1556
  %93 = icmp slt i32 %92, 0, !dbg !1556
  br i1 %93, label %133, label %94, !dbg !1511

94:                                               ; preds = %91
  %95 = tail call i32 @_ZN6Halide7Runtime8Internal13OpenGLCompute12load_gl_funcEPvPKcPS3_b(i8* %0, i8* getelementptr inbounds ([13 x i8], [13 x i8]* @.str.53, i32 0, i32 0), i8** bitcast (void (i32, i32)** getelementptr inbounds (%"struct.Halide::Runtime::Internal::OpenGLCompute::GlobalState", %"struct.Halide::Runtime::Internal::OpenGLCompute::GlobalState"* @_ZN6Halide7Runtime8Internal13OpenGLCompute12global_stateE, i32 0, i32 25) to i8**), i1 zeroext true) #9, !dbg !1558
  %96 = icmp slt i32 %95, 0, !dbg !1558
  br i1 %96, label %133, label %97, !dbg !1511

97:                                               ; preds = %94
  %98 = tail call i32 @_ZN6Halide7Runtime8Internal13OpenGLCompute12load_gl_funcEPvPKcPS3_b(i8* %0, i8* getelementptr inbounds ([12 x i8], [12 x i8]* @.str.54, i32 0, i32 0), i8** bitcast (void (i32, float)** getelementptr inbounds (%"struct.Halide::Runtime::Internal::OpenGLCompute::GlobalState", %"struct.Halide::Runtime::Internal::OpenGLCompute::GlobalState"* @_ZN6Halide7Runtime8Internal13OpenGLCompute12global_stateE, i32 0, i32 26) to i8**), i1 zeroext true) #9, !dbg !1560
  %99 = icmp slt i32 %98, 0, !dbg !1560
  br i1 %99, label %133, label %100, !dbg !1511

100:                                              ; preds = %97
  %101 = tail call i32 @_ZN6Halide7Runtime8Internal13OpenGLCompute12load_gl_funcEPvPKcPS3_b(i8* %0, i8* getelementptr inbounds ([14 x i8], [14 x i8]* @.str.55, i32 0, i32 0), i8** bitcast (void (i32)** getelementptr inbounds (%"struct.Halide::Runtime::Internal::OpenGLCompute::GlobalState", %"struct.Halide::Runtime::Internal::OpenGLCompute::GlobalState"* @_ZN6Halide7Runtime8Internal13OpenGLCompute12global_stateE, i32 0, i32 27) to i8**), i1 zeroext true) #9, !dbg !1562
  %102 = icmp slt i32 %101, 0, !dbg !1562
  br i1 %102, label %133, label %103, !dbg !1511

103:                                              ; preds = %100
  %104 = tail call i32 @_ZN6Halide7Runtime8Internal13OpenGLCompute12load_gl_funcEPvPKcPS3_b(i8* %0, i8* getelementptr inbounds ([13 x i8], [13 x i8]* @.str.56, i32 0, i32 0), i8** bitcast (void (i32)** getelementptr inbounds (%"struct.Halide::Runtime::Internal::OpenGLCompute::GlobalState", %"struct.Halide::Runtime::Internal::OpenGLCompute::GlobalState"* @_ZN6Halide7Runtime8Internal13OpenGLCompute12global_stateE, i32 0, i32 28) to i8**), i1 zeroext true) #9, !dbg !1564
  %105 = icmp slt i32 %104, 0, !dbg !1564
  br i1 %105, label %133, label %106, !dbg !1511

106:                                              ; preds = %103
  %107 = tail call i32 @_ZN6Halide7Runtime8Internal13OpenGLCompute12load_gl_funcEPvPKcPS3_b(i8* %0, i8* getelementptr inbounds ([19 x i8], [19 x i8]* @.str.57, i32 0, i32 0), i8** bitcast (void (i32, i32, i32, i32*, i32*, i32*, i8*)** getelementptr inbounds (%"struct.Halide::Runtime::Internal::OpenGLCompute::GlobalState", %"struct.Halide::Runtime::Internal::OpenGLCompute::GlobalState"* @_ZN6Halide7Runtime8Internal13OpenGLCompute12global_stateE, i32 0, i32 29) to i8**), i1 zeroext true) #9, !dbg !1566
  %108 = icmp slt i32 %107, 0, !dbg !1566
  br i1 %108, label %133, label %109, !dbg !1511

109:                                              ; preds = %106
  %110 = tail call i32 @_ZN6Halide7Runtime8Internal13OpenGLCompute12load_gl_funcEPvPKcPS3_b(i8* %0, i8* getelementptr inbounds ([21 x i8], [21 x i8]* @.str.58, i32 0, i32 0), i8** bitcast (i32 (i32, i8*)** getelementptr inbounds (%"struct.Halide::Runtime::Internal::OpenGLCompute::GlobalState", %"struct.Halide::Runtime::Internal::OpenGLCompute::GlobalState"* @_ZN6Halide7Runtime8Internal13OpenGLCompute12global_stateE, i32 0, i32 30) to i8**), i1 zeroext true) #9, !dbg !1568
  %111 = icmp slt i32 %110, 0, !dbg !1568
  br i1 %111, label %133, label %112, !dbg !1511

112:                                              ; preds = %109
  call void @llvm.dbg.value(metadata %"class.Halide::Runtime::Internal::(anonymous namespace)::Printer"* undef, metadata !673, metadata !DIExpression()) #10, !dbg !1570
  call void @llvm.dbg.value(metadata i8* %0, metadata !676, metadata !DIExpression()) #10, !dbg !1570
  call void @llvm.dbg.value(metadata i8* null, metadata !677, metadata !DIExpression()) #10, !dbg !1570
  %113 = tail call i8* @malloc(i32 1024) #8, !dbg !1572
  %114 = icmp eq i8* %113, null, !dbg !1573
  br i1 %114, label %117, label %115, !dbg !1574

115:                                              ; preds = %112
  %116 = getelementptr inbounds i8, i8* %113, i32 1023, !dbg !1575
  store i8 0, i8* %116, align 1, !dbg !1576, !tbaa !712
  br label %117, !dbg !1577

117:                                              ; preds = %112, %115
  %118 = phi i8* [ %116, %115 ], [ null, %112 ], !dbg !1578
  call void @llvm.dbg.value(metadata %"class.Halide::Runtime::Internal::(anonymous namespace)::Printer"* undef, metadata !690, metadata !DIExpression()) #10, !dbg !1579
  call void @llvm.dbg.value(metadata i8* getelementptr inbounds ([19 x i8], [19 x i8]* @.str.59, i32 0, i32 0), metadata !693, metadata !DIExpression()) #10, !dbg !1579
  %119 = tail call i8* @halide_string_to_string(i8* %113, i8* %118, i8* nonnull getelementptr inbounds ([19 x i8], [19 x i8]* @.str.59, i32 0, i32 0)) #8, !dbg !1581
  %120 = load i8* (i32)*, i8* (i32)** getelementptr inbounds (%"struct.Halide::Runtime::Internal::OpenGLCompute::GlobalState", %"struct.Halide::Runtime::Internal::OpenGLCompute::GlobalState"* @_ZN6Halide7Runtime8Internal13OpenGLCompute12global_stateE, i32 0, i32 19), align 4, !dbg !1582, !tbaa !1405
  %121 = tail call i8* %120(i32 7938) #8, !dbg !1583
  call void @llvm.dbg.value(metadata %"class.Halide::Runtime::Internal::(anonymous namespace)::Printer"* undef, metadata !1169, metadata !DIExpression()) #10, !dbg !1584
  call void @llvm.dbg.value(metadata i8* %121, metadata !1172, metadata !DIExpression()) #10, !dbg !1584
  %122 = tail call i8* @halide_pointer_to_string(i8* %119, i8* %118, i8* %121) #8, !dbg !1586
  call void @llvm.dbg.value(metadata %"class.Halide::Runtime::Internal::(anonymous namespace)::Printer"* undef, metadata !690, metadata !DIExpression()) #10, !dbg !1587
  call void @llvm.dbg.value(metadata i8* getelementptr inbounds ([2 x i8], [2 x i8]* @.str.17, i32 0, i32 0), metadata !693, metadata !DIExpression()) #10, !dbg !1587
  %123 = tail call i8* @halide_string_to_string(i8* %122, i8* %118, i8* nonnull getelementptr inbounds ([2 x i8], [2 x i8]* @.str.17, i32 0, i32 0)) #8, !dbg !1589
  call void @llvm.dbg.value(metadata %"class.Halide::Runtime::Internal::(anonymous namespace)::Printer"* undef, metadata !699, metadata !DIExpression()) #10, !dbg !1590
  br i1 %114, label %124, label %125, !dbg !1592

124:                                              ; preds = %117
  tail call void @halide_error(i8* %0, i8* getelementptr inbounds ([35 x i8], [35 x i8]* @.str.147, i32 0, i32 0)) #8, !dbg !1593
  br label %132, !dbg !1594

125:                                              ; preds = %117
  call void @llvm.dbg.value(metadata %"class.Halide::Runtime::Internal::(anonymous namespace)::Printer"* undef, metadata !713, metadata !DIExpression()) #10, !dbg !1595
  %126 = ptrtoint i8* %123 to i32, !dbg !1597
  %127 = ptrtoint i8* %113 to i32, !dbg !1597
  %128 = add i32 %126, 1, !dbg !1597
  %129 = sub i32 %128, %127, !dbg !1598
  %130 = sext i32 %129 to i64, !dbg !1599
  %131 = tail call i32 @halide_msan_annotate_memory_is_initialized(i8* %0, i8* nonnull %113, i64 %130) #8, !dbg !1600
  tail call void @halide_print(i8* %0, i8* nonnull %113) #8, !dbg !1601
  br label %132

132:                                              ; preds = %125, %124
  tail call void @free(i8* %113) #8, !dbg !1602
  store i8 1, i8* getelementptr inbounds (%"struct.Halide::Runtime::Internal::OpenGLCompute::GlobalState", %"struct.Halide::Runtime::Internal::OpenGLCompute::GlobalState"* @_ZN6Halide7Runtime8Internal13OpenGLCompute12global_stateE, i32 0, i32 0), align 4, !dbg !1603, !tbaa !1386
  br label %133, !dbg !1604

133:                                              ; preds = %109, %106, %103, %100, %97, %94, %91, %88, %85, %82, %79, %76, %73, %70, %67, %64, %61, %58, %55, %52, %49, %46, %43, %40, %37, %34, %31, %28, %25, %22, %1, %132, %21
  %134 = phi i32 [ -1, %21 ], [ 0, %132 ], [ 0, %1 ], [ -1, %22 ], [ -1, %25 ], [ -1, %28 ], [ -1, %31 ], [ -1, %34 ], [ -1, %37 ], [ -1, %40 ], [ -1, %43 ], [ -1, %46 ], [ -1, %49 ], [ -1, %52 ], [ -1, %55 ], [ -1, %58 ], [ -1, %61 ], [ -1, %64 ], [ -1, %67 ], [ -1, %70 ], [ -1, %73 ], [ -1, %76 ], [ -1, %79 ], [ -1, %82 ], [ -1, %85 ], [ -1, %88 ], [ -1, %91 ], [ -1, %94 ], [ -1, %97 ], [ -1, %100 ], [ -1, %103 ], [ -1, %106 ], [ -1, %109 ], !dbg !1477
  ret i32 %134, !dbg !1605
}

declare !dbg !1606 dso_local i32 @halide_opengl_create_context(i8*) local_unnamed_addr #3

; Function Attrs: nounwind
define weak dso_local i32 @_ZN6Halide7Runtime8Internal13OpenGLCompute35halide_openglcompute_device_releaseEPv(i8* %0) #4 !dbg !1607 {
  %2 = alloca %"struct.Halide::Runtime::Internal::OpenGLCompute::GlobalState", align 4
  call void @llvm.dbg.value(metadata i8* %0, metadata !1609, metadata !DIExpression()), !dbg !1618
  %3 = tail call i64 @halide_current_time_ns(i8* %0) #8, !dbg !1619
  call void @llvm.dbg.value(metadata i64 %3, metadata !1610, metadata !DIExpression()), !dbg !1618
  call void @llvm.dbg.value(metadata %"class.Halide::Runtime::Internal::(anonymous namespace)::Printer"* undef, metadata !673, metadata !DIExpression()) #10, !dbg !1620
  call void @llvm.dbg.value(metadata i8* %0, metadata !676, metadata !DIExpression()) #10, !dbg !1620
  call void @llvm.dbg.value(metadata i8* null, metadata !677, metadata !DIExpression()) #10, !dbg !1620
  %4 = tail call i8* @malloc(i32 1024) #8, !dbg !1622
  %5 = icmp eq i8* %4, null, !dbg !1623
  br i1 %5, label %8, label %6, !dbg !1624

6:                                                ; preds = %1
  %7 = getelementptr inbounds i8, i8* %4, i32 1023, !dbg !1625
  store i8 0, i8* %7, align 1, !dbg !1626, !tbaa !712
  br label %8, !dbg !1627

8:                                                ; preds = %1, %6
  %9 = phi i8* [ %7, %6 ], [ null, %1 ], !dbg !1628
  call void @llvm.dbg.value(metadata %"class.Halide::Runtime::Internal::(anonymous namespace)::Printer"* undef, metadata !690, metadata !DIExpression()) #10, !dbg !1629
  call void @llvm.dbg.value(metadata i8* getelementptr inbounds ([66 x i8], [66 x i8]* @.str.60, i32 0, i32 0), metadata !693, metadata !DIExpression()) #10, !dbg !1629
  %10 = tail call i8* @halide_string_to_string(i8* %4, i8* %9, i8* nonnull getelementptr inbounds ([66 x i8], [66 x i8]* @.str.60, i32 0, i32 0)) #8, !dbg !1631
  call void @llvm.dbg.value(metadata %"class.Halide::Runtime::Internal::(anonymous namespace)::Printer"* undef, metadata !1169, metadata !DIExpression()) #10, !dbg !1632
  call void @llvm.dbg.value(metadata i8* %0, metadata !1172, metadata !DIExpression()) #10, !dbg !1632
  %11 = tail call i8* @halide_pointer_to_string(i8* %10, i8* %9, i8* %0) #8, !dbg !1634
  call void @llvm.dbg.value(metadata %"class.Halide::Runtime::Internal::(anonymous namespace)::Printer"* undef, metadata !690, metadata !DIExpression()) #10, !dbg !1635
  call void @llvm.dbg.value(metadata i8* getelementptr inbounds ([3 x i8], [3 x i8]* @.str.61, i32 0, i32 0), metadata !693, metadata !DIExpression()) #10, !dbg !1635
  %12 = tail call i8* @halide_string_to_string(i8* %11, i8* %9, i8* nonnull getelementptr inbounds ([3 x i8], [3 x i8]* @.str.61, i32 0, i32 0)) #8, !dbg !1637
  call void @llvm.dbg.value(metadata %"class.Halide::Runtime::Internal::(anonymous namespace)::Printer"* undef, metadata !699, metadata !DIExpression()) #10, !dbg !1638
  br i1 %5, label %13, label %14, !dbg !1640

13:                                               ; preds = %8
  tail call void @halide_error(i8* %0, i8* getelementptr inbounds ([35 x i8], [35 x i8]* @.str.147, i32 0, i32 0)) #8, !dbg !1641
  br label %21, !dbg !1642

14:                                               ; preds = %8
  call void @llvm.dbg.value(metadata %"class.Halide::Runtime::Internal::(anonymous namespace)::Printer"* undef, metadata !713, metadata !DIExpression()) #10, !dbg !1643
  %15 = ptrtoint i8* %12 to i32, !dbg !1645
  %16 = ptrtoint i8* %4 to i32, !dbg !1645
  %17 = add i32 %15, 1, !dbg !1645
  %18 = sub i32 %17, %16, !dbg !1646
  %19 = sext i32 %18 to i64, !dbg !1647
  %20 = tail call i32 @halide_msan_annotate_memory_is_initialized(i8* %0, i8* nonnull %4, i64 %19) #8, !dbg !1648
  tail call void @halide_print(i8* %0, i8* nonnull %4) #8, !dbg !1649
  br label %21

21:                                               ; preds = %14, %13
  tail call void @free(i8* %4) #8, !dbg !1650
  call void @llvm.dbg.value(metadata %"struct.Halide::Runtime::Internal::OpenGLCompute::ModuleState"* undef, metadata !1611, metadata !DIExpression()), !dbg !1618
  %22 = load %"struct.Halide::Runtime::Internal::OpenGLCompute::ModuleState"*, %"struct.Halide::Runtime::Internal::OpenGLCompute::ModuleState"** @_ZN6Halide7Runtime8Internal13OpenGLCompute10state_listE, align 4, !dbg !1618, !tbaa !977
  call void @llvm.dbg.value(metadata %"struct.Halide::Runtime::Internal::OpenGLCompute::ModuleState"* %22, metadata !1611, metadata !DIExpression()), !dbg !1618
  %23 = icmp eq %"struct.Halide::Runtime::Internal::OpenGLCompute::ModuleState"* %22, null, !dbg !1651
  br i1 %23, label %44, label %24, !dbg !1652

24:                                               ; preds = %21, %40
  %25 = phi %"struct.Halide::Runtime::Internal::OpenGLCompute::ModuleState"* [ %42, %40 ], [ %22, %21 ]
  %26 = getelementptr inbounds %"struct.Halide::Runtime::Internal::OpenGLCompute::ModuleState", %"struct.Halide::Runtime::Internal::OpenGLCompute::ModuleState"* %25, i32 0, i32 0, !dbg !1653
  %27 = load %"struct.Halide::Runtime::Internal::OpenGLCompute::KernelInfo"*, %"struct.Halide::Runtime::Internal::OpenGLCompute::KernelInfo"** %26, align 4, !dbg !1653, !tbaa !1654
  call void @llvm.dbg.value(metadata %"struct.Halide::Runtime::Internal::OpenGLCompute::KernelInfo"* %27, metadata !1612, metadata !DIExpression()), !dbg !1656
  %28 = icmp eq %"struct.Halide::Runtime::Internal::OpenGLCompute::KernelInfo"* %27, null, !dbg !1657
  br i1 %28, label %40, label %29, !dbg !1658

29:                                               ; preds = %24, %29
  %30 = phi %"struct.Halide::Runtime::Internal::OpenGLCompute::KernelInfo"* [ %32, %29 ], [ %27, %24 ]
  call void @llvm.dbg.value(metadata %"struct.Halide::Runtime::Internal::OpenGLCompute::KernelInfo"* %30, metadata !1612, metadata !DIExpression()), !dbg !1656
  %31 = getelementptr inbounds %"struct.Halide::Runtime::Internal::OpenGLCompute::KernelInfo", %"struct.Halide::Runtime::Internal::OpenGLCompute::KernelInfo"* %30, i32 0, i32 2, !dbg !1659
  %32 = load %"struct.Halide::Runtime::Internal::OpenGLCompute::KernelInfo"*, %"struct.Halide::Runtime::Internal::OpenGLCompute::KernelInfo"** %31, align 4, !dbg !1659, !tbaa !1660
  call void @llvm.dbg.value(metadata %"struct.Halide::Runtime::Internal::OpenGLCompute::KernelInfo"* %32, metadata !1614, metadata !DIExpression()), !dbg !1661
  %33 = load void (i32)*, void (i32)** getelementptr inbounds (%"struct.Halide::Runtime::Internal::OpenGLCompute::GlobalState", %"struct.Halide::Runtime::Internal::OpenGLCompute::GlobalState"* @_ZN6Halide7Runtime8Internal13OpenGLCompute12global_stateE, i32 0, i32 9), align 4, !dbg !1662, !tbaa !1396
  %34 = getelementptr inbounds %"struct.Halide::Runtime::Internal::OpenGLCompute::KernelInfo", %"struct.Halide::Runtime::Internal::OpenGLCompute::KernelInfo"* %30, i32 0, i32 1, !dbg !1663
  %35 = load i32, i32* %34, align 4, !dbg !1663, !tbaa !1664
  tail call void %33(i32 %35) #8, !dbg !1665
  %36 = getelementptr inbounds %"struct.Halide::Runtime::Internal::OpenGLCompute::KernelInfo", %"struct.Halide::Runtime::Internal::OpenGLCompute::KernelInfo"* %30, i32 0, i32 0, !dbg !1666
  %37 = load i8*, i8** %36, align 4, !dbg !1666, !tbaa !981
  tail call void @free(i8* %37) #8, !dbg !1667
  %38 = bitcast %"struct.Halide::Runtime::Internal::OpenGLCompute::KernelInfo"* %30 to i8*, !dbg !1668
  tail call void @free(i8* nonnull %38) #8, !dbg !1669
  call void @llvm.dbg.value(metadata %"struct.Halide::Runtime::Internal::OpenGLCompute::KernelInfo"* %32, metadata !1612, metadata !DIExpression()), !dbg !1656
  %39 = icmp eq %"struct.Halide::Runtime::Internal::OpenGLCompute::KernelInfo"* %32, null, !dbg !1657
  br i1 %39, label %40, label %29, !dbg !1658, !llvm.loop !1670

40:                                               ; preds = %29, %24
  store %"struct.Halide::Runtime::Internal::OpenGLCompute::KernelInfo"* null, %"struct.Halide::Runtime::Internal::OpenGLCompute::KernelInfo"** %26, align 4, !dbg !1672, !tbaa !1654
  %41 = getelementptr inbounds %"struct.Halide::Runtime::Internal::OpenGLCompute::ModuleState", %"struct.Halide::Runtime::Internal::OpenGLCompute::ModuleState"* %25, i32 0, i32 1, !dbg !1673
  call void @llvm.dbg.value(metadata %"struct.Halide::Runtime::Internal::OpenGLCompute::ModuleState"* undef, metadata !1616, metadata !DIExpression()), !dbg !1656
  call void @llvm.dbg.value(metadata %"struct.Halide::Runtime::Internal::OpenGLCompute::ModuleState"* undef, metadata !1611, metadata !DIExpression()), !dbg !1618
  %42 = load %"struct.Halide::Runtime::Internal::OpenGLCompute::ModuleState"*, %"struct.Halide::Runtime::Internal::OpenGLCompute::ModuleState"** %41, align 4, !dbg !1618, !tbaa !977
  call void @llvm.dbg.value(metadata %"struct.Halide::Runtime::Internal::OpenGLCompute::ModuleState"* %42, metadata !1611, metadata !DIExpression()), !dbg !1618
  %43 = icmp eq %"struct.Halide::Runtime::Internal::OpenGLCompute::ModuleState"* %42, null, !dbg !1651
  br i1 %43, label %44, label %24, !dbg !1652, !llvm.loop !1674

44:                                               ; preds = %40, %21
  %45 = getelementptr inbounds %"struct.Halide::Runtime::Internal::OpenGLCompute::GlobalState", %"struct.Halide::Runtime::Internal::OpenGLCompute::GlobalState"* %2, i32 0, i32 0, !dbg !1676
  call void @llvm.lifetime.start.p0i8(i64 124, i8* nonnull %45), !dbg !1676
  call void @llvm.memset.p0i8.i32(i8* nonnull align 4 dereferenceable(124) %45, i8 0, i32 124, i1 false), !dbg !1676
  call void @llvm.memcpy.p0i8.p0i8.i32(i8* nonnull align 4 dereferenceable(124) getelementptr inbounds (%"struct.Halide::Runtime::Internal::OpenGLCompute::GlobalState", %"struct.Halide::Runtime::Internal::OpenGLCompute::GlobalState"* @_ZN6Halide7Runtime8Internal13OpenGLCompute12global_stateE, i32 0, i32 0), i8* nonnull align 4 dereferenceable(124) %45, i32 124, i1 false), !dbg !1677, !tbaa.struct !1678
  call void @llvm.lifetime.end.p0i8(i64 124, i8* nonnull %45), !dbg !1680
  %46 = tail call i64 @halide_current_time_ns(i8* %0) #8, !dbg !1681
  call void @llvm.dbg.value(metadata i64 %46, metadata !1617, metadata !DIExpression()), !dbg !1618
  call void @llvm.dbg.value(metadata %"class.Halide::Runtime::Internal::(anonymous namespace)::Printer"* undef, metadata !673, metadata !DIExpression()) #10, !dbg !1682
  call void @llvm.dbg.value(metadata i8* %0, metadata !676, metadata !DIExpression()) #10, !dbg !1682
  call void @llvm.dbg.value(metadata i8* null, metadata !677, metadata !DIExpression()) #10, !dbg !1682
  %47 = tail call i8* @malloc(i32 1024) #8, !dbg !1684
  %48 = icmp eq i8* %47, null, !dbg !1685
  br i1 %48, label %51, label %49, !dbg !1686

49:                                               ; preds = %44
  %50 = getelementptr inbounds i8, i8* %47, i32 1023, !dbg !1687
  store i8 0, i8* %50, align 1, !dbg !1688, !tbaa !712
  br label %51, !dbg !1689

51:                                               ; preds = %44, %49
  %52 = phi i8* [ %50, %49 ], [ null, %44 ], !dbg !1690
  call void @llvm.dbg.value(metadata %"class.Halide::Runtime::Internal::(anonymous namespace)::Printer"* undef, metadata !690, metadata !DIExpression()) #10, !dbg !1691
  call void @llvm.dbg.value(metadata i8* getelementptr inbounds ([11 x i8], [11 x i8]* @.str.62, i32 0, i32 0), metadata !693, metadata !DIExpression()) #10, !dbg !1691
  %53 = tail call i8* @halide_string_to_string(i8* %47, i8* %52, i8* nonnull getelementptr inbounds ([11 x i8], [11 x i8]* @.str.62, i32 0, i32 0)) #8, !dbg !1693
  %54 = sub i64 %46, %3, !dbg !1694
  %55 = uitofp i64 %54 to double, !dbg !1695
  %56 = fdiv double %55, 1.000000e+06, !dbg !1696
  call void @llvm.dbg.value(metadata %"class.Halide::Runtime::Internal::(anonymous namespace)::Printer"* undef, metadata !1697, metadata !DIExpression()) #10, !dbg !1701
  call void @llvm.dbg.value(metadata double %56, metadata !1700, metadata !DIExpression()) #10, !dbg !1701
  %57 = tail call i8* @halide_double_to_string(i8* %53, i8* %52, double %56, i32 1) #8, !dbg !1703
  call void @llvm.dbg.value(metadata %"class.Halide::Runtime::Internal::(anonymous namespace)::Printer"* undef, metadata !690, metadata !DIExpression()) #10, !dbg !1704
  call void @llvm.dbg.value(metadata i8* getelementptr inbounds ([5 x i8], [5 x i8]* @.str.63, i32 0, i32 0), metadata !693, metadata !DIExpression()) #10, !dbg !1704
  %58 = tail call i8* @halide_string_to_string(i8* %57, i8* %52, i8* nonnull getelementptr inbounds ([5 x i8], [5 x i8]* @.str.63, i32 0, i32 0)) #8, !dbg !1706
  call void @llvm.dbg.value(metadata %"class.Halide::Runtime::Internal::(anonymous namespace)::Printer"* undef, metadata !699, metadata !DIExpression()) #10, !dbg !1707
  br i1 %48, label %59, label %60, !dbg !1709

59:                                               ; preds = %51
  tail call void @halide_error(i8* %0, i8* getelementptr inbounds ([35 x i8], [35 x i8]* @.str.147, i32 0, i32 0)) #8, !dbg !1710
  br label %67, !dbg !1711

60:                                               ; preds = %51
  call void @llvm.dbg.value(metadata %"class.Halide::Runtime::Internal::(anonymous namespace)::Printer"* undef, metadata !713, metadata !DIExpression()) #10, !dbg !1712
  %61 = ptrtoint i8* %58 to i32, !dbg !1714
  %62 = ptrtoint i8* %47 to i32, !dbg !1714
  %63 = add i32 %61, 1, !dbg !1714
  %64 = sub i32 %63, %62, !dbg !1715
  %65 = sext i32 %64 to i64, !dbg !1716
  %66 = tail call i32 @halide_msan_annotate_memory_is_initialized(i8* %0, i8* nonnull %47, i64 %65) #8, !dbg !1717
  tail call void @halide_print(i8* %0, i8* nonnull %47) #8, !dbg !1718
  br label %67

67:                                               ; preds = %60, %59
  tail call void @free(i8* %47) #8, !dbg !1719
  ret i32 0, !dbg !1720
}

declare !dbg !1721 extern_weak dso_local i64 @halide_current_time_ns(i8*) local_unnamed_addr #3

declare !dbg !1724 dso_local void @free(i8*) local_unnamed_addr #3

; Function Attrs: nounwind
define weak dso_local i32 @_ZN6Halide7Runtime8Internal13OpenGLCompute34halide_openglcompute_device_mallocEPvP15halide_buffer_t(i8* %0, %struct.halide_buffer_t* %1) #4 !dbg !1727 {
  %3 = alloca %"class.Halide::Runtime::Internal::(anonymous namespace)::Printer", align 4
  %4 = alloca i32, align 4
  call void @llvm.dbg.value(metadata i8* %0, metadata !1731, metadata !DIExpression()), !dbg !1743
  call void @llvm.dbg.value(metadata %struct.halide_buffer_t* %1, metadata !1732, metadata !DIExpression()), !dbg !1743
  %5 = tail call i64 @halide_current_time_ns(i8* %0) #8, !dbg !1744
  call void @llvm.dbg.value(metadata i64 %5, metadata !1733, metadata !DIExpression()), !dbg !1743
  call void @llvm.dbg.value(metadata %"class.Halide::Runtime::Internal::(anonymous namespace)::Printer"* undef, metadata !673, metadata !DIExpression()) #10, !dbg !1745
  call void @llvm.dbg.value(metadata i8* %0, metadata !676, metadata !DIExpression()) #10, !dbg !1745
  call void @llvm.dbg.value(metadata i8* null, metadata !677, metadata !DIExpression()) #10, !dbg !1745
  %6 = tail call i8* @malloc(i32 1024) #8, !dbg !1747
  %7 = icmp eq i8* %6, null, !dbg !1748
  br i1 %7, label %10, label %8, !dbg !1749

8:                                                ; preds = %2
  %9 = getelementptr inbounds i8, i8* %6, i32 1023, !dbg !1750
  store i8 0, i8* %9, align 1, !dbg !1751, !tbaa !712
  br label %10, !dbg !1752

10:                                               ; preds = %2, %8
  %11 = phi i8* [ %9, %8 ], [ null, %2 ], !dbg !1753
  call void @llvm.dbg.value(metadata %"class.Halide::Runtime::Internal::(anonymous namespace)::Printer"* undef, metadata !690, metadata !DIExpression()) #10, !dbg !1754
  call void @llvm.dbg.value(metadata i8* getelementptr inbounds ([66 x i8], [66 x i8]* @.str.64, i32 0, i32 0), metadata !693, metadata !DIExpression()) #10, !dbg !1754
  %12 = tail call i8* @halide_string_to_string(i8* %6, i8* %11, i8* nonnull getelementptr inbounds ([66 x i8], [66 x i8]* @.str.64, i32 0, i32 0)) #8, !dbg !1756
  call void @llvm.dbg.value(metadata %"class.Halide::Runtime::Internal::(anonymous namespace)::Printer"* undef, metadata !1169, metadata !DIExpression()) #10, !dbg !1757
  call void @llvm.dbg.value(metadata i8* %0, metadata !1172, metadata !DIExpression()) #10, !dbg !1757
  %13 = tail call i8* @halide_pointer_to_string(i8* %12, i8* %11, i8* %0) #8, !dbg !1759
  call void @llvm.dbg.value(metadata %"class.Halide::Runtime::Internal::(anonymous namespace)::Printer"* undef, metadata !690, metadata !DIExpression()) #10, !dbg !1760
  call void @llvm.dbg.value(metadata i8* getelementptr inbounds ([8 x i8], [8 x i8]* @.str.65, i32 0, i32 0), metadata !693, metadata !DIExpression()) #10, !dbg !1760
  %14 = tail call i8* @halide_string_to_string(i8* %13, i8* %11, i8* nonnull getelementptr inbounds ([8 x i8], [8 x i8]* @.str.65, i32 0, i32 0)) #8, !dbg !1762
  %15 = bitcast %struct.halide_buffer_t* %1 to i8*, !dbg !1763
  call void @llvm.dbg.value(metadata %"class.Halide::Runtime::Internal::(anonymous namespace)::Printer"* undef, metadata !1169, metadata !DIExpression()) #10, !dbg !1764
  call void @llvm.dbg.value(metadata i8* %15, metadata !1172, metadata !DIExpression()) #10, !dbg !1764
  %16 = tail call i8* @halide_pointer_to_string(i8* %14, i8* %11, i8* %15) #8, !dbg !1766
  call void @llvm.dbg.value(metadata %"class.Halide::Runtime::Internal::(anonymous namespace)::Printer"* undef, metadata !690, metadata !DIExpression()) #10, !dbg !1767
  call void @llvm.dbg.value(metadata i8* getelementptr inbounds ([3 x i8], [3 x i8]* @.str.61, i32 0, i32 0), metadata !693, metadata !DIExpression()) #10, !dbg !1767
  %17 = tail call i8* @halide_string_to_string(i8* %16, i8* %11, i8* nonnull getelementptr inbounds ([3 x i8], [3 x i8]* @.str.61, i32 0, i32 0)) #8, !dbg !1769
  call void @llvm.dbg.value(metadata %"class.Halide::Runtime::Internal::(anonymous namespace)::Printer"* undef, metadata !699, metadata !DIExpression()) #10, !dbg !1770
  br i1 %7, label %18, label %19, !dbg !1772

18:                                               ; preds = %10
  tail call void @halide_error(i8* %0, i8* getelementptr inbounds ([35 x i8], [35 x i8]* @.str.147, i32 0, i32 0)) #8, !dbg !1773
  br label %26, !dbg !1774

19:                                               ; preds = %10
  call void @llvm.dbg.value(metadata %"class.Halide::Runtime::Internal::(anonymous namespace)::Printer"* undef, metadata !713, metadata !DIExpression()) #10, !dbg !1775
  %20 = ptrtoint i8* %17 to i32, !dbg !1777
  %21 = ptrtoint i8* %6 to i32, !dbg !1777
  %22 = add i32 %20, 1, !dbg !1777
  %23 = sub i32 %22, %21, !dbg !1778
  %24 = sext i32 %23 to i64, !dbg !1779
  %25 = tail call i32 @halide_msan_annotate_memory_is_initialized(i8* %0, i8* nonnull %6, i64 %24) #8, !dbg !1780
  tail call void @halide_print(i8* %0, i8* nonnull %6) #8, !dbg !1781
  br label %26

26:                                               ; preds = %18, %19
  call void @free(i8* %6) #8, !dbg !1782
  %27 = call i32 @_ZN6Halide7Runtime8Internal13OpenGLCompute25halide_openglcompute_initEPv(i8* %0) #9, !dbg !1783
  call void @llvm.dbg.value(metadata i32 %27, metadata !1734, metadata !DIExpression()), !dbg !1784
  %28 = icmp eq i32 %27, 0, !dbg !1785
  br i1 %28, label %29, label %325

29:                                               ; preds = %26
  call void @llvm.dbg.value(metadata %struct.halide_buffer_t* %1, metadata !1786, metadata !DIExpression()), !dbg !1789
  call void @llvm.dbg.value(metadata %struct.halide_buffer_t* %1, metadata !1791, metadata !DIExpression()), !dbg !1797
  call void @llvm.dbg.value(metadata i32 0, metadata !1794, metadata !DIExpression()), !dbg !1797
  call void @llvm.dbg.value(metadata i32 0, metadata !1795, metadata !DIExpression()), !dbg !1799
  %30 = getelementptr inbounds %struct.halide_buffer_t, %struct.halide_buffer_t* %1, i32 0, i32 5, !dbg !1800
  %31 = load i32, i32* %30, align 4, !dbg !1800, !tbaa !812
  %32 = icmp sgt i32 %31, 0, !dbg !1802
  br i1 %32, label %36, label %33, !dbg !1803

33:                                               ; preds = %29
  call void @llvm.dbg.value(metadata %struct.halide_buffer_t* %1, metadata !786, metadata !DIExpression(DW_OP_plus_uconst, 24, DW_OP_stack_value)), !dbg !1804
  %34 = getelementptr inbounds %struct.halide_buffer_t, %struct.halide_buffer_t* %1, i32 0, i32 4, i32 1, !dbg !1806
  %35 = load i8, i8* %34, align 1, !dbg !1806, !tbaa !793
  call void @llvm.dbg.value(metadata %struct.halide_buffer_t* %1, metadata !1807, metadata !DIExpression()), !dbg !1813
  call void @llvm.dbg.value(metadata i32 0, metadata !1810, metadata !DIExpression()), !dbg !1813
  call void @llvm.dbg.value(metadata i32 0, metadata !1811, metadata !DIExpression()), !dbg !1815
  br label %74, !dbg !1816

36:                                               ; preds = %29
  %37 = getelementptr inbounds %struct.halide_buffer_t, %struct.halide_buffer_t* %1, i32 0, i32 6
  %38 = load %struct.halide_dimension_t*, %struct.halide_dimension_t** %37, align 8, !tbaa !815
  br label %39, !dbg !1803

39:                                               ; preds = %51, %36
  %40 = phi i32 [ 0, %36 ], [ %53, %51 ]
  %41 = phi i32 [ 0, %36 ], [ %52, %51 ]
  call void @llvm.dbg.value(metadata i32 %40, metadata !1795, metadata !DIExpression()), !dbg !1799
  call void @llvm.dbg.value(metadata i32 %41, metadata !1794, metadata !DIExpression()), !dbg !1797
  %42 = getelementptr inbounds %struct.halide_dimension_t, %struct.halide_dimension_t* %38, i32 %40, i32 2, !dbg !1817
  %43 = load i32, i32* %42, align 4, !dbg !1817, !tbaa !823
  %44 = icmp sgt i32 %43, 0, !dbg !1820
  br i1 %44, label %45, label %51, !dbg !1821

45:                                               ; preds = %39
  %46 = getelementptr inbounds %struct.halide_dimension_t, %struct.halide_dimension_t* %38, i32 %40, i32 1, !dbg !1822
  %47 = load i32, i32* %46, align 4, !dbg !1822, !tbaa !887
  %48 = add nsw i32 %47, -1, !dbg !1824
  %49 = mul nsw i32 %48, %43, !dbg !1825
  %50 = add nsw i32 %49, %41, !dbg !1826
  call void @llvm.dbg.value(metadata i32 %50, metadata !1794, metadata !DIExpression()), !dbg !1797
  br label %51, !dbg !1827

51:                                               ; preds = %45, %39
  %52 = phi i32 [ %50, %45 ], [ %41, %39 ], !dbg !1797
  call void @llvm.dbg.value(metadata i32 %52, metadata !1794, metadata !DIExpression()), !dbg !1797
  %53 = add nuw nsw i32 %40, 1, !dbg !1828
  call void @llvm.dbg.value(metadata i32 %53, metadata !1795, metadata !DIExpression()), !dbg !1799
  %54 = icmp slt i32 %53, %31, !dbg !1802
  br i1 %54, label %39, label %55, !dbg !1803, !llvm.loop !1829

55:                                               ; preds = %51
  call void @llvm.dbg.value(metadata i32 %52, metadata !1794, metadata !DIExpression(DW_OP_plus_uconst, 1, DW_OP_stack_value)), !dbg !1797
  call void @llvm.dbg.value(metadata %struct.halide_buffer_t* %1, metadata !786, metadata !DIExpression(DW_OP_plus_uconst, 24, DW_OP_stack_value)), !dbg !1804
  %56 = getelementptr inbounds %struct.halide_buffer_t, %struct.halide_buffer_t* %1, i32 0, i32 4, i32 1, !dbg !1806
  %57 = load i8, i8* %56, align 1, !dbg !1806, !tbaa !793
  call void @llvm.dbg.value(metadata %struct.halide_buffer_t* %1, metadata !1807, metadata !DIExpression()), !dbg !1813
  call void @llvm.dbg.value(metadata i32 0, metadata !1810, metadata !DIExpression()), !dbg !1813
  call void @llvm.dbg.value(metadata i32 0, metadata !1811, metadata !DIExpression()), !dbg !1815
  br label %58, !dbg !1816

58:                                               ; preds = %70, %55
  %59 = phi i32 [ 0, %55 ], [ %72, %70 ]
  %60 = phi i32 [ 0, %55 ], [ %71, %70 ]
  call void @llvm.dbg.value(metadata i32 %59, metadata !1811, metadata !DIExpression()), !dbg !1815
  call void @llvm.dbg.value(metadata i32 %60, metadata !1810, metadata !DIExpression()), !dbg !1813
  %61 = getelementptr inbounds %struct.halide_dimension_t, %struct.halide_dimension_t* %38, i32 %59, i32 2, !dbg !1831
  %62 = load i32, i32* %61, align 4, !dbg !1831, !tbaa !823
  %63 = icmp slt i32 %62, 0, !dbg !1835
  br i1 %63, label %64, label %70, !dbg !1836

64:                                               ; preds = %58
  %65 = getelementptr inbounds %struct.halide_dimension_t, %struct.halide_dimension_t* %38, i32 %59, i32 1, !dbg !1837
  %66 = load i32, i32* %65, align 4, !dbg !1837, !tbaa !887
  %67 = add nsw i32 %66, -1, !dbg !1839
  %68 = mul nsw i32 %67, %62, !dbg !1840
  %69 = add nsw i32 %68, %60, !dbg !1841
  call void @llvm.dbg.value(metadata i32 %69, metadata !1810, metadata !DIExpression()), !dbg !1813
  br label %70, !dbg !1842

70:                                               ; preds = %64, %58
  %71 = phi i32 [ %69, %64 ], [ %60, %58 ], !dbg !1813
  call void @llvm.dbg.value(metadata i32 %71, metadata !1810, metadata !DIExpression()), !dbg !1813
  %72 = add nuw nsw i32 %59, 1, !dbg !1843
  call void @llvm.dbg.value(metadata i32 %72, metadata !1811, metadata !DIExpression()), !dbg !1815
  %73 = icmp slt i32 %72, %31, !dbg !1844
  br i1 %73, label %58, label %74, !dbg !1816, !llvm.loop !1845

74:                                               ; preds = %70, %33
  %75 = phi i8 [ %35, %33 ], [ %57, %70 ]
  %76 = phi i32 [ 0, %33 ], [ %52, %70 ]
  %77 = phi i32 [ 0, %33 ], [ %71, %70 ], !dbg !1813
  %78 = zext i8 %75 to i32, !dbg !1806
  %79 = add nuw nsw i32 %78, 7, !dbg !1847
  %80 = lshr i32 %79, 3, !dbg !1848
  %81 = add nsw i32 %76, 1, !dbg !1849
  call void @llvm.dbg.value(metadata i32 %81, metadata !1794, metadata !DIExpression()), !dbg !1797
  call void @llvm.dbg.value(metadata %struct.halide_buffer_t* %1, metadata !786, metadata !DIExpression(DW_OP_plus_uconst, 24, DW_OP_stack_value)), !dbg !1850
  %82 = sub i32 %81, %77, !dbg !1852
  %83 = mul i32 %82, %80, !dbg !1852
  call void @llvm.dbg.value(metadata i32 %83, metadata !1736, metadata !DIExpression()), !dbg !1743
  %84 = icmp eq i32 %83, 0, !dbg !1853
  br i1 %84, label %85, label %86, !dbg !1856

85:                                               ; preds = %74
  call void @halide_print(i8* %0, i8* getelementptr inbounds ([110 x i8], [110 x i8]* @.str.66, i32 0, i32 0)) #8, !dbg !1857
  call void @abort() #8, !dbg !1857
  br label %86, !dbg !1857

86:                                               ; preds = %85, %74
  %87 = getelementptr inbounds %struct.halide_buffer_t, %struct.halide_buffer_t* %1, i32 0, i32 0, !dbg !1859
  %88 = load i64, i64* %87, align 8, !dbg !1859, !tbaa !777
  %89 = icmp eq i64 %88, 0, !dbg !1861
  br i1 %89, label %90, label %95, !dbg !1862

90:                                               ; preds = %86
  call void @llvm.dbg.value(metadata i32 0, metadata !1737, metadata !DIExpression()), !dbg !1863
  %91 = load i32, i32* %30, align 4, !dbg !1864, !tbaa !812
  %92 = icmp sgt i32 %91, 0, !dbg !1866
  br i1 %92, label %93, label %110, !dbg !1867

93:                                               ; preds = %90
  %94 = getelementptr inbounds %struct.halide_buffer_t, %struct.halide_buffer_t* %1, i32 0, i32 6
  br label %224, !dbg !1867

95:                                               ; preds = %86
  call void @llvm.dbg.value(metadata %"class.Halide::Runtime::Internal::(anonymous namespace)::Printer"* undef, metadata !673, metadata !DIExpression()) #10, !dbg !1868
  call void @llvm.dbg.value(metadata i8* %0, metadata !676, metadata !DIExpression()) #10, !dbg !1868
  call void @llvm.dbg.value(metadata i8* null, metadata !677, metadata !DIExpression()) #10, !dbg !1868
  %96 = call i8* @malloc(i32 1024) #8, !dbg !1871
  %97 = icmp eq i8* %96, null, !dbg !1872
  br i1 %97, label %98, label %100, !dbg !1873

98:                                               ; preds = %95
  call void @llvm.dbg.value(metadata %"class.Halide::Runtime::Internal::(anonymous namespace)::Printer"* undef, metadata !690, metadata !DIExpression()) #10, !dbg !1874
  call void @llvm.dbg.value(metadata i8* getelementptr inbounds ([74 x i8], [74 x i8]* @.str.67, i32 0, i32 0), metadata !693, metadata !DIExpression()) #10, !dbg !1874
  %99 = call i8* @halide_string_to_string(i8* %96, i8* null, i8* nonnull getelementptr inbounds ([74 x i8], [74 x i8]* @.str.67, i32 0, i32 0)) #8, !dbg !1876
  call void @llvm.dbg.value(metadata %"class.Halide::Runtime::Internal::(anonymous namespace)::Printer"* undef, metadata !699, metadata !DIExpression()) #10, !dbg !1877
  call void @halide_error(i8* %0, i8* getelementptr inbounds ([35 x i8], [35 x i8]* @.str.147, i32 0, i32 0)) #8, !dbg !1879
  br label %109, !dbg !1880

100:                                              ; preds = %95
  %101 = getelementptr inbounds i8, i8* %96, i32 1023, !dbg !1881
  store i8 0, i8* %101, align 1, !dbg !1882, !tbaa !712
  call void @llvm.dbg.value(metadata %"class.Halide::Runtime::Internal::(anonymous namespace)::Printer"* undef, metadata !690, metadata !DIExpression()) #10, !dbg !1874
  call void @llvm.dbg.value(metadata i8* getelementptr inbounds ([74 x i8], [74 x i8]* @.str.67, i32 0, i32 0), metadata !693, metadata !DIExpression()) #10, !dbg !1874
  %102 = call i8* @halide_string_to_string(i8* nonnull %96, i8* nonnull %101, i8* nonnull getelementptr inbounds ([74 x i8], [74 x i8]* @.str.67, i32 0, i32 0)) #8, !dbg !1876
  call void @llvm.dbg.value(metadata %"class.Halide::Runtime::Internal::(anonymous namespace)::Printer"* undef, metadata !699, metadata !DIExpression()) #10, !dbg !1877
  call void @llvm.dbg.value(metadata %"class.Halide::Runtime::Internal::(anonymous namespace)::Printer"* undef, metadata !713, metadata !DIExpression()) #10, !dbg !1883
  %103 = ptrtoint i8* %102 to i32, !dbg !1885
  %104 = ptrtoint i8* %96 to i32, !dbg !1885
  %105 = add i32 %103, 1, !dbg !1885
  %106 = sub i32 %105, %104, !dbg !1886
  %107 = sext i32 %106 to i64, !dbg !1887
  %108 = call i32 @halide_msan_annotate_memory_is_initialized(i8* %0, i8* nonnull %96, i64 %107) #8, !dbg !1888
  call void @halide_print(i8* %0, i8* nonnull %96) #8, !dbg !1889
  br label %109

109:                                              ; preds = %100, %98
  call void @free(i8* %96) #8, !dbg !1890
  br label %325, !dbg !1891

110:                                              ; preds = %233, %90
  %111 = bitcast %"class.Halide::Runtime::Internal::(anonymous namespace)::Printer"* %3 to i8*, !dbg !1892
  call void @llvm.lifetime.start.p0i8(i64 20, i8* nonnull %111) #10, !dbg !1892
  call void @llvm.dbg.value(metadata %"class.Halide::Runtime::Internal::(anonymous namespace)::Printer"* %3, metadata !673, metadata !DIExpression()) #10, !dbg !1893
  call void @llvm.dbg.value(metadata i8* %0, metadata !676, metadata !DIExpression()) #10, !dbg !1893
  call void @llvm.dbg.value(metadata i8* null, metadata !677, metadata !DIExpression()) #10, !dbg !1893
  %112 = getelementptr inbounds %"class.Halide::Runtime::Internal::(anonymous namespace)::Printer", %"class.Halide::Runtime::Internal::(anonymous namespace)::Printer"* %3, i32 0, i32 3, !dbg !1895
  store i8* %0, i8** %112, align 4, !dbg !1895, !tbaa !1118
  %113 = getelementptr inbounds %"class.Halide::Runtime::Internal::(anonymous namespace)::Printer", %"class.Halide::Runtime::Internal::(anonymous namespace)::Printer"* %3, i32 0, i32 4, !dbg !1896
  store i8 1, i8* %113, align 4, !dbg !1896, !tbaa !1121
  %114 = call i8* @malloc(i32 1024) #8, !dbg !1897
  %115 = getelementptr inbounds %"class.Halide::Runtime::Internal::(anonymous namespace)::Printer", %"class.Halide::Runtime::Internal::(anonymous namespace)::Printer"* %3, i32 0, i32 0, !dbg !1898
  store i8* %114, i8** %115, align 4, !dbg !1899, !tbaa !1125
  %116 = getelementptr inbounds %"class.Halide::Runtime::Internal::(anonymous namespace)::Printer", %"class.Halide::Runtime::Internal::(anonymous namespace)::Printer"* %3, i32 0, i32 1, !dbg !1900
  store i8* %114, i8** %116, align 4, !dbg !1901, !tbaa !1359
  %117 = icmp eq i8* %114, null, !dbg !1902
  br i1 %117, label %120, label %118, !dbg !1903

118:                                              ; preds = %110
  %119 = getelementptr inbounds i8, i8* %114, i32 1023, !dbg !1904
  store i8 0, i8* %119, align 1, !dbg !1905, !tbaa !712
  br label %120, !dbg !1906

120:                                              ; preds = %110, %118
  %121 = phi i8* [ %119, %118 ], [ null, %110 ], !dbg !1907
  %122 = getelementptr inbounds %"class.Halide::Runtime::Internal::(anonymous namespace)::Printer", %"class.Halide::Runtime::Internal::(anonymous namespace)::Printer"* %3, i32 0, i32 2, !dbg !1908
  store i8* %121, i8** %122, align 4, !dbg !1909
  call void @llvm.dbg.value(metadata %"class.Halide::Runtime::Internal::(anonymous namespace)::Printer"* %3, metadata !690, metadata !DIExpression()) #10, !dbg !1910
  call void @llvm.dbg.value(metadata i8* getelementptr inbounds ([24 x i8], [24 x i8]* @.str.69, i32 0, i32 0), metadata !693, metadata !DIExpression()) #10, !dbg !1910
  %123 = call i8* @halide_string_to_string(i8* %114, i8* %121, i8* nonnull getelementptr inbounds ([24 x i8], [24 x i8]* @.str.69, i32 0, i32 0)) #8, !dbg !1912
  store i8* %123, i8** %116, align 4, !dbg !1913, !tbaa !1359
  call void @llvm.dbg.value(metadata %"class.Halide::Runtime::Internal::(anonymous namespace)::Printer"* %3, metadata !690, metadata !DIExpression()) #10, !dbg !1914
  call void @llvm.dbg.value(metadata i8* getelementptr inbounds ([10 x i8], [10 x i8]* @.str.70, i32 0, i32 0), metadata !693, metadata !DIExpression()) #10, !dbg !1914
  %124 = load i8*, i8** %122, align 4, !dbg !1916, !tbaa !1278
  %125 = call i8* @halide_string_to_string(i8* %123, i8* %124, i8* nonnull getelementptr inbounds ([10 x i8], [10 x i8]* @.str.70, i32 0, i32 0)) #8, !dbg !1917
  store i8* %125, i8** %116, align 4, !dbg !1918, !tbaa !1359
  %126 = getelementptr inbounds %struct.halide_buffer_t, %struct.halide_buffer_t* %1, i32 0, i32 6, !dbg !1919
  %127 = load %struct.halide_dimension_t*, %struct.halide_dimension_t** %126, align 8, !dbg !1919, !tbaa !815
  %128 = getelementptr inbounds %struct.halide_dimension_t, %struct.halide_dimension_t* %127, i32 0, i32 1, !dbg !1920
  %129 = load i32, i32* %128, align 4, !dbg !1920, !tbaa !887
  call void @llvm.dbg.value(metadata %"class.Halide::Runtime::Internal::(anonymous namespace)::Printer"* %3, metadata !1184, metadata !DIExpression()) #10, !dbg !1921
  call void @llvm.dbg.value(metadata i32 %129, metadata !1187, metadata !DIExpression()) #10, !dbg !1921
  %130 = load i8*, i8** %122, align 4, !dbg !1923, !tbaa !1278
  %131 = sext i32 %129 to i64, !dbg !1924
  %132 = call i8* @halide_int64_to_string(i8* %125, i8* %130, i64 %131, i32 1) #8, !dbg !1925
  store i8* %132, i8** %116, align 4, !dbg !1926, !tbaa !1359
  call void @llvm.dbg.value(metadata %"class.Halide::Runtime::Internal::(anonymous namespace)::Printer"* %3, metadata !690, metadata !DIExpression()) #10, !dbg !1927
  call void @llvm.dbg.value(metadata i8* getelementptr inbounds ([2 x i8], [2 x i8]* @.str.71, i32 0, i32 0), metadata !693, metadata !DIExpression()) #10, !dbg !1927
  %133 = load i8*, i8** %122, align 4, !dbg !1929, !tbaa !1278
  %134 = call i8* @halide_string_to_string(i8* %132, i8* %133, i8* nonnull getelementptr inbounds ([2 x i8], [2 x i8]* @.str.71, i32 0, i32 0)) #8, !dbg !1930
  store i8* %134, i8** %116, align 4, !dbg !1931, !tbaa !1359
  %135 = load %struct.halide_dimension_t*, %struct.halide_dimension_t** %126, align 8, !dbg !1932, !tbaa !815
  %136 = getelementptr inbounds %struct.halide_dimension_t, %struct.halide_dimension_t* %135, i32 1, i32 1, !dbg !1933
  %137 = load i32, i32* %136, align 4, !dbg !1933, !tbaa !887
  call void @llvm.dbg.value(metadata %"class.Halide::Runtime::Internal::(anonymous namespace)::Printer"* %3, metadata !1184, metadata !DIExpression()) #10, !dbg !1934
  call void @llvm.dbg.value(metadata i32 %137, metadata !1187, metadata !DIExpression()) #10, !dbg !1934
  %138 = load i8*, i8** %122, align 4, !dbg !1936, !tbaa !1278
  %139 = sext i32 %137 to i64, !dbg !1937
  %140 = call i8* @halide_int64_to_string(i8* %134, i8* %138, i64 %139, i32 1) #8, !dbg !1938
  store i8* %140, i8** %116, align 4, !dbg !1939, !tbaa !1359
  call void @llvm.dbg.value(metadata %"class.Halide::Runtime::Internal::(anonymous namespace)::Printer"* %3, metadata !690, metadata !DIExpression()) #10, !dbg !1940
  call void @llvm.dbg.value(metadata i8* getelementptr inbounds ([2 x i8], [2 x i8]* @.str.71, i32 0, i32 0), metadata !693, metadata !DIExpression()) #10, !dbg !1940
  %141 = load i8*, i8** %122, align 4, !dbg !1942, !tbaa !1278
  %142 = call i8* @halide_string_to_string(i8* %140, i8* %141, i8* nonnull getelementptr inbounds ([2 x i8], [2 x i8]* @.str.71, i32 0, i32 0)) #8, !dbg !1943
  store i8* %142, i8** %116, align 4, !dbg !1944, !tbaa !1359
  %143 = load %struct.halide_dimension_t*, %struct.halide_dimension_t** %126, align 8, !dbg !1945, !tbaa !815
  %144 = getelementptr inbounds %struct.halide_dimension_t, %struct.halide_dimension_t* %143, i32 2, i32 1, !dbg !1946
  %145 = load i32, i32* %144, align 4, !dbg !1946, !tbaa !887
  call void @llvm.dbg.value(metadata %"class.Halide::Runtime::Internal::(anonymous namespace)::Printer"* %3, metadata !1184, metadata !DIExpression()) #10, !dbg !1947
  call void @llvm.dbg.value(metadata i32 %145, metadata !1187, metadata !DIExpression()) #10, !dbg !1947
  %146 = load i8*, i8** %122, align 4, !dbg !1949, !tbaa !1278
  %147 = sext i32 %145 to i64, !dbg !1950
  %148 = call i8* @halide_int64_to_string(i8* %142, i8* %146, i64 %147, i32 1) #8, !dbg !1951
  store i8* %148, i8** %116, align 4, !dbg !1952, !tbaa !1359
  call void @llvm.dbg.value(metadata %"class.Halide::Runtime::Internal::(anonymous namespace)::Printer"* %3, metadata !690, metadata !DIExpression()) #10, !dbg !1953
  call void @llvm.dbg.value(metadata i8* getelementptr inbounds ([2 x i8], [2 x i8]* @.str.71, i32 0, i32 0), metadata !693, metadata !DIExpression()) #10, !dbg !1953
  %149 = load i8*, i8** %122, align 4, !dbg !1955, !tbaa !1278
  %150 = call i8* @halide_string_to_string(i8* %148, i8* %149, i8* nonnull getelementptr inbounds ([2 x i8], [2 x i8]* @.str.71, i32 0, i32 0)) #8, !dbg !1956
  store i8* %150, i8** %116, align 4, !dbg !1957, !tbaa !1359
  %151 = load %struct.halide_dimension_t*, %struct.halide_dimension_t** %126, align 8, !dbg !1958, !tbaa !815
  %152 = getelementptr inbounds %struct.halide_dimension_t, %struct.halide_dimension_t* %151, i32 3, i32 1, !dbg !1959
  %153 = load i32, i32* %152, align 4, !dbg !1959, !tbaa !887
  call void @llvm.dbg.value(metadata %"class.Halide::Runtime::Internal::(anonymous namespace)::Printer"* %3, metadata !1184, metadata !DIExpression()) #10, !dbg !1960
  call void @llvm.dbg.value(metadata i32 %153, metadata !1187, metadata !DIExpression()) #10, !dbg !1960
  %154 = load i8*, i8** %122, align 4, !dbg !1962, !tbaa !1278
  %155 = sext i32 %153 to i64, !dbg !1963
  %156 = call i8* @halide_int64_to_string(i8* %150, i8* %154, i64 %155, i32 1) #8, !dbg !1964
  store i8* %156, i8** %116, align 4, !dbg !1965, !tbaa !1359
  call void @llvm.dbg.value(metadata %"class.Halide::Runtime::Internal::(anonymous namespace)::Printer"* %3, metadata !690, metadata !DIExpression()) #10, !dbg !1966
  call void @llvm.dbg.value(metadata i8* getelementptr inbounds ([2 x i8], [2 x i8]* @.str.21, i32 0, i32 0), metadata !693, metadata !DIExpression()) #10, !dbg !1966
  %157 = load i8*, i8** %122, align 4, !dbg !1968, !tbaa !1278
  %158 = call i8* @halide_string_to_string(i8* %156, i8* %157, i8* nonnull getelementptr inbounds ([2 x i8], [2 x i8]* @.str.21, i32 0, i32 0)) #8, !dbg !1969
  store i8* %158, i8** %116, align 4, !dbg !1970, !tbaa !1359
  call void @llvm.dbg.value(metadata %"class.Halide::Runtime::Internal::(anonymous namespace)::Printer"* %3, metadata !690, metadata !DIExpression()) #10, !dbg !1971
  call void @llvm.dbg.value(metadata i8* getelementptr inbounds ([10 x i8], [10 x i8]* @.str.72, i32 0, i32 0), metadata !693, metadata !DIExpression()) #10, !dbg !1971
  %159 = load i8*, i8** %122, align 4, !dbg !1973, !tbaa !1278
  %160 = call i8* @halide_string_to_string(i8* %158, i8* %159, i8* nonnull getelementptr inbounds ([10 x i8], [10 x i8]* @.str.72, i32 0, i32 0)) #8, !dbg !1974
  store i8* %160, i8** %116, align 4, !dbg !1975, !tbaa !1359
  %161 = load %struct.halide_dimension_t*, %struct.halide_dimension_t** %126, align 8, !dbg !1976, !tbaa !815
  %162 = getelementptr inbounds %struct.halide_dimension_t, %struct.halide_dimension_t* %161, i32 0, i32 2, !dbg !1977
  %163 = load i32, i32* %162, align 4, !dbg !1977, !tbaa !823
  call void @llvm.dbg.value(metadata %"class.Halide::Runtime::Internal::(anonymous namespace)::Printer"* %3, metadata !1184, metadata !DIExpression()) #10, !dbg !1978
  call void @llvm.dbg.value(metadata i32 %163, metadata !1187, metadata !DIExpression()) #10, !dbg !1978
  %164 = load i8*, i8** %122, align 4, !dbg !1980, !tbaa !1278
  %165 = sext i32 %163 to i64, !dbg !1981
  %166 = call i8* @halide_int64_to_string(i8* %160, i8* %164, i64 %165, i32 1) #8, !dbg !1982
  store i8* %166, i8** %116, align 4, !dbg !1983, !tbaa !1359
  call void @llvm.dbg.value(metadata %"class.Halide::Runtime::Internal::(anonymous namespace)::Printer"* %3, metadata !690, metadata !DIExpression()) #10, !dbg !1984
  call void @llvm.dbg.value(metadata i8* getelementptr inbounds ([2 x i8], [2 x i8]* @.str.71, i32 0, i32 0), metadata !693, metadata !DIExpression()) #10, !dbg !1984
  %167 = load i8*, i8** %122, align 4, !dbg !1986, !tbaa !1278
  %168 = call i8* @halide_string_to_string(i8* %166, i8* %167, i8* nonnull getelementptr inbounds ([2 x i8], [2 x i8]* @.str.71, i32 0, i32 0)) #8, !dbg !1987
  store i8* %168, i8** %116, align 4, !dbg !1988, !tbaa !1359
  %169 = load %struct.halide_dimension_t*, %struct.halide_dimension_t** %126, align 8, !dbg !1989, !tbaa !815
  %170 = getelementptr inbounds %struct.halide_dimension_t, %struct.halide_dimension_t* %169, i32 1, i32 2, !dbg !1990
  %171 = load i32, i32* %170, align 4, !dbg !1990, !tbaa !823
  call void @llvm.dbg.value(metadata %"class.Halide::Runtime::Internal::(anonymous namespace)::Printer"* %3, metadata !1184, metadata !DIExpression()) #10, !dbg !1991
  call void @llvm.dbg.value(metadata i32 %171, metadata !1187, metadata !DIExpression()) #10, !dbg !1991
  %172 = load i8*, i8** %122, align 4, !dbg !1993, !tbaa !1278
  %173 = sext i32 %171 to i64, !dbg !1994
  %174 = call i8* @halide_int64_to_string(i8* %168, i8* %172, i64 %173, i32 1) #8, !dbg !1995
  store i8* %174, i8** %116, align 4, !dbg !1996, !tbaa !1359
  call void @llvm.dbg.value(metadata %"class.Halide::Runtime::Internal::(anonymous namespace)::Printer"* %3, metadata !690, metadata !DIExpression()) #10, !dbg !1997
  call void @llvm.dbg.value(metadata i8* getelementptr inbounds ([2 x i8], [2 x i8]* @.str.71, i32 0, i32 0), metadata !693, metadata !DIExpression()) #10, !dbg !1997
  %175 = load i8*, i8** %122, align 4, !dbg !1999, !tbaa !1278
  %176 = call i8* @halide_string_to_string(i8* %174, i8* %175, i8* nonnull getelementptr inbounds ([2 x i8], [2 x i8]* @.str.71, i32 0, i32 0)) #8, !dbg !2000
  store i8* %176, i8** %116, align 4, !dbg !2001, !tbaa !1359
  %177 = load %struct.halide_dimension_t*, %struct.halide_dimension_t** %126, align 8, !dbg !2002, !tbaa !815
  %178 = getelementptr inbounds %struct.halide_dimension_t, %struct.halide_dimension_t* %177, i32 2, i32 2, !dbg !2003
  %179 = load i32, i32* %178, align 4, !dbg !2003, !tbaa !823
  call void @llvm.dbg.value(metadata %"class.Halide::Runtime::Internal::(anonymous namespace)::Printer"* %3, metadata !1184, metadata !DIExpression()) #10, !dbg !2004
  call void @llvm.dbg.value(metadata i32 %179, metadata !1187, metadata !DIExpression()) #10, !dbg !2004
  %180 = load i8*, i8** %122, align 4, !dbg !2006, !tbaa !1278
  %181 = sext i32 %179 to i64, !dbg !2007
  %182 = call i8* @halide_int64_to_string(i8* %176, i8* %180, i64 %181, i32 1) #8, !dbg !2008
  store i8* %182, i8** %116, align 4, !dbg !2009, !tbaa !1359
  call void @llvm.dbg.value(metadata %"class.Halide::Runtime::Internal::(anonymous namespace)::Printer"* %3, metadata !690, metadata !DIExpression()) #10, !dbg !2010
  call void @llvm.dbg.value(metadata i8* getelementptr inbounds ([2 x i8], [2 x i8]* @.str.71, i32 0, i32 0), metadata !693, metadata !DIExpression()) #10, !dbg !2010
  %183 = load i8*, i8** %122, align 4, !dbg !2012, !tbaa !1278
  %184 = call i8* @halide_string_to_string(i8* %182, i8* %183, i8* nonnull getelementptr inbounds ([2 x i8], [2 x i8]* @.str.71, i32 0, i32 0)) #8, !dbg !2013
  store i8* %184, i8** %116, align 4, !dbg !2014, !tbaa !1359
  %185 = load %struct.halide_dimension_t*, %struct.halide_dimension_t** %126, align 8, !dbg !2015, !tbaa !815
  %186 = getelementptr inbounds %struct.halide_dimension_t, %struct.halide_dimension_t* %185, i32 3, i32 2, !dbg !2016
  %187 = load i32, i32* %186, align 4, !dbg !2016, !tbaa !823
  call void @llvm.dbg.value(metadata %"class.Halide::Runtime::Internal::(anonymous namespace)::Printer"* %3, metadata !1184, metadata !DIExpression()) #10, !dbg !2017
  call void @llvm.dbg.value(metadata i32 %187, metadata !1187, metadata !DIExpression()) #10, !dbg !2017
  %188 = load i8*, i8** %122, align 4, !dbg !2019, !tbaa !1278
  %189 = sext i32 %187 to i64, !dbg !2020
  %190 = call i8* @halide_int64_to_string(i8* %184, i8* %188, i64 %189, i32 1) #8, !dbg !2021
  store i8* %190, i8** %116, align 4, !dbg !2022, !tbaa !1359
  call void @llvm.dbg.value(metadata %"class.Halide::Runtime::Internal::(anonymous namespace)::Printer"* %3, metadata !690, metadata !DIExpression()) #10, !dbg !2023
  call void @llvm.dbg.value(metadata i8* getelementptr inbounds ([2 x i8], [2 x i8]* @.str.21, i32 0, i32 0), metadata !693, metadata !DIExpression()) #10, !dbg !2023
  %191 = load i8*, i8** %122, align 4, !dbg !2025, !tbaa !1278
  %192 = call i8* @halide_string_to_string(i8* %190, i8* %191, i8* nonnull getelementptr inbounds ([2 x i8], [2 x i8]* @.str.21, i32 0, i32 0)) #8, !dbg !2026
  store i8* %192, i8** %116, align 4, !dbg !2027, !tbaa !1359
  call void @llvm.dbg.value(metadata %"class.Halide::Runtime::Internal::(anonymous namespace)::Printer"* %3, metadata !690, metadata !DIExpression()) #10, !dbg !2028
  call void @llvm.dbg.value(metadata i8* getelementptr inbounds ([8 x i8], [8 x i8]* @.str.73, i32 0, i32 0), metadata !693, metadata !DIExpression()) #10, !dbg !2028
  %193 = load i8*, i8** %122, align 4, !dbg !2030, !tbaa !1278
  %194 = call i8* @halide_string_to_string(i8* %192, i8* %193, i8* nonnull getelementptr inbounds ([8 x i8], [8 x i8]* @.str.73, i32 0, i32 0)) #8, !dbg !2031
  store i8* %194, i8** %116, align 4, !dbg !2032, !tbaa !1359
  %195 = getelementptr inbounds %struct.halide_buffer_t, %struct.halide_buffer_t* %1, i32 0, i32 4, !dbg !2033
  call void @llvm.dbg.value(metadata %"class.Halide::Runtime::Internal::(anonymous namespace)::Printer"* %3, metadata !1306, metadata !DIExpression()) #10, !dbg !2034
  call void @llvm.dbg.value(metadata %struct.halide_type_t* %195, metadata !1309, metadata !DIExpression()) #10, !dbg !2034
  %196 = load i8*, i8** %122, align 4, !dbg !2036, !tbaa !1278
  %197 = call i8* @halide_type_to_string(i8* %194, i8* %196, %struct.halide_type_t* nonnull %195) #8, !dbg !2037
  store i8* %197, i8** %116, align 4, !dbg !2038, !tbaa !1359
  call void @llvm.dbg.value(metadata %"class.Halide::Runtime::Internal::(anonymous namespace)::Printer"* %3, metadata !690, metadata !DIExpression()) #10, !dbg !2039
  call void @llvm.dbg.value(metadata i8* getelementptr inbounds ([3 x i8], [3 x i8]* @.str.61, i32 0, i32 0), metadata !693, metadata !DIExpression()) #10, !dbg !2039
  %198 = load i8*, i8** %122, align 4, !dbg !2041, !tbaa !1278
  %199 = call i8* @halide_string_to_string(i8* %197, i8* %198, i8* nonnull getelementptr inbounds ([3 x i8], [3 x i8]* @.str.61, i32 0, i32 0)) #8, !dbg !2042
  store i8* %199, i8** %116, align 4, !dbg !2043, !tbaa !1359
  call void @llvm.dbg.value(metadata %"class.Halide::Runtime::Internal::(anonymous namespace)::Printer"* %3, metadata !699, metadata !DIExpression()) #10, !dbg !2044
  %200 = load i8*, i8** %115, align 4, !dbg !2046, !tbaa !1125
  %201 = icmp eq i8* %200, null, !dbg !2046
  %202 = load i8*, i8** %112, align 4, !dbg !2047, !tbaa !1118
  br i1 %201, label %203, label %204, !dbg !2048

203:                                              ; preds = %120
  call void @halide_error(i8* %202, i8* getelementptr inbounds ([35 x i8], [35 x i8]* @.str.147, i32 0, i32 0)) #8, !dbg !2049
  br label %213, !dbg !2050

204:                                              ; preds = %120
  call void @llvm.dbg.value(metadata %"class.Halide::Runtime::Internal::(anonymous namespace)::Printer"* undef, metadata !713, metadata !DIExpression()) #10, !dbg !2051
  %205 = ptrtoint i8* %199 to i32, !dbg !2053
  %206 = ptrtoint i8* %200 to i32, !dbg !2053
  %207 = add i32 %205, 1, !dbg !2053
  %208 = sub i32 %207, %206, !dbg !2054
  %209 = sext i32 %208 to i64, !dbg !2055
  %210 = call i32 @halide_msan_annotate_memory_is_initialized(i8* %202, i8* nonnull %200, i64 %209) #8, !dbg !2056
  %211 = load i8*, i8** %112, align 4, !dbg !2057, !tbaa !1118
  %212 = load i8*, i8** %115, align 4, !dbg !2058, !tbaa !1125
  call void @halide_print(i8* %211, i8* %212) #8, !dbg !2059
  br label %213

213:                                              ; preds = %204, %203
  %214 = load i8, i8* %113, align 4, !dbg !2060, !tbaa !1121, !range !1375
  %215 = icmp eq i8 %214, 0, !dbg !2060
  br i1 %215, label %221, label %216, !dbg !2061

216:                                              ; preds = %213
  %217 = load i8*, i8** %115, align 4, !dbg !2062, !tbaa !1125
  %218 = getelementptr inbounds %"class.Halide::Runtime::Internal::(anonymous namespace)::Printer", %"class.Halide::Runtime::Internal::(anonymous namespace)::Printer"* %3, i32 0, i32 5, i32 0, !dbg !2063
  %219 = icmp eq i8* %217, %218, !dbg !2064
  br i1 %219, label %221, label %220, !dbg !2065

220:                                              ; preds = %216
  call void @free(i8* %217) #8, !dbg !2066
  br label %221, !dbg !2067

221:                                              ; preds = %213, %216, %220
  call void @llvm.lifetime.end.p0i8(i64 20, i8* nonnull %111) #10, !dbg !1892
  %222 = call i32 @_ZN6Halide7Runtime8Internal13OpenGLCompute25halide_openglcompute_initEPv(i8* %0) #9, !dbg !2068
  call void @llvm.dbg.value(metadata i32 %222, metadata !1739, metadata !DIExpression()), !dbg !2069
  %223 = icmp eq i32 %222, 0, !dbg !2070
  br i1 %223, label %237, label %325

224:                                              ; preds = %93, %233
  %225 = phi i32 [ %91, %93 ], [ %234, %233 ]
  %226 = phi i32 [ 0, %93 ], [ %235, %233 ]
  call void @llvm.dbg.value(metadata i32 %226, metadata !1737, metadata !DIExpression()), !dbg !1863
  %227 = load %struct.halide_dimension_t*, %struct.halide_dimension_t** %94, align 8, !dbg !2071, !tbaa !815
  %228 = getelementptr inbounds %struct.halide_dimension_t, %struct.halide_dimension_t* %227, i32 %226, i32 2, !dbg !2071
  %229 = load i32, i32* %228, align 4, !dbg !2071, !tbaa !823
  %230 = icmp sgt i32 %229, -1, !dbg !2071
  br i1 %230, label %233, label %231, !dbg !2075

231:                                              ; preds = %224
  call void @halide_print(i8* %0, i8* getelementptr inbounds ([124 x i8], [124 x i8]* @.str.68, i32 0, i32 0)) #8, !dbg !2076
  call void @abort() #8, !dbg !2076
  %232 = load i32, i32* %30, align 4, !dbg !1864, !tbaa !812
  br label %233, !dbg !2076

233:                                              ; preds = %224, %231
  %234 = phi i32 [ %225, %224 ], [ %232, %231 ], !dbg !1864
  %235 = add nuw nsw i32 %226, 1, !dbg !2078
  call void @llvm.dbg.value(metadata i32 %235, metadata !1737, metadata !DIExpression()), !dbg !1863
  %236 = icmp slt i32 %235, %234, !dbg !1866
  br i1 %236, label %224, label %110, !dbg !1867, !llvm.loop !2079

237:                                              ; preds = %221
  call void @llvm.dbg.value(metadata %"class.Halide::Runtime::Internal::(anonymous namespace)::Printer"* undef, metadata !673, metadata !DIExpression()) #10, !dbg !2081
  call void @llvm.dbg.value(metadata i8* %0, metadata !676, metadata !DIExpression()) #10, !dbg !2081
  call void @llvm.dbg.value(metadata i8* null, metadata !677, metadata !DIExpression()) #10, !dbg !2081
  %238 = call i8* @malloc(i32 1024) #8, !dbg !2083
  %239 = icmp eq i8* %238, null, !dbg !2084
  br i1 %239, label %240, label %242, !dbg !2085

240:                                              ; preds = %237
  call void @llvm.dbg.value(metadata %"class.Halide::Runtime::Internal::(anonymous namespace)::Printer"* undef, metadata !690, metadata !DIExpression()) #10, !dbg !2086
  call void @llvm.dbg.value(metadata i8* getelementptr inbounds ([56 x i8], [56 x i8]* @.str.74, i32 0, i32 0), metadata !693, metadata !DIExpression()) #10, !dbg !2086
  %241 = call i8* @halide_string_to_string(i8* %238, i8* null, i8* nonnull getelementptr inbounds ([56 x i8], [56 x i8]* @.str.74, i32 0, i32 0)) #8, !dbg !2088
  call void @llvm.dbg.value(metadata %"class.Halide::Runtime::Internal::(anonymous namespace)::Printer"* undef, metadata !699, metadata !DIExpression()) #10, !dbg !2089
  call void @halide_error(i8* %0, i8* getelementptr inbounds ([35 x i8], [35 x i8]* @.str.147, i32 0, i32 0)) #8, !dbg !2091
  br label %251, !dbg !2092

242:                                              ; preds = %237
  %243 = getelementptr inbounds i8, i8* %238, i32 1023, !dbg !2093
  store i8 0, i8* %243, align 1, !dbg !2094, !tbaa !712
  call void @llvm.dbg.value(metadata %"class.Halide::Runtime::Internal::(anonymous namespace)::Printer"* undef, metadata !690, metadata !DIExpression()) #10, !dbg !2086
  call void @llvm.dbg.value(metadata i8* getelementptr inbounds ([56 x i8], [56 x i8]* @.str.74, i32 0, i32 0), metadata !693, metadata !DIExpression()) #10, !dbg !2086
  %244 = call i8* @halide_string_to_string(i8* nonnull %238, i8* nonnull %243, i8* nonnull getelementptr inbounds ([56 x i8], [56 x i8]* @.str.74, i32 0, i32 0)) #8, !dbg !2088
  call void @llvm.dbg.value(metadata %"class.Halide::Runtime::Internal::(anonymous namespace)::Printer"* undef, metadata !699, metadata !DIExpression()) #10, !dbg !2089
  call void @llvm.dbg.value(metadata %"class.Halide::Runtime::Internal::(anonymous namespace)::Printer"* undef, metadata !713, metadata !DIExpression()) #10, !dbg !2095
  %245 = ptrtoint i8* %244 to i32, !dbg !2097
  %246 = ptrtoint i8* %238 to i32, !dbg !2097
  %247 = add i32 %245, 1, !dbg !2097
  %248 = sub i32 %247, %246, !dbg !2098
  %249 = sext i32 %248 to i64, !dbg !2099
  %250 = call i32 @halide_msan_annotate_memory_is_initialized(i8* %0, i8* nonnull %238, i64 %249) #8, !dbg !2100
  call void @halide_print(i8* %0, i8* nonnull %238) #8, !dbg !2101
  br label %251

251:                                              ; preds = %242, %240
  call void @free(i8* %238) #8, !dbg !2102
  %252 = bitcast i32* %4 to i8*, !dbg !2103
  call void @llvm.lifetime.start.p0i8(i64 4, i8* nonnull %252) #10, !dbg !2103
  %253 = load void (i32, i32*)*, void (i32, i32*)** getelementptr inbounds (%"struct.Halide::Runtime::Internal::OpenGLCompute::GlobalState", %"struct.Halide::Runtime::Internal::OpenGLCompute::GlobalState"* @_ZN6Halide7Runtime8Internal13OpenGLCompute12global_stateE, i32 0, i32 13), align 4, !dbg !2104, !tbaa !1400
  call void @llvm.dbg.value(metadata i32* %4, metadata !1741, metadata !DIExpression(DW_OP_deref)), !dbg !1743
  call void %253(i32 1, i32* nonnull %4) #8, !dbg !2105
  %254 = call zeroext i1 @_ZN6Halide7Runtime8Internal13OpenGLCompute11GlobalState19CheckAndReportErrorEPvPKc(%"struct.Halide::Runtime::Internal::OpenGLCompute::GlobalState"* nonnull dereferenceable(124) @_ZN6Halide7Runtime8Internal13OpenGLCompute12global_stateE, i8* %0, i8* getelementptr inbounds ([17 x i8], [17 x i8]* @.str.76, i32 0, i32 0)) #9, !dbg !2106
  br i1 %254, label %323, label %255, !dbg !2108

255:                                              ; preds = %251
  %256 = load void (i32, i32)*, void (i32, i32)** getelementptr inbounds (%"struct.Halide::Runtime::Internal::OpenGLCompute::GlobalState", %"struct.Halide::Runtime::Internal::OpenGLCompute::GlobalState"* @_ZN6Halide7Runtime8Internal13OpenGLCompute12global_stateE, i32 0, i32 2), align 4, !dbg !2109, !tbaa !1389
  %257 = load i32, i32* %4, align 4, !dbg !2110, !tbaa !2111
  call void @llvm.dbg.value(metadata i32 %257, metadata !1741, metadata !DIExpression()), !dbg !1743
  call void %256(i32 34962, i32 %257) #8, !dbg !2112
  %258 = call zeroext i1 @_ZN6Halide7Runtime8Internal13OpenGLCompute11GlobalState19CheckAndReportErrorEPvPKc(%"struct.Halide::Runtime::Internal::OpenGLCompute::GlobalState"* nonnull dereferenceable(124) @_ZN6Halide7Runtime8Internal13OpenGLCompute12global_stateE, i8* %0, i8* getelementptr inbounds ([17 x i8], [17 x i8]* @.str.77, i32 0, i32 0)) #9, !dbg !2113
  br i1 %258, label %323, label %259, !dbg !2115

259:                                              ; preds = %255
  call void @llvm.dbg.value(metadata %struct.halide_type_t* %195, metadata !786, metadata !DIExpression()), !dbg !2116
  %260 = getelementptr inbounds %struct.halide_buffer_t, %struct.halide_buffer_t* %1, i32 0, i32 4, i32 1, !dbg !2118
  %261 = load i8, i8* %260, align 1, !dbg !2118, !tbaa !793
  %262 = zext i8 %261 to i16, !dbg !2118
  %263 = add nuw nsw i16 %262, 7, !dbg !2119
  %264 = lshr i16 %263, 3, !dbg !2120
  %265 = trunc i16 %264 to i8, !dbg !2121
  %266 = udiv i8 4, %265, !dbg !2121
  %267 = zext i8 %266 to i32, !dbg !2121
  %268 = mul i32 %83, %267, !dbg !2122
  call void @llvm.dbg.value(metadata i32 %268, metadata !1736, metadata !DIExpression()), !dbg !1743
  %269 = icmp eq i32 %268, 0, !dbg !2123
  br i1 %269, label %270, label %271, !dbg !2126

270:                                              ; preds = %259
  call void @halide_print(i8* %0, i8* getelementptr inbounds ([110 x i8], [110 x i8]* @.str.78, i32 0, i32 0)) #8, !dbg !2127
  call void @abort() #8, !dbg !2127
  br label %271, !dbg !2127

271:                                              ; preds = %270, %259
  %272 = load void (i32, i32, i8*, i32)*, void (i32, i32, i8*, i32)** getelementptr inbounds (%"struct.Halide::Runtime::Internal::OpenGLCompute::GlobalState", %"struct.Halide::Runtime::Internal::OpenGLCompute::GlobalState"* @_ZN6Halide7Runtime8Internal13OpenGLCompute12global_stateE, i32 0, i32 4), align 4, !dbg !2129, !tbaa !1391
  call void %272(i32 34962, i32 %268, i8* null, i32 35050) #8, !dbg !2130
  %273 = call zeroext i1 @_ZN6Halide7Runtime8Internal13OpenGLCompute11GlobalState19CheckAndReportErrorEPvPKc(%"struct.Halide::Runtime::Internal::OpenGLCompute::GlobalState"* nonnull dereferenceable(124) @_ZN6Halide7Runtime8Internal13OpenGLCompute12global_stateE, i8* %0, i8* getelementptr inbounds ([17 x i8], [17 x i8]* @.str.79, i32 0, i32 0)) #9, !dbg !2131
  br i1 %273, label %323, label %274, !dbg !2133

274:                                              ; preds = %271
  %275 = load i32, i32* %4, align 4, !dbg !2134, !tbaa !2111
  call void @llvm.dbg.value(metadata i32 %275, metadata !1741, metadata !DIExpression()), !dbg !1743
  %276 = zext i32 %275 to i64, !dbg !2134
  store i64 %276, i64* %87, align 8, !dbg !2135, !tbaa !777
  %277 = getelementptr inbounds %struct.halide_buffer_t, %struct.halide_buffer_t* %1, i32 0, i32 1, !dbg !2136
  store %struct.halide_device_interface_t* @_ZN6Halide7Runtime8Internal13OpenGLCompute30openglcompute_device_interfaceE, %struct.halide_device_interface_t** %277, align 8, !dbg !2137, !tbaa !2138
  %278 = load %struct.halide_device_interface_impl_t*, %struct.halide_device_interface_impl_t** getelementptr inbounds (%struct.halide_device_interface_t, %struct.halide_device_interface_t* @_ZN6Halide7Runtime8Internal13OpenGLCompute30openglcompute_device_interfaceE, i32 0, i32 15), align 4, !dbg !2139, !tbaa !2140
  %279 = getelementptr inbounds %struct.halide_device_interface_impl_t, %struct.halide_device_interface_impl_t* %278, i32 0, i32 0, !dbg !2142
  %280 = load void ()*, void ()** %279, align 4, !dbg !2142, !tbaa !2143
  call void %280() #8, !dbg !2145
  call void @llvm.dbg.value(metadata %"class.Halide::Runtime::Internal::(anonymous namespace)::Printer"* undef, metadata !673, metadata !DIExpression()) #10, !dbg !2146
  call void @llvm.dbg.value(metadata i8* %0, metadata !676, metadata !DIExpression()) #10, !dbg !2146
  call void @llvm.dbg.value(metadata i8* null, metadata !677, metadata !DIExpression()) #10, !dbg !2146
  %281 = call i8* @malloc(i32 1024) #8, !dbg !2148
  %282 = icmp eq i8* %281, null, !dbg !2149
  br i1 %282, label %285, label %283, !dbg !2150

283:                                              ; preds = %274
  %284 = getelementptr inbounds i8, i8* %281, i32 1023, !dbg !2151
  store i8 0, i8* %284, align 1, !dbg !2152, !tbaa !712
  br label %285, !dbg !2153

285:                                              ; preds = %274, %283
  %286 = phi i8* [ %284, %283 ], [ null, %274 ], !dbg !2154
  call void @llvm.dbg.value(metadata %"class.Halide::Runtime::Internal::(anonymous namespace)::Printer"* undef, metadata !690, metadata !DIExpression()) #10, !dbg !2155
  call void @llvm.dbg.value(metadata i8* getelementptr inbounds ([32 x i8], [32 x i8]* @.str.80, i32 0, i32 0), metadata !693, metadata !DIExpression()) #10, !dbg !2155
  %287 = call i8* @halide_string_to_string(i8* %281, i8* %286, i8* nonnull getelementptr inbounds ([32 x i8], [32 x i8]* @.str.80, i32 0, i32 0)) #8, !dbg !2157
  %288 = load i32, i32* %4, align 4, !dbg !2158, !tbaa !2111
  call void @llvm.dbg.value(metadata i32 %288, metadata !1741, metadata !DIExpression()), !dbg !1743
  call void @llvm.dbg.value(metadata %"class.Halide::Runtime::Internal::(anonymous namespace)::Printer"* undef, metadata !1154, metadata !DIExpression()) #10, !dbg !2159
  call void @llvm.dbg.value(metadata i32 %288, metadata !1157, metadata !DIExpression()) #10, !dbg !2159
  %289 = zext i32 %288 to i64, !dbg !2161
  %290 = call i8* @halide_uint64_to_string(i8* %287, i8* %286, i64 %289, i32 1) #8, !dbg !2162
  call void @llvm.dbg.value(metadata %"class.Halide::Runtime::Internal::(anonymous namespace)::Printer"* undef, metadata !690, metadata !DIExpression()) #10, !dbg !2163
  call void @llvm.dbg.value(metadata i8* getelementptr inbounds ([2 x i8], [2 x i8]* @.str.17, i32 0, i32 0), metadata !693, metadata !DIExpression()) #10, !dbg !2163
  %291 = call i8* @halide_string_to_string(i8* %290, i8* %286, i8* nonnull getelementptr inbounds ([2 x i8], [2 x i8]* @.str.17, i32 0, i32 0)) #8, !dbg !2165
  call void @llvm.dbg.value(metadata %"class.Halide::Runtime::Internal::(anonymous namespace)::Printer"* undef, metadata !699, metadata !DIExpression()) #10, !dbg !2166
  br i1 %282, label %292, label %293, !dbg !2168

292:                                              ; preds = %285
  call void @halide_error(i8* %0, i8* getelementptr inbounds ([35 x i8], [35 x i8]* @.str.147, i32 0, i32 0)) #8, !dbg !2169
  br label %300, !dbg !2170

293:                                              ; preds = %285
  call void @llvm.dbg.value(metadata %"class.Halide::Runtime::Internal::(anonymous namespace)::Printer"* undef, metadata !713, metadata !DIExpression()) #10, !dbg !2171
  %294 = ptrtoint i8* %291 to i32, !dbg !2173
  %295 = ptrtoint i8* %281 to i32, !dbg !2173
  %296 = add i32 %294, 1, !dbg !2173
  %297 = sub i32 %296, %295, !dbg !2174
  %298 = sext i32 %297 to i64, !dbg !2175
  %299 = call i32 @halide_msan_annotate_memory_is_initialized(i8* %0, i8* nonnull %281, i64 %298) #8, !dbg !2176
  call void @halide_print(i8* %0, i8* nonnull %281) #8, !dbg !2177
  br label %300

300:                                              ; preds = %293, %292
  call void @free(i8* %281) #8, !dbg !2178
  %301 = call i64 @halide_current_time_ns(i8* %0) #8, !dbg !2179
  call void @llvm.dbg.value(metadata i64 %301, metadata !1742, metadata !DIExpression()), !dbg !1743
  call void @llvm.dbg.value(metadata %"class.Halide::Runtime::Internal::(anonymous namespace)::Printer"* undef, metadata !673, metadata !DIExpression()) #10, !dbg !2180
  call void @llvm.dbg.value(metadata i8* %0, metadata !676, metadata !DIExpression()) #10, !dbg !2180
  call void @llvm.dbg.value(metadata i8* null, metadata !677, metadata !DIExpression()) #10, !dbg !2180
  %302 = call i8* @malloc(i32 1024) #8, !dbg !2182
  %303 = icmp eq i8* %302, null, !dbg !2183
  br i1 %303, label %306, label %304, !dbg !2184

304:                                              ; preds = %300
  %305 = getelementptr inbounds i8, i8* %302, i32 1023, !dbg !2185
  store i8 0, i8* %305, align 1, !dbg !2186, !tbaa !712
  br label %306, !dbg !2187

306:                                              ; preds = %300, %304
  %307 = phi i8* [ %305, %304 ], [ null, %300 ], !dbg !2188
  call void @llvm.dbg.value(metadata %"class.Halide::Runtime::Internal::(anonymous namespace)::Printer"* undef, metadata !690, metadata !DIExpression()) #10, !dbg !2189
  call void @llvm.dbg.value(metadata i8* getelementptr inbounds ([11 x i8], [11 x i8]* @.str.62, i32 0, i32 0), metadata !693, metadata !DIExpression()) #10, !dbg !2189
  %308 = call i8* @halide_string_to_string(i8* %302, i8* %307, i8* nonnull getelementptr inbounds ([11 x i8], [11 x i8]* @.str.62, i32 0, i32 0)) #8, !dbg !2191
  %309 = sub i64 %301, %5, !dbg !2192
  %310 = uitofp i64 %309 to double, !dbg !2193
  %311 = fdiv double %310, 1.000000e+06, !dbg !2194
  call void @llvm.dbg.value(metadata %"class.Halide::Runtime::Internal::(anonymous namespace)::Printer"* undef, metadata !1697, metadata !DIExpression()) #10, !dbg !2195
  call void @llvm.dbg.value(metadata double %311, metadata !1700, metadata !DIExpression()) #10, !dbg !2195
  %312 = call i8* @halide_double_to_string(i8* %308, i8* %307, double %311, i32 1) #8, !dbg !2197
  call void @llvm.dbg.value(metadata %"class.Halide::Runtime::Internal::(anonymous namespace)::Printer"* undef, metadata !690, metadata !DIExpression()) #10, !dbg !2198
  call void @llvm.dbg.value(metadata i8* getelementptr inbounds ([16 x i8], [16 x i8]* @.str.81, i32 0, i32 0), metadata !693, metadata !DIExpression()) #10, !dbg !2198
  %313 = call i8* @halide_string_to_string(i8* %312, i8* %307, i8* nonnull getelementptr inbounds ([16 x i8], [16 x i8]* @.str.81, i32 0, i32 0)) #8, !dbg !2200
  call void @llvm.dbg.value(metadata %"class.Halide::Runtime::Internal::(anonymous namespace)::Printer"* undef, metadata !699, metadata !DIExpression()) #10, !dbg !2201
  br i1 %303, label %314, label %315, !dbg !2203

314:                                              ; preds = %306
  call void @halide_error(i8* %0, i8* getelementptr inbounds ([35 x i8], [35 x i8]* @.str.147, i32 0, i32 0)) #8, !dbg !2204
  br label %322, !dbg !2205

315:                                              ; preds = %306
  call void @llvm.dbg.value(metadata %"class.Halide::Runtime::Internal::(anonymous namespace)::Printer"* undef, metadata !713, metadata !DIExpression()) #10, !dbg !2206
  %316 = ptrtoint i8* %313 to i32, !dbg !2208
  %317 = ptrtoint i8* %302 to i32, !dbg !2208
  %318 = add i32 %316, 1, !dbg !2208
  %319 = sub i32 %318, %317, !dbg !2209
  %320 = sext i32 %319 to i64, !dbg !2210
  %321 = call i32 @halide_msan_annotate_memory_is_initialized(i8* %0, i8* nonnull %302, i64 %320) #8, !dbg !2211
  call void @halide_print(i8* %0, i8* nonnull %302) #8, !dbg !2212
  br label %322

322:                                              ; preds = %315, %314
  call void @free(i8* %302) #8, !dbg !2213
  br label %323

323:                                              ; preds = %271, %255, %251, %322
  %324 = phi i32 [ 0, %322 ], [ 1, %251 ], [ 1, %255 ], [ 1, %271 ], !dbg !1743
  call void @llvm.lifetime.end.p0i8(i64 4, i8* nonnull %252) #10, !dbg !2214
  br label %325

325:                                              ; preds = %109, %323, %221, %26
  %326 = phi i32 [ %27, %26 ], [ 0, %109 ], [ %324, %323 ], [ %222, %221 ], !dbg !1743
  ret i32 %326, !dbg !2214
}

declare !dbg !2215 extern_weak dso_local void @halide_print(i8*, i8*) local_unnamed_addr #3

declare !dbg !2218 dso_local void @abort() local_unnamed_addr #3

; Function Attrs: nounwind
define weak dso_local i32 @_ZN6Halide7Runtime8Internal13OpenGLCompute32halide_openglcompute_device_freeEPvP15halide_buffer_t(i8* %0, %struct.halide_buffer_t* %1) #4 !dbg !2219 {
  %3 = alloca i32, align 4
  call void @llvm.dbg.value(metadata i8* %0, metadata !2221, metadata !DIExpression()), !dbg !2226
  call void @llvm.dbg.value(metadata %struct.halide_buffer_t* %1, metadata !2222, metadata !DIExpression()), !dbg !2226
  %4 = tail call i64 @halide_current_time_ns(i8* %0) #8, !dbg !2227
  call void @llvm.dbg.value(metadata i64 %4, metadata !2223, metadata !DIExpression()), !dbg !2226
  %5 = load i8, i8* getelementptr inbounds (%"struct.Halide::Runtime::Internal::OpenGLCompute::GlobalState", %"struct.Halide::Runtime::Internal::OpenGLCompute::GlobalState"* @_ZN6Halide7Runtime8Internal13OpenGLCompute12global_stateE, i32 0, i32 0), align 4, !dbg !2228, !tbaa !1386, !range !1375
  %6 = icmp eq i8 %5, 0, !dbg !2228
  br i1 %6, label %7, label %22, !dbg !2230

7:                                                ; preds = %2
  call void @llvm.dbg.value(metadata %"class.Halide::Runtime::Internal::(anonymous namespace)::Printer.0"* undef, metadata !1009, metadata !DIExpression()) #10, !dbg !2231
  call void @llvm.dbg.value(metadata i8* %0, metadata !1012, metadata !DIExpression()) #10, !dbg !2231
  call void @llvm.dbg.value(metadata i8* null, metadata !1013, metadata !DIExpression()) #10, !dbg !2231
  %8 = tail call i8* @malloc(i32 1024) #8, !dbg !2234
  %9 = icmp eq i8* %8, null, !dbg !2235
  br i1 %9, label %10, label %12, !dbg !2236

10:                                               ; preds = %7
  call void @llvm.dbg.value(metadata %"class.Halide::Runtime::Internal::(anonymous namespace)::Printer.0"* undef, metadata !1031, metadata !DIExpression()) #10, !dbg !2237
  call void @llvm.dbg.value(metadata i8* getelementptr inbounds ([76 x i8], [76 x i8]* @.str.82, i32 0, i32 0), metadata !1034, metadata !DIExpression()) #10, !dbg !2237
  %11 = tail call i8* @halide_string_to_string(i8* %8, i8* null, i8* nonnull getelementptr inbounds ([76 x i8], [76 x i8]* @.str.82, i32 0, i32 0)) #8, !dbg !2239
  call void @llvm.dbg.value(metadata %"class.Halide::Runtime::Internal::(anonymous namespace)::Printer.0"* undef, metadata !1078, metadata !DIExpression()) #10, !dbg !2240
  tail call void @halide_error(i8* %0, i8* getelementptr inbounds ([35 x i8], [35 x i8]* @.str.147, i32 0, i32 0)) #8, !dbg !2242
  br label %21, !dbg !2243

12:                                               ; preds = %7
  %13 = getelementptr inbounds i8, i8* %8, i32 1023, !dbg !2244
  store i8 0, i8* %13, align 1, !dbg !2245, !tbaa !712
  call void @llvm.dbg.value(metadata %"class.Halide::Runtime::Internal::(anonymous namespace)::Printer.0"* undef, metadata !1031, metadata !DIExpression()) #10, !dbg !2237
  call void @llvm.dbg.value(metadata i8* getelementptr inbounds ([76 x i8], [76 x i8]* @.str.82, i32 0, i32 0), metadata !1034, metadata !DIExpression()) #10, !dbg !2237
  %14 = tail call i8* @halide_string_to_string(i8* nonnull %8, i8* nonnull %13, i8* nonnull getelementptr inbounds ([76 x i8], [76 x i8]* @.str.82, i32 0, i32 0)) #8, !dbg !2239
  call void @llvm.dbg.value(metadata %"class.Halide::Runtime::Internal::(anonymous namespace)::Printer.0"* undef, metadata !1078, metadata !DIExpression()) #10, !dbg !2240
  call void @llvm.dbg.value(metadata %"class.Halide::Runtime::Internal::(anonymous namespace)::Printer.0"* undef, metadata !1089, metadata !DIExpression()) #10, !dbg !2246
  %15 = ptrtoint i8* %14 to i32, !dbg !2248
  %16 = ptrtoint i8* %8 to i32, !dbg !2248
  %17 = add i32 %15, 1, !dbg !2248
  %18 = sub i32 %17, %16, !dbg !2249
  %19 = sext i32 %18 to i64, !dbg !2250
  %20 = tail call i32 @halide_msan_annotate_memory_is_initialized(i8* %0, i8* nonnull %8, i64 %19) #8, !dbg !2251
  tail call void @halide_error(i8* %0, i8* nonnull %8) #8, !dbg !2252
  br label %21

21:                                               ; preds = %12, %10
  tail call void @free(i8* %8) #8, !dbg !2253
  br label %80, !dbg !2254

22:                                               ; preds = %2
  %23 = getelementptr inbounds %struct.halide_buffer_t, %struct.halide_buffer_t* %1, i32 0, i32 0, !dbg !2255
  %24 = load i64, i64* %23, align 8, !dbg !2255, !tbaa !777
  %25 = icmp eq i64 %24, 0, !dbg !2257
  br i1 %25, label %80, label %26, !dbg !2258

26:                                               ; preds = %22
  %27 = bitcast i32* %3 to i8*, !dbg !2259
  call void @llvm.lifetime.start.p0i8(i64 4, i8* nonnull %27) #10, !dbg !2259
  %28 = trunc i64 %24 to i32, !dbg !2260
  call void @llvm.dbg.value(metadata i32 %28, metadata !2224, metadata !DIExpression()), !dbg !2226
  store i32 %28, i32* %3, align 4, !dbg !2261, !tbaa !2111
  call void @llvm.dbg.value(metadata %"class.Halide::Runtime::Internal::(anonymous namespace)::Printer"* undef, metadata !673, metadata !DIExpression()) #10, !dbg !2262
  call void @llvm.dbg.value(metadata i8* %0, metadata !676, metadata !DIExpression()) #10, !dbg !2262
  call void @llvm.dbg.value(metadata i8* null, metadata !677, metadata !DIExpression()) #10, !dbg !2262
  %29 = tail call i8* @malloc(i32 1024) #8, !dbg !2264
  %30 = icmp eq i8* %29, null, !dbg !2265
  br i1 %30, label %33, label %31, !dbg !2266

31:                                               ; preds = %26
  %32 = getelementptr inbounds i8, i8* %29, i32 1023, !dbg !2267
  store i8 0, i8* %32, align 1, !dbg !2268, !tbaa !712
  br label %33, !dbg !2269

33:                                               ; preds = %26, %31
  %34 = phi i8* [ %32, %31 ], [ null, %26 ], !dbg !2270
  call void @llvm.dbg.value(metadata %"class.Halide::Runtime::Internal::(anonymous namespace)::Printer"* undef, metadata !690, metadata !DIExpression()) #10, !dbg !2271
  call void @llvm.dbg.value(metadata i8* getelementptr inbounds ([41 x i8], [41 x i8]* @.str.83, i32 0, i32 0), metadata !693, metadata !DIExpression()) #10, !dbg !2271
  %35 = tail call i8* @halide_string_to_string(i8* %29, i8* %34, i8* nonnull getelementptr inbounds ([41 x i8], [41 x i8]* @.str.83, i32 0, i32 0)) #8, !dbg !2273
  call void @llvm.dbg.value(metadata %"class.Halide::Runtime::Internal::(anonymous namespace)::Printer"* undef, metadata !690, metadata !DIExpression()) #10, !dbg !2274
  call void @llvm.dbg.value(metadata i8* getelementptr inbounds ([15 x i8], [15 x i8]* @.str.84, i32 0, i32 0), metadata !693, metadata !DIExpression()) #10, !dbg !2274
  %36 = tail call i8* @halide_string_to_string(i8* %35, i8* %34, i8* nonnull getelementptr inbounds ([15 x i8], [15 x i8]* @.str.84, i32 0, i32 0)) #8, !dbg !2276
  call void @llvm.dbg.value(metadata %"class.Halide::Runtime::Internal::(anonymous namespace)::Printer"* undef, metadata !1169, metadata !DIExpression()) #10, !dbg !2277
  call void @llvm.dbg.value(metadata i8* %0, metadata !1172, metadata !DIExpression()) #10, !dbg !2277
  %37 = tail call i8* @halide_pointer_to_string(i8* %36, i8* %34, i8* %0) #8, !dbg !2279
  call void @llvm.dbg.value(metadata %"class.Halide::Runtime::Internal::(anonymous namespace)::Printer"* undef, metadata !690, metadata !DIExpression()) #10, !dbg !2280
  call void @llvm.dbg.value(metadata i8* getelementptr inbounds ([14 x i8], [14 x i8]* @.str.85, i32 0, i32 0), metadata !693, metadata !DIExpression()) #10, !dbg !2280
  %38 = tail call i8* @halide_string_to_string(i8* %37, i8* %34, i8* nonnull getelementptr inbounds ([14 x i8], [14 x i8]* @.str.85, i32 0, i32 0)) #8, !dbg !2282
  call void @llvm.dbg.value(metadata i32 %28, metadata !2224, metadata !DIExpression()), !dbg !2226
  call void @llvm.dbg.value(metadata %"class.Halide::Runtime::Internal::(anonymous namespace)::Printer"* undef, metadata !1154, metadata !DIExpression()) #10, !dbg !2283
  call void @llvm.dbg.value(metadata i32 %28, metadata !1157, metadata !DIExpression()) #10, !dbg !2283
  %39 = and i64 %24, 4294967295, !dbg !2285
  %40 = tail call i8* @halide_uint64_to_string(i8* %38, i8* %34, i64 %39, i32 1) #8, !dbg !2286
  call void @llvm.dbg.value(metadata %"class.Halide::Runtime::Internal::(anonymous namespace)::Printer"* undef, metadata !690, metadata !DIExpression()) #10, !dbg !2287
  call void @llvm.dbg.value(metadata i8* getelementptr inbounds ([3 x i8], [3 x i8]* @.str.61, i32 0, i32 0), metadata !693, metadata !DIExpression()) #10, !dbg !2287
  %41 = tail call i8* @halide_string_to_string(i8* %40, i8* %34, i8* nonnull getelementptr inbounds ([3 x i8], [3 x i8]* @.str.61, i32 0, i32 0)) #8, !dbg !2289
  call void @llvm.dbg.value(metadata %"class.Halide::Runtime::Internal::(anonymous namespace)::Printer"* undef, metadata !699, metadata !DIExpression()) #10, !dbg !2290
  br i1 %30, label %42, label %43, !dbg !2292

42:                                               ; preds = %33
  tail call void @halide_error(i8* %0, i8* getelementptr inbounds ([35 x i8], [35 x i8]* @.str.147, i32 0, i32 0)) #8, !dbg !2293
  br label %50, !dbg !2294

43:                                               ; preds = %33
  call void @llvm.dbg.value(metadata %"class.Halide::Runtime::Internal::(anonymous namespace)::Printer"* undef, metadata !713, metadata !DIExpression()) #10, !dbg !2295
  %44 = ptrtoint i8* %41 to i32, !dbg !2297
  %45 = ptrtoint i8* %29 to i32, !dbg !2297
  %46 = add i32 %44, 1, !dbg !2297
  %47 = sub i32 %46, %45, !dbg !2298
  %48 = sext i32 %47 to i64, !dbg !2299
  %49 = tail call i32 @halide_msan_annotate_memory_is_initialized(i8* %0, i8* nonnull %29, i64 %48) #8, !dbg !2300
  tail call void @halide_print(i8* %0, i8* nonnull %29) #8, !dbg !2301
  br label %50

50:                                               ; preds = %42, %43
  call void @free(i8* %29) #8, !dbg !2302
  %51 = load void (i32, i32*)*, void (i32, i32*)** getelementptr inbounds (%"struct.Halide::Runtime::Internal::OpenGLCompute::GlobalState", %"struct.Halide::Runtime::Internal::OpenGLCompute::GlobalState"* @_ZN6Halide7Runtime8Internal13OpenGLCompute12global_stateE, i32 0, i32 8), align 4, !dbg !2303, !tbaa !1395
  call void @llvm.dbg.value(metadata i32* %3, metadata !2224, metadata !DIExpression(DW_OP_deref)), !dbg !2226
  call void %51(i32 1, i32* nonnull %3) #8, !dbg !2304
  store i64 0, i64* %23, align 8, !dbg !2305, !tbaa !777
  %52 = getelementptr inbounds %struct.halide_buffer_t, %struct.halide_buffer_t* %1, i32 0, i32 1, !dbg !2306
  %53 = load %struct.halide_device_interface_t*, %struct.halide_device_interface_t** %52, align 8, !dbg !2306, !tbaa !2138
  %54 = getelementptr inbounds %struct.halide_device_interface_t, %struct.halide_device_interface_t* %53, i32 0, i32 15, !dbg !2307
  %55 = load %struct.halide_device_interface_impl_t*, %struct.halide_device_interface_impl_t** %54, align 4, !dbg !2307, !tbaa !2140
  %56 = getelementptr inbounds %struct.halide_device_interface_impl_t, %struct.halide_device_interface_impl_t* %55, i32 0, i32 1, !dbg !2308
  %57 = load void ()*, void ()** %56, align 4, !dbg !2308, !tbaa !2309
  call void %57() #8, !dbg !2310
  store %struct.halide_device_interface_t* null, %struct.halide_device_interface_t** %52, align 8, !dbg !2311, !tbaa !2138
  %58 = call i64 @halide_current_time_ns(i8* %0) #8, !dbg !2312
  call void @llvm.dbg.value(metadata i64 %58, metadata !2225, metadata !DIExpression()), !dbg !2226
  call void @llvm.dbg.value(metadata %"class.Halide::Runtime::Internal::(anonymous namespace)::Printer"* undef, metadata !673, metadata !DIExpression()) #10, !dbg !2313
  call void @llvm.dbg.value(metadata i8* %0, metadata !676, metadata !DIExpression()) #10, !dbg !2313
  call void @llvm.dbg.value(metadata i8* null, metadata !677, metadata !DIExpression()) #10, !dbg !2313
  %59 = call i8* @malloc(i32 1024) #8, !dbg !2315
  %60 = icmp eq i8* %59, null, !dbg !2316
  br i1 %60, label %63, label %61, !dbg !2317

61:                                               ; preds = %50
  %62 = getelementptr inbounds i8, i8* %59, i32 1023, !dbg !2318
  store i8 0, i8* %62, align 1, !dbg !2319, !tbaa !712
  br label %63, !dbg !2320

63:                                               ; preds = %50, %61
  %64 = phi i8* [ %62, %61 ], [ null, %50 ], !dbg !2321
  call void @llvm.dbg.value(metadata %"class.Halide::Runtime::Internal::(anonymous namespace)::Printer"* undef, metadata !690, metadata !DIExpression()) #10, !dbg !2322
  call void @llvm.dbg.value(metadata i8* getelementptr inbounds ([11 x i8], [11 x i8]* @.str.62, i32 0, i32 0), metadata !693, metadata !DIExpression()) #10, !dbg !2322
  %65 = call i8* @halide_string_to_string(i8* %59, i8* %64, i8* nonnull getelementptr inbounds ([11 x i8], [11 x i8]* @.str.62, i32 0, i32 0)) #8, !dbg !2324
  %66 = sub i64 %58, %4, !dbg !2325
  %67 = uitofp i64 %66 to double, !dbg !2326
  %68 = fdiv double %67, 1.000000e+06, !dbg !2327
  call void @llvm.dbg.value(metadata %"class.Halide::Runtime::Internal::(anonymous namespace)::Printer"* undef, metadata !1697, metadata !DIExpression()) #10, !dbg !2328
  call void @llvm.dbg.value(metadata double %68, metadata !1700, metadata !DIExpression()) #10, !dbg !2328
  %69 = call i8* @halide_double_to_string(i8* %65, i8* %64, double %68, i32 1) #8, !dbg !2330
  call void @llvm.dbg.value(metadata %"class.Halide::Runtime::Internal::(anonymous namespace)::Printer"* undef, metadata !690, metadata !DIExpression()) #10, !dbg !2331
  call void @llvm.dbg.value(metadata i8* getelementptr inbounds ([14 x i8], [14 x i8]* @.str.86, i32 0, i32 0), metadata !693, metadata !DIExpression()) #10, !dbg !2331
  %70 = call i8* @halide_string_to_string(i8* %69, i8* %64, i8* nonnull getelementptr inbounds ([14 x i8], [14 x i8]* @.str.86, i32 0, i32 0)) #8, !dbg !2333
  call void @llvm.dbg.value(metadata %"class.Halide::Runtime::Internal::(anonymous namespace)::Printer"* undef, metadata !699, metadata !DIExpression()) #10, !dbg !2334
  br i1 %60, label %71, label %72, !dbg !2336

71:                                               ; preds = %63
  call void @halide_error(i8* %0, i8* getelementptr inbounds ([35 x i8], [35 x i8]* @.str.147, i32 0, i32 0)) #8, !dbg !2337
  br label %79, !dbg !2338

72:                                               ; preds = %63
  call void @llvm.dbg.value(metadata %"class.Halide::Runtime::Internal::(anonymous namespace)::Printer"* undef, metadata !713, metadata !DIExpression()) #10, !dbg !2339
  %73 = ptrtoint i8* %70 to i32, !dbg !2341
  %74 = ptrtoint i8* %59 to i32, !dbg !2341
  %75 = add i32 %73, 1, !dbg !2341
  %76 = sub i32 %75, %74, !dbg !2342
  %77 = sext i32 %76 to i64, !dbg !2343
  %78 = call i32 @halide_msan_annotate_memory_is_initialized(i8* %0, i8* nonnull %59, i64 %77) #8, !dbg !2344
  call void @halide_print(i8* %0, i8* nonnull %59) #8, !dbg !2345
  br label %79

79:                                               ; preds = %72, %71
  call void @free(i8* %59) #8, !dbg !2346
  call void @llvm.lifetime.end.p0i8(i64 4, i8* nonnull %27) #10, !dbg !2347
  br label %80

80:                                               ; preds = %22, %79, %21
  %81 = phi i32 [ 0, %79 ], [ 1, %21 ], [ 0, %22 ], !dbg !2226
  ret i32 %81, !dbg !2347
}

; Function Attrs: nounwind
define weak dso_local i32 @_ZN6Halide7Runtime8Internal13OpenGLCompute35halide_openglcompute_copy_to_deviceEPvP15halide_buffer_t(i8* %0, %struct.halide_buffer_t* %1) #4 !dbg !2348 {
  %3 = alloca %struct.halide_buffer_t, align 8
  %4 = alloca %"struct.Halide::Runtime::Internal::device_copy", align 8
  %5 = alloca %"class.Halide::Runtime::Internal::(anonymous namespace)::Printer", align 4
  call void @llvm.dbg.value(metadata i8* %0, metadata !2350, metadata !DIExpression()), !dbg !2359
  call void @llvm.dbg.value(metadata %struct.halide_buffer_t* %1, metadata !2351, metadata !DIExpression()), !dbg !2359
  %6 = tail call i64 @halide_current_time_ns(i8* %0) #8, !dbg !2360
  call void @llvm.dbg.value(metadata i64 %6, metadata !2352, metadata !DIExpression()), !dbg !2359
  %7 = load i8, i8* getelementptr inbounds (%"struct.Halide::Runtime::Internal::OpenGLCompute::GlobalState", %"struct.Halide::Runtime::Internal::OpenGLCompute::GlobalState"* @_ZN6Halide7Runtime8Internal13OpenGLCompute12global_stateE, i32 0, i32 0), align 4, !dbg !2361, !tbaa !1386, !range !1375
  %8 = icmp eq i8 %7, 0, !dbg !2361
  br i1 %8, label %9, label %24, !dbg !2363

9:                                                ; preds = %2
  call void @llvm.dbg.value(metadata %"class.Halide::Runtime::Internal::(anonymous namespace)::Printer.0"* undef, metadata !1009, metadata !DIExpression()) #10, !dbg !2364
  call void @llvm.dbg.value(metadata i8* %0, metadata !1012, metadata !DIExpression()) #10, !dbg !2364
  call void @llvm.dbg.value(metadata i8* null, metadata !1013, metadata !DIExpression()) #10, !dbg !2364
  %10 = tail call i8* @malloc(i32 1024) #8, !dbg !2367
  %11 = icmp eq i8* %10, null, !dbg !2368
  br i1 %11, label %12, label %14, !dbg !2369

12:                                               ; preds = %9
  call void @llvm.dbg.value(metadata %"class.Halide::Runtime::Internal::(anonymous namespace)::Printer.0"* undef, metadata !1031, metadata !DIExpression()) #10, !dbg !2370
  call void @llvm.dbg.value(metadata i8* getelementptr inbounds ([70 x i8], [70 x i8]* @.str.87, i32 0, i32 0), metadata !1034, metadata !DIExpression()) #10, !dbg !2370
  %13 = tail call i8* @halide_string_to_string(i8* %10, i8* null, i8* nonnull getelementptr inbounds ([70 x i8], [70 x i8]* @.str.87, i32 0, i32 0)) #8, !dbg !2372
  call void @llvm.dbg.value(metadata %"class.Halide::Runtime::Internal::(anonymous namespace)::Printer.0"* undef, metadata !1078, metadata !DIExpression()) #10, !dbg !2373
  tail call void @halide_error(i8* %0, i8* getelementptr inbounds ([35 x i8], [35 x i8]* @.str.147, i32 0, i32 0)) #8, !dbg !2375
  br label %23, !dbg !2376

14:                                               ; preds = %9
  %15 = getelementptr inbounds i8, i8* %10, i32 1023, !dbg !2377
  store i8 0, i8* %15, align 1, !dbg !2378, !tbaa !712
  call void @llvm.dbg.value(metadata %"class.Halide::Runtime::Internal::(anonymous namespace)::Printer.0"* undef, metadata !1031, metadata !DIExpression()) #10, !dbg !2370
  call void @llvm.dbg.value(metadata i8* getelementptr inbounds ([70 x i8], [70 x i8]* @.str.87, i32 0, i32 0), metadata !1034, metadata !DIExpression()) #10, !dbg !2370
  %16 = tail call i8* @halide_string_to_string(i8* nonnull %10, i8* nonnull %15, i8* nonnull getelementptr inbounds ([70 x i8], [70 x i8]* @.str.87, i32 0, i32 0)) #8, !dbg !2372
  call void @llvm.dbg.value(metadata %"class.Halide::Runtime::Internal::(anonymous namespace)::Printer.0"* undef, metadata !1078, metadata !DIExpression()) #10, !dbg !2373
  call void @llvm.dbg.value(metadata %"class.Halide::Runtime::Internal::(anonymous namespace)::Printer.0"* undef, metadata !1089, metadata !DIExpression()) #10, !dbg !2379
  %17 = ptrtoint i8* %16 to i32, !dbg !2381
  %18 = ptrtoint i8* %10 to i32, !dbg !2381
  %19 = add i32 %17, 1, !dbg !2381
  %20 = sub i32 %19, %18, !dbg !2382
  %21 = sext i32 %20 to i64, !dbg !2383
  %22 = tail call i32 @halide_msan_annotate_memory_is_initialized(i8* %0, i8* nonnull %10, i64 %21) #8, !dbg !2384
  tail call void @halide_error(i8* %0, i8* nonnull %10) #8, !dbg !2385
  br label %23

23:                                               ; preds = %14, %12
  tail call void @free(i8* %10) #8, !dbg !2386
  br label %247, !dbg !2387

24:                                               ; preds = %2
  %25 = getelementptr inbounds %struct.halide_buffer_t, %struct.halide_buffer_t* %1, i32 0, i32 0, !dbg !2388
  %26 = load i64, i64* %25, align 8, !dbg !2388, !tbaa !777
  %27 = trunc i64 %26 to i32, !dbg !2389
  call void @llvm.dbg.value(metadata i32 %27, metadata !2353, metadata !DIExpression()), !dbg !2359
  call void @llvm.dbg.value(metadata %"class.Halide::Runtime::Internal::(anonymous namespace)::Printer"* undef, metadata !673, metadata !DIExpression()) #10, !dbg !2390
  call void @llvm.dbg.value(metadata i8* %0, metadata !676, metadata !DIExpression()) #10, !dbg !2390
  call void @llvm.dbg.value(metadata i8* null, metadata !677, metadata !DIExpression()) #10, !dbg !2390
  %28 = tail call i8* @malloc(i32 1024) #8, !dbg !2392
  %29 = icmp eq i8* %28, null, !dbg !2393
  br i1 %29, label %32, label %30, !dbg !2394

30:                                               ; preds = %24
  %31 = getelementptr inbounds i8, i8* %28, i32 1023, !dbg !2395
  store i8 0, i8* %31, align 1, !dbg !2396, !tbaa !712
  br label %32, !dbg !2397

32:                                               ; preds = %24, %30
  %33 = phi i8* [ %31, %30 ], [ null, %24 ], !dbg !2398
  call void @llvm.dbg.value(metadata %"class.Halide::Runtime::Internal::(anonymous namespace)::Printer"* undef, metadata !690, metadata !DIExpression()) #10, !dbg !2399
  call void @llvm.dbg.value(metadata i8* getelementptr inbounds ([44 x i8], [44 x i8]* @.str.88, i32 0, i32 0), metadata !693, metadata !DIExpression()) #10, !dbg !2399
  %34 = tail call i8* @halide_string_to_string(i8* %28, i8* %33, i8* nonnull getelementptr inbounds ([44 x i8], [44 x i8]* @.str.88, i32 0, i32 0)) #8, !dbg !2401
  call void @llvm.dbg.value(metadata %"class.Halide::Runtime::Internal::(anonymous namespace)::Printer"* undef, metadata !690, metadata !DIExpression()) #10, !dbg !2402
  call void @llvm.dbg.value(metadata i8* getelementptr inbounds ([15 x i8], [15 x i8]* @.str.84, i32 0, i32 0), metadata !693, metadata !DIExpression()) #10, !dbg !2402
  %35 = tail call i8* @halide_string_to_string(i8* %34, i8* %33, i8* nonnull getelementptr inbounds ([15 x i8], [15 x i8]* @.str.84, i32 0, i32 0)) #8, !dbg !2404
  call void @llvm.dbg.value(metadata %"class.Halide::Runtime::Internal::(anonymous namespace)::Printer"* undef, metadata !1169, metadata !DIExpression()) #10, !dbg !2405
  call void @llvm.dbg.value(metadata i8* %0, metadata !1172, metadata !DIExpression()) #10, !dbg !2405
  %36 = tail call i8* @halide_pointer_to_string(i8* %35, i8* %33, i8* %0) #8, !dbg !2407
  call void @llvm.dbg.value(metadata %"class.Halide::Runtime::Internal::(anonymous namespace)::Printer"* undef, metadata !690, metadata !DIExpression()) #10, !dbg !2408
  call void @llvm.dbg.value(metadata i8* getelementptr inbounds ([8 x i8], [8 x i8]* @.str.65, i32 0, i32 0), metadata !693, metadata !DIExpression()) #10, !dbg !2408
  %37 = tail call i8* @halide_string_to_string(i8* %36, i8* %33, i8* nonnull getelementptr inbounds ([8 x i8], [8 x i8]* @.str.65, i32 0, i32 0)) #8, !dbg !2410
  %38 = bitcast %struct.halide_buffer_t* %1 to i8*, !dbg !2411
  call void @llvm.dbg.value(metadata %"class.Halide::Runtime::Internal::(anonymous namespace)::Printer"* undef, metadata !1169, metadata !DIExpression()) #10, !dbg !2412
  call void @llvm.dbg.value(metadata i8* %38, metadata !1172, metadata !DIExpression()) #10, !dbg !2412
  %39 = tail call i8* @halide_pointer_to_string(i8* %37, i8* %33, i8* %38) #8, !dbg !2414
  call void @llvm.dbg.value(metadata %"class.Halide::Runtime::Internal::(anonymous namespace)::Printer"* undef, metadata !690, metadata !DIExpression()) #10, !dbg !2415
  call void @llvm.dbg.value(metadata i8* getelementptr inbounds ([14 x i8], [14 x i8]* @.str.85, i32 0, i32 0), metadata !693, metadata !DIExpression()) #10, !dbg !2415
  %40 = tail call i8* @halide_string_to_string(i8* %39, i8* %33, i8* nonnull getelementptr inbounds ([14 x i8], [14 x i8]* @.str.85, i32 0, i32 0)) #8, !dbg !2417
  call void @llvm.dbg.value(metadata %"class.Halide::Runtime::Internal::(anonymous namespace)::Printer"* undef, metadata !1154, metadata !DIExpression()) #10, !dbg !2418
  call void @llvm.dbg.value(metadata i32 %27, metadata !1157, metadata !DIExpression()) #10, !dbg !2418
  %41 = and i64 %26, 4294967295, !dbg !2420
  %42 = tail call i8* @halide_uint64_to_string(i8* %40, i8* %33, i64 %41, i32 1) #8, !dbg !2421
  call void @llvm.dbg.value(metadata %"class.Halide::Runtime::Internal::(anonymous namespace)::Printer"* undef, metadata !690, metadata !DIExpression()) #10, !dbg !2422
  call void @llvm.dbg.value(metadata i8* getelementptr inbounds ([3 x i8], [3 x i8]* @.str.61, i32 0, i32 0), metadata !693, metadata !DIExpression()) #10, !dbg !2422
  %43 = tail call i8* @halide_string_to_string(i8* %42, i8* %33, i8* nonnull getelementptr inbounds ([3 x i8], [3 x i8]* @.str.61, i32 0, i32 0)) #8, !dbg !2424
  call void @llvm.dbg.value(metadata %"class.Halide::Runtime::Internal::(anonymous namespace)::Printer"* undef, metadata !699, metadata !DIExpression()) #10, !dbg !2425
  br i1 %29, label %44, label %45, !dbg !2427

44:                                               ; preds = %32
